TI ARM Assembler PC v5.2.5 Tue Oct 20 19:15:40 2015

Tools Copyright (c) 1996-2015 Texas Instruments Incorporated
ds1820.asm                                                           PAGE    1

       1                    ;******************************************************************************
       2                    ;* TI ARM C/C++ Codegen                                             PC v5.2.5 *
       3                    ;* Date/Time created: Tue Oct 20 19:15:40 2015                                *
       4                    ;******************************************************************************
       5                            .compiler_opts --abi=eabi --arm_vmrs_si_workaround=off --code_state=16 --diag_wrap=off --disab
       6 00000000                   .thumb
       7                    
       8                    $C$DW$CU        .dwtag  DW_TAG_compile_unit
       9                            .dwattr $C$DW$CU, DW_AT_name("../ds1820.c")
      10                            .dwattr $C$DW$CU, DW_AT_producer("TI TI ARM C/C++ Codegen PC v5.2.5 Copyright (c) 1996-2015 Te
      11                            .dwattr $C$DW$CU, DW_AT_TI_version(0x01)
      12                            .dwattr $C$DW$CU, DW_AT_comp_dir("E:\Dev\Ti\Code\GIT\LaunchpadRoomControl\LaunchpadRoomControl
      13                    
      14                    $C$DW$1 .dwtag  DW_TAG_subprogram, DW_AT_name("GPIOPinRead")
      15                            .dwattr $C$DW$1, DW_AT_TI_symbol_name("GPIOPinRead")
      16                            .dwattr $C$DW$1, DW_AT_type(*$C$DW$T$48)
      17                            .dwattr $C$DW$1, DW_AT_declaration
      18                            .dwattr $C$DW$1, DW_AT_external
      19                            .dwattr $C$DW$1, DW_AT_decl_file("E:/Dev/Ti/TivaWare/driverlib/gpio.h")
      20                            .dwattr $C$DW$1, DW_AT_decl_line(0x9d)
      21                            .dwattr $C$DW$1, DW_AT_decl_column(0x10)
      22                    $C$DW$2 .dwtag  DW_TAG_formal_parameter
      23                            .dwattr $C$DW$2, DW_AT_type(*$C$DW$T$20)
      24                    $C$DW$3 .dwtag  DW_TAG_formal_parameter
      25                            .dwattr $C$DW$3, DW_AT_type(*$C$DW$T$21)
      26                            .dwendtag $C$DW$1
      27                    
      28                    
      29                    $C$DW$4 .dwtag  DW_TAG_subprogram, DW_AT_name("GPIOPinWrite")
      30                            .dwattr $C$DW$4, DW_AT_TI_symbol_name("GPIOPinWrite")
      31                            .dwattr $C$DW$4, DW_AT_declaration
      32                            .dwattr $C$DW$4, DW_AT_external
      33                            .dwattr $C$DW$4, DW_AT_decl_file("E:/Dev/Ti/TivaWare/driverlib/gpio.h")
      34                            .dwattr $C$DW$4, DW_AT_decl_line(0x9e)
      35                            .dwattr $C$DW$4, DW_AT_decl_column(0x0d)
      36                    $C$DW$5 .dwtag  DW_TAG_formal_parameter
      37                            .dwattr $C$DW$5, DW_AT_type(*$C$DW$T$20)
      38                    $C$DW$6 .dwtag  DW_TAG_formal_parameter
      39                            .dwattr $C$DW$6, DW_AT_type(*$C$DW$T$21)
      40                    $C$DW$7 .dwtag  DW_TAG_formal_parameter
      41                            .dwattr $C$DW$7, DW_AT_type(*$C$DW$T$21)
      42                            .dwendtag $C$DW$4
      43                    
      44                    
      45                    $C$DW$8 .dwtag  DW_TAG_subprogram, DW_AT_name("GPIOPinTypeGPIOInput")
      46                            .dwattr $C$DW$8, DW_AT_TI_symbol_name("GPIOPinTypeGPIOInput")
      47                            .dwattr $C$DW$8, DW_AT_declaration
      48                            .dwattr $C$DW$8, DW_AT_external
      49                            .dwattr $C$DW$8, DW_AT_decl_file("E:/Dev/Ti/TivaWare/driverlib/gpio.h")
      50                            .dwattr $C$DW$8, DW_AT_decl_line(0xa7)
      51                            .dwattr $C$DW$8, DW_AT_decl_column(0x0d)
      52                    $C$DW$9 .dwtag  DW_TAG_formal_parameter
      53                            .dwattr $C$DW$9, DW_AT_type(*$C$DW$T$20)
      54                    $C$DW$10        .dwtag  DW_TAG_formal_parameter
      55                            .dwattr $C$DW$10, DW_AT_type(*$C$DW$T$21)
TI ARM Assembler PC v5.2.5 Tue Oct 20 19:15:40 2015

Tools Copyright (c) 1996-2015 Texas Instruments Incorporated
ds1820.asm                                                           PAGE    2

      56                            .dwendtag $C$DW$8
      57                    
      58                    
      59                    $C$DW$11        .dwtag  DW_TAG_subprogram, DW_AT_name("GPIOPinTypeGPIOOutput")
      60                            .dwattr $C$DW$11, DW_AT_TI_symbol_name("GPIOPinTypeGPIOOutput")
      61                            .dwattr $C$DW$11, DW_AT_declaration
      62                            .dwattr $C$DW$11, DW_AT_external
      63                            .dwattr $C$DW$11, DW_AT_decl_file("E:/Dev/Ti/TivaWare/driverlib/gpio.h")
      64                            .dwattr $C$DW$11, DW_AT_decl_line(0xa8)
      65                            .dwattr $C$DW$11, DW_AT_decl_column(0x0d)
      66                    $C$DW$12        .dwtag  DW_TAG_formal_parameter
      67                            .dwattr $C$DW$12, DW_AT_type(*$C$DW$T$20)
      68                    $C$DW$13        .dwtag  DW_TAG_formal_parameter
      69                            .dwattr $C$DW$13, DW_AT_type(*$C$DW$T$21)
      70                            .dwendtag $C$DW$11
      71                    
      72                    
      73                    $C$DW$14        .dwtag  DW_TAG_subprogram, DW_AT_name("SysCtlPeripheralEnable")
      74                            .dwattr $C$DW$14, DW_AT_TI_symbol_name("SysCtlPeripheralEnable")
      75                            .dwattr $C$DW$14, DW_AT_declaration
      76                            .dwattr $C$DW$14, DW_AT_external
      77                            .dwattr $C$DW$14, DW_AT_decl_file("E:/Dev/Ti/TivaWare/driverlib/sysctl.h")
      78                            .dwattr $C$DW$14, DW_AT_decl_line(0x24e)
      79                            .dwattr $C$DW$14, DW_AT_decl_column(0x0d)
      80                    $C$DW$15        .dwtag  DW_TAG_formal_parameter
      81                            .dwattr $C$DW$15, DW_AT_type(*$C$DW$T$20)
      82                            .dwendtag $C$DW$14
      83                    
      84                    
      85                    $C$DW$16        .dwtag  DW_TAG_subprogram, DW_AT_name("delay_us")
      86                            .dwattr $C$DW$16, DW_AT_TI_symbol_name("delay_us")
      87                            .dwattr $C$DW$16, DW_AT_declaration
      88                            .dwattr $C$DW$16, DW_AT_external
      89                            .dwattr $C$DW$16, DW_AT_decl_file("..\timers.h")
      90                            .dwattr $C$DW$16, DW_AT_decl_line(0x0b)
      91                            .dwattr $C$DW$16, DW_AT_decl_column(0x06)
      92                    $C$DW$17        .dwtag  DW_TAG_formal_parameter
      93                            .dwattr $C$DW$17, DW_AT_type(*$C$DW$T$20)
      94                            .dwendtag $C$DW$16
      95                    
      96                            .global temp_ds1820
      97                            .common temp_ds1820,2,2
      98                    $C$DW$18        .dwtag  DW_TAG_variable, DW_AT_name("temp_ds1820")
      99                            .dwattr $C$DW$18, DW_AT_TI_symbol_name("temp_ds1820")
     100                            .dwattr $C$DW$18, DW_AT_location[DW_OP_addr temp_ds1820]
     101                            .dwattr $C$DW$18, DW_AT_type(*$C$DW$T$43)
     102                            .dwattr $C$DW$18, DW_AT_external
     103                            .dwattr $C$DW$18, DW_AT_decl_file("../ds1820.c")
     104                            .dwattr $C$DW$18, DW_AT_decl_line(0x23)
     105                            .dwattr $C$DW$18, DW_AT_decl_column(0x0a)
     106                            .global ds1820_data_bit
     107                            .common ds1820_data_bit,1,1
     108                    $C$DW$19        .dwtag  DW_TAG_variable, DW_AT_name("ds1820_data_bit")
     109                            .dwattr $C$DW$19, DW_AT_TI_symbol_name("ds1820_data_bit")
     110                            .dwattr $C$DW$19, DW_AT_location[DW_OP_addr ds1820_data_bit]
TI ARM Assembler PC v5.2.5 Tue Oct 20 19:15:40 2015

Tools Copyright (c) 1996-2015 Texas Instruments Incorporated
ds1820.asm                                                           PAGE    3

     111                            .dwattr $C$DW$19, DW_AT_type(*$C$DW$T$21)
     112                            .dwattr $C$DW$19, DW_AT_external
     113                            .dwattr $C$DW$19, DW_AT_decl_file("../ds1820.c")
     114                            .dwattr $C$DW$19, DW_AT_decl_line(0x24)
     115                            .dwattr $C$DW$19, DW_AT_decl_column(0x09)
     116                    ;       C:\ti\ccsv6\tools\compiler\ti-cgt-arm_5.2.5\bin\armacpia.exe -@C:\\Users\\DCOSAS~1.SAG\\AppDat
     117 00000000                   .sect   ".text:set_mode_input"
     118                            .clink
     119                            .thumbfunc set_mode_input
     120 00000000                   .thumb
     121                            .global set_mode_input
     122                    
     123                    $C$DW$20        .dwtag  DW_TAG_subprogram, DW_AT_name("set_mode_input")
     124                            .dwattr $C$DW$20, DW_AT_low_pc(set_mode_input)
     125                            .dwattr $C$DW$20, DW_AT_high_pc(0x00)
     126                            .dwattr $C$DW$20, DW_AT_TI_symbol_name("set_mode_input")
     127                            .dwattr $C$DW$20, DW_AT_external
     128                            .dwattr $C$DW$20, DW_AT_TI_begin_file("../ds1820.c")
     129                            .dwattr $C$DW$20, DW_AT_TI_begin_line(0x26)
     130                            .dwattr $C$DW$20, DW_AT_TI_begin_column(0x06)
     131                            .dwattr $C$DW$20, DW_AT_decl_file("../ds1820.c")
     132                            .dwattr $C$DW$20, DW_AT_decl_line(0x26)
     133                            .dwattr $C$DW$20, DW_AT_decl_column(0x06)
     134                            .dwattr $C$DW$20, DW_AT_TI_max_frame_size(0x08)
     135                            .dwpsn  file "../ds1820.c",line 39,column 1,is_stmt,address set_mode_input,isa 1
     136                    
     137                            .dwfde $C$DW$CIE, set_mode_input
     138                    $C$DW$21        .dwtag  DW_TAG_formal_parameter, DW_AT_name("sensor_id")
     139                            .dwattr $C$DW$21, DW_AT_TI_symbol_name("sensor_id")
     140                            .dwattr $C$DW$21, DW_AT_type(*$C$DW$T$21)
     141                            .dwattr $C$DW$21, DW_AT_location[DW_OP_reg0]
     142                    ;----------------------------------------------------------------------
     143                    ;  38 | void set_mode_input(uint8_t sensor_id)                                 
     144                    ;----------------------------------------------------------------------
     145                    
     146                    ;*****************************************************************************
     147                    ;* FUNCTION NAME: set_mode_input                                             *
     148                    ;*                                                                           *
     149                    ;*   Regs Modified     : A1,A2,A3,A4,V9,SP,LR,SR,D0,D0_hi,D1,D1_hi,D2,D2_hi, *
     150                    ;*                           D3,D3_hi,D4,D4_hi,D5,D5_hi,D6,D6_hi,D7,D7_hi,   *
     151                    ;*                           FPEXC,FPSCR                                     *
     152                    ;*   Regs Used         : A1,A2,A3,A4,V9,SP,LR,SR,D0,D0_hi,D1,D1_hi,D2,D2_hi, *
     153                    ;*                           D3,D3_hi,D4,D4_hi,D5,D5_hi,D6,D6_hi,D7,D7_hi,   *
     154                    ;*                           FPEXC,FPSCR                                     *
     155                    ;*   Local Frame Size  : 0 Args + 4 Auto + 4 Save = 8 byte                   *
     156                    ;*****************************************************************************
     157 00000000           set_mode_input:
     158                    ;* --------------------------------------------------------------------------*
     159                            .dwcfi  cfa_offset, 0
     160 00000000 B508              PUSH      {A4, LR}              ; [DPU_3_PIPE]  ; [ORIG 16-BIT INS]
     161                            .dwcfi  cfa_offset, 8
     162                            .dwcfi  save_reg_to_mem, 14, -4
     163                            .dwcfi  save_reg_to_mem, 3, -8
     164                    $C$DW$22        .dwtag  DW_TAG_variable, DW_AT_name("sensor_id")
     165                            .dwattr $C$DW$22, DW_AT_TI_symbol_name("sensor_id")
TI ARM Assembler PC v5.2.5 Tue Oct 20 19:15:40 2015

Tools Copyright (c) 1996-2015 Texas Instruments Incorporated
ds1820.asm                                                           PAGE    4

     166                            .dwattr $C$DW$22, DW_AT_type(*$C$DW$T$21)
     167                            .dwattr $C$DW$22, DW_AT_location[DW_OP_breg13 0]
     168 00000002 0000F88D          STRB      A1, [SP, #0]          ; [DPU_3_PIPE] |39|  ; [KEEP 32-BIT INS]
     169                            .dwpsn  file "../ds1820.c",line 40,column 2,is_stmt,isa 1
     170                    ;----------------------------------------------------------------------
     171                    ;  40 | GPIOPinTypeGPIOInput(DS1820_DATA_PORT_BASE, ds1820_data_bit);          
     172                    ;----------------------------------------------------------------------
     173 00000006 4803              LDR       A1, $C$CON1           ; [DPU_3_PIPE] |40|  ; [ORIG 16-BIT INS]
     174 00000008 7801              LDRB      A2, [A1, #0]          ; [DPU_3_PIPE] |40|  ; [ORIG 16-BIT INS]
     175 0000000a 4803              LDR       A1, $C$CON2           ; [DPU_3_PIPE] |40|  ; [ORIG 16-BIT INS]
     176                    $C$DW$23        .dwtag  DW_TAG_TI_branch
     177                            .dwattr $C$DW$23, DW_AT_low_pc(0x00)
     178                            .dwattr $C$DW$23, DW_AT_name("GPIOPinTypeGPIOInput")
     179                            .dwattr $C$DW$23, DW_AT_TI_call
     180 0000000c FFFEF7FF!         BL        GPIOPinTypeGPIOInput  ; [DPU_3_PIPE] |40|  ; [KEEP 32-BIT INS]
     181                            ; CALL OCCURS {GPIOPinTypeGPIOInput }  ; [] |40| 
     182                            .dwpsn  file "../ds1820.c",line 41,column 1,is_stmt,isa 1
     183                    $C$DW$24        .dwtag  DW_TAG_TI_branch
     184                            .dwattr $C$DW$24, DW_AT_low_pc(0x00)
     185                            .dwattr $C$DW$24, DW_AT_TI_return
     186 00000010 BD08              POP       {A4, PC}              ; [DPU_3_PIPE]  ; [ORIG 16-BIT INS]
     187                            .dwcfi  cfa_offset, 0
     188                            ; BRANCH OCCURS                  ; [] 
     189                            .dwattr $C$DW$20, DW_AT_TI_end_file("../ds1820.c")
     190                            .dwattr $C$DW$20, DW_AT_TI_end_line(0x29)
     191                            .dwattr $C$DW$20, DW_AT_TI_end_column(0x01)
     192                            .dwendentry
     193                            .dwendtag $C$DW$20
     194                    
     195 00000000                   .sect   ".text:set_mode_output"
     196                            .clink
     197                            .thumbfunc set_mode_output
     198 00000000                   .thumb
     199                            .global set_mode_output
     200                    
     201                    $C$DW$25        .dwtag  DW_TAG_subprogram, DW_AT_name("set_mode_output")
     202                            .dwattr $C$DW$25, DW_AT_low_pc(set_mode_output)
     203                            .dwattr $C$DW$25, DW_AT_high_pc(0x00)
     204                            .dwattr $C$DW$25, DW_AT_TI_symbol_name("set_mode_output")
     205                            .dwattr $C$DW$25, DW_AT_external
     206                            .dwattr $C$DW$25, DW_AT_TI_begin_file("../ds1820.c")
     207                            .dwattr $C$DW$25, DW_AT_TI_begin_line(0x2b)
     208                            .dwattr $C$DW$25, DW_AT_TI_begin_column(0x06)
     209                            .dwattr $C$DW$25, DW_AT_decl_file("../ds1820.c")
     210                            .dwattr $C$DW$25, DW_AT_decl_line(0x2b)
     211                            .dwattr $C$DW$25, DW_AT_decl_column(0x06)
     212                            .dwattr $C$DW$25, DW_AT_TI_max_frame_size(0x08)
     213                            .dwpsn  file "../ds1820.c",line 44,column 1,is_stmt,address set_mode_output,isa 1
     214                    
     215                            .dwfde $C$DW$CIE, set_mode_output
     216                    $C$DW$26        .dwtag  DW_TAG_formal_parameter, DW_AT_name("sensor_id")
     217                            .dwattr $C$DW$26, DW_AT_TI_symbol_name("sensor_id")
     218                            .dwattr $C$DW$26, DW_AT_type(*$C$DW$T$21)
     219                            .dwattr $C$DW$26, DW_AT_location[DW_OP_reg0]
     220                    ;----------------------------------------------------------------------
TI ARM Assembler PC v5.2.5 Tue Oct 20 19:15:40 2015

Tools Copyright (c) 1996-2015 Texas Instruments Incorporated
ds1820.asm                                                           PAGE    5

     221                    ;  43 | void set_mode_output(uint8_t sensor_id)                                
     222                    ;----------------------------------------------------------------------
     223                    
     224                    ;*****************************************************************************
     225                    ;* FUNCTION NAME: set_mode_output                                            *
     226                    ;*                                                                           *
     227                    ;*   Regs Modified     : A1,A2,A3,A4,V9,SP,LR,SR,D0,D0_hi,D1,D1_hi,D2,D2_hi, *
     228                    ;*                           D3,D3_hi,D4,D4_hi,D5,D5_hi,D6,D6_hi,D7,D7_hi,   *
     229                    ;*                           FPEXC,FPSCR                                     *
     230                    ;*   Regs Used         : A1,A2,A3,A4,V9,SP,LR,SR,D0,D0_hi,D1,D1_hi,D2,D2_hi, *
     231                    ;*                           D3,D3_hi,D4,D4_hi,D5,D5_hi,D6,D6_hi,D7,D7_hi,   *
     232                    ;*                           FPEXC,FPSCR                                     *
     233                    ;*   Local Frame Size  : 0 Args + 4 Auto + 4 Save = 8 byte                   *
     234                    ;*****************************************************************************
     235 00000000           set_mode_output:
     236                    ;* --------------------------------------------------------------------------*
     237                            .dwcfi  cfa_offset, 0
     238 00000000 B508              PUSH      {A4, LR}              ; [DPU_3_PIPE]  ; [ORIG 16-BIT INS]
     239                            .dwcfi  cfa_offset, 8
     240                            .dwcfi  save_reg_to_mem, 14, -4
     241                            .dwcfi  save_reg_to_mem, 3, -8
     242                    $C$DW$27        .dwtag  DW_TAG_variable, DW_AT_name("sensor_id")
     243                            .dwattr $C$DW$27, DW_AT_TI_symbol_name("sensor_id")
     244                            .dwattr $C$DW$27, DW_AT_type(*$C$DW$T$21)
     245                            .dwattr $C$DW$27, DW_AT_location[DW_OP_breg13 0]
     246 00000002 0000F88D          STRB      A1, [SP, #0]          ; [DPU_3_PIPE] |44|  ; [KEEP 32-BIT INS]
     247                            .dwpsn  file "../ds1820.c",line 45,column 2,is_stmt,isa 1
     248                    ;----------------------------------------------------------------------
     249                    ;  45 | GPIOPinTypeGPIOOutput(DS1820_DATA_PORT_BASE, ds1820_data_bit);         
     250                    ;----------------------------------------------------------------------
     251 00000006 4803              LDR       A1, $C$CON3           ; [DPU_3_PIPE] |45|  ; [ORIG 16-BIT INS]
     252 00000008 7801              LDRB      A2, [A1, #0]          ; [DPU_3_PIPE] |45|  ; [ORIG 16-BIT INS]
     253 0000000a 4803              LDR       A1, $C$CON4           ; [DPU_3_PIPE] |45|  ; [ORIG 16-BIT INS]
     254                    $C$DW$28        .dwtag  DW_TAG_TI_branch
     255                            .dwattr $C$DW$28, DW_AT_low_pc(0x00)
     256                            .dwattr $C$DW$28, DW_AT_name("GPIOPinTypeGPIOOutput")
     257                            .dwattr $C$DW$28, DW_AT_TI_call
     258 0000000c FFFEF7FF!         BL        GPIOPinTypeGPIOOutput ; [DPU_3_PIPE] |45|  ; [KEEP 32-BIT INS]
     259                            ; CALL OCCURS {GPIOPinTypeGPIOOutput }  ; [] |45| 
     260                            .dwpsn  file "../ds1820.c",line 46,column 1,is_stmt,isa 1
     261                    $C$DW$29        .dwtag  DW_TAG_TI_branch
     262                            .dwattr $C$DW$29, DW_AT_low_pc(0x00)
     263                            .dwattr $C$DW$29, DW_AT_TI_return
     264 00000010 BD08              POP       {A4, PC}              ; [DPU_3_PIPE]  ; [ORIG 16-BIT INS]
     265                            .dwcfi  cfa_offset, 0
     266                            ; BRANCH OCCURS                  ; [] 
     267                            .dwattr $C$DW$25, DW_AT_TI_end_file("../ds1820.c")
     268                            .dwattr $C$DW$25, DW_AT_TI_end_line(0x2e)
     269                            .dwattr $C$DW$25, DW_AT_TI_end_column(0x01)
     270                            .dwendentry
     271                            .dwendtag $C$DW$25
     272                    
     273 00000000                   .sect   ".text:set_line"
     274                            .clink
     275                            .thumbfunc set_line
TI ARM Assembler PC v5.2.5 Tue Oct 20 19:15:40 2015

Tools Copyright (c) 1996-2015 Texas Instruments Incorporated
ds1820.asm                                                           PAGE    6

     276 00000000                   .thumb
     277                            .global set_line
     278                    
     279                    $C$DW$30        .dwtag  DW_TAG_subprogram, DW_AT_name("set_line")
     280                            .dwattr $C$DW$30, DW_AT_low_pc(set_line)
     281                            .dwattr $C$DW$30, DW_AT_high_pc(0x00)
     282                            .dwattr $C$DW$30, DW_AT_TI_symbol_name("set_line")
     283                            .dwattr $C$DW$30, DW_AT_external
     284                            .dwattr $C$DW$30, DW_AT_TI_begin_file("../ds1820.c")
     285                            .dwattr $C$DW$30, DW_AT_TI_begin_line(0x30)
     286                            .dwattr $C$DW$30, DW_AT_TI_begin_column(0x06)
     287                            .dwattr $C$DW$30, DW_AT_decl_file("../ds1820.c")
     288                            .dwattr $C$DW$30, DW_AT_decl_line(0x30)
     289                            .dwattr $C$DW$30, DW_AT_decl_column(0x06)
     290                            .dwattr $C$DW$30, DW_AT_TI_max_frame_size(0x08)
     291                            .dwpsn  file "../ds1820.c",line 49,column 1,is_stmt,address set_line,isa 1
     292                    
     293                            .dwfde $C$DW$CIE, set_line
     294                    $C$DW$31        .dwtag  DW_TAG_formal_parameter, DW_AT_name("sensor_id")
     295                            .dwattr $C$DW$31, DW_AT_TI_symbol_name("sensor_id")
     296                            .dwattr $C$DW$31, DW_AT_type(*$C$DW$T$21)
     297                            .dwattr $C$DW$31, DW_AT_location[DW_OP_reg0]
     298                    $C$DW$32        .dwtag  DW_TAG_formal_parameter, DW_AT_name("state")
     299                            .dwattr $C$DW$32, DW_AT_TI_symbol_name("state")
     300                            .dwattr $C$DW$32, DW_AT_type(*$C$DW$T$21)
     301                            .dwattr $C$DW$32, DW_AT_location[DW_OP_reg1]
     302                    ;----------------------------------------------------------------------
     303                    ;  48 | void set_line(uint8_t sensor_id, uint8_t state)                        
     304                    ;----------------------------------------------------------------------
     305                    
     306                    ;*****************************************************************************
     307                    ;* FUNCTION NAME: set_line                                                   *
     308                    ;*                                                                           *
     309                    ;*   Regs Modified     : A1,A2,A3,A4,V9,SP,LR,SR,D0,D0_hi,D1,D1_hi,D2,D2_hi, *
     310                    ;*                           D3,D3_hi,D4,D4_hi,D5,D5_hi,D6,D6_hi,D7,D7_hi,   *
     311                    ;*                           FPEXC,FPSCR                                     *
     312                    ;*   Regs Used         : A1,A2,A3,A4,V9,SP,LR,SR,D0,D0_hi,D1,D1_hi,D2,D2_hi, *
     313                    ;*                           D3,D3_hi,D4,D4_hi,D5,D5_hi,D6,D6_hi,D7,D7_hi,   *
     314                    ;*                           FPEXC,FPSCR                                     *
     315                    ;*   Local Frame Size  : 0 Args + 4 Auto + 4 Save = 8 byte                   *
     316                    ;*****************************************************************************
     317 00000000           set_line:
     318                    ;* --------------------------------------------------------------------------*
     319                            .dwcfi  cfa_offset, 0
     320 00000000 B508              PUSH      {A4, LR}              ; [DPU_3_PIPE]  ; [ORIG 16-BIT INS]
     321                            .dwcfi  cfa_offset, 8
     322                            .dwcfi  save_reg_to_mem, 14, -4
     323                            .dwcfi  save_reg_to_mem, 3, -8
     324                    $C$DW$33        .dwtag  DW_TAG_variable, DW_AT_name("sensor_id")
     325                            .dwattr $C$DW$33, DW_AT_TI_symbol_name("sensor_id")
     326                            .dwattr $C$DW$33, DW_AT_type(*$C$DW$T$21)
     327                            .dwattr $C$DW$33, DW_AT_location[DW_OP_breg13 0]
     328                    $C$DW$34        .dwtag  DW_TAG_variable, DW_AT_name("state")
     329                            .dwattr $C$DW$34, DW_AT_TI_symbol_name("state")
     330                            .dwattr $C$DW$34, DW_AT_type(*$C$DW$T$21)
TI ARM Assembler PC v5.2.5 Tue Oct 20 19:15:40 2015

Tools Copyright (c) 1996-2015 Texas Instruments Incorporated
ds1820.asm                                                           PAGE    7

     331                            .dwattr $C$DW$34, DW_AT_location[DW_OP_breg13 1]
     332 00000002 1001F88D          STRB      A2, [SP, #1]          ; [DPU_3_PIPE] |49|  ; [KEEP 32-BIT INS]
     333 00000006 0000F88D          STRB      A1, [SP, #0]          ; [DPU_3_PIPE] |49|  ; [KEEP 32-BIT INS]
     334                            .dwpsn  file "../ds1820.c",line 50,column 2,is_stmt,isa 1
     335                    ;----------------------------------------------------------------------
     336                    ;  50 | if(state)                                                              
     337                    ;----------------------------------------------------------------------
     338 0000000a 0001F89D          LDRB      A1, [SP, #1]          ; [DPU_3_PIPE] |50|  ; [KEEP 32-BIT INS]
     339 0000000e B138              CBZ       A1, ||$C$L1||         ; []  ; [ORIG 16-BIT INS]
     340                            ; BRANCHCC OCCURS {||$C$L1||}    ; [] |50| 
     341                    ;* --------------------------------------------------------------------------*
     342                            .dwpsn  file "../ds1820.c",line 51,column 3,is_stmt,isa 1
     343                    ;----------------------------------------------------------------------
     344                    ;  51 | GPIOPinWrite(DS1820_DATA_PORT_BASE, ds1820_data_bit, ds1820_data_bit); 
     345                    ;  52 | else                                                                   
     346                    ;----------------------------------------------------------------------
     347 00000010 4807              LDR       A1, $C$CON5           ; [DPU_3_PIPE] |51|  ; [ORIG 16-BIT INS]
     348 00000012 4907              LDR       A2, $C$CON5           ; [DPU_3_PIPE] |51|  ; [ORIG 16-BIT INS]
     349 00000014 7802              LDRB      A3, [A1, #0]          ; [DPU_3_PIPE] |51|  ; [ORIG 16-BIT INS]
     350 00000016 7809              LDRB      A2, [A2, #0]          ; [DPU_3_PIPE] |51|  ; [ORIG 16-BIT INS]
     351 00000018 4806              LDR       A1, $C$CON6           ; [DPU_3_PIPE] |51|  ; [ORIG 16-BIT INS]
     352                    $C$DW$35        .dwtag  DW_TAG_TI_branch
     353                            .dwattr $C$DW$35, DW_AT_low_pc(0x00)
     354                            .dwattr $C$DW$35, DW_AT_name("GPIOPinWrite")
     355                            .dwattr $C$DW$35, DW_AT_TI_call
     356 0000001a FFFEF7FF!         BL        GPIOPinWrite          ; [DPU_3_PIPE] |51|  ; [KEEP 32-BIT INS]
     357                            ; CALL OCCURS {GPIOPinWrite }    ; [] |51| 
     358 0000001e E005              B         ||$C$L2||             ; [DPU_3_PIPE] |51|  ; [ORIG 16-BIT INS]
     359                            ; BRANCH OCCURS {||$C$L2||}      ; [] |51| 
     360                    ;* --------------------------------------------------------------------------*
     361 00000020           ||$C$L1||:    
     362                            .dwpsn  file "../ds1820.c",line 53,column 3,is_stmt,isa 1
     363                    ;----------------------------------------------------------------------
     364                    ;  53 | GPIOPinWrite(DS1820_DATA_PORT_BASE, ds1820_data_bit, 0);               
     365                    ;----------------------------------------------------------------------
     366 00000020 4803              LDR       A1, $C$CON5           ; [DPU_3_PIPE] |53|  ; [ORIG 16-BIT INS]
     367 00000022 7801              LDRB      A2, [A1, #0]          ; [DPU_3_PIPE] |53|  ; [ORIG 16-BIT INS]
     368 00000024 4803              LDR       A1, $C$CON6           ; [DPU_3_PIPE] |53|  ; [ORIG 16-BIT INS]
     369 00000026 2200              MOVS      A3, #0                ; [DPU_3_PIPE] |53|  ; [ORIG 16-BIT INS]
     370                    $C$DW$36        .dwtag  DW_TAG_TI_branch
     371                            .dwattr $C$DW$36, DW_AT_low_pc(0x00)
     372                            .dwattr $C$DW$36, DW_AT_name("GPIOPinWrite")
     373                            .dwattr $C$DW$36, DW_AT_TI_call
     374 00000028 FFFEF7FF!         BL        GPIOPinWrite          ; [DPU_3_PIPE] |53|  ; [KEEP 32-BIT INS]
     375                            ; CALL OCCURS {GPIOPinWrite }    ; [] |53| 
     376                            .dwpsn  file "../ds1820.c",line 54,column 1,is_stmt,isa 1
     377                    ;* --------------------------------------------------------------------------*
     378                    ||$C$L2||:    
     379                    $C$DW$37        .dwtag  DW_TAG_TI_branch
     380                            .dwattr $C$DW$37, DW_AT_low_pc(0x00)
     381                            .dwattr $C$DW$37, DW_AT_TI_return
     382 0000002c BD08              POP       {A4, PC}              ; [DPU_3_PIPE]  ; [ORIG 16-BIT INS]
     383                            .dwcfi  cfa_offset, 0
     384                            ; BRANCH OCCURS                  ; [] 
     385                            .dwattr $C$DW$30, DW_AT_TI_end_file("../ds1820.c")
TI ARM Assembler PC v5.2.5 Tue Oct 20 19:15:40 2015

Tools Copyright (c) 1996-2015 Texas Instruments Incorporated
ds1820.asm                                                           PAGE    8

     386                            .dwattr $C$DW$30, DW_AT_TI_end_line(0x36)
     387                            .dwattr $C$DW$30, DW_AT_TI_end_column(0x01)
     388                            .dwendentry
     389                            .dwendtag $C$DW$30
     390                    
     391 00000000                   .sect   ".text:get_line"
     392                            .clink
     393                            .thumbfunc get_line
     394 00000000                   .thumb
     395                            .global get_line
     396                    
     397                    $C$DW$38        .dwtag  DW_TAG_subprogram, DW_AT_name("get_line")
     398                            .dwattr $C$DW$38, DW_AT_low_pc(get_line)
     399                            .dwattr $C$DW$38, DW_AT_high_pc(0x00)
     400                            .dwattr $C$DW$38, DW_AT_TI_symbol_name("get_line")
     401                            .dwattr $C$DW$38, DW_AT_external
     402                            .dwattr $C$DW$38, DW_AT_type(*$C$DW$T$21)
     403                            .dwattr $C$DW$38, DW_AT_TI_begin_file("../ds1820.c")
     404                            .dwattr $C$DW$38, DW_AT_TI_begin_line(0x38)
     405                            .dwattr $C$DW$38, DW_AT_TI_begin_column(0x09)
     406                            .dwattr $C$DW$38, DW_AT_decl_file("../ds1820.c")
     407                            .dwattr $C$DW$38, DW_AT_decl_line(0x38)
     408                            .dwattr $C$DW$38, DW_AT_decl_column(0x09)
     409                            .dwattr $C$DW$38, DW_AT_TI_max_frame_size(0x08)
     410                            .dwpsn  file "../ds1820.c",line 57,column 1,is_stmt,address get_line,isa 1
     411                    
     412                            .dwfde $C$DW$CIE, get_line
     413                    $C$DW$39        .dwtag  DW_TAG_formal_parameter, DW_AT_name("sensor_id")
     414                            .dwattr $C$DW$39, DW_AT_TI_symbol_name("sensor_id")
     415                            .dwattr $C$DW$39, DW_AT_type(*$C$DW$T$21)
     416                            .dwattr $C$DW$39, DW_AT_location[DW_OP_reg0]
     417                    ;----------------------------------------------------------------------
     418                    ;  56 | uint8_t get_line(uint8_t sensor_id)                                    
     419                    ;----------------------------------------------------------------------
     420                    
     421                    ;*****************************************************************************
     422                    ;* FUNCTION NAME: get_line                                                   *
     423                    ;*                                                                           *
     424                    ;*   Regs Modified     : A1,A2,A3,A4,V9,SP,LR,SR,D0,D0_hi,D1,D1_hi,D2,D2_hi, *
     425                    ;*                           D3,D3_hi,D4,D4_hi,D5,D5_hi,D6,D6_hi,D7,D7_hi,   *
     426                    ;*                           FPEXC,FPSCR                                     *
     427                    ;*   Regs Used         : A1,A2,A3,A4,V9,SP,LR,SR,D0,D0_hi,D1,D1_hi,D2,D2_hi, *
     428                    ;*                           D3,D3_hi,D4,D4_hi,D5,D5_hi,D6,D6_hi,D7,D7_hi,   *
     429                    ;*                           FPEXC,FPSCR                                     *
     430                    ;*   Local Frame Size  : 0 Args + 4 Auto + 4 Save = 8 byte                   *
     431                    ;*****************************************************************************
     432 00000000           get_line:
     433                    ;* --------------------------------------------------------------------------*
     434                            .dwcfi  cfa_offset, 0
     435 00000000 B508              PUSH      {A4, LR}              ; [DPU_3_PIPE]  ; [ORIG 16-BIT INS]
     436                            .dwcfi  cfa_offset, 8
     437                            .dwcfi  save_reg_to_mem, 14, -4
     438                            .dwcfi  save_reg_to_mem, 3, -8
     439                    $C$DW$40        .dwtag  DW_TAG_variable, DW_AT_name("sensor_id")
     440                            .dwattr $C$DW$40, DW_AT_TI_symbol_name("sensor_id")
TI ARM Assembler PC v5.2.5 Tue Oct 20 19:15:40 2015

Tools Copyright (c) 1996-2015 Texas Instruments Incorporated
ds1820.asm                                                           PAGE    9

     441                            .dwattr $C$DW$40, DW_AT_type(*$C$DW$T$21)
     442                            .dwattr $C$DW$40, DW_AT_location[DW_OP_breg13 0]
     443 00000002 0000F88D          STRB      A1, [SP, #0]          ; [DPU_3_PIPE] |57|  ; [KEEP 32-BIT INS]
     444                            .dwpsn  file "../ds1820.c",line 58,column 2,is_stmt,isa 1
     445                    ;----------------------------------------------------------------------
     446                    ;  58 | return GPIOPinRead(DS1820_DATA_PORT_BASE,ds1820_data_bit);             
     447                    ;----------------------------------------------------------------------
     448 00000006 4803              LDR       A1, $C$CON7           ; [DPU_3_PIPE] |58|  ; [ORIG 16-BIT INS]
     449 00000008 7801              LDRB      A2, [A1, #0]          ; [DPU_3_PIPE] |58|  ; [ORIG 16-BIT INS]
     450 0000000a 4803              LDR       A1, $C$CON8           ; [DPU_3_PIPE] |58|  ; [ORIG 16-BIT INS]
     451                    $C$DW$41        .dwtag  DW_TAG_TI_branch
     452                            .dwattr $C$DW$41, DW_AT_low_pc(0x00)
     453                            .dwattr $C$DW$41, DW_AT_name("GPIOPinRead")
     454                            .dwattr $C$DW$41, DW_AT_TI_call
     455 0000000c FFFEF7FF!         BL        GPIOPinRead           ; [DPU_3_PIPE] |58|  ; [KEEP 32-BIT INS]
     456                            ; CALL OCCURS {GPIOPinRead }     ; [] |58| 
     457 00000010 B2C0              UXTB      A1, A1                ; [DPU_3_PIPE] |58|  ; [ORIG 16-BIT INS]
     458                            .dwpsn  file "../ds1820.c",line 59,column 1,is_stmt,isa 1
     459                    $C$DW$42        .dwtag  DW_TAG_TI_branch
     460                            .dwattr $C$DW$42, DW_AT_low_pc(0x00)
     461                            .dwattr $C$DW$42, DW_AT_TI_return
     462 00000012 BD08              POP       {A4, PC}              ; [DPU_3_PIPE]  ; [ORIG 16-BIT INS]
     463                            .dwcfi  cfa_offset, 0
     464                            ; BRANCH OCCURS                  ; [] 
     465                            .dwattr $C$DW$38, DW_AT_TI_end_file("../ds1820.c")
     466                            .dwattr $C$DW$38, DW_AT_TI_end_line(0x3b)
     467                            .dwattr $C$DW$38, DW_AT_TI_end_column(0x01)
     468                            .dwendentry
     469                            .dwendtag $C$DW$38
     470                    
     471 00000000                   .sect   ".text:init_ds1820"
     472                            .clink
     473                            .thumbfunc init_ds1820
     474 00000000                   .thumb
     475                            .global init_ds1820
     476                    
     477                    $C$DW$43        .dwtag  DW_TAG_subprogram, DW_AT_name("init_ds1820")
     478                            .dwattr $C$DW$43, DW_AT_low_pc(init_ds1820)
     479                            .dwattr $C$DW$43, DW_AT_high_pc(0x00)
     480                            .dwattr $C$DW$43, DW_AT_TI_symbol_name("init_ds1820")
     481                            .dwattr $C$DW$43, DW_AT_external
     482                            .dwattr $C$DW$43, DW_AT_TI_begin_file("../ds1820.c")
     483                            .dwattr $C$DW$43, DW_AT_TI_begin_line(0x3d)
     484                            .dwattr $C$DW$43, DW_AT_TI_begin_column(0x06)
     485                            .dwattr $C$DW$43, DW_AT_decl_file("../ds1820.c")
     486                            .dwattr $C$DW$43, DW_AT_decl_line(0x3d)
     487                            .dwattr $C$DW$43, DW_AT_decl_column(0x06)
     488                            .dwattr $C$DW$43, DW_AT_TI_max_frame_size(0x08)
     489                            .dwpsn  file "../ds1820.c",line 62,column 1,is_stmt,address init_ds1820,isa 1
     490                    
     491                            .dwfde $C$DW$CIE, init_ds1820
     492                    ;----------------------------------------------------------------------
     493                    ;  61 | void init_ds1820()                                                     
     494                    ;----------------------------------------------------------------------
     495                    
TI ARM Assembler PC v5.2.5 Tue Oct 20 19:15:40 2015

Tools Copyright (c) 1996-2015 Texas Instruments Incorporated
ds1820.asm                                                           PAGE   10

     496                    ;*****************************************************************************
     497                    ;* FUNCTION NAME: init_ds1820                                                *
     498                    ;*                                                                           *
     499                    ;*   Regs Modified     : A1,A2,A3,A4,V9,SP,LR,SR,D0,D0_hi,D1,D1_hi,D2,D2_hi, *
     500                    ;*                           D3,D3_hi,D4,D4_hi,D5,D5_hi,D6,D6_hi,D7,D7_hi,   *
     501                    ;*                           FPEXC,FPSCR                                     *
     502                    ;*   Regs Used         : A1,A2,A3,A4,V9,SP,LR,SR,D0,D0_hi,D1,D1_hi,D2,D2_hi, *
     503                    ;*                           D3,D3_hi,D4,D4_hi,D5,D5_hi,D6,D6_hi,D7,D7_hi,   *
     504                    ;*                           FPEXC,FPSCR                                     *
     505                    ;*   Local Frame Size  : 0 Args + 0 Auto + 4 Save = 4 byte                   *
     506                    ;*****************************************************************************
     507 00000000           init_ds1820:
     508                    ;* --------------------------------------------------------------------------*
     509                            .dwcfi  cfa_offset, 0
     510 00000000 B508              PUSH      {A4, LR}              ; [DPU_3_PIPE]  ; [ORIG 16-BIT INS]
     511                            .dwcfi  cfa_offset, 8
     512                            .dwcfi  save_reg_to_mem, 14, -4
     513                            .dwcfi  save_reg_to_mem, 3, -8
     514                            .dwpsn  file "../ds1820.c",line 63,column 2,is_stmt,isa 1
     515                    ;----------------------------------------------------------------------
     516                    ;  63 | SysCtlPeripheralEnable(DS1820_DATA_PORT_PERIPH);                       
     517                    ;----------------------------------------------------------------------
     518 00000002 4802              LDR       A1, $C$CON9           ; [DPU_3_PIPE] |63|  ; [ORIG 16-BIT INS]
     519                    $C$DW$44        .dwtag  DW_TAG_TI_branch
     520                            .dwattr $C$DW$44, DW_AT_low_pc(0x00)
     521                            .dwattr $C$DW$44, DW_AT_name("SysCtlPeripheralEnable")
     522                            .dwattr $C$DW$44, DW_AT_TI_call
     523 00000004 FFFEF7FF!         BL        SysCtlPeripheralEnable ; [DPU_3_PIPE] |63|  ; [KEEP 32-BIT INS]
     524                            ; CALL OCCURS {SysCtlPeripheralEnable }  ; [] |63| 
     525                            .dwpsn  file "../ds1820.c",line 65,column 1,is_stmt,isa 1
     526                    $C$DW$45        .dwtag  DW_TAG_TI_branch
     527                            .dwattr $C$DW$45, DW_AT_low_pc(0x00)
     528                            .dwattr $C$DW$45, DW_AT_TI_return
     529 00000008 BD08              POP       {A4, PC}              ; [DPU_3_PIPE]  ; [ORIG 16-BIT INS]
     530                            .dwcfi  cfa_offset, 0
     531                            ; BRANCH OCCURS                  ; [] 
     532                            .dwattr $C$DW$43, DW_AT_TI_end_file("../ds1820.c")
     533                            .dwattr $C$DW$43, DW_AT_TI_end_line(0x41)
     534                            .dwattr $C$DW$43, DW_AT_TI_end_column(0x01)
     535                            .dwendentry
     536                            .dwendtag $C$DW$43
     537                    
     538 00000000                   .sect   ".text:reset_ds1820"
     539                            .clink
     540                            .thumbfunc reset_ds1820
     541 00000000                   .thumb
     542                            .global reset_ds1820
     543                    
     544                    $C$DW$46        .dwtag  DW_TAG_subprogram, DW_AT_name("reset_ds1820")
     545                            .dwattr $C$DW$46, DW_AT_low_pc(reset_ds1820)
     546                            .dwattr $C$DW$46, DW_AT_high_pc(0x00)
     547                            .dwattr $C$DW$46, DW_AT_TI_symbol_name("reset_ds1820")
     548                            .dwattr $C$DW$46, DW_AT_external
     549                            .dwattr $C$DW$46, DW_AT_type(*$C$DW$T$21)
     550                            .dwattr $C$DW$46, DW_AT_TI_begin_file("../ds1820.c")
TI ARM Assembler PC v5.2.5 Tue Oct 20 19:15:40 2015

Tools Copyright (c) 1996-2015 Texas Instruments Incorporated
ds1820.asm                                                           PAGE   11

     551                            .dwattr $C$DW$46, DW_AT_TI_begin_line(0x43)
     552                            .dwattr $C$DW$46, DW_AT_TI_begin_column(0x09)
     553                            .dwattr $C$DW$46, DW_AT_decl_file("../ds1820.c")
     554                            .dwattr $C$DW$46, DW_AT_decl_line(0x43)
     555                            .dwattr $C$DW$46, DW_AT_decl_column(0x09)
     556                            .dwattr $C$DW$46, DW_AT_TI_max_frame_size(0x08)
     557                            .dwpsn  file "../ds1820.c",line 68,column 1,is_stmt,address reset_ds1820,isa 1
     558                    
     559                            .dwfde $C$DW$CIE, reset_ds1820
     560                    $C$DW$47        .dwtag  DW_TAG_formal_parameter, DW_AT_name("sensor_id")
     561                            .dwattr $C$DW$47, DW_AT_TI_symbol_name("sensor_id")
     562                            .dwattr $C$DW$47, DW_AT_type(*$C$DW$T$21)
     563                            .dwattr $C$DW$47, DW_AT_location[DW_OP_reg0]
     564                    ;----------------------------------------------------------------------
     565                    ;  67 | uint8_t reset_ds1820(uint8_t sensor_id)                                
     566                    ;----------------------------------------------------------------------
     567                    
     568                    ;*****************************************************************************
     569                    ;* FUNCTION NAME: reset_ds1820                                               *
     570                    ;*                                                                           *
     571                    ;*   Regs Modified     : A1,A2,A3,A4,V9,SP,LR,SR,D0,D0_hi,D1,D1_hi,D2,D2_hi, *
     572                    ;*                           D3,D3_hi,D4,D4_hi,D5,D5_hi,D6,D6_hi,D7,D7_hi,   *
     573                    ;*                           FPEXC,FPSCR                                     *
     574                    ;*   Regs Used         : A1,A2,A3,A4,V9,SP,LR,SR,D0,D0_hi,D1,D1_hi,D2,D2_hi, *
     575                    ;*                           D3,D3_hi,D4,D4_hi,D5,D5_hi,D6,D6_hi,D7,D7_hi,   *
     576                    ;*                           FPEXC,FPSCR                                     *
     577                    ;*   Local Frame Size  : 0 Args + 4 Auto + 4 Save = 8 byte                   *
     578                    ;*****************************************************************************
     579 00000000           reset_ds1820:
     580                    ;* --------------------------------------------------------------------------*
     581                            .dwcfi  cfa_offset, 0
     582 00000000 B508              PUSH      {A4, LR}              ; [DPU_3_PIPE]  ; [ORIG 16-BIT INS]
     583                            .dwcfi  cfa_offset, 8
     584                            .dwcfi  save_reg_to_mem, 14, -4
     585                            .dwcfi  save_reg_to_mem, 3, -8
     586                    $C$DW$48        .dwtag  DW_TAG_variable, DW_AT_name("sensor_id")
     587                            .dwattr $C$DW$48, DW_AT_TI_symbol_name("sensor_id")
     588                            .dwattr $C$DW$48, DW_AT_type(*$C$DW$T$21)
     589                            .dwattr $C$DW$48, DW_AT_location[DW_OP_breg13 0]
     590                    $C$DW$49        .dwtag  DW_TAG_variable, DW_AT_name("value")
     591                            .dwattr $C$DW$49, DW_AT_TI_symbol_name("value")
     592                            .dwattr $C$DW$49, DW_AT_type(*$C$DW$T$21)
     593                            .dwattr $C$DW$49, DW_AT_location[DW_OP_breg13 1]
     594                    ;----------------------------------------------------------------------
     595                    ;  69 | uint8_t value;                                                         
     596                    ;----------------------------------------------------------------------
     597 00000002 0000F88D          STRB      A1, [SP, #0]          ; [DPU_3_PIPE] |68|  ; [KEEP 32-BIT INS]
     598                            .dwpsn  file "../ds1820.c",line 70,column 2,is_stmt,isa 1
     599                    ;----------------------------------------------------------------------
     600                    ;  70 | set_mode_output(sensor_id);                                            
     601                    ;----------------------------------------------------------------------
     602 00000006 0000F89D          LDRB      A1, [SP, #0]          ; [DPU_3_PIPE] |70|  ; [KEEP 32-BIT INS]
     603                    $C$DW$50        .dwtag  DW_TAG_TI_branch
     604                            .dwattr $C$DW$50, DW_AT_low_pc(0x00)
     605                            .dwattr $C$DW$50, DW_AT_name("set_mode_output")
TI ARM Assembler PC v5.2.5 Tue Oct 20 19:15:40 2015

Tools Copyright (c) 1996-2015 Texas Instruments Incorporated
ds1820.asm                                                           PAGE   12

     606                            .dwattr $C$DW$50, DW_AT_TI_call
     607 0000000a FFFEF7FF!         BL        set_mode_output       ; [DPU_3_PIPE] |70|  ; [KEEP 32-BIT INS]
     608                            ; CALL OCCURS {set_mode_output }  ; [] |70| 
     609                            .dwpsn  file "../ds1820.c",line 71,column 5,is_stmt,isa 1
     610                    ;----------------------------------------------------------------------
     611                    ;  71 | set_line(sensor_id, LOW);                                              
     612                    ;----------------------------------------------------------------------
     613 0000000e 0000F89D          LDRB      A1, [SP, #0]          ; [DPU_3_PIPE] |71|  ; [KEEP 32-BIT INS]
     614 00000012 2100              MOVS      A2, #0                ; [DPU_3_PIPE] |71|  ; [ORIG 16-BIT INS]
     615                    $C$DW$51        .dwtag  DW_TAG_TI_branch
     616                            .dwattr $C$DW$51, DW_AT_low_pc(0x00)
     617                            .dwattr $C$DW$51, DW_AT_name("set_line")
     618                            .dwattr $C$DW$51, DW_AT_TI_call
     619 00000014 FFFEF7FF!         BL        set_line              ; [DPU_3_PIPE] |71|  ; [KEEP 32-BIT INS]
     620                            ; CALL OCCURS {set_line }        ; [] |71| 
     621                            .dwpsn  file "../ds1820.c",line 72,column 5,is_stmt,isa 1
     622                    ;----------------------------------------------------------------------
     623                    ;  72 | delay_us(700);                                                         
     624                    ;----------------------------------------------------------------------
     625 00000018 702FF44F          MOV       A1, #700              ; [DPU_3_PIPE] |72|  ; [KEEP 32-BIT INS]
     626                    $C$DW$52        .dwtag  DW_TAG_TI_branch
     627                            .dwattr $C$DW$52, DW_AT_low_pc(0x00)
     628                            .dwattr $C$DW$52, DW_AT_name("delay_us")
     629                            .dwattr $C$DW$52, DW_AT_TI_call
     630 0000001c FFFEF7FF!         BL        delay_us              ; [DPU_3_PIPE] |72|  ; [KEEP 32-BIT INS]
     631                            ; CALL OCCURS {delay_us }        ; [] |72| 
     632                            .dwpsn  file "../ds1820.c",line 73,column 5,is_stmt,isa 1
     633                    ;----------------------------------------------------------------------
     634                    ;  73 | set_line(sensor_id, HIGH);                                             
     635                    ;----------------------------------------------------------------------
     636 00000020 0000F89D          LDRB      A1, [SP, #0]          ; [DPU_3_PIPE] |73|  ; [KEEP 32-BIT INS]
     637 00000024 2101              MOVS      A2, #1                ; [DPU_3_PIPE] |73|  ; [ORIG 16-BIT INS]
     638                    $C$DW$53        .dwtag  DW_TAG_TI_branch
     639                            .dwattr $C$DW$53, DW_AT_low_pc(0x00)
     640                            .dwattr $C$DW$53, DW_AT_name("set_line")
     641                            .dwattr $C$DW$53, DW_AT_TI_call
     642 00000026 FFFEF7FF!         BL        set_line              ; [DPU_3_PIPE] |73|  ; [KEEP 32-BIT INS]
     643                            ; CALL OCCURS {set_line }        ; [] |73| 
     644                            .dwpsn  file "../ds1820.c",line 74,column 5,is_stmt,isa 1
     645                    ;----------------------------------------------------------------------
     646                    ;  74 | set_mode_input(sensor_id);                                             
     647                    ;----------------------------------------------------------------------
     648 0000002a 0000F89D          LDRB      A1, [SP, #0]          ; [DPU_3_PIPE] |74|  ; [KEEP 32-BIT INS]
     649                    $C$DW$54        .dwtag  DW_TAG_TI_branch
     650                            .dwattr $C$DW$54, DW_AT_low_pc(0x00)
     651                            .dwattr $C$DW$54, DW_AT_name("set_mode_input")
     652                            .dwattr $C$DW$54, DW_AT_TI_call
     653 0000002e FFFEF7FF!         BL        set_mode_input        ; [DPU_3_PIPE] |74|  ; [KEEP 32-BIT INS]
     654                            ; CALL OCCURS {set_mode_input }  ; [] |74| 
     655                            .dwpsn  file "../ds1820.c",line 75,column 5,is_stmt,isa 1
     656                    ;----------------------------------------------------------------------
     657                    ;  75 | delay_us(60);                                                          
     658                    ;----------------------------------------------------------------------
     659 00000032 203C              MOVS      A1, #60               ; [DPU_3_PIPE] |75|  ; [ORIG 16-BIT INS]
     660                    $C$DW$55        .dwtag  DW_TAG_TI_branch
TI ARM Assembler PC v5.2.5 Tue Oct 20 19:15:40 2015

Tools Copyright (c) 1996-2015 Texas Instruments Incorporated
ds1820.asm                                                           PAGE   13

     661                            .dwattr $C$DW$55, DW_AT_low_pc(0x00)
     662                            .dwattr $C$DW$55, DW_AT_name("delay_us")
     663                            .dwattr $C$DW$55, DW_AT_TI_call
     664 00000034 FFFEF7FF!         BL        delay_us              ; [DPU_3_PIPE] |75|  ; [KEEP 32-BIT INS]
     665                            ; CALL OCCURS {delay_us }        ; [] |75| 
     666                            .dwpsn  file "../ds1820.c",line 76,column 5,is_stmt,isa 1
     667                    ;----------------------------------------------------------------------
     668                    ;  76 | value = get_line(sensor_id);                                           
     669                    ;----------------------------------------------------------------------
     670 00000038 0000F89D          LDRB      A1, [SP, #0]          ; [DPU_3_PIPE] |76|  ; [KEEP 32-BIT INS]
     671                    $C$DW$56        .dwtag  DW_TAG_TI_branch
     672                            .dwattr $C$DW$56, DW_AT_low_pc(0x00)
     673                            .dwattr $C$DW$56, DW_AT_name("get_line")
     674                            .dwattr $C$DW$56, DW_AT_TI_call
     675 0000003c FFFEF7FF!         BL        get_line              ; [DPU_3_PIPE] |76|  ; [KEEP 32-BIT INS]
     676                            ; CALL OCCURS {get_line }        ; [] |76| 
     677 00000040 0001F88D          STRB      A1, [SP, #1]          ; [DPU_3_PIPE] |76|  ; [KEEP 32-BIT INS]
     678                            .dwpsn  file "../ds1820.c",line 77,column 5,is_stmt,isa 1
     679                    ;----------------------------------------------------------------------
     680                    ;  77 | delay_us(420);                                                         
     681                    ;----------------------------------------------------------------------
     682 00000044 70D2F44F          MOV       A1, #420              ; [DPU_3_PIPE] |77|  ; [KEEP 32-BIT INS]
     683                    $C$DW$57        .dwtag  DW_TAG_TI_branch
     684                            .dwattr $C$DW$57, DW_AT_low_pc(0x00)
     685                            .dwattr $C$DW$57, DW_AT_name("delay_us")
     686                            .dwattr $C$DW$57, DW_AT_TI_call
     687 00000048 FFFEF7FF!         BL        delay_us              ; [DPU_3_PIPE] |77|  ; [KEEP 32-BIT INS]
     688                            ; CALL OCCURS {delay_us }        ; [] |77| 
     689                            .dwpsn  file "../ds1820.c",line 78,column 5,is_stmt,isa 1
     690                    ;----------------------------------------------------------------------
     691                    ;  78 | return value;                                                          
     692                    ;----------------------------------------------------------------------
     693 0000004c 0001F89D          LDRB      A1, [SP, #1]          ; [DPU_3_PIPE] |78|  ; [KEEP 32-BIT INS]
     694                            .dwpsn  file "../ds1820.c",line 79,column 1,is_stmt,isa 1
     695                    $C$DW$58        .dwtag  DW_TAG_TI_branch
     696                            .dwattr $C$DW$58, DW_AT_low_pc(0x00)
     697                            .dwattr $C$DW$58, DW_AT_TI_return
     698 00000050 BD08              POP       {A4, PC}              ; [DPU_3_PIPE]  ; [ORIG 16-BIT INS]
     699                            .dwcfi  cfa_offset, 0
     700                            ; BRANCH OCCURS                  ; [] 
     701                            .dwattr $C$DW$46, DW_AT_TI_end_file("../ds1820.c")
     702                            .dwattr $C$DW$46, DW_AT_TI_end_line(0x4f)
     703                            .dwattr $C$DW$46, DW_AT_TI_end_column(0x01)
     704                            .dwendentry
     705                            .dwendtag $C$DW$46
     706                    
     707 00000000                   .sect   ".text:writeslot"
     708                            .clink
     709                            .thumbfunc writeslot
     710 00000000                   .thumb
     711                            .global writeslot
     712                    
     713                    $C$DW$59        .dwtag  DW_TAG_subprogram, DW_AT_name("writeslot")
     714                            .dwattr $C$DW$59, DW_AT_low_pc(writeslot)
     715                            .dwattr $C$DW$59, DW_AT_high_pc(0x00)
TI ARM Assembler PC v5.2.5 Tue Oct 20 19:15:40 2015

Tools Copyright (c) 1996-2015 Texas Instruments Incorporated
ds1820.asm                                                           PAGE   14

     716                            .dwattr $C$DW$59, DW_AT_TI_symbol_name("writeslot")
     717                            .dwattr $C$DW$59, DW_AT_external
     718                            .dwattr $C$DW$59, DW_AT_TI_begin_file("../ds1820.c")
     719                            .dwattr $C$DW$59, DW_AT_TI_begin_line(0x51)
     720                            .dwattr $C$DW$59, DW_AT_TI_begin_column(0x06)
     721                            .dwattr $C$DW$59, DW_AT_decl_file("../ds1820.c")
     722                            .dwattr $C$DW$59, DW_AT_decl_line(0x51)
     723                            .dwattr $C$DW$59, DW_AT_decl_column(0x06)
     724                            .dwattr $C$DW$59, DW_AT_TI_max_frame_size(0x08)
     725                            .dwpsn  file "../ds1820.c",line 82,column 1,is_stmt,address writeslot,isa 1
     726                    
     727                            .dwfde $C$DW$CIE, writeslot
     728                    $C$DW$60        .dwtag  DW_TAG_formal_parameter, DW_AT_name("sensor_id")
     729                            .dwattr $C$DW$60, DW_AT_TI_symbol_name("sensor_id")
     730                            .dwattr $C$DW$60, DW_AT_type(*$C$DW$T$21)
     731                            .dwattr $C$DW$60, DW_AT_location[DW_OP_reg0]
     732                    $C$DW$61        .dwtag  DW_TAG_formal_parameter, DW_AT_name("data")
     733                            .dwattr $C$DW$61, DW_AT_TI_symbol_name("data")
     734                            .dwattr $C$DW$61, DW_AT_type(*$C$DW$T$21)
     735                            .dwattr $C$DW$61, DW_AT_location[DW_OP_reg1]
     736                    ;----------------------------------------------------------------------
     737                    ;  81 | void writeslot(uint8_t sensor_id, uint8_t data)                        
     738                    ;----------------------------------------------------------------------
     739                    
     740                    ;*****************************************************************************
     741                    ;* FUNCTION NAME: writeslot                                                  *
     742                    ;*                                                                           *
     743                    ;*   Regs Modified     : A1,A2,A3,A4,V9,SP,LR,SR,D0,D0_hi,D1,D1_hi,D2,D2_hi, *
     744                    ;*                           D3,D3_hi,D4,D4_hi,D5,D5_hi,D6,D6_hi,D7,D7_hi,   *
     745                    ;*                           FPEXC,FPSCR                                     *
     746                    ;*   Regs Used         : A1,A2,A3,A4,V9,SP,LR,SR,D0,D0_hi,D1,D1_hi,D2,D2_hi, *
     747                    ;*                           D3,D3_hi,D4,D4_hi,D5,D5_hi,D6,D6_hi,D7,D7_hi,   *
     748                    ;*                           FPEXC,FPSCR                                     *
     749                    ;*   Local Frame Size  : 0 Args + 4 Auto + 4 Save = 8 byte                   *
     750                    ;*****************************************************************************
     751 00000000           writeslot:
     752                    ;* --------------------------------------------------------------------------*
     753                            .dwcfi  cfa_offset, 0
     754 00000000 B508              PUSH      {A4, LR}              ; [DPU_3_PIPE]  ; [ORIG 16-BIT INS]
     755                            .dwcfi  cfa_offset, 8
     756                            .dwcfi  save_reg_to_mem, 14, -4
     757                            .dwcfi  save_reg_to_mem, 3, -8
     758                    $C$DW$62        .dwtag  DW_TAG_variable, DW_AT_name("sensor_id")
     759                            .dwattr $C$DW$62, DW_AT_TI_symbol_name("sensor_id")
     760                            .dwattr $C$DW$62, DW_AT_type(*$C$DW$T$21)
     761                            .dwattr $C$DW$62, DW_AT_location[DW_OP_breg13 0]
     762                    $C$DW$63        .dwtag  DW_TAG_variable, DW_AT_name("data")
     763                            .dwattr $C$DW$63, DW_AT_TI_symbol_name("data")
     764                            .dwattr $C$DW$63, DW_AT_type(*$C$DW$T$21)
     765                            .dwattr $C$DW$63, DW_AT_location[DW_OP_breg13 1]
     766 00000002 1001F88D          STRB      A2, [SP, #1]          ; [DPU_3_PIPE] |82|  ; [KEEP 32-BIT INS]
     767 00000006 0000F88D          STRB      A1, [SP, #0]          ; [DPU_3_PIPE] |82|  ; [KEEP 32-BIT INS]
     768                            .dwpsn  file "../ds1820.c",line 83,column 2,is_stmt,isa 1
     769                    ;----------------------------------------------------------------------
     770                    ;  83 | set_line(sensor_id, HIGH);                                             
TI ARM Assembler PC v5.2.5 Tue Oct 20 19:15:40 2015

Tools Copyright (c) 1996-2015 Texas Instruments Incorporated
ds1820.asm                                                           PAGE   15

     771                    ;----------------------------------------------------------------------
     772 0000000a 0000F89D          LDRB      A1, [SP, #0]          ; [DPU_3_PIPE] |83|  ; [KEEP 32-BIT INS]
     773 0000000e 2101              MOVS      A2, #1                ; [DPU_3_PIPE] |83|  ; [ORIG 16-BIT INS]
     774                    $C$DW$64        .dwtag  DW_TAG_TI_branch
     775                            .dwattr $C$DW$64, DW_AT_low_pc(0x00)
     776                            .dwattr $C$DW$64, DW_AT_name("set_line")
     777                            .dwattr $C$DW$64, DW_AT_TI_call
     778 00000010 FFFEF7FF!         BL        set_line              ; [DPU_3_PIPE] |83|  ; [KEEP 32-BIT INS]
     779                            ; CALL OCCURS {set_line }        ; [] |83| 
     780                            .dwpsn  file "../ds1820.c",line 84,column 2,is_stmt,isa 1
     781                    ;----------------------------------------------------------------------
     782                    ;  84 | set_mode_output(sensor_id);                                            
     783                    ;----------------------------------------------------------------------
     784 00000014 0000F89D          LDRB      A1, [SP, #0]          ; [DPU_3_PIPE] |84|  ; [KEEP 32-BIT INS]
     785                    $C$DW$65        .dwtag  DW_TAG_TI_branch
     786                            .dwattr $C$DW$65, DW_AT_low_pc(0x00)
     787                            .dwattr $C$DW$65, DW_AT_name("set_mode_output")
     788                            .dwattr $C$DW$65, DW_AT_TI_call
     789 00000018 FFFEF7FF!         BL        set_mode_output       ; [DPU_3_PIPE] |84|  ; [KEEP 32-BIT INS]
     790                            ; CALL OCCURS {set_mode_output }  ; [] |84| 
     791                            .dwpsn  file "../ds1820.c",line 85,column 2,is_stmt,isa 1
     792                    ;----------------------------------------------------------------------
     793                    ;  85 | set_line(sensor_id, LOW);                                              
     794                    ;----------------------------------------------------------------------
     795 0000001c 0000F89D          LDRB      A1, [SP, #0]          ; [DPU_3_PIPE] |85|  ; [KEEP 32-BIT INS]
     796 00000020 2100              MOVS      A2, #0                ; [DPU_3_PIPE] |85|  ; [ORIG 16-BIT INS]
     797                    $C$DW$66        .dwtag  DW_TAG_TI_branch
     798                            .dwattr $C$DW$66, DW_AT_low_pc(0x00)
     799                            .dwattr $C$DW$66, DW_AT_name("set_line")
     800                            .dwattr $C$DW$66, DW_AT_TI_call
     801 00000022 FFFEF7FF!         BL        set_line              ; [DPU_3_PIPE] |85|  ; [KEEP 32-BIT INS]
     802                            ; CALL OCCURS {set_line }        ; [] |85| 
     803                            .dwpsn  file "../ds1820.c",line 86,column 2,is_stmt,isa 1
     804                    ;----------------------------------------------------------------------
     805                    ;  86 | if(data)                                                               
     806                    ;----------------------------------------------------------------------
     807 00000026 0001F89D          LDRB      A1, [SP, #1]          ; [DPU_3_PIPE] |86|  ; [KEEP 32-BIT INS]
     808 0000002a B150              CBZ       A1, ||$C$L3||         ; []  ; [ORIG 16-BIT INS]
     809                            ; BRANCHCC OCCURS {||$C$L3||}    ; [] |86| 
     810                    ;* --------------------------------------------------------------------------*
     811                            .dwpsn  file "../ds1820.c",line 88,column 3,is_stmt,isa 1
     812                    ;----------------------------------------------------------------------
     813                    ;  88 | delay_us(10);                                                          
     814                    ;----------------------------------------------------------------------
     815 0000002c 200A              MOVS      A1, #10               ; [DPU_3_PIPE] |88|  ; [ORIG 16-BIT INS]
     816                    $C$DW$67        .dwtag  DW_TAG_TI_branch
     817                            .dwattr $C$DW$67, DW_AT_low_pc(0x00)
     818                            .dwattr $C$DW$67, DW_AT_name("delay_us")
     819                            .dwattr $C$DW$67, DW_AT_TI_call
     820 0000002e FFFEF7FF!         BL        delay_us              ; [DPU_3_PIPE] |88|  ; [KEEP 32-BIT INS]
     821                            ; CALL OCCURS {delay_us }        ; [] |88| 
     822                            .dwpsn  file "../ds1820.c",line 89,column 3,is_stmt,isa 1
     823                    ;----------------------------------------------------------------------
     824                    ;  89 | set_mode_input(sensor_id);                                             
     825                    ;----------------------------------------------------------------------
TI ARM Assembler PC v5.2.5 Tue Oct 20 19:15:40 2015

Tools Copyright (c) 1996-2015 Texas Instruments Incorporated
ds1820.asm                                                           PAGE   16

     826 00000032 0000F89D          LDRB      A1, [SP, #0]          ; [DPU_3_PIPE] |89|  ; [KEEP 32-BIT INS]
     827                    $C$DW$68        .dwtag  DW_TAG_TI_branch
     828                            .dwattr $C$DW$68, DW_AT_low_pc(0x00)
     829                            .dwattr $C$DW$68, DW_AT_name("set_mode_input")
     830                            .dwattr $C$DW$68, DW_AT_TI_call
     831 00000036 FFFEF7FF!         BL        set_mode_input        ; [DPU_3_PIPE] |89|  ; [KEEP 32-BIT INS]
     832                            ; CALL OCCURS {set_mode_input }  ; [] |89| 
     833                            .dwpsn  file "../ds1820.c",line 90,column 3,is_stmt,isa 1
     834                    ;----------------------------------------------------------------------
     835                    ;  90 | delay_us(80);                                                          
     836                    ;----------------------------------------------------------------------
     837 0000003a 2050              MOVS      A1, #80               ; [DPU_3_PIPE] |90|  ; [ORIG 16-BIT INS]
     838                    $C$DW$69        .dwtag  DW_TAG_TI_branch
     839                            .dwattr $C$DW$69, DW_AT_low_pc(0x00)
     840                            .dwattr $C$DW$69, DW_AT_name("delay_us")
     841                            .dwattr $C$DW$69, DW_AT_TI_call
     842 0000003c FFFEF7FF!         BL        delay_us              ; [DPU_3_PIPE] |90|  ; [KEEP 32-BIT INS]
     843                            ; CALL OCCURS {delay_us }        ; [] |90| 
     844                            .dwpsn  file "../ds1820.c",line 91,column 2,is_stmt,isa 1
     845                    ;----------------------------------------------------------------------
     846                    ;  92 | else                                                                   
     847                    ;----------------------------------------------------------------------
     848 00000040 E009              B         ||$C$L4||             ; [DPU_3_PIPE] |91|  ; [ORIG 16-BIT INS]
     849                            ; BRANCH OCCURS {||$C$L4||}      ; [] |91| 
     850                    ;* --------------------------------------------------------------------------*
     851 00000042           ||$C$L3||:    
     852                            .dwpsn  file "../ds1820.c",line 94,column 3,is_stmt,isa 1
     853                    ;----------------------------------------------------------------------
     854                    ;  94 | delay_us(80);                                                          
     855                    ;----------------------------------------------------------------------
     856 00000042 2050              MOVS      A1, #80               ; [DPU_3_PIPE] |94|  ; [ORIG 16-BIT INS]
     857                    $C$DW$70        .dwtag  DW_TAG_TI_branch
     858                            .dwattr $C$DW$70, DW_AT_low_pc(0x00)
     859                            .dwattr $C$DW$70, DW_AT_name("delay_us")
     860                            .dwattr $C$DW$70, DW_AT_TI_call
     861 00000044 FFFEF7FF!         BL        delay_us              ; [DPU_3_PIPE] |94|  ; [KEEP 32-BIT INS]
     862                            ; CALL OCCURS {delay_us }        ; [] |94| 
     863                            .dwpsn  file "../ds1820.c",line 95,column 3,is_stmt,isa 1
     864                    ;----------------------------------------------------------------------
     865                    ;  95 | set_mode_input(sensor_id);                                             
     866                    ;----------------------------------------------------------------------
     867 00000048 0000F89D          LDRB      A1, [SP, #0]          ; [DPU_3_PIPE] |95|  ; [KEEP 32-BIT INS]
     868                    $C$DW$71        .dwtag  DW_TAG_TI_branch
     869                            .dwattr $C$DW$71, DW_AT_low_pc(0x00)
     870                            .dwattr $C$DW$71, DW_AT_name("set_mode_input")
     871                            .dwattr $C$DW$71, DW_AT_TI_call
     872 0000004c FFFEF7FF!         BL        set_mode_input        ; [DPU_3_PIPE] |95|  ; [KEEP 32-BIT INS]
     873                            ; CALL OCCURS {set_mode_input }  ; [] |95| 
     874                            .dwpsn  file "../ds1820.c",line 96,column 3,is_stmt,isa 1
     875                    ;----------------------------------------------------------------------
     876                    ;  96 | delay_us(10);                                                          
     877                    ;----------------------------------------------------------------------
     878 00000050 200A              MOVS      A1, #10               ; [DPU_3_PIPE] |96|  ; [ORIG 16-BIT INS]
     879                    $C$DW$72        .dwtag  DW_TAG_TI_branch
     880                            .dwattr $C$DW$72, DW_AT_low_pc(0x00)
TI ARM Assembler PC v5.2.5 Tue Oct 20 19:15:40 2015

Tools Copyright (c) 1996-2015 Texas Instruments Incorporated
ds1820.asm                                                           PAGE   17

     881                            .dwattr $C$DW$72, DW_AT_name("delay_us")
     882                            .dwattr $C$DW$72, DW_AT_TI_call
     883 00000052 FFFEF7FF!         BL        delay_us              ; [DPU_3_PIPE] |96|  ; [KEEP 32-BIT INS]
     884                            ; CALL OCCURS {delay_us }        ; [] |96| 
     885                            .dwpsn  file "../ds1820.c",line 98,column 1,is_stmt,isa 1
     886                    ;* --------------------------------------------------------------------------*
     887                    ||$C$L4||:    
     888                    $C$DW$73        .dwtag  DW_TAG_TI_branch
     889                            .dwattr $C$DW$73, DW_AT_low_pc(0x00)
     890                            .dwattr $C$DW$73, DW_AT_TI_return
     891 00000056 BD08              POP       {A4, PC}              ; [DPU_3_PIPE]  ; [ORIG 16-BIT INS]
     892                            .dwcfi  cfa_offset, 0
     893                            ; BRANCH OCCURS                  ; [] 
     894                            .dwattr $C$DW$59, DW_AT_TI_end_file("../ds1820.c")
     895                            .dwattr $C$DW$59, DW_AT_TI_end_line(0x62)
     896                            .dwattr $C$DW$59, DW_AT_TI_end_column(0x01)
     897                            .dwendentry
     898                            .dwendtag $C$DW$59
     899                    
     900 00000000                   .sect   ".text:readslot"
     901                            .clink
     902                            .thumbfunc readslot
     903 00000000                   .thumb
     904                            .global readslot
     905                    
     906                    $C$DW$74        .dwtag  DW_TAG_subprogram, DW_AT_name("readslot")
     907                            .dwattr $C$DW$74, DW_AT_low_pc(readslot)
     908                            .dwattr $C$DW$74, DW_AT_high_pc(0x00)
     909                            .dwattr $C$DW$74, DW_AT_TI_symbol_name("readslot")
     910                            .dwattr $C$DW$74, DW_AT_external
     911                            .dwattr $C$DW$74, DW_AT_type(*$C$DW$T$21)
     912                            .dwattr $C$DW$74, DW_AT_TI_begin_file("../ds1820.c")
     913                            .dwattr $C$DW$74, DW_AT_TI_begin_line(0x64)
     914                            .dwattr $C$DW$74, DW_AT_TI_begin_column(0x09)
     915                            .dwattr $C$DW$74, DW_AT_decl_file("../ds1820.c")
     916                            .dwattr $C$DW$74, DW_AT_decl_line(0x64)
     917                            .dwattr $C$DW$74, DW_AT_decl_column(0x09)
     918                            .dwattr $C$DW$74, DW_AT_TI_max_frame_size(0x08)
     919                            .dwpsn  file "../ds1820.c",line 101,column 1,is_stmt,address readslot,isa 1
     920                    
     921                            .dwfde $C$DW$CIE, readslot
     922                    $C$DW$75        .dwtag  DW_TAG_formal_parameter, DW_AT_name("sensor_id")
     923                            .dwattr $C$DW$75, DW_AT_TI_symbol_name("sensor_id")
     924                            .dwattr $C$DW$75, DW_AT_type(*$C$DW$T$21)
     925                            .dwattr $C$DW$75, DW_AT_location[DW_OP_reg0]
     926                    ;----------------------------------------------------------------------
     927                    ; 100 | uint8_t readslot(uint8_t sensor_id)                                    
     928                    ;----------------------------------------------------------------------
     929                    
     930                    ;*****************************************************************************
     931                    ;* FUNCTION NAME: readslot                                                   *
     932                    ;*                                                                           *
     933                    ;*   Regs Modified     : A1,A2,A3,A4,V9,SP,LR,SR,D0,D0_hi,D1,D1_hi,D2,D2_hi, *
     934                    ;*                           D3,D3_hi,D4,D4_hi,D5,D5_hi,D6,D6_hi,D7,D7_hi,   *
     935                    ;*                           FPEXC,FPSCR                                     *
TI ARM Assembler PC v5.2.5 Tue Oct 20 19:15:40 2015

Tools Copyright (c) 1996-2015 Texas Instruments Incorporated
ds1820.asm                                                           PAGE   18

     936                    ;*   Regs Used         : A1,A2,A3,A4,V9,SP,LR,SR,D0,D0_hi,D1,D1_hi,D2,D2_hi, *
     937                    ;*                           D3,D3_hi,D4,D4_hi,D5,D5_hi,D6,D6_hi,D7,D7_hi,   *
     938                    ;*                           FPEXC,FPSCR                                     *
     939                    ;*   Local Frame Size  : 0 Args + 4 Auto + 4 Save = 8 byte                   *
     940                    ;*****************************************************************************
     941 00000000           readslot:
     942                    ;* --------------------------------------------------------------------------*
     943                            .dwcfi  cfa_offset, 0
     944 00000000 B508              PUSH      {A4, LR}              ; [DPU_3_PIPE]  ; [ORIG 16-BIT INS]
     945                            .dwcfi  cfa_offset, 8
     946                            .dwcfi  save_reg_to_mem, 14, -4
     947                            .dwcfi  save_reg_to_mem, 3, -8
     948                    $C$DW$76        .dwtag  DW_TAG_variable, DW_AT_name("sensor_id")
     949                            .dwattr $C$DW$76, DW_AT_TI_symbol_name("sensor_id")
     950                            .dwattr $C$DW$76, DW_AT_type(*$C$DW$T$21)
     951                            .dwattr $C$DW$76, DW_AT_location[DW_OP_breg13 0]
     952                    $C$DW$77        .dwtag  DW_TAG_variable, DW_AT_name("value")
     953                            .dwattr $C$DW$77, DW_AT_TI_symbol_name("value")
     954                            .dwattr $C$DW$77, DW_AT_type(*$C$DW$T$21)
     955                            .dwattr $C$DW$77, DW_AT_location[DW_OP_breg13 1]
     956                    ;----------------------------------------------------------------------
     957                    ; 102 | uint8_t value;                                                         
     958                    ;----------------------------------------------------------------------
     959 00000002 0000F88D          STRB      A1, [SP, #0]          ; [DPU_3_PIPE] |101|  ; [KEEP 32-BIT INS]
     960                            .dwpsn  file "../ds1820.c",line 103,column 2,is_stmt,isa 1
     961                    ;----------------------------------------------------------------------
     962                    ; 103 | set_line(sensor_id, HIGH);                                             
     963                    ;----------------------------------------------------------------------
     964 00000006 0000F89D          LDRB      A1, [SP, #0]          ; [DPU_3_PIPE] |103|  ; [KEEP 32-BIT INS]
     965 0000000a 2101              MOVS      A2, #1                ; [DPU_3_PIPE] |103|  ; [ORIG 16-BIT INS]
     966                    $C$DW$78        .dwtag  DW_TAG_TI_branch
     967                            .dwattr $C$DW$78, DW_AT_low_pc(0x00)
     968                            .dwattr $C$DW$78, DW_AT_name("set_line")
     969                            .dwattr $C$DW$78, DW_AT_TI_call
     970 0000000c FFFEF7FF!         BL        set_line              ; [DPU_3_PIPE] |103|  ; [KEEP 32-BIT INS]
     971                            ; CALL OCCURS {set_line }        ; [] |103| 
     972                            .dwpsn  file "../ds1820.c",line 104,column 2,is_stmt,isa 1
     973                    ;----------------------------------------------------------------------
     974                    ; 104 | set_mode_output(sensor_id);                                            
     975                    ;----------------------------------------------------------------------
     976 00000010 0000F89D          LDRB      A1, [SP, #0]          ; [DPU_3_PIPE] |104|  ; [KEEP 32-BIT INS]
     977                    $C$DW$79        .dwtag  DW_TAG_TI_branch
     978                            .dwattr $C$DW$79, DW_AT_low_pc(0x00)
     979                            .dwattr $C$DW$79, DW_AT_name("set_mode_output")
     980                            .dwattr $C$DW$79, DW_AT_TI_call
     981 00000014 FFFEF7FF!         BL        set_mode_output       ; [DPU_3_PIPE] |104|  ; [KEEP 32-BIT INS]
     982                            ; CALL OCCURS {set_mode_output }  ; [] |104| 
     983                            .dwpsn  file "../ds1820.c",line 105,column 2,is_stmt,isa 1
     984                    ;----------------------------------------------------------------------
     985                    ; 105 | set_line(sensor_id, LOW);                                              
     986                    ;----------------------------------------------------------------------
     987 00000018 0000F89D          LDRB      A1, [SP, #0]          ; [DPU_3_PIPE] |105|  ; [KEEP 32-BIT INS]
     988 0000001c 2100              MOVS      A2, #0                ; [DPU_3_PIPE] |105|  ; [ORIG 16-BIT INS]
     989                    $C$DW$80        .dwtag  DW_TAG_TI_branch
     990                            .dwattr $C$DW$80, DW_AT_low_pc(0x00)
TI ARM Assembler PC v5.2.5 Tue Oct 20 19:15:40 2015

Tools Copyright (c) 1996-2015 Texas Instruments Incorporated
ds1820.asm                                                           PAGE   19

     991                            .dwattr $C$DW$80, DW_AT_name("set_line")
     992                            .dwattr $C$DW$80, DW_AT_TI_call
     993 0000001e FFFEF7FF!         BL        set_line              ; [DPU_3_PIPE] |105|  ; [KEEP 32-BIT INS]
     994                            ; CALL OCCURS {set_line }        ; [] |105| 
     995                            .dwpsn  file "../ds1820.c",line 106,column 2,is_stmt,isa 1
     996                    ;----------------------------------------------------------------------
     997                    ; 106 | delay_us(10);                                                          
     998                    ;----------------------------------------------------------------------
     999 00000022 200A              MOVS      A1, #10               ; [DPU_3_PIPE] |106|  ; [ORIG 16-BIT INS]
    1000                    $C$DW$81        .dwtag  DW_TAG_TI_branch
    1001                            .dwattr $C$DW$81, DW_AT_low_pc(0x00)
    1002                            .dwattr $C$DW$81, DW_AT_name("delay_us")
    1003                            .dwattr $C$DW$81, DW_AT_TI_call
    1004 00000024 FFFEF7FF!         BL        delay_us              ; [DPU_3_PIPE] |106|  ; [KEEP 32-BIT INS]
    1005                            ; CALL OCCURS {delay_us }        ; [] |106| 
    1006                            .dwpsn  file "../ds1820.c",line 107,column 2,is_stmt,isa 1
    1007                    ;----------------------------------------------------------------------
    1008                    ; 107 | set_mode_input(sensor_id);                                             
    1009                    ;----------------------------------------------------------------------
    1010 00000028 0000F89D          LDRB      A1, [SP, #0]          ; [DPU_3_PIPE] |107|  ; [KEEP 32-BIT INS]
    1011                    $C$DW$82        .dwtag  DW_TAG_TI_branch
    1012                            .dwattr $C$DW$82, DW_AT_low_pc(0x00)
    1013                            .dwattr $C$DW$82, DW_AT_name("set_mode_input")
    1014                            .dwattr $C$DW$82, DW_AT_TI_call
    1015 0000002c FFFEF7FF!         BL        set_mode_input        ; [DPU_3_PIPE] |107|  ; [KEEP 32-BIT INS]
    1016                            ; CALL OCCURS {set_mode_input }  ; [] |107| 
    1017                            .dwpsn  file "../ds1820.c",line 108,column 2,is_stmt,isa 1
    1018                    ;----------------------------------------------------------------------
    1019                    ; 108 | delay_us(10);                                                          
    1020                    ;----------------------------------------------------------------------
    1021 00000030 200A              MOVS      A1, #10               ; [DPU_3_PIPE] |108|  ; [ORIG 16-BIT INS]
    1022                    $C$DW$83        .dwtag  DW_TAG_TI_branch
    1023                            .dwattr $C$DW$83, DW_AT_low_pc(0x00)
    1024                            .dwattr $C$DW$83, DW_AT_name("delay_us")
    1025                            .dwattr $C$DW$83, DW_AT_TI_call
    1026 00000032 FFFEF7FF!         BL        delay_us              ; [DPU_3_PIPE] |108|  ; [KEEP 32-BIT INS]
    1027                            ; CALL OCCURS {delay_us }        ; [] |108| 
    1028                            .dwpsn  file "../ds1820.c",line 109,column 2,is_stmt,isa 1
    1029                    ;----------------------------------------------------------------------
    1030                    ; 109 | value = get_line(sensor_id);                                           
    1031                    ;----------------------------------------------------------------------
    1032 00000036 0000F89D          LDRB      A1, [SP, #0]          ; [DPU_3_PIPE] |109|  ; [KEEP 32-BIT INS]
    1033                    $C$DW$84        .dwtag  DW_TAG_TI_branch
    1034                            .dwattr $C$DW$84, DW_AT_low_pc(0x00)
    1035                            .dwattr $C$DW$84, DW_AT_name("get_line")
    1036                            .dwattr $C$DW$84, DW_AT_TI_call
    1037 0000003a FFFEF7FF!         BL        get_line              ; [DPU_3_PIPE] |109|  ; [KEEP 32-BIT INS]
    1038                            ; CALL OCCURS {get_line }        ; [] |109| 
    1039 0000003e 0001F88D          STRB      A1, [SP, #1]          ; [DPU_3_PIPE] |109|  ; [KEEP 32-BIT INS]
    1040                            .dwpsn  file "../ds1820.c",line 110,column 2,is_stmt,isa 1
    1041                    ;----------------------------------------------------------------------
    1042                    ; 110 | delay_us(50);                                                          
    1043                    ;----------------------------------------------------------------------
    1044 00000042 2032              MOVS      A1, #50               ; [DPU_3_PIPE] |110|  ; [ORIG 16-BIT INS]
    1045                    $C$DW$85        .dwtag  DW_TAG_TI_branch
TI ARM Assembler PC v5.2.5 Tue Oct 20 19:15:40 2015

Tools Copyright (c) 1996-2015 Texas Instruments Incorporated
ds1820.asm                                                           PAGE   20

    1046                            .dwattr $C$DW$85, DW_AT_low_pc(0x00)
    1047                            .dwattr $C$DW$85, DW_AT_name("delay_us")
    1048                            .dwattr $C$DW$85, DW_AT_TI_call
    1049 00000044 FFFEF7FF!         BL        delay_us              ; [DPU_3_PIPE] |110|  ; [KEEP 32-BIT INS]
    1050                            ; CALL OCCURS {delay_us }        ; [] |110| 
    1051                            .dwpsn  file "../ds1820.c",line 111,column 2,is_stmt,isa 1
    1052                    ;----------------------------------------------------------------------
    1053                    ; 111 | return value;                                                          
    1054                    ;----------------------------------------------------------------------
    1055 00000048 0001F89D          LDRB      A1, [SP, #1]          ; [DPU_3_PIPE] |111|  ; [KEEP 32-BIT INS]
    1056                            .dwpsn  file "../ds1820.c",line 112,column 1,is_stmt,isa 1
    1057                    $C$DW$86        .dwtag  DW_TAG_TI_branch
    1058                            .dwattr $C$DW$86, DW_AT_low_pc(0x00)
    1059                            .dwattr $C$DW$86, DW_AT_TI_return
    1060 0000004c BD08              POP       {A4, PC}              ; [DPU_3_PIPE]  ; [ORIG 16-BIT INS]
    1061                            .dwcfi  cfa_offset, 0
    1062                            ; BRANCH OCCURS                  ; [] 
    1063                            .dwattr $C$DW$74, DW_AT_TI_end_file("../ds1820.c")
    1064                            .dwattr $C$DW$74, DW_AT_TI_end_line(0x70)
    1065                            .dwattr $C$DW$74, DW_AT_TI_end_column(0x01)
    1066                            .dwendentry
    1067                            .dwendtag $C$DW$74
    1068                    
    1069 00000000                   .sect   ".text:write_ds1820"
    1070                            .clink
    1071                            .thumbfunc write_ds1820
    1072 00000000                   .thumb
    1073                            .global write_ds1820
    1074                    
    1075                    $C$DW$87        .dwtag  DW_TAG_subprogram, DW_AT_name("write_ds1820")
    1076                            .dwattr $C$DW$87, DW_AT_low_pc(write_ds1820)
    1077                            .dwattr $C$DW$87, DW_AT_high_pc(0x00)
    1078                            .dwattr $C$DW$87, DW_AT_TI_symbol_name("write_ds1820")
    1079                            .dwattr $C$DW$87, DW_AT_external
    1080                            .dwattr $C$DW$87, DW_AT_TI_begin_file("../ds1820.c")
    1081                            .dwattr $C$DW$87, DW_AT_TI_begin_line(0x72)
    1082                            .dwattr $C$DW$87, DW_AT_TI_begin_column(0x06)
    1083                            .dwattr $C$DW$87, DW_AT_decl_file("../ds1820.c")
    1084                            .dwattr $C$DW$87, DW_AT_decl_line(0x72)
    1085                            .dwattr $C$DW$87, DW_AT_decl_column(0x06)
    1086                            .dwattr $C$DW$87, DW_AT_TI_max_frame_size(0x08)
    1087                            .dwpsn  file "../ds1820.c",line 115,column 1,is_stmt,address write_ds1820,isa 1
    1088                    
    1089                            .dwfde $C$DW$CIE, write_ds1820
    1090                    $C$DW$88        .dwtag  DW_TAG_formal_parameter, DW_AT_name("sensor_id")
    1091                            .dwattr $C$DW$88, DW_AT_TI_symbol_name("sensor_id")
    1092                            .dwattr $C$DW$88, DW_AT_type(*$C$DW$T$21)
    1093                            .dwattr $C$DW$88, DW_AT_location[DW_OP_reg0]
    1094                    $C$DW$89        .dwtag  DW_TAG_formal_parameter, DW_AT_name("data")
    1095                            .dwattr $C$DW$89, DW_AT_TI_symbol_name("data")
    1096                            .dwattr $C$DW$89, DW_AT_type(*$C$DW$T$21)
    1097                            .dwattr $C$DW$89, DW_AT_location[DW_OP_reg1]
    1098                    ;----------------------------------------------------------------------
    1099                    ; 114 | void write_ds1820(uint8_t sensor_id, uint8_t data)                     
    1100                    ;----------------------------------------------------------------------
TI ARM Assembler PC v5.2.5 Tue Oct 20 19:15:40 2015

Tools Copyright (c) 1996-2015 Texas Instruments Incorporated
ds1820.asm                                                           PAGE   21

    1101                    
    1102                    ;*****************************************************************************
    1103                    ;* FUNCTION NAME: write_ds1820                                               *
    1104                    ;*                                                                           *
    1105                    ;*   Regs Modified     : A1,A2,A3,A4,V9,SP,LR,SR,D0,D0_hi,D1,D1_hi,D2,D2_hi, *
    1106                    ;*                           D3,D3_hi,D4,D4_hi,D5,D5_hi,D6,D6_hi,D7,D7_hi,   *
    1107                    ;*                           FPEXC,FPSCR                                     *
    1108                    ;*   Regs Used         : A1,A2,A3,A4,V9,SP,LR,SR,D0,D0_hi,D1,D1_hi,D2,D2_hi, *
    1109                    ;*                           D3,D3_hi,D4,D4_hi,D5,D5_hi,D6,D6_hi,D7,D7_hi,   *
    1110                    ;*                           FPEXC,FPSCR                                     *
    1111                    ;*   Local Frame Size  : 0 Args + 4 Auto + 4 Save = 8 byte                   *
    1112                    ;*****************************************************************************
    1113 00000000           write_ds1820:
    1114                    ;* --------------------------------------------------------------------------*
    1115                            .dwcfi  cfa_offset, 0
    1116 00000000 B508              PUSH      {A4, LR}              ; [DPU_3_PIPE]  ; [ORIG 16-BIT INS]
    1117                            .dwcfi  cfa_offset, 8
    1118                            .dwcfi  save_reg_to_mem, 14, -4
    1119                            .dwcfi  save_reg_to_mem, 3, -8
    1120                    $C$DW$90        .dwtag  DW_TAG_variable, DW_AT_name("sensor_id")
    1121                            .dwattr $C$DW$90, DW_AT_TI_symbol_name("sensor_id")
    1122                            .dwattr $C$DW$90, DW_AT_type(*$C$DW$T$21)
    1123                            .dwattr $C$DW$90, DW_AT_location[DW_OP_breg13 0]
    1124                    $C$DW$91        .dwtag  DW_TAG_variable, DW_AT_name("data")
    1125                            .dwattr $C$DW$91, DW_AT_TI_symbol_name("data")
    1126                            .dwattr $C$DW$91, DW_AT_type(*$C$DW$T$21)
    1127                            .dwattr $C$DW$91, DW_AT_location[DW_OP_breg13 1]
    1128                    $C$DW$92        .dwtag  DW_TAG_variable, DW_AT_name("i")
    1129                            .dwattr $C$DW$92, DW_AT_TI_symbol_name("i")
    1130                            .dwattr $C$DW$92, DW_AT_type(*$C$DW$T$21)
    1131                            .dwattr $C$DW$92, DW_AT_location[DW_OP_breg13 2]
    1132                    ;----------------------------------------------------------------------
    1133                    ; 116 | uint8_t i;                                                             
    1134                    ;----------------------------------------------------------------------
    1135 00000002 1001F88D          STRB      A2, [SP, #1]          ; [DPU_3_PIPE] |115|  ; [KEEP 32-BIT INS]
    1136 00000006 0000F88D          STRB      A1, [SP, #0]          ; [DPU_3_PIPE] |115|  ; [KEEP 32-BIT INS]
    1137                            .dwpsn  file "../ds1820.c",line 117,column 6,is_stmt,isa 1
    1138                    ;----------------------------------------------------------------------
    1139                    ; 117 | for(i=0; i<8; i++)                                                     
    1140                    ;----------------------------------------------------------------------
    1141 0000000a 2000              MOVS      A1, #0                ; [DPU_3_PIPE] |117|  ; [ORIG 16-BIT INS]
    1142 0000000c 0002F88D          STRB      A1, [SP, #2]          ; [DPU_3_PIPE] |117|  ; [KEEP 32-BIT INS]
    1143                            .dwpsn  file "../ds1820.c",line 117,column 11,is_stmt,isa 1
    1144 00000010 0002F89D          LDRB      A1, [SP, #2]          ; [DPU_3_PIPE] |117|  ; [KEEP 32-BIT INS]
    1145 00000014 2808              CMP       A1, #8                ; [DPU_3_PIPE] |117|  ; [ORIG 16-BIT INS]
    1146 00000016 DA15              BGE       ||$C$L6||             ; [DPU_3_PIPE] |117|  ; [ORIG 16-BIT INS]
    1147                            ; BRANCHCC OCCURS {||$C$L6||}    ; [] |117| 
    1148                    ;* --------------------------------------------------------------------------*
    1149                    ;*   BEGIN LOOP ||$C$L5||
    1150                    ;*
    1151                    ;*   Loop source line                : 117
    1152                    ;*   Loop closing brace source line  : 121
    1153                    ;*   Known Minimum Trip Count        : 1
    1154                    ;*   Known Maximum Trip Count        : 4294967295
    1155                    ;*   Known Max Trip Count Factor     : 1
TI ARM Assembler PC v5.2.5 Tue Oct 20 19:15:40 2015

Tools Copyright (c) 1996-2015 Texas Instruments Incorporated
ds1820.asm                                                           PAGE   22

    1156                    ;* --------------------------------------------------------------------------*
    1157 00000018           ||$C$L5||:    
    1158                            .dwpsn  file "../ds1820.c",line 119,column 3,is_stmt,isa 1
    1159                    ;----------------------------------------------------------------------
    1160                    ; 119 | writeslot(sensor_id, data&1);                                          
    1161                    ;----------------------------------------------------------------------
    1162 00000018 1001F89D          LDRB      A2, [SP, #1]          ; [DPU_3_PIPE] |119|  ; [KEEP 32-BIT INS]
    1163 0000001c 0000F89D          LDRB      A1, [SP, #0]          ; [DPU_3_PIPE] |119|  ; [KEEP 32-BIT INS]
    1164 00000020 0101F001          AND       A2, A2, #1            ; [DPU_3_PIPE] |119|  ; [KEEP 32-BIT INS]
    1165                    $C$DW$93        .dwtag  DW_TAG_TI_branch
    1166                            .dwattr $C$DW$93, DW_AT_low_pc(0x00)
    1167                            .dwattr $C$DW$93, DW_AT_name("writeslot")
    1168                            .dwattr $C$DW$93, DW_AT_TI_call
    1169 00000024 FFFEF7FF!         BL        writeslot             ; [DPU_3_PIPE] |119|  ; [KEEP 32-BIT INS]
    1170                            ; CALL OCCURS {writeslot }       ; [] |119| 
    1171                            .dwpsn  file "../ds1820.c",line 120,column 3,is_stmt,isa 1
    1172                    ;----------------------------------------------------------------------
    1173                    ; 120 | data >>= 1;                                                            
    1174                    ;----------------------------------------------------------------------
    1175 00000028 0001F89D          LDRB      A1, [SP, #1]          ; [DPU_3_PIPE] |120|  ; [KEEP 32-BIT INS]
    1176 0000002c 1040              ASRS      A1, A1, #1            ; [DPU_3_PIPE] |120|  ; [ORIG 16-BIT INS]
    1177 0000002e 0001F88D          STRB      A1, [SP, #1]          ; [DPU_3_PIPE] |120|  ; [KEEP 32-BIT INS]
    1178                            .dwpsn  file "../ds1820.c",line 117,column 16,is_stmt,isa 1
    1179 00000032 0002F89D          LDRB      A1, [SP, #2]          ; [DPU_3_PIPE] |117|  ; [KEEP 32-BIT INS]
    1180 00000036 1C40              ADDS      A1, A1, #1            ; [DPU_3_PIPE] |117|  ; [ORIG 16-BIT INS]
    1181 00000038 0002F88D          STRB      A1, [SP, #2]          ; [DPU_3_PIPE] |117|  ; [KEEP 32-BIT INS]
    1182                            .dwpsn  file "../ds1820.c",line 117,column 11,is_stmt,isa 1
    1183 0000003c 0002F89D          LDRB      A1, [SP, #2]          ; [DPU_3_PIPE] |117|  ; [KEEP 32-BIT INS]
    1184 00000040 2808              CMP       A1, #8                ; [DPU_3_PIPE] |117|  ; [ORIG 16-BIT INS]
    1185 00000042 DBE9              BLT       ||$C$L5||             ; [DPU_3_PIPE] |117|  ; [ORIG 16-BIT INS]
    1186                            ; BRANCHCC OCCURS {||$C$L5||}    ; [] |117| 
    1187                    ;* --------------------------------------------------------------------------*
    1188                            .dwpsn  file "../ds1820.c",line 122,column 1,is_stmt,isa 1
    1189                    ;* --------------------------------------------------------------------------*
    1190                    ||$C$L6||:    
    1191                    $C$DW$94        .dwtag  DW_TAG_TI_branch
    1192                            .dwattr $C$DW$94, DW_AT_low_pc(0x00)
    1193                            .dwattr $C$DW$94, DW_AT_TI_return
    1194 00000044 BD08              POP       {A4, PC}              ; [DPU_3_PIPE]  ; [ORIG 16-BIT INS]
    1195                            .dwcfi  cfa_offset, 0
    1196                            ; BRANCH OCCURS                  ; [] 
    1197                            .dwattr $C$DW$87, DW_AT_TI_end_file("../ds1820.c")
    1198                            .dwattr $C$DW$87, DW_AT_TI_end_line(0x7a)
    1199                            .dwattr $C$DW$87, DW_AT_TI_end_column(0x01)
    1200                            .dwendentry
    1201                            .dwendtag $C$DW$87
    1202                    
    1203 00000000                   .sect   ".text:read_scratchpad"
    1204                            .clink
    1205                            .thumbfunc read_scratchpad
    1206 00000000                   .thumb
    1207                            .global read_scratchpad
    1208                    
    1209                    $C$DW$95        .dwtag  DW_TAG_subprogram, DW_AT_name("read_scratchpad")
    1210                            .dwattr $C$DW$95, DW_AT_low_pc(read_scratchpad)
TI ARM Assembler PC v5.2.5 Tue Oct 20 19:15:40 2015

Tools Copyright (c) 1996-2015 Texas Instruments Incorporated
ds1820.asm                                                           PAGE   23

    1211                            .dwattr $C$DW$95, DW_AT_high_pc(0x00)
    1212                            .dwattr $C$DW$95, DW_AT_TI_symbol_name("read_scratchpad")
    1213                            .dwattr $C$DW$95, DW_AT_external
    1214                            .dwattr $C$DW$95, DW_AT_TI_begin_file("../ds1820.c")
    1215                            .dwattr $C$DW$95, DW_AT_TI_begin_line(0x7d)
    1216                            .dwattr $C$DW$95, DW_AT_TI_begin_column(0x06)
    1217                            .dwattr $C$DW$95, DW_AT_decl_file("../ds1820.c")
    1218                            .dwattr $C$DW$95, DW_AT_decl_line(0x7d)
    1219                            .dwattr $C$DW$95, DW_AT_decl_column(0x06)
    1220                            .dwattr $C$DW$95, DW_AT_TI_max_frame_size(0x08)
    1221                            .dwpsn  file "../ds1820.c",line 126,column 1,is_stmt,address read_scratchpad,isa 1
    1222                    
    1223                            .dwfde $C$DW$CIE, read_scratchpad
    1224                    $C$DW$96        .dwtag  DW_TAG_formal_parameter, DW_AT_name("sensor_id")
    1225                            .dwattr $C$DW$96, DW_AT_TI_symbol_name("sensor_id")
    1226                            .dwattr $C$DW$96, DW_AT_type(*$C$DW$T$21)
    1227                            .dwattr $C$DW$96, DW_AT_location[DW_OP_reg0]
    1228                    ;----------------------------------------------------------------------
    1229                    ; 125 | void read_scratchpad(uint8_t sensor_id)                                
    1230                    ;----------------------------------------------------------------------
    1231                    
    1232                    ;*****************************************************************************
    1233                    ;* FUNCTION NAME: read_scratchpad                                            *
    1234                    ;*                                                                           *
    1235                    ;*   Regs Modified     : A1,A2,A3,A4,V9,SP,LR,SR,D0,D0_hi,D1,D1_hi,D2,D2_hi, *
    1236                    ;*                           D3,D3_hi,D4,D4_hi,D5,D5_hi,D6,D6_hi,D7,D7_hi,   *
    1237                    ;*                           FPEXC,FPSCR                                     *
    1238                    ;*   Regs Used         : A1,A2,A3,A4,V9,SP,LR,SR,D0,D0_hi,D1,D1_hi,D2,D2_hi, *
    1239                    ;*                           D3,D3_hi,D4,D4_hi,D5,D5_hi,D6,D6_hi,D7,D7_hi,   *
    1240                    ;*                           FPEXC,FPSCR                                     *
    1241                    ;*   Local Frame Size  : 0 Args + 4 Auto + 4 Save = 8 byte                   *
    1242                    ;*****************************************************************************
    1243 00000000           read_scratchpad:
    1244                    ;* --------------------------------------------------------------------------*
    1245                            .dwcfi  cfa_offset, 0
    1246 00000000 B508              PUSH      {A4, LR}              ; [DPU_3_PIPE]  ; [ORIG 16-BIT INS]
    1247                            .dwcfi  cfa_offset, 8
    1248                            .dwcfi  save_reg_to_mem, 14, -4
    1249                            .dwcfi  save_reg_to_mem, 3, -8
    1250                    $C$DW$97        .dwtag  DW_TAG_variable, DW_AT_name("sensor_id")
    1251                            .dwattr $C$DW$97, DW_AT_TI_symbol_name("sensor_id")
    1252                            .dwattr $C$DW$97, DW_AT_type(*$C$DW$T$21)
    1253                            .dwattr $C$DW$97, DW_AT_location[DW_OP_breg13 0]
    1254                    $C$DW$98        .dwtag  DW_TAG_variable, DW_AT_name("i")
    1255                            .dwattr $C$DW$98, DW_AT_TI_symbol_name("i")
    1256                            .dwattr $C$DW$98, DW_AT_type(*$C$DW$T$21)
    1257                            .dwattr $C$DW$98, DW_AT_location[DW_OP_breg13 1]
    1258                    ;----------------------------------------------------------------------
    1259                    ; 127 | uint8_t i;                                                             
    1260                    ;----------------------------------------------------------------------
    1261 00000002 0000F88D          STRB      A1, [SP, #0]          ; [DPU_3_PIPE] |126|  ; [KEEP 32-BIT INS]
    1262                            .dwpsn  file "../ds1820.c",line 128,column 2,is_stmt,isa 1
    1263                    ;----------------------------------------------------------------------
    1264                    ; 128 | temp_ds1820 = 0;                                                       
    1265                    ;----------------------------------------------------------------------
TI ARM Assembler PC v5.2.5 Tue Oct 20 19:15:40 2015

Tools Copyright (c) 1996-2015 Texas Instruments Incorporated
ds1820.asm                                                           PAGE   24

    1266 00000006 4915              LDR       A2, $C$CON10          ; [DPU_3_PIPE] |128|  ; [ORIG 16-BIT INS]
    1267 00000008 2000              MOVS      A1, #0                ; [DPU_3_PIPE] |128|  ; [ORIG 16-BIT INS]
    1268 0000000a 8008              STRH      A1, [A2, #0]          ; [DPU_3_PIPE] |128|  ; [ORIG 16-BIT INS]
    1269                            .dwpsn  file "../ds1820.c",line 129,column 6,is_stmt,isa 1
    1270                    ;----------------------------------------------------------------------
    1271                    ; 129 | for(i=0;i<8;i++)                                                       
    1272                    ;----------------------------------------------------------------------
    1273 0000000c 2000              MOVS      A1, #0                ; [DPU_3_PIPE] |129|  ; [ORIG 16-BIT INS]
    1274 0000000e 0001F88D          STRB      A1, [SP, #1]          ; [DPU_3_PIPE] |129|  ; [KEEP 32-BIT INS]
    1275                            .dwpsn  file "../ds1820.c",line 129,column 10,is_stmt,isa 1
    1276 00000012 0001F89D          LDRB      A1, [SP, #1]          ; [DPU_3_PIPE] |129|  ; [KEEP 32-BIT INS]
    1277 00000016 2808              CMP       A1, #8                ; [DPU_3_PIPE] |129|  ; [ORIG 16-BIT INS]
    1278 00000018 DA16              BGE       ||$C$L9||             ; [DPU_3_PIPE] |129|  ; [ORIG 16-BIT INS]
    1279                            ; BRANCHCC OCCURS {||$C$L9||}    ; [] |129| 
    1280                    ;* --------------------------------------------------------------------------*
    1281                    ;*   BEGIN LOOP ||$C$L7||
    1282                    ;*
    1283                    ;*   Loop source line                : 129
    1284                    ;*   Loop closing brace source line  : 136
    1285                    ;*   Known Minimum Trip Count        : 1
    1286                    ;*   Known Maximum Trip Count        : 4294967295
    1287                    ;*   Known Max Trip Count Factor     : 1
    1288                    ;* --------------------------------------------------------------------------*
    1289 0000001a           ||$C$L7||:    
    1290                            .dwpsn  file "../ds1820.c",line 131,column 3,is_stmt,isa 1
    1291                    ;----------------------------------------------------------------------
    1292                    ; 131 | temp_ds1820 >>= 1;                                                     
    1293                    ;----------------------------------------------------------------------
    1294 0000001a 4910              LDR       A2, $C$CON10          ; [DPU_3_PIPE] |131|  ; [ORIG 16-BIT INS]
    1295 0000001c 8808              LDRH      A1, [A2, #0]          ; [DPU_3_PIPE] |131|  ; [ORIG 16-BIT INS]
    1296 0000001e 1040              ASRS      A1, A1, #1            ; [DPU_3_PIPE] |131|  ; [ORIG 16-BIT INS]
    1297 00000020 8008              STRH      A1, [A2, #0]          ; [DPU_3_PIPE] |131|  ; [ORIG 16-BIT INS]
    1298                            .dwpsn  file "../ds1820.c",line 132,column 3,is_stmt,isa 1
    1299                    ;----------------------------------------------------------------------
    1300                    ; 132 | if(readslot(sensor_id))                                                
    1301                    ;----------------------------------------------------------------------
    1302 00000022 0000F89D          LDRB      A1, [SP, #0]          ; [DPU_3_PIPE] |132|  ; [KEEP 32-BIT INS]
    1303                    $C$DW$99        .dwtag  DW_TAG_TI_branch
    1304                            .dwattr $C$DW$99, DW_AT_low_pc(0x00)
    1305                            .dwattr $C$DW$99, DW_AT_name("readslot")
    1306                            .dwattr $C$DW$99, DW_AT_TI_call
    1307 00000026 FFFEF7FF!         BL        readslot              ; [DPU_3_PIPE] |132|  ; [KEEP 32-BIT INS]
    1308                            ; CALL OCCURS {readslot }        ; [] |132| 
    1309 0000002a B120              CBZ       A1, ||$C$L8||         ; []  ; [ORIG 16-BIT INS]
    1310                            ; BRANCHCC OCCURS {||$C$L8||}    ; [] |132| 
    1311                    ;* --------------------------------------------------------------------------*
    1312                            .dwpsn  file "../ds1820.c",line 134,column 4,is_stmt,isa 1
    1313                    ;----------------------------------------------------------------------
    1314                    ; 134 | temp_ds1820 |= 0x80;                                                   
    1315                    ;----------------------------------------------------------------------
    1316 0000002c 490B              LDR       A2, $C$CON10          ; [DPU_3_PIPE] |134|  ; [ORIG 16-BIT INS]
    1317 0000002e 8808              LDRH      A1, [A2, #0]          ; [DPU_3_PIPE] |134|  ; [ORIG 16-BIT INS]
    1318 00000030 0080F040          ORR       A1, A1, #128          ; [DPU_3_PIPE] |134|  ; [KEEP 32-BIT INS]
    1319 00000034 8008              STRH      A1, [A2, #0]          ; [DPU_3_PIPE] |134|  ; [ORIG 16-BIT INS]
    1320                    ;* --------------------------------------------------------------------------*
TI ARM Assembler PC v5.2.5 Tue Oct 20 19:15:40 2015

Tools Copyright (c) 1996-2015 Texas Instruments Incorporated
ds1820.asm                                                           PAGE   25

    1321 00000036           ||$C$L8||:    
    1322                            .dwpsn  file "../ds1820.c",line 129,column 14,is_stmt,isa 1
    1323 00000036 0001F89D          LDRB      A1, [SP, #1]          ; [DPU_3_PIPE] |129|  ; [KEEP 32-BIT INS]
    1324 0000003a 1C40              ADDS      A1, A1, #1            ; [DPU_3_PIPE] |129|  ; [ORIG 16-BIT INS]
    1325 0000003c 0001F88D          STRB      A1, [SP, #1]          ; [DPU_3_PIPE] |129|  ; [KEEP 32-BIT INS]
    1326                            .dwpsn  file "../ds1820.c",line 129,column 10,is_stmt,isa 1
    1327 00000040 0001F89D          LDRB      A1, [SP, #1]          ; [DPU_3_PIPE] |129|  ; [KEEP 32-BIT INS]
    1328 00000044 2808              CMP       A1, #8                ; [DPU_3_PIPE] |129|  ; [ORIG 16-BIT INS]
    1329 00000046 DBE8              BLT       ||$C$L7||             ; [DPU_3_PIPE] |129|  ; [ORIG 16-BIT INS]
    1330                            ; BRANCHCC OCCURS {||$C$L7||}    ; [] |129| 
    1331                    ;* --------------------------------------------------------------------------*
    1332 00000048           ||$C$L9||:    
    1333                            .dwpsn  file "../ds1820.c",line 137,column 2,is_stmt,isa 1
    1334                    ;----------------------------------------------------------------------
    1335                    ; 137 | temp_ds1820 &= 0xff;                                                   
    1336                    ;----------------------------------------------------------------------
    1337 00000048 4904              LDR       A2, $C$CON10          ; [DPU_3_PIPE] |137|  ; [ORIG 16-BIT INS]
    1338 0000004a 8808              LDRH      A1, [A2, #0]          ; [DPU_3_PIPE] |137|  ; [ORIG 16-BIT INS]
    1339 0000004c 00FFF000          AND       A1, A1, #255          ; [DPU_3_PIPE] |137|  ; [KEEP 32-BIT INS]
    1340 00000050 8008              STRH      A1, [A2, #0]          ; [DPU_3_PIPE] |137|  ; [ORIG 16-BIT INS]
    1341                            .dwpsn  file "../ds1820.c",line 138,column 2,is_stmt,isa 1
    1342                    ;----------------------------------------------------------------------
    1343                    ; 138 | temp_ds1820 >>= 1;//truncate the LSB                                   
    1344                    ; 140 | #if 0                                                                  
    1345                    ; 141 | temp_ds1820 = ((0xff - temp_ds1820) + 1) >> 1;// convert from 2's compl
    1346                    ;     | ement                                                                  
    1347                    ; 142 | #endif                                                                 
    1348                    ;----------------------------------------------------------------------
    1349 00000052 4902              LDR       A2, $C$CON10          ; [DPU_3_PIPE] |138|  ; [ORIG 16-BIT INS]
    1350 00000054 8808              LDRH      A1, [A2, #0]          ; [DPU_3_PIPE] |138|  ; [ORIG 16-BIT INS]
    1351 00000056 1040              ASRS      A1, A1, #1            ; [DPU_3_PIPE] |138|  ; [ORIG 16-BIT INS]
    1352 00000058 8008              STRH      A1, [A2, #0]          ; [DPU_3_PIPE] |138|  ; [ORIG 16-BIT INS]
    1353                            .dwpsn  file "../ds1820.c",line 143,column 1,is_stmt,isa 1
    1354                    $C$DW$100       .dwtag  DW_TAG_TI_branch
    1355                            .dwattr $C$DW$100, DW_AT_low_pc(0x00)
    1356                            .dwattr $C$DW$100, DW_AT_TI_return
    1357 0000005a BD08              POP       {A4, PC}              ; [DPU_3_PIPE]  ; [ORIG 16-BIT INS]
    1358                            .dwcfi  cfa_offset, 0
    1359                            ; BRANCH OCCURS                  ; [] 
    1360                            .dwattr $C$DW$95, DW_AT_TI_end_file("../ds1820.c")
    1361                            .dwattr $C$DW$95, DW_AT_TI_end_line(0x8f)
    1362                            .dwattr $C$DW$95, DW_AT_TI_end_column(0x01)
    1363                            .dwendentry
    1364                            .dwendtag $C$DW$95
    1365                    
    1366 00000000                   .sect   ".text:read_ds1820"
    1367                            .clink
    1368                            .thumbfunc read_ds1820
    1369 00000000                   .thumb
    1370                            .global read_ds1820
    1371                    
    1372                    $C$DW$101       .dwtag  DW_TAG_subprogram, DW_AT_name("read_ds1820")
    1373                            .dwattr $C$DW$101, DW_AT_low_pc(read_ds1820)
    1374                            .dwattr $C$DW$101, DW_AT_high_pc(0x00)
    1375                            .dwattr $C$DW$101, DW_AT_TI_symbol_name("read_ds1820")
TI ARM Assembler PC v5.2.5 Tue Oct 20 19:15:40 2015

Tools Copyright (c) 1996-2015 Texas Instruments Incorporated
ds1820.asm                                                           PAGE   26

    1376                            .dwattr $C$DW$101, DW_AT_external
    1377                            .dwattr $C$DW$101, DW_AT_type(*$C$DW$T$43)
    1378                            .dwattr $C$DW$101, DW_AT_TI_begin_file("../ds1820.c")
    1379                            .dwattr $C$DW$101, DW_AT_TI_begin_line(0x91)
    1380                            .dwattr $C$DW$101, DW_AT_TI_begin_column(0x0a)
    1381                            .dwattr $C$DW$101, DW_AT_decl_file("../ds1820.c")
    1382                            .dwattr $C$DW$101, DW_AT_decl_line(0x91)
    1383                            .dwattr $C$DW$101, DW_AT_decl_column(0x0a)
    1384                            .dwattr $C$DW$101, DW_AT_TI_max_frame_size(0x08)
    1385                            .dwpsn  file "../ds1820.c",line 146,column 1,is_stmt,address read_ds1820,isa 1
    1386                    
    1387                            .dwfde $C$DW$CIE, read_ds1820
    1388                    $C$DW$102       .dwtag  DW_TAG_formal_parameter, DW_AT_name("sensor_id")
    1389                            .dwattr $C$DW$102, DW_AT_TI_symbol_name("sensor_id")
    1390                            .dwattr $C$DW$102, DW_AT_type(*$C$DW$T$21)
    1391                            .dwattr $C$DW$102, DW_AT_location[DW_OP_reg0]
    1392                    ;----------------------------------------------------------------------
    1393                    ; 145 | uint16_t read_ds1820(uint8_t sensor_id)                                
    1394                    ;----------------------------------------------------------------------
    1395                    
    1396                    ;*****************************************************************************
    1397                    ;* FUNCTION NAME: read_ds1820                                                *
    1398                    ;*                                                                           *
    1399                    ;*   Regs Modified     : A1,A2,A3,A4,V9,SP,LR,SR,D0,D0_hi,D1,D1_hi,D2,D2_hi, *
    1400                    ;*                           D3,D3_hi,D4,D4_hi,D5,D5_hi,D6,D6_hi,D7,D7_hi,   *
    1401                    ;*                           FPEXC,FPSCR                                     *
    1402                    ;*   Regs Used         : A1,A2,A3,A4,V9,SP,LR,SR,D0,D0_hi,D1,D1_hi,D2,D2_hi, *
    1403                    ;*                           D3,D3_hi,D4,D4_hi,D5,D5_hi,D6,D6_hi,D7,D7_hi,   *
    1404                    ;*                           FPEXC,FPSCR                                     *
    1405                    ;*   Local Frame Size  : 0 Args + 4 Auto + 4 Save = 8 byte                   *
    1406                    ;*****************************************************************************
    1407 00000000           read_ds1820:
    1408                    ;* --------------------------------------------------------------------------*
    1409                            .dwcfi  cfa_offset, 0
    1410 00000000 B508              PUSH      {A4, LR}              ; [DPU_3_PIPE]  ; [ORIG 16-BIT INS]
    1411                            .dwcfi  cfa_offset, 8
    1412                            .dwcfi  save_reg_to_mem, 14, -4
    1413                            .dwcfi  save_reg_to_mem, 3, -8
    1414                    $C$DW$103       .dwtag  DW_TAG_variable, DW_AT_name("sensor_id")
    1415                            .dwattr $C$DW$103, DW_AT_TI_symbol_name("sensor_id")
    1416                            .dwattr $C$DW$103, DW_AT_type(*$C$DW$T$21)
    1417                            .dwattr $C$DW$103, DW_AT_location[DW_OP_breg13 0]
    1418 00000002 0000F88D          STRB      A1, [SP, #0]          ; [DPU_3_PIPE] |146|  ; [KEEP 32-BIT INS]
    1419                            .dwpsn  file "../ds1820.c",line 147,column 2,is_stmt,isa 1
    1420                    ;----------------------------------------------------------------------
    1421                    ; 147 | reset_ds1820(sensor_id);                                               
    1422                    ;----------------------------------------------------------------------
    1423 00000006 0000F89D          LDRB      A1, [SP, #0]          ; [DPU_3_PIPE] |147|  ; [KEEP 32-BIT INS]
    1424                    $C$DW$104       .dwtag  DW_TAG_TI_branch
    1425                            .dwattr $C$DW$104, DW_AT_low_pc(0x00)
    1426                            .dwattr $C$DW$104, DW_AT_name("reset_ds1820")
    1427                            .dwattr $C$DW$104, DW_AT_TI_call
    1428 0000000a FFFEF7FF!         BL        reset_ds1820          ; [DPU_3_PIPE] |147|  ; [KEEP 32-BIT INS]
    1429                            ; CALL OCCURS {reset_ds1820 }    ; [] |147| 
    1430                            .dwpsn  file "../ds1820.c",line 148,column 2,is_stmt,isa 1
TI ARM Assembler PC v5.2.5 Tue Oct 20 19:15:40 2015

Tools Copyright (c) 1996-2015 Texas Instruments Incorporated
ds1820.asm                                                           PAGE   27

    1431                    ;----------------------------------------------------------------------
    1432                    ; 148 | write_ds1820(sensor_id, DS1820_CONVERT_T);                             
    1433                    ;----------------------------------------------------------------------
    1434 0000000e 0000F89D          LDRB      A1, [SP, #0]          ; [DPU_3_PIPE] |148|  ; [KEEP 32-BIT INS]
    1435 00000012 2144              MOVS      A2, #68               ; [DPU_3_PIPE] |148|  ; [ORIG 16-BIT INS]
    1436                    $C$DW$105       .dwtag  DW_TAG_TI_branch
    1437                            .dwattr $C$DW$105, DW_AT_low_pc(0x00)
    1438                            .dwattr $C$DW$105, DW_AT_name("write_ds1820")
    1439                            .dwattr $C$DW$105, DW_AT_TI_call
    1440 00000014 FFFEF7FF!         BL        write_ds1820          ; [DPU_3_PIPE] |148|  ; [KEEP 32-BIT INS]
    1441                            ; CALL OCCURS {write_ds1820 }    ; [] |148| 
    1442                            .dwpsn  file "../ds1820.c",line 149,column 2,is_stmt,isa 1
    1443                    ;----------------------------------------------------------------------
    1444                    ; 149 | write_ds1820(sensor_id, DS1820_SKIP_ROM);                              
    1445                    ;----------------------------------------------------------------------
    1446 00000018 0000F89D          LDRB      A1, [SP, #0]          ; [DPU_3_PIPE] |149|  ; [KEEP 32-BIT INS]
    1447 0000001c 21CC              MOVS      A2, #204              ; [DPU_3_PIPE] |149|  ; [ORIG 16-BIT INS]
    1448                    $C$DW$106       .dwtag  DW_TAG_TI_branch
    1449                            .dwattr $C$DW$106, DW_AT_low_pc(0x00)
    1450                            .dwattr $C$DW$106, DW_AT_name("write_ds1820")
    1451                            .dwattr $C$DW$106, DW_AT_TI_call
    1452 0000001e FFFEF7FF!         BL        write_ds1820          ; [DPU_3_PIPE] |149|  ; [KEEP 32-BIT INS]
    1453                            ; CALL OCCURS {write_ds1820 }    ; [] |149| 
    1454                            .dwpsn  file "../ds1820.c",line 150,column 2,is_stmt,isa 1
    1455                    ;----------------------------------------------------------------------
    1456                    ; 150 | set_line(sensor_id, HIGH);                                             
    1457                    ;----------------------------------------------------------------------
    1458 00000022 0000F89D          LDRB      A1, [SP, #0]          ; [DPU_3_PIPE] |150|  ; [KEEP 32-BIT INS]
    1459 00000026 2101              MOVS      A2, #1                ; [DPU_3_PIPE] |150|  ; [ORIG 16-BIT INS]
    1460                    $C$DW$107       .dwtag  DW_TAG_TI_branch
    1461                            .dwattr $C$DW$107, DW_AT_low_pc(0x00)
    1462                            .dwattr $C$DW$107, DW_AT_name("set_line")
    1463                            .dwattr $C$DW$107, DW_AT_TI_call
    1464 00000028 FFFEF7FF!         BL        set_line              ; [DPU_3_PIPE] |150|  ; [KEEP 32-BIT INS]
    1465                            ; CALL OCCURS {set_line }        ; [] |150| 
    1466                            .dwpsn  file "../ds1820.c",line 151,column 2,is_stmt,isa 1
    1467                    ;----------------------------------------------------------------------
    1468                    ; 151 | delay_us(800);                                                         
    1469                    ;----------------------------------------------------------------------
    1470 0000002c 7048F44F          MOV       A1, #800              ; [DPU_3_PIPE] |151|  ; [KEEP 32-BIT INS]
    1471                    $C$DW$108       .dwtag  DW_TAG_TI_branch
    1472                            .dwattr $C$DW$108, DW_AT_low_pc(0x00)
    1473                            .dwattr $C$DW$108, DW_AT_name("delay_us")
    1474                            .dwattr $C$DW$108, DW_AT_TI_call
    1475 00000030 FFFEF7FF!         BL        delay_us              ; [DPU_3_PIPE] |151|  ; [KEEP 32-BIT INS]
    1476                            ; CALL OCCURS {delay_us }        ; [] |151| 
    1477                            .dwpsn  file "../ds1820.c",line 152,column 2,is_stmt,isa 1
    1478                    ;----------------------------------------------------------------------
    1479                    ; 152 | reset_ds1820(sensor_id);                                               
    1480                    ;----------------------------------------------------------------------
    1481 00000034 0000F89D          LDRB      A1, [SP, #0]          ; [DPU_3_PIPE] |152|  ; [KEEP 32-BIT INS]
    1482                    $C$DW$109       .dwtag  DW_TAG_TI_branch
    1483                            .dwattr $C$DW$109, DW_AT_low_pc(0x00)
    1484                            .dwattr $C$DW$109, DW_AT_name("reset_ds1820")
    1485                            .dwattr $C$DW$109, DW_AT_TI_call
TI ARM Assembler PC v5.2.5 Tue Oct 20 19:15:40 2015

Tools Copyright (c) 1996-2015 Texas Instruments Incorporated
ds1820.asm                                                           PAGE   28

    1486 00000038 FFFEF7FF!         BL        reset_ds1820          ; [DPU_3_PIPE] |152|  ; [KEEP 32-BIT INS]
    1487                            ; CALL OCCURS {reset_ds1820 }    ; [] |152| 
    1488                            .dwpsn  file "../ds1820.c",line 153,column 2,is_stmt,isa 1
    1489                    ;----------------------------------------------------------------------
    1490                    ; 153 | write_ds1820(sensor_id, DS1820_CONVERT_T);                             
    1491                    ;----------------------------------------------------------------------
    1492 0000003c 0000F89D          LDRB      A1, [SP, #0]          ; [DPU_3_PIPE] |153|  ; [KEEP 32-BIT INS]
    1493 00000040 2144              MOVS      A2, #68               ; [DPU_3_PIPE] |153|  ; [ORIG 16-BIT INS]
    1494                    $C$DW$110       .dwtag  DW_TAG_TI_branch
    1495                            .dwattr $C$DW$110, DW_AT_low_pc(0x00)
    1496                            .dwattr $C$DW$110, DW_AT_name("write_ds1820")
    1497                            .dwattr $C$DW$110, DW_AT_TI_call
    1498 00000042 FFFEF7FF!         BL        write_ds1820          ; [DPU_3_PIPE] |153|  ; [KEEP 32-BIT INS]
    1499                            ; CALL OCCURS {write_ds1820 }    ; [] |153| 
    1500                            .dwpsn  file "../ds1820.c",line 154,column 2,is_stmt,isa 1
    1501                    ;----------------------------------------------------------------------
    1502                    ; 154 | write_ds1820(sensor_id, DS1820_READ_SCRATCHPAD);                       
    1503                    ;----------------------------------------------------------------------
    1504 00000046 0000F89D          LDRB      A1, [SP, #0]          ; [DPU_3_PIPE] |154|  ; [KEEP 32-BIT INS]
    1505 0000004a 21BE              MOVS      A2, #190              ; [DPU_3_PIPE] |154|  ; [ORIG 16-BIT INS]
    1506                    $C$DW$111       .dwtag  DW_TAG_TI_branch
    1507                            .dwattr $C$DW$111, DW_AT_low_pc(0x00)
    1508                            .dwattr $C$DW$111, DW_AT_name("write_ds1820")
    1509                            .dwattr $C$DW$111, DW_AT_TI_call
    1510 0000004c FFFEF7FF!         BL        write_ds1820          ; [DPU_3_PIPE] |154|  ; [KEEP 32-BIT INS]
    1511                            ; CALL OCCURS {write_ds1820 }    ; [] |154| 
    1512                            .dwpsn  file "../ds1820.c",line 155,column 2,is_stmt,isa 1
    1513                    ;----------------------------------------------------------------------
    1514                    ; 155 | read_scratchpad(sensor_id);                                            
    1515                    ;----------------------------------------------------------------------
    1516 00000050 0000F89D          LDRB      A1, [SP, #0]          ; [DPU_3_PIPE] |155|  ; [KEEP 32-BIT INS]
    1517                    $C$DW$112       .dwtag  DW_TAG_TI_branch
    1518                            .dwattr $C$DW$112, DW_AT_low_pc(0x00)
    1519                            .dwattr $C$DW$112, DW_AT_name("read_scratchpad")
    1520                            .dwattr $C$DW$112, DW_AT_TI_call
    1521 00000054 FFFEF7FF!         BL        read_scratchpad       ; [DPU_3_PIPE] |155|  ; [KEEP 32-BIT INS]
    1522                            ; CALL OCCURS {read_scratchpad }  ; [] |155| 
    1523                            .dwpsn  file "../ds1820.c",line 156,column 2,is_stmt,isa 1
    1524                    ;----------------------------------------------------------------------
    1525                    ; 156 | reset_ds1820(sensor_id);                                               
    1526                    ;----------------------------------------------------------------------
    1527 00000058 0000F89D          LDRB      A1, [SP, #0]          ; [DPU_3_PIPE] |156|  ; [KEEP 32-BIT INS]
    1528                    $C$DW$113       .dwtag  DW_TAG_TI_branch
    1529                            .dwattr $C$DW$113, DW_AT_low_pc(0x00)
    1530                            .dwattr $C$DW$113, DW_AT_name("reset_ds1820")
    1531                            .dwattr $C$DW$113, DW_AT_TI_call
    1532 0000005c FFFEF7FF!         BL        reset_ds1820          ; [DPU_3_PIPE] |156|  ; [KEEP 32-BIT INS]
    1533                            ; CALL OCCURS {reset_ds1820 }    ; [] |156| 
    1534                            .dwpsn  file "../ds1820.c",line 157,column 2,is_stmt,isa 1
    1535                    ;----------------------------------------------------------------------
    1536                    ; 157 | if(temp_ds1820 == 85)                                                  
    1537                    ;----------------------------------------------------------------------
    1538 00000060 4804              LDR       A1, $C$CON11          ; [DPU_3_PIPE] |157|  ; [ORIG 16-BIT INS]
    1539 00000062 8800              LDRH      A1, [A1, #0]          ; [DPU_3_PIPE] |157|  ; [ORIG 16-BIT INS]
    1540 00000064 2855              CMP       A1, #85               ; [DPU_3_PIPE] |157|  ; [ORIG 16-BIT INS]
TI ARM Assembler PC v5.2.5 Tue Oct 20 19:15:40 2015

Tools Copyright (c) 1996-2015 Texas Instruments Incorporated
ds1820.asm                                                           PAGE   29

    1541 00000066 D102              BNE       ||$C$L10||            ; [DPU_3_PIPE] |157|  ; [ORIG 16-BIT INS]
    1542                            ; BRANCHCC OCCURS {||$C$L10||}   ; [] |157| 
    1543                    ;* --------------------------------------------------------------------------*
    1544                            .dwpsn  file "../ds1820.c",line 158,column 3,is_stmt,isa 1
    1545                    ;----------------------------------------------------------------------
    1546                    ; 158 | temp_ds1820 = 0;                                                       
    1547                    ;----------------------------------------------------------------------
    1548 00000068 4902              LDR       A2, $C$CON11          ; [DPU_3_PIPE] |158|  ; [ORIG 16-BIT INS]
    1549 0000006a 2000              MOVS      A1, #0                ; [DPU_3_PIPE] |158|  ; [ORIG 16-BIT INS]
    1550 0000006c 8008              STRH      A1, [A2, #0]          ; [DPU_3_PIPE] |158|  ; [ORIG 16-BIT INS]
    1551                    ;* --------------------------------------------------------------------------*
    1552 0000006e           ||$C$L10||:    
    1553                            .dwpsn  file "../ds1820.c",line 160,column 2,is_stmt,isa 1
    1554                    ;----------------------------------------------------------------------
    1555                    ; 160 | return temp_ds1820;                                                    
    1556                    ;----------------------------------------------------------------------
    1557 0000006e 4801              LDR       A1, $C$CON11          ; [DPU_3_PIPE] |160|  ; [ORIG 16-BIT INS]
    1558 00000070 8800              LDRH      A1, [A1, #0]          ; [DPU_3_PIPE] |160|  ; [ORIG 16-BIT INS]
    1559                            .dwpsn  file "../ds1820.c",line 161,column 1,is_stmt,isa 1
    1560                    $C$DW$114       .dwtag  DW_TAG_TI_branch
    1561                            .dwattr $C$DW$114, DW_AT_low_pc(0x00)
    1562                            .dwattr $C$DW$114, DW_AT_TI_return
    1563 00000072 BD08              POP       {A4, PC}              ; [DPU_3_PIPE]  ; [ORIG 16-BIT INS]
    1564                            .dwcfi  cfa_offset, 0
    1565                            ; BRANCH OCCURS                  ; [] 
    1566                            .dwattr $C$DW$101, DW_AT_TI_end_file("../ds1820.c")
    1567                            .dwattr $C$DW$101, DW_AT_TI_end_line(0xa1)
    1568                            .dwattr $C$DW$101, DW_AT_TI_end_column(0x01)
    1569                            .dwendentry
    1570                            .dwendtag $C$DW$101
    1571                    
    1572 00000000                   .sect   ".text:read_ds1820_1"
    1573                            .clink
    1574                            .thumbfunc read_ds1820_1
    1575 00000000                   .thumb
    1576                            .global read_ds1820_1
    1577                    
    1578                    $C$DW$115       .dwtag  DW_TAG_subprogram, DW_AT_name("read_ds1820_1")
    1579                            .dwattr $C$DW$115, DW_AT_low_pc(read_ds1820_1)
    1580                            .dwattr $C$DW$115, DW_AT_high_pc(0x00)
    1581                            .dwattr $C$DW$115, DW_AT_TI_symbol_name("read_ds1820_1")
    1582                            .dwattr $C$DW$115, DW_AT_external
    1583                            .dwattr $C$DW$115, DW_AT_type(*$C$DW$T$21)
    1584                            .dwattr $C$DW$115, DW_AT_TI_begin_file("../ds1820.c")
    1585                            .dwattr $C$DW$115, DW_AT_TI_begin_line(0xa3)
    1586                            .dwattr $C$DW$115, DW_AT_TI_begin_column(0x09)
    1587                            .dwattr $C$DW$115, DW_AT_decl_file("../ds1820.c")
    1588                            .dwattr $C$DW$115, DW_AT_decl_line(0xa3)
    1589                            .dwattr $C$DW$115, DW_AT_decl_column(0x09)
    1590                            .dwattr $C$DW$115, DW_AT_TI_max_frame_size(0x08)
    1591                            .dwpsn  file "../ds1820.c",line 164,column 1,is_stmt,address read_ds1820_1,isa 1
    1592                    
    1593                            .dwfde $C$DW$CIE, read_ds1820_1
    1594                    ;----------------------------------------------------------------------
    1595                    ; 163 | uint8_t read_ds1820_1()                                                
TI ARM Assembler PC v5.2.5 Tue Oct 20 19:15:40 2015

Tools Copyright (c) 1996-2015 Texas Instruments Incorporated
ds1820.asm                                                           PAGE   30

    1596                    ;----------------------------------------------------------------------
    1597                    
    1598                    ;*****************************************************************************
    1599                    ;* FUNCTION NAME: read_ds1820_1                                              *
    1600                    ;*                                                                           *
    1601                    ;*   Regs Modified     : A1,A2,A3,A4,V9,SP,LR,SR,D0,D0_hi,D1,D1_hi,D2,D2_hi, *
    1602                    ;*                           D3,D3_hi,D4,D4_hi,D5,D5_hi,D6,D6_hi,D7,D7_hi,   *
    1603                    ;*                           FPEXC,FPSCR                                     *
    1604                    ;*   Regs Used         : A1,A2,A3,A4,V9,SP,LR,SR,D0,D0_hi,D1,D1_hi,D2,D2_hi, *
    1605                    ;*                           D3,D3_hi,D4,D4_hi,D5,D5_hi,D6,D6_hi,D7,D7_hi,   *
    1606                    ;*                           FPEXC,FPSCR                                     *
    1607                    ;*   Local Frame Size  : 0 Args + 0 Auto + 4 Save = 4 byte                   *
    1608                    ;*****************************************************************************
    1609 00000000           read_ds1820_1:
    1610                    ;* --------------------------------------------------------------------------*
    1611                            .dwcfi  cfa_offset, 0
    1612 00000000 B508              PUSH      {A4, LR}              ; [DPU_3_PIPE]  ; [ORIG 16-BIT INS]
    1613                            .dwcfi  cfa_offset, 8
    1614                            .dwcfi  save_reg_to_mem, 14, -4
    1615                            .dwcfi  save_reg_to_mem, 3, -8
    1616                            .dwpsn  file "../ds1820.c",line 165,column 2,is_stmt,isa 1
    1617                    ;----------------------------------------------------------------------
    1618                    ; 165 | ds1820_data_bit = DS1820_1_DATA_PORT_BIT;                              
    1619                    ;----------------------------------------------------------------------
    1620 00000002 4904              LDR       A2, $C$CON12          ; [DPU_3_PIPE] |165|  ; [ORIG 16-BIT INS]
    1621 00000004 2001              MOVS      A1, #1                ; [DPU_3_PIPE] |165|  ; [ORIG 16-BIT INS]
    1622 00000006 7008              STRB      A1, [A2, #0]          ; [DPU_3_PIPE] |165|  ; [ORIG 16-BIT INS]
    1623                            .dwpsn  file "../ds1820.c",line 166,column 2,is_stmt,isa 1
    1624                    ;----------------------------------------------------------------------
    1625                    ; 166 | return (uint8_t)read_ds1820(1);                                        
    1626                    ;----------------------------------------------------------------------
    1627 00000008 2001              MOVS      A1, #1                ; [DPU_3_PIPE] |166|  ; [ORIG 16-BIT INS]
    1628                    $C$DW$116       .dwtag  DW_TAG_TI_branch
    1629                            .dwattr $C$DW$116, DW_AT_low_pc(0x00)
    1630                            .dwattr $C$DW$116, DW_AT_name("read_ds1820")
    1631                            .dwattr $C$DW$116, DW_AT_TI_call
    1632 0000000a FFFEF7FF!         BL        read_ds1820           ; [DPU_3_PIPE] |166|  ; [KEEP 32-BIT INS]
    1633                            ; CALL OCCURS {read_ds1820 }     ; [] |166| 
    1634 0000000e B2C0              UXTB      A1, A1                ; [DPU_3_PIPE] |166|  ; [ORIG 16-BIT INS]
    1635                            .dwpsn  file "../ds1820.c",line 167,column 1,is_stmt,isa 1
    1636                    $C$DW$117       .dwtag  DW_TAG_TI_branch
    1637                            .dwattr $C$DW$117, DW_AT_low_pc(0x00)
    1638                            .dwattr $C$DW$117, DW_AT_TI_return
    1639 00000010 BD08              POP       {A4, PC}              ; [DPU_3_PIPE]  ; [ORIG 16-BIT INS]
    1640                            .dwcfi  cfa_offset, 0
    1641                            ; BRANCH OCCURS                  ; [] 
    1642                            .dwattr $C$DW$115, DW_AT_TI_end_file("../ds1820.c")
    1643                            .dwattr $C$DW$115, DW_AT_TI_end_line(0xa7)
    1644                            .dwattr $C$DW$115, DW_AT_TI_end_column(0x01)
    1645                            .dwendentry
    1646                            .dwendtag $C$DW$115
    1647                    
    1648 00000000                   .sect   ".text:read_ds1820_2"
    1649                            .clink
    1650                            .thumbfunc read_ds1820_2
TI ARM Assembler PC v5.2.5 Tue Oct 20 19:15:40 2015

Tools Copyright (c) 1996-2015 Texas Instruments Incorporated
ds1820.asm                                                           PAGE   31

    1651 00000000                   .thumb
    1652                            .global read_ds1820_2
    1653                    
    1654                    $C$DW$118       .dwtag  DW_TAG_subprogram, DW_AT_name("read_ds1820_2")
    1655                            .dwattr $C$DW$118, DW_AT_low_pc(read_ds1820_2)
    1656                            .dwattr $C$DW$118, DW_AT_high_pc(0x00)
    1657                            .dwattr $C$DW$118, DW_AT_TI_symbol_name("read_ds1820_2")
    1658                            .dwattr $C$DW$118, DW_AT_external
    1659                            .dwattr $C$DW$118, DW_AT_type(*$C$DW$T$21)
    1660                            .dwattr $C$DW$118, DW_AT_TI_begin_file("../ds1820.c")
    1661                            .dwattr $C$DW$118, DW_AT_TI_begin_line(0xa8)
    1662                            .dwattr $C$DW$118, DW_AT_TI_begin_column(0x09)
    1663                            .dwattr $C$DW$118, DW_AT_decl_file("../ds1820.c")
    1664                            .dwattr $C$DW$118, DW_AT_decl_line(0xa8)
    1665                            .dwattr $C$DW$118, DW_AT_decl_column(0x09)
    1666                            .dwattr $C$DW$118, DW_AT_TI_max_frame_size(0x08)
    1667                            .dwpsn  file "../ds1820.c",line 169,column 1,is_stmt,address read_ds1820_2,isa 1
    1668                    
    1669                            .dwfde $C$DW$CIE, read_ds1820_2
    1670                    ;----------------------------------------------------------------------
    1671                    ; 168 | uint8_t read_ds1820_2()                                                
    1672                    ;----------------------------------------------------------------------
    1673                    
    1674                    ;*****************************************************************************
    1675                    ;* FUNCTION NAME: read_ds1820_2                                              *
    1676                    ;*                                                                           *
    1677                    ;*   Regs Modified     : A1,A2,A3,A4,V9,SP,LR,SR,D0,D0_hi,D1,D1_hi,D2,D2_hi, *
    1678                    ;*                           D3,D3_hi,D4,D4_hi,D5,D5_hi,D6,D6_hi,D7,D7_hi,   *
    1679                    ;*                           FPEXC,FPSCR                                     *
    1680                    ;*   Regs Used         : A1,A2,A3,A4,V9,SP,LR,SR,D0,D0_hi,D1,D1_hi,D2,D2_hi, *
    1681                    ;*                           D3,D3_hi,D4,D4_hi,D5,D5_hi,D6,D6_hi,D7,D7_hi,   *
    1682                    ;*                           FPEXC,FPSCR                                     *
    1683                    ;*   Local Frame Size  : 0 Args + 0 Auto + 4 Save = 4 byte                   *
    1684                    ;*****************************************************************************
    1685 00000000           read_ds1820_2:
    1686                    ;* --------------------------------------------------------------------------*
    1687                            .dwcfi  cfa_offset, 0
    1688 00000000 B508              PUSH      {A4, LR}              ; [DPU_3_PIPE]  ; [ORIG 16-BIT INS]
    1689                            .dwcfi  cfa_offset, 8
    1690                            .dwcfi  save_reg_to_mem, 14, -4
    1691                            .dwcfi  save_reg_to_mem, 3, -8
    1692                            .dwpsn  file "../ds1820.c",line 170,column 2,is_stmt,isa 1
    1693                    ;----------------------------------------------------------------------
    1694                    ; 170 | ds1820_data_bit = DS1820_2_DATA_PORT_BIT;                              
    1695                    ;----------------------------------------------------------------------
    1696 00000002 4904              LDR       A2, $C$CON13          ; [DPU_3_PIPE] |170|  ; [ORIG 16-BIT INS]
    1697 00000004 2002              MOVS      A1, #2                ; [DPU_3_PIPE] |170|  ; [ORIG 16-BIT INS]
    1698 00000006 7008              STRB      A1, [A2, #0]          ; [DPU_3_PIPE] |170|  ; [ORIG 16-BIT INS]
    1699                            .dwpsn  file "../ds1820.c",line 171,column 2,is_stmt,isa 1
    1700                    ;----------------------------------------------------------------------
    1701                    ; 171 | return (uint8_t)read_ds1820(2);                                        
    1702                    ;----------------------------------------------------------------------
    1703 00000008 2002              MOVS      A1, #2                ; [DPU_3_PIPE] |171|  ; [ORIG 16-BIT INS]
    1704                    $C$DW$119       .dwtag  DW_TAG_TI_branch
    1705                            .dwattr $C$DW$119, DW_AT_low_pc(0x00)
TI ARM Assembler PC v5.2.5 Tue Oct 20 19:15:40 2015

Tools Copyright (c) 1996-2015 Texas Instruments Incorporated
ds1820.asm                                                           PAGE   32

    1706                            .dwattr $C$DW$119, DW_AT_name("read_ds1820")
    1707                            .dwattr $C$DW$119, DW_AT_TI_call
    1708 0000000a FFFEF7FF!         BL        read_ds1820           ; [DPU_3_PIPE] |171|  ; [KEEP 32-BIT INS]
    1709                            ; CALL OCCURS {read_ds1820 }     ; [] |171| 
    1710 0000000e B2C0              UXTB      A1, A1                ; [DPU_3_PIPE] |171|  ; [ORIG 16-BIT INS]
    1711                            .dwpsn  file "../ds1820.c",line 172,column 1,is_stmt,isa 1
    1712                    $C$DW$120       .dwtag  DW_TAG_TI_branch
    1713                            .dwattr $C$DW$120, DW_AT_low_pc(0x00)
    1714                            .dwattr $C$DW$120, DW_AT_TI_return
    1715 00000010 BD08              POP       {A4, PC}              ; [DPU_3_PIPE]  ; [ORIG 16-BIT INS]
    1716                            .dwcfi  cfa_offset, 0
    1717                            ; BRANCH OCCURS                  ; [] 
    1718                            .dwattr $C$DW$118, DW_AT_TI_end_file("../ds1820.c")
    1719                            .dwattr $C$DW$118, DW_AT_TI_end_line(0xac)
    1720                            .dwattr $C$DW$118, DW_AT_TI_end_column(0x01)
    1721                            .dwendentry
    1722                            .dwendtag $C$DW$118
    1723                    
    1724 00000000                   .sect   ".text:read_ds1820_3"
    1725                            .clink
    1726                            .thumbfunc read_ds1820_3
    1727 00000000                   .thumb
    1728                            .global read_ds1820_3
    1729                    
    1730                    $C$DW$121       .dwtag  DW_TAG_subprogram, DW_AT_name("read_ds1820_3")
    1731                            .dwattr $C$DW$121, DW_AT_low_pc(read_ds1820_3)
    1732                            .dwattr $C$DW$121, DW_AT_high_pc(0x00)
    1733                            .dwattr $C$DW$121, DW_AT_TI_symbol_name("read_ds1820_3")
    1734                            .dwattr $C$DW$121, DW_AT_external
    1735                            .dwattr $C$DW$121, DW_AT_type(*$C$DW$T$21)
    1736                            .dwattr $C$DW$121, DW_AT_TI_begin_file("../ds1820.c")
    1737                            .dwattr $C$DW$121, DW_AT_TI_begin_line(0xad)
    1738                            .dwattr $C$DW$121, DW_AT_TI_begin_column(0x09)
    1739                            .dwattr $C$DW$121, DW_AT_decl_file("../ds1820.c")
    1740                            .dwattr $C$DW$121, DW_AT_decl_line(0xad)
    1741                            .dwattr $C$DW$121, DW_AT_decl_column(0x09)
    1742                            .dwattr $C$DW$121, DW_AT_TI_max_frame_size(0x08)
    1743                            .dwpsn  file "../ds1820.c",line 174,column 1,is_stmt,address read_ds1820_3,isa 1
    1744                    
    1745                            .dwfde $C$DW$CIE, read_ds1820_3
    1746                    ;----------------------------------------------------------------------
    1747                    ; 173 | uint8_t read_ds1820_3()                                                
    1748                    ;----------------------------------------------------------------------
    1749                    
    1750                    ;*****************************************************************************
    1751                    ;* FUNCTION NAME: read_ds1820_3                                              *
    1752                    ;*                                                                           *
    1753                    ;*   Regs Modified     : A1,A2,A3,A4,V9,SP,LR,SR,D0,D0_hi,D1,D1_hi,D2,D2_hi, *
    1754                    ;*                           D3,D3_hi,D4,D4_hi,D5,D5_hi,D6,D6_hi,D7,D7_hi,   *
    1755                    ;*                           FPEXC,FPSCR                                     *
    1756                    ;*   Regs Used         : A1,A2,A3,A4,V9,SP,LR,SR,D0,D0_hi,D1,D1_hi,D2,D2_hi, *
    1757                    ;*                           D3,D3_hi,D4,D4_hi,D5,D5_hi,D6,D6_hi,D7,D7_hi,   *
    1758                    ;*                           FPEXC,FPSCR                                     *
    1759                    ;*   Local Frame Size  : 0 Args + 0 Auto + 4 Save = 4 byte                   *
    1760                    ;*****************************************************************************
TI ARM Assembler PC v5.2.5 Tue Oct 20 19:15:40 2015

Tools Copyright (c) 1996-2015 Texas Instruments Incorporated
ds1820.asm                                                           PAGE   33

    1761 00000000           read_ds1820_3:
    1762                    ;* --------------------------------------------------------------------------*
    1763                            .dwcfi  cfa_offset, 0
    1764 00000000 B508              PUSH      {A4, LR}              ; [DPU_3_PIPE]  ; [ORIG 16-BIT INS]
    1765                            .dwcfi  cfa_offset, 8
    1766                            .dwcfi  save_reg_to_mem, 14, -4
    1767                            .dwcfi  save_reg_to_mem, 3, -8
    1768                            .dwpsn  file "../ds1820.c",line 175,column 2,is_stmt,isa 1
    1769                    ;----------------------------------------------------------------------
    1770                    ; 175 | return (uint8_t)read_ds1820(3);                                        
    1771                    ;----------------------------------------------------------------------
    1772 00000002 2003              MOVS      A1, #3                ; [DPU_3_PIPE] |175|  ; [ORIG 16-BIT INS]
    1773                    $C$DW$122       .dwtag  DW_TAG_TI_branch
    1774                            .dwattr $C$DW$122, DW_AT_low_pc(0x00)
    1775                            .dwattr $C$DW$122, DW_AT_name("read_ds1820")
    1776                            .dwattr $C$DW$122, DW_AT_TI_call
    1777 00000004 FFFEF7FF!         BL        read_ds1820           ; [DPU_3_PIPE] |175|  ; [KEEP 32-BIT INS]
    1778                            ; CALL OCCURS {read_ds1820 }     ; [] |175| 
    1779 00000008 B2C0              UXTB      A1, A1                ; [DPU_3_PIPE] |175|  ; [ORIG 16-BIT INS]
    1780                            .dwpsn  file "../ds1820.c",line 176,column 1,is_stmt,isa 1
    1781                    $C$DW$123       .dwtag  DW_TAG_TI_branch
    1782                            .dwattr $C$DW$123, DW_AT_low_pc(0x00)
    1783                            .dwattr $C$DW$123, DW_AT_TI_return
    1784 0000000a BD08              POP       {A4, PC}              ; [DPU_3_PIPE]  ; [ORIG 16-BIT INS]
    1785                            .dwcfi  cfa_offset, 0
    1786                            ; BRANCH OCCURS                  ; [] 
    1787                            .dwattr $C$DW$121, DW_AT_TI_end_file("../ds1820.c")
    1788                            .dwattr $C$DW$121, DW_AT_TI_end_line(0xb0)
    1789                            .dwattr $C$DW$121, DW_AT_TI_end_column(0x01)
    1790                            .dwendentry
    1791                            .dwendtag $C$DW$121
    1792                    
    1793                    ;******************************************************************************
    1794                    ;* CONSTANT TABLE                                                             *
    1795                    ;******************************************************************************
    1796 00000012                   .sect   ".text:set_mode_input"
    1797                            .align  4
    1798 00000012 000046C0! ||$C$CON1||:    .bits   ds1820_data_bit,32
         00000016 00000000 
    1799                            .align  4
    1800 00000016 70000000  ||$C$CON2||:    .bits   1073770496,32
         0000001a 00004000 
    1801                    ;******************************************************************************
    1802                    ;* CONSTANT TABLE                                                             *
    1803                    ;******************************************************************************
    1804 00000012                   .sect   ".text:set_mode_output"
    1805                            .align  4
    1806 00000012 000046C0! ||$C$CON3||:    .bits   ds1820_data_bit,32
         00000016 00000000 
    1807                            .align  4
    1808 00000016 70000000  ||$C$CON4||:    .bits   1073770496,32
         0000001a 00004000 
    1809                    ;******************************************************************************
    1810                    ;* CONSTANT TABLE                                                             *
    1811                    ;******************************************************************************
TI ARM Assembler PC v5.2.5 Tue Oct 20 19:15:40 2015

Tools Copyright (c) 1996-2015 Texas Instruments Incorporated
ds1820.asm                                                           PAGE   34

    1812 0000002e                   .sect   ".text:set_line"
    1813                            .align  4
    1814 0000002e 000046C0! ||$C$CON5||:    .bits   ds1820_data_bit,32
         00000032 00000000 
    1815                            .align  4
    1816 00000032 70000000  ||$C$CON6||:    .bits   1073770496,32
         00000036 00004000 
    1817                    ;******************************************************************************
    1818                    ;* CONSTANT TABLE                                                             *
    1819                    ;******************************************************************************
    1820 00000014                   .sect   ".text:get_line"
    1821                            .align  4
    1822 00000014 00000000! ||$C$CON7||:    .bits   ds1820_data_bit,32
    1823                            .align  4
    1824 00000018 40007000  ||$C$CON8||:    .bits   1073770496,32
    1825                    ;******************************************************************************
    1826                    ;* CONSTANT TABLE                                                             *
    1827                    ;******************************************************************************
    1828 0000000a                   .sect   ".text:init_ds1820"
    1829                            .align  4
    1830 0000000a 080346C0  ||$C$CON9||:    .bits   -268433405,32
         0000000e 0000F000 
    1831                    ;******************************************************************************
    1832                    ;* CONSTANT TABLE                                                             *
    1833                    ;******************************************************************************
    1834 0000005c                   .sect   ".text:read_scratchpad"
    1835                            .align  4
    1836 0000005c 00000000! ||$C$CON10||:   .bits   temp_ds1820,32
    1837                    ;******************************************************************************
    1838                    ;* CONSTANT TABLE                                                             *
    1839                    ;******************************************************************************
    1840 00000074                   .sect   ".text:read_ds1820"
    1841                            .align  4
    1842 00000074 00000000! ||$C$CON11||:   .bits   temp_ds1820,32
    1843                    ;******************************************************************************
    1844                    ;* CONSTANT TABLE                                                             *
    1845                    ;******************************************************************************
    1846 00000012                   .sect   ".text:read_ds1820_1"
    1847                            .align  4
    1848 00000012 000046C0! ||$C$CON12||:   .bits   ds1820_data_bit,32
         00000016 00000000 
    1849                    ;******************************************************************************
    1850                    ;* CONSTANT TABLE                                                             *
    1851                    ;******************************************************************************
    1852 00000012                   .sect   ".text:read_ds1820_2"
    1853                            .align  4
    1854 00000012 000046C0! ||$C$CON13||:   .bits   ds1820_data_bit,32
         00000016 00000000 
    1855                    ;*****************************************************************************
    1856                    ;* UNDEFINED EXTERNAL REFERENCES                                             *
    1857                    ;*****************************************************************************
    1858                            .global GPIOPinRead
    1859                            .global GPIOPinWrite
    1860                            .global GPIOPinTypeGPIOInput
    1861                            .global GPIOPinTypeGPIOOutput
TI ARM Assembler PC v5.2.5 Tue Oct 20 19:15:40 2015

Tools Copyright (c) 1996-2015 Texas Instruments Incorporated
ds1820.asm                                                           PAGE   35

    1862                            .global SysCtlPeripheralEnable
    1863                            .global delay_us
    1864                    
    1865                    ;******************************************************************************
    1866                    ;* BUILD ATTRIBUTES                                                           *
    1867                    ;******************************************************************************
    1868                            .battr "aeabi", Tag_File, 1, Tag_ABI_PCS_wchar_t(2)
    1869                            .battr "aeabi", Tag_File, 1, Tag_ABI_FP_rounding(0)
    1870                            .battr "aeabi", Tag_File, 1, Tag_ABI_FP_denormal(0)
    1871                            .battr "aeabi", Tag_File, 1, Tag_ABI_FP_exceptions(0)
    1872                            .battr "aeabi", Tag_File, 1, Tag_ABI_FP_number_model(1)
    1873                            .battr "aeabi", Tag_File, 1, Tag_ABI_enum_size(0)
    1874                            .battr "aeabi", Tag_File, 1, Tag_ABI_optimization_goals(5)
    1875                            .battr "aeabi", Tag_File, 1, Tag_ABI_FP_optimization_goals(0)
    1876                            .battr "TI", Tag_File, 1, Tag_Bitfield_layout(2)
    1877                            .battr "TI", Tag_File, 1, Tag_FP_interface(1)
    1878                    
    1879                    ;******************************************************************************
    1880                    ;* TYPE INFORMATION                                                           *
    1881                    ;******************************************************************************
    1882                    $C$DW$T$2       .dwtag  DW_TAG_unspecified_type
    1883                            .dwattr $C$DW$T$2, DW_AT_name("void")
    1884                    $C$DW$T$3       .dwtag  DW_TAG_pointer_type
    1885                            .dwattr $C$DW$T$3, DW_AT_type(*$C$DW$T$2)
    1886                            .dwattr $C$DW$T$3, DW_AT_address_class(0x20)
    1887                    $C$DW$T$4       .dwtag  DW_TAG_base_type
    1888                            .dwattr $C$DW$T$4, DW_AT_encoding(DW_ATE_boolean)
    1889                            .dwattr $C$DW$T$4, DW_AT_name("bool")
    1890                            .dwattr $C$DW$T$4, DW_AT_byte_size(0x01)
    1891                    $C$DW$T$5       .dwtag  DW_TAG_base_type
    1892                            .dwattr $C$DW$T$5, DW_AT_encoding(DW_ATE_signed_char)
    1893                            .dwattr $C$DW$T$5, DW_AT_name("signed char")
    1894                            .dwattr $C$DW$T$5, DW_AT_byte_size(0x01)
    1895                    $C$DW$T$33      .dwtag  DW_TAG_typedef, DW_AT_name("int8_t")
    1896                            .dwattr $C$DW$T$33, DW_AT_type(*$C$DW$T$5)
    1897                            .dwattr $C$DW$T$33, DW_AT_language(DW_LANG_C)
    1898                            .dwattr $C$DW$T$33, DW_AT_decl_file("C:/ti/ccsv6/tools/compiler/ti-cgt-arm_5.2.5/include/stdin
    1899                            .dwattr $C$DW$T$33, DW_AT_decl_line(0x2a)
    1900                            .dwattr $C$DW$T$33, DW_AT_decl_column(0x1d)
    1901                    $C$DW$T$34      .dwtag  DW_TAG_typedef, DW_AT_name("int_least8_t")
    1902                            .dwattr $C$DW$T$34, DW_AT_type(*$C$DW$T$33)
    1903                            .dwattr $C$DW$T$34, DW_AT_language(DW_LANG_C)
    1904                            .dwattr $C$DW$T$34, DW_AT_decl_file("C:/ti/ccsv6/tools/compiler/ti-cgt-arm_5.2.5/include/stdin
    1905                            .dwattr $C$DW$T$34, DW_AT_decl_line(0x37)
    1906                            .dwattr $C$DW$T$34, DW_AT_decl_column(0x17)
    1907                    $C$DW$T$6       .dwtag  DW_TAG_base_type
    1908                            .dwattr $C$DW$T$6, DW_AT_encoding(DW_ATE_unsigned_char)
    1909                            .dwattr $C$DW$T$6, DW_AT_name("unsigned char")
    1910                            .dwattr $C$DW$T$6, DW_AT_byte_size(0x01)
    1911                    $C$DW$T$21      .dwtag  DW_TAG_typedef, DW_AT_name("uint8_t")
    1912                            .dwattr $C$DW$T$21, DW_AT_type(*$C$DW$T$6)
    1913                            .dwattr $C$DW$T$21, DW_AT_language(DW_LANG_C)
    1914                            .dwattr $C$DW$T$21, DW_AT_decl_file("C:/ti/ccsv6/tools/compiler/ti-cgt-arm_5.2.5/include/stdin
    1915                            .dwattr $C$DW$T$21, DW_AT_decl_line(0x2b)
    1916                            .dwattr $C$DW$T$21, DW_AT_decl_column(0x1c)
TI ARM Assembler PC v5.2.5 Tue Oct 20 19:15:40 2015

Tools Copyright (c) 1996-2015 Texas Instruments Incorporated
ds1820.asm                                                           PAGE   36

    1917                    $C$DW$T$38      .dwtag  DW_TAG_typedef, DW_AT_name("uint_least8_t")
    1918                            .dwattr $C$DW$T$38, DW_AT_type(*$C$DW$T$21)
    1919                            .dwattr $C$DW$T$38, DW_AT_language(DW_LANG_C)
    1920                            .dwattr $C$DW$T$38, DW_AT_decl_file("C:/ti/ccsv6/tools/compiler/ti-cgt-arm_5.2.5/include/stdin
    1921                            .dwattr $C$DW$T$38, DW_AT_decl_line(0x38)
    1922                            .dwattr $C$DW$T$38, DW_AT_decl_column(0x16)
    1923                    $C$DW$T$7       .dwtag  DW_TAG_base_type
    1924                            .dwattr $C$DW$T$7, DW_AT_encoding(DW_ATE_signed_char)
    1925                            .dwattr $C$DW$T$7, DW_AT_name("wchar_t")
    1926                            .dwattr $C$DW$T$7, DW_AT_byte_size(0x02)
    1927                    $C$DW$T$8       .dwtag  DW_TAG_base_type
    1928                            .dwattr $C$DW$T$8, DW_AT_encoding(DW_ATE_signed)
    1929                            .dwattr $C$DW$T$8, DW_AT_name("short")
    1930                            .dwattr $C$DW$T$8, DW_AT_byte_size(0x02)
    1931                    $C$DW$T$39      .dwtag  DW_TAG_typedef, DW_AT_name("int16_t")
    1932                            .dwattr $C$DW$T$39, DW_AT_type(*$C$DW$T$8)
    1933                            .dwattr $C$DW$T$39, DW_AT_language(DW_LANG_C)
    1934                            .dwattr $C$DW$T$39, DW_AT_decl_file("C:/ti/ccsv6/tools/compiler/ti-cgt-arm_5.2.5/include/stdin
    1935                            .dwattr $C$DW$T$39, DW_AT_decl_line(0x2c)
    1936                            .dwattr $C$DW$T$39, DW_AT_decl_column(0x1d)
    1937                    $C$DW$T$40      .dwtag  DW_TAG_typedef, DW_AT_name("int_least16_t")
    1938                            .dwattr $C$DW$T$40, DW_AT_type(*$C$DW$T$39)
    1939                            .dwattr $C$DW$T$40, DW_AT_language(DW_LANG_C)
    1940                            .dwattr $C$DW$T$40, DW_AT_decl_file("C:/ti/ccsv6/tools/compiler/ti-cgt-arm_5.2.5/include/stdin
    1941                            .dwattr $C$DW$T$40, DW_AT_decl_line(0x3a)
    1942                            .dwattr $C$DW$T$40, DW_AT_decl_column(0x17)
    1943                    $C$DW$T$9       .dwtag  DW_TAG_base_type
    1944                            .dwattr $C$DW$T$9, DW_AT_encoding(DW_ATE_unsigned)
    1945                            .dwattr $C$DW$T$9, DW_AT_name("unsigned short")
    1946                            .dwattr $C$DW$T$9, DW_AT_byte_size(0x02)
    1947                    $C$DW$T$41      .dwtag  DW_TAG_typedef, DW_AT_name("_Wchart")
    1948                            .dwattr $C$DW$T$41, DW_AT_type(*$C$DW$T$9)
    1949                            .dwattr $C$DW$T$41, DW_AT_language(DW_LANG_C)
    1950                            .dwattr $C$DW$T$41, DW_AT_decl_file("C:/ti/ccsv6/tools/compiler/ti-cgt-arm_5.2.5/include/yvals
    1951                            .dwattr $C$DW$T$41, DW_AT_decl_line(0x1e5)
    1952                            .dwattr $C$DW$T$41, DW_AT_decl_column(0x21)
    1953                    $C$DW$T$42      .dwtag  DW_TAG_typedef, DW_AT_name("_Wintt")
    1954                            .dwattr $C$DW$T$42, DW_AT_type(*$C$DW$T$9)
    1955                            .dwattr $C$DW$T$42, DW_AT_language(DW_LANG_C)
    1956                            .dwattr $C$DW$T$42, DW_AT_decl_file("C:/ti/ccsv6/tools/compiler/ti-cgt-arm_5.2.5/include/yvals
    1957                            .dwattr $C$DW$T$42, DW_AT_decl_line(0x1e6)
    1958                            .dwattr $C$DW$T$42, DW_AT_decl_column(0x21)
    1959                    $C$DW$T$43      .dwtag  DW_TAG_typedef, DW_AT_name("uint16_t")
    1960                            .dwattr $C$DW$T$43, DW_AT_type(*$C$DW$T$9)
    1961                            .dwattr $C$DW$T$43, DW_AT_language(DW_LANG_C)
    1962                            .dwattr $C$DW$T$43, DW_AT_decl_file("C:/ti/ccsv6/tools/compiler/ti-cgt-arm_5.2.5/include/stdin
    1963                            .dwattr $C$DW$T$43, DW_AT_decl_line(0x2d)
    1964                            .dwattr $C$DW$T$43, DW_AT_decl_column(0x1c)
    1965                    $C$DW$T$46      .dwtag  DW_TAG_typedef, DW_AT_name("uint_least16_t")
    1966                            .dwattr $C$DW$T$46, DW_AT_type(*$C$DW$T$43)
    1967                            .dwattr $C$DW$T$46, DW_AT_language(DW_LANG_C)
    1968                            .dwattr $C$DW$T$46, DW_AT_decl_file("C:/ti/ccsv6/tools/compiler/ti-cgt-arm_5.2.5/include/stdin
    1969                            .dwattr $C$DW$T$46, DW_AT_decl_line(0x3b)
    1970                            .dwattr $C$DW$T$46, DW_AT_decl_column(0x16)
    1971                    $C$DW$T$10      .dwtag  DW_TAG_base_type
TI ARM Assembler PC v5.2.5 Tue Oct 20 19:15:40 2015

Tools Copyright (c) 1996-2015 Texas Instruments Incorporated
ds1820.asm                                                           PAGE   37

    1972                            .dwattr $C$DW$T$10, DW_AT_encoding(DW_ATE_signed)
    1973                            .dwattr $C$DW$T$10, DW_AT_name("int")
    1974                            .dwattr $C$DW$T$10, DW_AT_byte_size(0x04)
    1975                    $C$DW$T$47      .dwtag  DW_TAG_typedef, DW_AT_name("_Ptrdifft")
    1976                            .dwattr $C$DW$T$47, DW_AT_type(*$C$DW$T$10)
    1977                            .dwattr $C$DW$T$47, DW_AT_language(DW_LANG_C)
    1978                            .dwattr $C$DW$T$47, DW_AT_decl_file("C:/ti/ccsv6/tools/compiler/ti-cgt-arm_5.2.5/include/yvals
    1979                            .dwattr $C$DW$T$47, DW_AT_decl_line(0xa9)
    1980                            .dwattr $C$DW$T$47, DW_AT_decl_column(0x1e)
    1981                    $C$DW$T$48      .dwtag  DW_TAG_typedef, DW_AT_name("int32_t")
    1982                            .dwattr $C$DW$T$48, DW_AT_type(*$C$DW$T$10)
    1983                            .dwattr $C$DW$T$48, DW_AT_language(DW_LANG_C)
    1984                            .dwattr $C$DW$T$48, DW_AT_decl_file("C:/ti/ccsv6/tools/compiler/ti-cgt-arm_5.2.5/include/stdin
    1985                            .dwattr $C$DW$T$48, DW_AT_decl_line(0x2e)
    1986                            .dwattr $C$DW$T$48, DW_AT_decl_column(0x1d)
    1987                    $C$DW$T$51      .dwtag  DW_TAG_typedef, DW_AT_name("int_fast16_t")
    1988                            .dwattr $C$DW$T$51, DW_AT_type(*$C$DW$T$48)
    1989                            .dwattr $C$DW$T$51, DW_AT_language(DW_LANG_C)
    1990                            .dwattr $C$DW$T$51, DW_AT_decl_file("C:/ti/ccsv6/tools/compiler/ti-cgt-arm_5.2.5/include/stdin
    1991                            .dwattr $C$DW$T$51, DW_AT_decl_line(0x47)
    1992                            .dwattr $C$DW$T$51, DW_AT_decl_column(0x17)
    1993                    $C$DW$T$52      .dwtag  DW_TAG_typedef, DW_AT_name("int_fast32_t")
    1994                            .dwattr $C$DW$T$52, DW_AT_type(*$C$DW$T$48)
    1995                            .dwattr $C$DW$T$52, DW_AT_language(DW_LANG_C)
    1996                            .dwattr $C$DW$T$52, DW_AT_decl_file("C:/ti/ccsv6/tools/compiler/ti-cgt-arm_5.2.5/include/stdin
    1997                            .dwattr $C$DW$T$52, DW_AT_decl_line(0x4a)
    1998                            .dwattr $C$DW$T$52, DW_AT_decl_column(0x17)
    1999                    $C$DW$T$53      .dwtag  DW_TAG_typedef, DW_AT_name("int_fast8_t")
    2000                            .dwattr $C$DW$T$53, DW_AT_type(*$C$DW$T$48)
    2001                            .dwattr $C$DW$T$53, DW_AT_language(DW_LANG_C)
    2002                            .dwattr $C$DW$T$53, DW_AT_decl_file("C:/ti/ccsv6/tools/compiler/ti-cgt-arm_5.2.5/include/stdin
    2003                            .dwattr $C$DW$T$53, DW_AT_decl_line(0x45)
    2004                            .dwattr $C$DW$T$53, DW_AT_decl_column(0x17)
    2005                    $C$DW$T$54      .dwtag  DW_TAG_typedef, DW_AT_name("int_least32_t")
    2006                            .dwattr $C$DW$T$54, DW_AT_type(*$C$DW$T$48)
    2007                            .dwattr $C$DW$T$54, DW_AT_language(DW_LANG_C)
    2008                            .dwattr $C$DW$T$54, DW_AT_decl_file("C:/ti/ccsv6/tools/compiler/ti-cgt-arm_5.2.5/include/stdin
    2009                            .dwattr $C$DW$T$54, DW_AT_decl_line(0x3c)
    2010                            .dwattr $C$DW$T$54, DW_AT_decl_column(0x17)
    2011                    $C$DW$T$55      .dwtag  DW_TAG_typedef, DW_AT_name("intptr_t")
    2012                            .dwattr $C$DW$T$55, DW_AT_type(*$C$DW$T$10)
    2013                            .dwattr $C$DW$T$55, DW_AT_language(DW_LANG_C)
    2014                            .dwattr $C$DW$T$55, DW_AT_decl_file("C:/ti/ccsv6/tools/compiler/ti-cgt-arm_5.2.5/include/stdin
    2015                            .dwattr $C$DW$T$55, DW_AT_decl_line(0x52)
    2016                            .dwattr $C$DW$T$55, DW_AT_decl_column(0x1a)
    2017                    $C$DW$T$11      .dwtag  DW_TAG_base_type
    2018                            .dwattr $C$DW$T$11, DW_AT_encoding(DW_ATE_unsigned)
    2019                            .dwattr $C$DW$T$11, DW_AT_name("unsigned int")
    2020                            .dwattr $C$DW$T$11, DW_AT_byte_size(0x04)
    2021                    $C$DW$T$56      .dwtag  DW_TAG_typedef, DW_AT_name("_Sizet")
    2022                            .dwattr $C$DW$T$56, DW_AT_type(*$C$DW$T$11)
    2023                            .dwattr $C$DW$T$56, DW_AT_language(DW_LANG_C)
    2024                            .dwattr $C$DW$T$56, DW_AT_decl_file("C:/ti/ccsv6/tools/compiler/ti-cgt-arm_5.2.5/include/yvals
    2025                            .dwattr $C$DW$T$56, DW_AT_decl_line(0xab)
    2026                            .dwattr $C$DW$T$56, DW_AT_decl_column(0x1a)
TI ARM Assembler PC v5.2.5 Tue Oct 20 19:15:40 2015

Tools Copyright (c) 1996-2015 Texas Instruments Incorporated
ds1820.asm                                                           PAGE   38

    2027                    $C$DW$T$20      .dwtag  DW_TAG_typedef, DW_AT_name("uint32_t")
    2028                            .dwattr $C$DW$T$20, DW_AT_type(*$C$DW$T$11)
    2029                            .dwattr $C$DW$T$20, DW_AT_language(DW_LANG_C)
    2030                            .dwattr $C$DW$T$20, DW_AT_decl_file("C:/ti/ccsv6/tools/compiler/ti-cgt-arm_5.2.5/include/stdin
    2031                            .dwattr $C$DW$T$20, DW_AT_decl_line(0x2f)
    2032                            .dwattr $C$DW$T$20, DW_AT_decl_column(0x1c)
    2033                    $C$DW$T$57      .dwtag  DW_TAG_typedef, DW_AT_name("uint_fast16_t")
    2034                            .dwattr $C$DW$T$57, DW_AT_type(*$C$DW$T$20)
    2035                            .dwattr $C$DW$T$57, DW_AT_language(DW_LANG_C)
    2036                            .dwattr $C$DW$T$57, DW_AT_decl_file("C:/ti/ccsv6/tools/compiler/ti-cgt-arm_5.2.5/include/stdin
    2037                            .dwattr $C$DW$T$57, DW_AT_decl_line(0x48)
    2038                            .dwattr $C$DW$T$57, DW_AT_decl_column(0x16)
    2039                    $C$DW$T$58      .dwtag  DW_TAG_typedef, DW_AT_name("uint_fast32_t")
    2040                            .dwattr $C$DW$T$58, DW_AT_type(*$C$DW$T$20)
    2041                            .dwattr $C$DW$T$58, DW_AT_language(DW_LANG_C)
    2042                            .dwattr $C$DW$T$58, DW_AT_decl_file("C:/ti/ccsv6/tools/compiler/ti-cgt-arm_5.2.5/include/stdin
    2043                            .dwattr $C$DW$T$58, DW_AT_decl_line(0x4b)
    2044                            .dwattr $C$DW$T$58, DW_AT_decl_column(0x16)
    2045                    $C$DW$T$59      .dwtag  DW_TAG_typedef, DW_AT_name("uint_fast8_t")
    2046                            .dwattr $C$DW$T$59, DW_AT_type(*$C$DW$T$20)
    2047                            .dwattr $C$DW$T$59, DW_AT_language(DW_LANG_C)
    2048                            .dwattr $C$DW$T$59, DW_AT_decl_file("C:/ti/ccsv6/tools/compiler/ti-cgt-arm_5.2.5/include/stdin
    2049                            .dwattr $C$DW$T$59, DW_AT_decl_line(0x46)
    2050                            .dwattr $C$DW$T$59, DW_AT_decl_column(0x16)
    2051                    $C$DW$T$60      .dwtag  DW_TAG_typedef, DW_AT_name("uint_least32_t")
    2052                            .dwattr $C$DW$T$60, DW_AT_type(*$C$DW$T$20)
    2053                            .dwattr $C$DW$T$60, DW_AT_language(DW_LANG_C)
    2054                            .dwattr $C$DW$T$60, DW_AT_decl_file("C:/ti/ccsv6/tools/compiler/ti-cgt-arm_5.2.5/include/stdin
    2055                            .dwattr $C$DW$T$60, DW_AT_decl_line(0x3d)
    2056                            .dwattr $C$DW$T$60, DW_AT_decl_column(0x16)
    2057                    $C$DW$T$61      .dwtag  DW_TAG_typedef, DW_AT_name("uintptr_t")
    2058                            .dwattr $C$DW$T$61, DW_AT_type(*$C$DW$T$11)
    2059                            .dwattr $C$DW$T$61, DW_AT_language(DW_LANG_C)
    2060                            .dwattr $C$DW$T$61, DW_AT_decl_file("C:/ti/ccsv6/tools/compiler/ti-cgt-arm_5.2.5/include/stdin
    2061                            .dwattr $C$DW$T$61, DW_AT_decl_line(0x53)
    2062                            .dwattr $C$DW$T$61, DW_AT_decl_column(0x1a)
    2063                    $C$DW$T$12      .dwtag  DW_TAG_base_type
    2064                            .dwattr $C$DW$T$12, DW_AT_encoding(DW_ATE_signed)
    2065                            .dwattr $C$DW$T$12, DW_AT_name("long")
    2066                            .dwattr $C$DW$T$12, DW_AT_byte_size(0x04)
    2067                    $C$DW$T$62      .dwtag  DW_TAG_typedef, DW_AT_name("_Int32t")
    2068                            .dwattr $C$DW$T$62, DW_AT_type(*$C$DW$T$12)
    2069                            .dwattr $C$DW$T$62, DW_AT_language(DW_LANG_C)
    2070                            .dwattr $C$DW$T$62, DW_AT_decl_file("C:/ti/ccsv6/tools/compiler/ti-cgt-arm_5.2.5/include/yvals
    2071                            .dwattr $C$DW$T$62, DW_AT_decl_line(0xa6)
    2072                            .dwattr $C$DW$T$62, DW_AT_decl_column(0x0e)
    2073                    $C$DW$T$13      .dwtag  DW_TAG_base_type
    2074                            .dwattr $C$DW$T$13, DW_AT_encoding(DW_ATE_unsigned)
    2075                            .dwattr $C$DW$T$13, DW_AT_name("unsigned long")
    2076                            .dwattr $C$DW$T$13, DW_AT_byte_size(0x04)
    2077                    $C$DW$T$63      .dwtag  DW_TAG_typedef, DW_AT_name("_Uint32t")
    2078                            .dwattr $C$DW$T$63, DW_AT_type(*$C$DW$T$13)
    2079                            .dwattr $C$DW$T$63, DW_AT_language(DW_LANG_C)
    2080                            .dwattr $C$DW$T$63, DW_AT_decl_file("C:/ti/ccsv6/tools/compiler/ti-cgt-arm_5.2.5/include/yvals
    2081                            .dwattr $C$DW$T$63, DW_AT_decl_line(0xa7)
TI ARM Assembler PC v5.2.5 Tue Oct 20 19:15:40 2015

Tools Copyright (c) 1996-2015 Texas Instruments Incorporated
ds1820.asm                                                           PAGE   39

    2082                            .dwattr $C$DW$T$63, DW_AT_decl_column(0x17)
    2083                    $C$DW$T$14      .dwtag  DW_TAG_base_type
    2084                            .dwattr $C$DW$T$14, DW_AT_encoding(DW_ATE_signed)
    2085                            .dwattr $C$DW$T$14, DW_AT_name("long long")
    2086                            .dwattr $C$DW$T$14, DW_AT_byte_size(0x08)
    2087                    $C$DW$T$64      .dwtag  DW_TAG_typedef, DW_AT_name("_Longlong")
    2088                            .dwattr $C$DW$T$64, DW_AT_type(*$C$DW$T$14)
    2089                            .dwattr $C$DW$T$64, DW_AT_language(DW_LANG_C)
    2090                            .dwattr $C$DW$T$64, DW_AT_decl_file("C:/ti/ccsv6/tools/compiler/ti-cgt-arm_5.2.5/include/yvals
    2091                            .dwattr $C$DW$T$64, DW_AT_decl_line(0x1b5)
    2092                            .dwattr $C$DW$T$64, DW_AT_decl_column(0x13)
    2093                    $C$DW$T$65      .dwtag  DW_TAG_typedef, DW_AT_name("int64_t")
    2094                            .dwattr $C$DW$T$65, DW_AT_type(*$C$DW$T$14)
    2095                            .dwattr $C$DW$T$65, DW_AT_language(DW_LANG_C)
    2096                            .dwattr $C$DW$T$65, DW_AT_decl_file("C:/ti/ccsv6/tools/compiler/ti-cgt-arm_5.2.5/include/stdin
    2097                            .dwattr $C$DW$T$65, DW_AT_decl_line(0x32)
    2098                            .dwattr $C$DW$T$65, DW_AT_decl_column(0x21)
    2099                    $C$DW$T$66      .dwtag  DW_TAG_typedef, DW_AT_name("int_fast64_t")
    2100                            .dwattr $C$DW$T$66, DW_AT_type(*$C$DW$T$65)
    2101                            .dwattr $C$DW$T$66, DW_AT_language(DW_LANG_C)
    2102                            .dwattr $C$DW$T$66, DW_AT_decl_file("C:/ti/ccsv6/tools/compiler/ti-cgt-arm_5.2.5/include/stdin
    2103                            .dwattr $C$DW$T$66, DW_AT_decl_line(0x4e)
    2104                            .dwattr $C$DW$T$66, DW_AT_decl_column(0x17)
    2105                    $C$DW$T$67      .dwtag  DW_TAG_typedef, DW_AT_name("int_least64_t")
    2106                            .dwattr $C$DW$T$67, DW_AT_type(*$C$DW$T$65)
    2107                            .dwattr $C$DW$T$67, DW_AT_language(DW_LANG_C)
    2108                            .dwattr $C$DW$T$67, DW_AT_decl_file("C:/ti/ccsv6/tools/compiler/ti-cgt-arm_5.2.5/include/stdin
    2109                            .dwattr $C$DW$T$67, DW_AT_decl_line(0x40)
    2110                            .dwattr $C$DW$T$67, DW_AT_decl_column(0x17)
    2111                    $C$DW$T$68      .dwtag  DW_TAG_typedef, DW_AT_name("intmax_t")
    2112                            .dwattr $C$DW$T$68, DW_AT_type(*$C$DW$T$14)
    2113                            .dwattr $C$DW$T$68, DW_AT_language(DW_LANG_C)
    2114                            .dwattr $C$DW$T$68, DW_AT_decl_file("C:/ti/ccsv6/tools/compiler/ti-cgt-arm_5.2.5/include/stdin
    2115                            .dwattr $C$DW$T$68, DW_AT_decl_line(0x56)
    2116                            .dwattr $C$DW$T$68, DW_AT_decl_column(0x20)
    2117                    $C$DW$T$15      .dwtag  DW_TAG_base_type
    2118                            .dwattr $C$DW$T$15, DW_AT_encoding(DW_ATE_unsigned)
    2119                            .dwattr $C$DW$T$15, DW_AT_name("unsigned long long")
    2120                            .dwattr $C$DW$T$15, DW_AT_byte_size(0x08)
    2121                    $C$DW$T$69      .dwtag  DW_TAG_typedef, DW_AT_name("_ULonglong")
    2122                            .dwattr $C$DW$T$69, DW_AT_type(*$C$DW$T$15)
    2123                            .dwattr $C$DW$T$69, DW_AT_language(DW_LANG_C)
    2124                            .dwattr $C$DW$T$69, DW_AT_decl_file("C:/ti/ccsv6/tools/compiler/ti-cgt-arm_5.2.5/include/yvals
    2125                            .dwattr $C$DW$T$69, DW_AT_decl_line(0x1b6)
    2126                            .dwattr $C$DW$T$69, DW_AT_decl_column(0x14)
    2127                    $C$DW$T$70      .dwtag  DW_TAG_typedef, DW_AT_name("uint64_t")
    2128                            .dwattr $C$DW$T$70, DW_AT_type(*$C$DW$T$15)
    2129                            .dwattr $C$DW$T$70, DW_AT_language(DW_LANG_C)
    2130                            .dwattr $C$DW$T$70, DW_AT_decl_file("C:/ti/ccsv6/tools/compiler/ti-cgt-arm_5.2.5/include/stdin
    2131                            .dwattr $C$DW$T$70, DW_AT_decl_line(0x33)
    2132                            .dwattr $C$DW$T$70, DW_AT_decl_column(0x20)
    2133                    $C$DW$T$71      .dwtag  DW_TAG_typedef, DW_AT_name("uint_fast64_t")
    2134                            .dwattr $C$DW$T$71, DW_AT_type(*$C$DW$T$70)
    2135                            .dwattr $C$DW$T$71, DW_AT_language(DW_LANG_C)
    2136                            .dwattr $C$DW$T$71, DW_AT_decl_file("C:/ti/ccsv6/tools/compiler/ti-cgt-arm_5.2.5/include/stdin
TI ARM Assembler PC v5.2.5 Tue Oct 20 19:15:40 2015

Tools Copyright (c) 1996-2015 Texas Instruments Incorporated
ds1820.asm                                                           PAGE   40

    2137                            .dwattr $C$DW$T$71, DW_AT_decl_line(0x4f)
    2138                            .dwattr $C$DW$T$71, DW_AT_decl_column(0x16)
    2139                    $C$DW$T$72      .dwtag  DW_TAG_typedef, DW_AT_name("uint_least64_t")
    2140                            .dwattr $C$DW$T$72, DW_AT_type(*$C$DW$T$70)
    2141                            .dwattr $C$DW$T$72, DW_AT_language(DW_LANG_C)
    2142                            .dwattr $C$DW$T$72, DW_AT_decl_file("C:/ti/ccsv6/tools/compiler/ti-cgt-arm_5.2.5/include/stdin
    2143                            .dwattr $C$DW$T$72, DW_AT_decl_line(0x41)
    2144                            .dwattr $C$DW$T$72, DW_AT_decl_column(0x16)
    2145                    $C$DW$T$73      .dwtag  DW_TAG_typedef, DW_AT_name("uintmax_t")
    2146                            .dwattr $C$DW$T$73, DW_AT_type(*$C$DW$T$15)
    2147                            .dwattr $C$DW$T$73, DW_AT_language(DW_LANG_C)
    2148                            .dwattr $C$DW$T$73, DW_AT_decl_file("C:/ti/ccsv6/tools/compiler/ti-cgt-arm_5.2.5/include/stdin
    2149                            .dwattr $C$DW$T$73, DW_AT_decl_line(0x57)
    2150                            .dwattr $C$DW$T$73, DW_AT_decl_column(0x20)
    2151                    $C$DW$T$16      .dwtag  DW_TAG_base_type
    2152                            .dwattr $C$DW$T$16, DW_AT_encoding(DW_ATE_float)
    2153                            .dwattr $C$DW$T$16, DW_AT_name("float")
    2154                            .dwattr $C$DW$T$16, DW_AT_byte_size(0x04)
    2155                    $C$DW$T$17      .dwtag  DW_TAG_base_type
    2156                            .dwattr $C$DW$T$17, DW_AT_encoding(DW_ATE_float)
    2157                            .dwattr $C$DW$T$17, DW_AT_name("double")
    2158                            .dwattr $C$DW$T$17, DW_AT_byte_size(0x08)
    2159                    $C$DW$T$18      .dwtag  DW_TAG_base_type
    2160                            .dwattr $C$DW$T$18, DW_AT_encoding(DW_ATE_float)
    2161                            .dwattr $C$DW$T$18, DW_AT_name("long double")
    2162                            .dwattr $C$DW$T$18, DW_AT_byte_size(0x08)
    2163                    $C$DW$T$75      .dwtag  DW_TAG_typedef, DW_AT_name("_Sysch_t")
    2164                            .dwattr $C$DW$T$75, DW_AT_type(*$C$DW$T$6)
    2165                            .dwattr $C$DW$T$75, DW_AT_language(DW_LANG_C)
    2166                            .dwattr $C$DW$T$75, DW_AT_decl_file("C:/ti/ccsv6/tools/compiler/ti-cgt-arm_5.2.5/include/yvals
    2167                            .dwattr $C$DW$T$75, DW_AT_decl_line(0x218)
    2168                            .dwattr $C$DW$T$75, DW_AT_decl_column(0x0e)
    2169                    $C$DW$T$76      .dwtag  DW_TAG_pointer_type
    2170                            .dwattr $C$DW$T$76, DW_AT_type(*$C$DW$T$6)
    2171                            .dwattr $C$DW$T$76, DW_AT_address_class(0x20)
    2172                    $C$DW$T$77      .dwtag  DW_TAG_typedef, DW_AT_name("__builtin_va_list")
    2173                            .dwattr $C$DW$T$77, DW_AT_type(*$C$DW$T$76)
    2174                            .dwattr $C$DW$T$77, DW_AT_language(DW_LANG_C)
    2175                            .dwattr $C$DW$T$77, DW_AT_decl_file("../ds1820.c")
    2176                            .dwattr $C$DW$T$77, DW_AT_decl_line(0xb0)
    2177                            .dwattr $C$DW$T$77, DW_AT_decl_column(0x01)
    2178                    
    2179                    $C$DW$T$19      .dwtag  DW_TAG_structure_type
    2180                            .dwattr $C$DW$T$19, DW_AT_name("__va_list")
    2181                            .dwattr $C$DW$T$19, DW_AT_byte_size(0x04)
    2182                    $C$DW$124       .dwtag  DW_TAG_member
    2183                            .dwattr $C$DW$124, DW_AT_type(*$C$DW$T$3)
    2184                            .dwattr $C$DW$124, DW_AT_name("__ap")
    2185                            .dwattr $C$DW$124, DW_AT_TI_symbol_name("__ap")
    2186                            .dwattr $C$DW$124, DW_AT_data_member_location[DW_OP_plus_uconst 0x0]
    2187                            .dwattr $C$DW$124, DW_AT_accessibility(DW_ACCESS_public)
    2188                            .dwattr $C$DW$124, DW_AT_decl_file("C:/ti/ccsv6/tools/compiler/ti-cgt-arm_5.2.5/include/stdarg
    2189                            .dwattr $C$DW$124, DW_AT_decl_line(0x36)
    2190                            .dwattr $C$DW$124, DW_AT_decl_column(0x0c)
    2191                            .dwendtag $C$DW$T$19
TI ARM Assembler PC v5.2.5 Tue Oct 20 19:15:40 2015

Tools Copyright (c) 1996-2015 Texas Instruments Incorporated
ds1820.asm                                                           PAGE   41

    2192                    
    2193                            .dwattr $C$DW$T$19, DW_AT_decl_file("C:/ti/ccsv6/tools/compiler/ti-cgt-arm_5.2.5/include/stdar
    2194                            .dwattr $C$DW$T$19, DW_AT_decl_line(0x35)
    2195                            .dwattr $C$DW$T$19, DW_AT_decl_column(0x10)
    2196                    $C$DW$T$78      .dwtag  DW_TAG_typedef, DW_AT_name("va_list")
    2197                            .dwattr $C$DW$T$78, DW_AT_type(*$C$DW$T$19)
    2198                            .dwattr $C$DW$T$78, DW_AT_language(DW_LANG_C)
    2199                            .dwattr $C$DW$T$78, DW_AT_decl_file("C:/ti/ccsv6/tools/compiler/ti-cgt-arm_5.2.5/include/stdar
    2200                            .dwattr $C$DW$T$78, DW_AT_decl_line(0x37)
    2201                            .dwattr $C$DW$T$78, DW_AT_decl_column(0x03)
    2202                    $C$DW$T$79      .dwtag  DW_TAG_typedef, DW_AT_name("_Va_list")
    2203                            .dwattr $C$DW$T$79, DW_AT_type(*$C$DW$T$78)
    2204                            .dwattr $C$DW$T$79, DW_AT_language(DW_LANG_C)
    2205                            .dwattr $C$DW$T$79, DW_AT_decl_file("C:/ti/ccsv6/tools/compiler/ti-cgt-arm_5.2.5/include/yvals
    2206                            .dwattr $C$DW$T$79, DW_AT_decl_line(0x1f6)
    2207                            .dwattr $C$DW$T$79, DW_AT_decl_column(0x17)
    2208                            .dwattr $C$DW$CU, DW_AT_language(DW_LANG_C)
    2209                    
    2210                    ;***************************************************************
    2211                    ;* DWARF CIE ENTRIES                                           *
    2212                    ;***************************************************************
    2213                    
    2214                    $C$DW$CIE       .dwcie 14
    2215                            .dwcfi  cfa_register, 13
    2216                            .dwcfi  cfa_offset, 0
    2217                            .dwcfi  undefined, 0
    2218                            .dwcfi  undefined, 1
    2219                            .dwcfi  undefined, 2
    2220                            .dwcfi  undefined, 3
    2221                            .dwcfi  same_value, 4
    2222                            .dwcfi  same_value, 5
    2223                            .dwcfi  same_value, 6
    2224                            .dwcfi  same_value, 7
    2225                            .dwcfi  same_value, 8
    2226                            .dwcfi  same_value, 9
    2227                            .dwcfi  same_value, 10
    2228                            .dwcfi  same_value, 11
    2229                            .dwcfi  undefined, 12
    2230                            .dwcfi  undefined, 13
    2231                            .dwcfi  undefined, 14
    2232                            .dwcfi  undefined, 14
    2233                            .dwcfi  undefined, 7
    2234                            .dwcfi  undefined, 64
    2235                            .dwcfi  undefined, 65
    2236                            .dwcfi  undefined, 66
    2237                            .dwcfi  undefined, 67
    2238                            .dwcfi  undefined, 68
    2239                            .dwcfi  undefined, 69
    2240                            .dwcfi  undefined, 70
    2241                            .dwcfi  undefined, 71
    2242                            .dwcfi  undefined, 72
    2243                            .dwcfi  undefined, 73
    2244                            .dwcfi  undefined, 74
    2245                            .dwcfi  undefined, 75
    2246                            .dwcfi  undefined, 76
TI ARM Assembler PC v5.2.5 Tue Oct 20 19:15:40 2015

Tools Copyright (c) 1996-2015 Texas Instruments Incorporated
ds1820.asm                                                           PAGE   42

    2247                            .dwcfi  undefined, 77
    2248                            .dwcfi  undefined, 78
    2249                            .dwcfi  undefined, 79
    2250                            .dwcfi  same_value, 80
    2251                            .dwcfi  same_value, 81
    2252                            .dwcfi  same_value, 82
    2253                            .dwcfi  same_value, 83
    2254                            .dwcfi  same_value, 84
    2255                            .dwcfi  same_value, 85
    2256                            .dwcfi  same_value, 86
    2257                            .dwcfi  same_value, 87
    2258                            .dwcfi  same_value, 88
    2259                            .dwcfi  same_value, 89
    2260                            .dwcfi  same_value, 90
    2261                            .dwcfi  same_value, 91
    2262                            .dwcfi  same_value, 92
    2263                            .dwcfi  same_value, 93
    2264                            .dwcfi  same_value, 94
    2265                            .dwcfi  same_value, 95
    2266                            .dwendentry
    2267                            .dwendtag $C$DW$CU
    2268                    

--------------------------
Thumb2 Statistics
--------------------------
Number of Thumb2 ins converted to Thumb = 0 (0%)
Number of Thumb ins in input = 178 (61%)
Number of Thumb2 ins encoded as Thumb2 = 110 (100%)
Number of Thumb2 ins converted to 2 OPND Thumb = 0


No Assembly Errors, No Assembly Warnings
