;******************************************************************************
;* TI ARM C/C++ Codegen                                             PC v5.2.5 *
;* Date/Time created: Wed Oct 28 12:40:19 2015                                *
;******************************************************************************
	.compiler_opts --abi=eabi --arm_vmrs_si_workaround=off --code_state=16 --diag_wrap=off --disable_dual_state --embedded_constants=on --endian=little --float_support=FPv4SPD16 --hll_source=on --object_format=elf --silicon_version=7M4 --symdebug:dwarf --symdebug:dwarf_version=3 --unaligned_access=on 
	.thumb

$C$DW$CU	.dwtag  DW_TAG_compile_unit
	.dwattr $C$DW$CU, DW_AT_name("../ds1820.c")
	.dwattr $C$DW$CU, DW_AT_producer("TI TI ARM C/C++ Codegen PC v5.2.5 Copyright (c) 1996-2015 Texas Instruments Incorporated")
	.dwattr $C$DW$CU, DW_AT_TI_version(0x01)
	.dwattr $C$DW$CU, DW_AT_comp_dir("E:\Dev\Ti\Code\GIT\LaunchpadRoomControl\LaunchpadRoomControl\timers\Debug")

$C$DW$1	.dwtag  DW_TAG_subprogram, DW_AT_name("GPIOPinRead")
	.dwattr $C$DW$1, DW_AT_TI_symbol_name("GPIOPinRead")
	.dwattr $C$DW$1, DW_AT_type(*$C$DW$T$48)
	.dwattr $C$DW$1, DW_AT_declaration
	.dwattr $C$DW$1, DW_AT_external
	.dwattr $C$DW$1, DW_AT_decl_file("E:/Dev/Ti/TivaWare/driverlib/gpio.h")
	.dwattr $C$DW$1, DW_AT_decl_line(0x9d)
	.dwattr $C$DW$1, DW_AT_decl_column(0x10)
$C$DW$2	.dwtag  DW_TAG_formal_parameter
	.dwattr $C$DW$2, DW_AT_type(*$C$DW$T$20)
$C$DW$3	.dwtag  DW_TAG_formal_parameter
	.dwattr $C$DW$3, DW_AT_type(*$C$DW$T$21)
	.dwendtag $C$DW$1


$C$DW$4	.dwtag  DW_TAG_subprogram, DW_AT_name("GPIOPinWrite")
	.dwattr $C$DW$4, DW_AT_TI_symbol_name("GPIOPinWrite")
	.dwattr $C$DW$4, DW_AT_declaration
	.dwattr $C$DW$4, DW_AT_external
	.dwattr $C$DW$4, DW_AT_decl_file("E:/Dev/Ti/TivaWare/driverlib/gpio.h")
	.dwattr $C$DW$4, DW_AT_decl_line(0x9e)
	.dwattr $C$DW$4, DW_AT_decl_column(0x0d)
$C$DW$5	.dwtag  DW_TAG_formal_parameter
	.dwattr $C$DW$5, DW_AT_type(*$C$DW$T$20)
$C$DW$6	.dwtag  DW_TAG_formal_parameter
	.dwattr $C$DW$6, DW_AT_type(*$C$DW$T$21)
$C$DW$7	.dwtag  DW_TAG_formal_parameter
	.dwattr $C$DW$7, DW_AT_type(*$C$DW$T$21)
	.dwendtag $C$DW$4


$C$DW$8	.dwtag  DW_TAG_subprogram, DW_AT_name("GPIOPinTypeGPIOInput")
	.dwattr $C$DW$8, DW_AT_TI_symbol_name("GPIOPinTypeGPIOInput")
	.dwattr $C$DW$8, DW_AT_declaration
	.dwattr $C$DW$8, DW_AT_external
	.dwattr $C$DW$8, DW_AT_decl_file("E:/Dev/Ti/TivaWare/driverlib/gpio.h")
	.dwattr $C$DW$8, DW_AT_decl_line(0xa7)
	.dwattr $C$DW$8, DW_AT_decl_column(0x0d)
$C$DW$9	.dwtag  DW_TAG_formal_parameter
	.dwattr $C$DW$9, DW_AT_type(*$C$DW$T$20)
$C$DW$10	.dwtag  DW_TAG_formal_parameter
	.dwattr $C$DW$10, DW_AT_type(*$C$DW$T$21)
	.dwendtag $C$DW$8


$C$DW$11	.dwtag  DW_TAG_subprogram, DW_AT_name("GPIOPinTypeGPIOOutput")
	.dwattr $C$DW$11, DW_AT_TI_symbol_name("GPIOPinTypeGPIOOutput")
	.dwattr $C$DW$11, DW_AT_declaration
	.dwattr $C$DW$11, DW_AT_external
	.dwattr $C$DW$11, DW_AT_decl_file("E:/Dev/Ti/TivaWare/driverlib/gpio.h")
	.dwattr $C$DW$11, DW_AT_decl_line(0xa8)
	.dwattr $C$DW$11, DW_AT_decl_column(0x0d)
$C$DW$12	.dwtag  DW_TAG_formal_parameter
	.dwattr $C$DW$12, DW_AT_type(*$C$DW$T$20)
$C$DW$13	.dwtag  DW_TAG_formal_parameter
	.dwattr $C$DW$13, DW_AT_type(*$C$DW$T$21)
	.dwendtag $C$DW$11


$C$DW$14	.dwtag  DW_TAG_subprogram, DW_AT_name("SysCtlPeripheralEnable")
	.dwattr $C$DW$14, DW_AT_TI_symbol_name("SysCtlPeripheralEnable")
	.dwattr $C$DW$14, DW_AT_declaration
	.dwattr $C$DW$14, DW_AT_external
	.dwattr $C$DW$14, DW_AT_decl_file("E:/Dev/Ti/TivaWare/driverlib/sysctl.h")
	.dwattr $C$DW$14, DW_AT_decl_line(0x24e)
	.dwattr $C$DW$14, DW_AT_decl_column(0x0d)
$C$DW$15	.dwtag  DW_TAG_formal_parameter
	.dwattr $C$DW$15, DW_AT_type(*$C$DW$T$20)
	.dwendtag $C$DW$14


$C$DW$16	.dwtag  DW_TAG_subprogram, DW_AT_name("delay_us")
	.dwattr $C$DW$16, DW_AT_TI_symbol_name("delay_us")
	.dwattr $C$DW$16, DW_AT_declaration
	.dwattr $C$DW$16, DW_AT_external
	.dwattr $C$DW$16, DW_AT_decl_file("..\timers.h")
	.dwattr $C$DW$16, DW_AT_decl_line(0x0b)
	.dwattr $C$DW$16, DW_AT_decl_column(0x06)
$C$DW$17	.dwtag  DW_TAG_formal_parameter
	.dwattr $C$DW$17, DW_AT_type(*$C$DW$T$20)
	.dwendtag $C$DW$16

	.global	temp_ds1820
	.common	temp_ds1820,2,2
$C$DW$18	.dwtag  DW_TAG_variable, DW_AT_name("temp_ds1820")
	.dwattr $C$DW$18, DW_AT_TI_symbol_name("temp_ds1820")
	.dwattr $C$DW$18, DW_AT_location[DW_OP_addr temp_ds1820]
	.dwattr $C$DW$18, DW_AT_type(*$C$DW$T$43)
	.dwattr $C$DW$18, DW_AT_external
	.dwattr $C$DW$18, DW_AT_decl_file("../ds1820.c")
	.dwattr $C$DW$18, DW_AT_decl_line(0x23)
	.dwattr $C$DW$18, DW_AT_decl_column(0x0a)
	.global	ds1820_data_bit
	.common	ds1820_data_bit,1,1
$C$DW$19	.dwtag  DW_TAG_variable, DW_AT_name("ds1820_data_bit")
	.dwattr $C$DW$19, DW_AT_TI_symbol_name("ds1820_data_bit")
	.dwattr $C$DW$19, DW_AT_location[DW_OP_addr ds1820_data_bit]
	.dwattr $C$DW$19, DW_AT_type(*$C$DW$T$21)
	.dwattr $C$DW$19, DW_AT_external
	.dwattr $C$DW$19, DW_AT_decl_file("../ds1820.c")
	.dwattr $C$DW$19, DW_AT_decl_line(0x24)
	.dwattr $C$DW$19, DW_AT_decl_column(0x09)
;	C:\ti\ccsv6\tools\compiler\ti-cgt-arm_5.2.5\bin\armacpia.exe -@C:\\Users\\DCOSAS~1.SAG\\AppData\\Local\\Temp\\0666812 
	.sect	".text:set_mode_input"
	.clink
	.thumbfunc set_mode_input
	.thumb
	.global	set_mode_input

$C$DW$20	.dwtag  DW_TAG_subprogram, DW_AT_name("set_mode_input")
	.dwattr $C$DW$20, DW_AT_low_pc(set_mode_input)
	.dwattr $C$DW$20, DW_AT_high_pc(0x00)
	.dwattr $C$DW$20, DW_AT_TI_symbol_name("set_mode_input")
	.dwattr $C$DW$20, DW_AT_external
	.dwattr $C$DW$20, DW_AT_TI_begin_file("../ds1820.c")
	.dwattr $C$DW$20, DW_AT_TI_begin_line(0x26)
	.dwattr $C$DW$20, DW_AT_TI_begin_column(0x06)
	.dwattr $C$DW$20, DW_AT_decl_file("../ds1820.c")
	.dwattr $C$DW$20, DW_AT_decl_line(0x26)
	.dwattr $C$DW$20, DW_AT_decl_column(0x06)
	.dwattr $C$DW$20, DW_AT_TI_max_frame_size(0x08)
	.dwpsn	file "../ds1820.c",line 39,column 1,is_stmt,address set_mode_input,isa 1

	.dwfde $C$DW$CIE, set_mode_input
$C$DW$21	.dwtag  DW_TAG_formal_parameter, DW_AT_name("sensor_id")
	.dwattr $C$DW$21, DW_AT_TI_symbol_name("sensor_id")
	.dwattr $C$DW$21, DW_AT_type(*$C$DW$T$21)
	.dwattr $C$DW$21, DW_AT_location[DW_OP_reg0]
;----------------------------------------------------------------------
;  38 | void set_mode_input(uint8_t sensor_id)                                 
;----------------------------------------------------------------------

;*****************************************************************************
;* FUNCTION NAME: set_mode_input                                             *
;*                                                                           *
;*   Regs Modified     : A1,A2,A3,A4,V9,SP,LR,SR,D0,D0_hi,D1,D1_hi,D2,D2_hi, *
;*                           D3,D3_hi,D4,D4_hi,D5,D5_hi,D6,D6_hi,D7,D7_hi,   *
;*                           FPEXC,FPSCR                                     *
;*   Regs Used         : A1,A2,A3,A4,V9,SP,LR,SR,D0,D0_hi,D1,D1_hi,D2,D2_hi, *
;*                           D3,D3_hi,D4,D4_hi,D5,D5_hi,D6,D6_hi,D7,D7_hi,   *
;*                           FPEXC,FPSCR                                     *
;*   Local Frame Size  : 0 Args + 4 Auto + 4 Save = 8 byte                   *
;*****************************************************************************
set_mode_input:
;* --------------------------------------------------------------------------*
	.dwcfi	cfa_offset, 0
        PUSH      {A4, LR}              ; [DPU_3_PIPE] 
	.dwcfi	cfa_offset, 8
	.dwcfi	save_reg_to_mem, 14, -4
	.dwcfi	save_reg_to_mem, 3, -8
$C$DW$22	.dwtag  DW_TAG_variable, DW_AT_name("sensor_id")
	.dwattr $C$DW$22, DW_AT_TI_symbol_name("sensor_id")
	.dwattr $C$DW$22, DW_AT_type(*$C$DW$T$21)
	.dwattr $C$DW$22, DW_AT_location[DW_OP_breg13 0]
        STRB      A1, [SP, #0]          ; [DPU_3_PIPE] |39| 
	.dwpsn	file "../ds1820.c",line 40,column 2,is_stmt,isa 1
;----------------------------------------------------------------------
;  40 | GPIOPinTypeGPIOInput(DS1820_DATA_PORT_BASE, ds1820_data_bit);          
;----------------------------------------------------------------------
        LDR       A1, $C$CON1           ; [DPU_3_PIPE] |40| 
        LDRB      A2, [A1, #0]          ; [DPU_3_PIPE] |40| 
        LDR       A1, $C$CON2           ; [DPU_3_PIPE] |40| 
$C$DW$23	.dwtag  DW_TAG_TI_branch
	.dwattr $C$DW$23, DW_AT_low_pc(0x00)
	.dwattr $C$DW$23, DW_AT_name("GPIOPinTypeGPIOInput")
	.dwattr $C$DW$23, DW_AT_TI_call
        BL        GPIOPinTypeGPIOInput  ; [DPU_3_PIPE] |40| 
        ; CALL OCCURS {GPIOPinTypeGPIOInput }  ; [] |40| 
	.dwpsn	file "../ds1820.c",line 41,column 1,is_stmt,isa 1
$C$DW$24	.dwtag  DW_TAG_TI_branch
	.dwattr $C$DW$24, DW_AT_low_pc(0x00)
	.dwattr $C$DW$24, DW_AT_TI_return
        POP       {A4, PC}              ; [DPU_3_PIPE] 
	.dwcfi	cfa_offset, 0
        ; BRANCH OCCURS                  ; [] 
	.dwattr $C$DW$20, DW_AT_TI_end_file("../ds1820.c")
	.dwattr $C$DW$20, DW_AT_TI_end_line(0x29)
	.dwattr $C$DW$20, DW_AT_TI_end_column(0x01)
	.dwendentry
	.dwendtag $C$DW$20

	.sect	".text:set_mode_output"
	.clink
	.thumbfunc set_mode_output
	.thumb
	.global	set_mode_output

$C$DW$25	.dwtag  DW_TAG_subprogram, DW_AT_name("set_mode_output")
	.dwattr $C$DW$25, DW_AT_low_pc(set_mode_output)
	.dwattr $C$DW$25, DW_AT_high_pc(0x00)
	.dwattr $C$DW$25, DW_AT_TI_symbol_name("set_mode_output")
	.dwattr $C$DW$25, DW_AT_external
	.dwattr $C$DW$25, DW_AT_TI_begin_file("../ds1820.c")
	.dwattr $C$DW$25, DW_AT_TI_begin_line(0x2b)
	.dwattr $C$DW$25, DW_AT_TI_begin_column(0x06)
	.dwattr $C$DW$25, DW_AT_decl_file("../ds1820.c")
	.dwattr $C$DW$25, DW_AT_decl_line(0x2b)
	.dwattr $C$DW$25, DW_AT_decl_column(0x06)
	.dwattr $C$DW$25, DW_AT_TI_max_frame_size(0x08)
	.dwpsn	file "../ds1820.c",line 44,column 1,is_stmt,address set_mode_output,isa 1

	.dwfde $C$DW$CIE, set_mode_output
$C$DW$26	.dwtag  DW_TAG_formal_parameter, DW_AT_name("sensor_id")
	.dwattr $C$DW$26, DW_AT_TI_symbol_name("sensor_id")
	.dwattr $C$DW$26, DW_AT_type(*$C$DW$T$21)
	.dwattr $C$DW$26, DW_AT_location[DW_OP_reg0]
;----------------------------------------------------------------------
;  43 | void set_mode_output(uint8_t sensor_id)                                
;----------------------------------------------------------------------

;*****************************************************************************
;* FUNCTION NAME: set_mode_output                                            *
;*                                                                           *
;*   Regs Modified     : A1,A2,A3,A4,V9,SP,LR,SR,D0,D0_hi,D1,D1_hi,D2,D2_hi, *
;*                           D3,D3_hi,D4,D4_hi,D5,D5_hi,D6,D6_hi,D7,D7_hi,   *
;*                           FPEXC,FPSCR                                     *
;*   Regs Used         : A1,A2,A3,A4,V9,SP,LR,SR,D0,D0_hi,D1,D1_hi,D2,D2_hi, *
;*                           D3,D3_hi,D4,D4_hi,D5,D5_hi,D6,D6_hi,D7,D7_hi,   *
;*                           FPEXC,FPSCR                                     *
;*   Local Frame Size  : 0 Args + 4 Auto + 4 Save = 8 byte                   *
;*****************************************************************************
set_mode_output:
;* --------------------------------------------------------------------------*
	.dwcfi	cfa_offset, 0
        PUSH      {A4, LR}              ; [DPU_3_PIPE] 
	.dwcfi	cfa_offset, 8
	.dwcfi	save_reg_to_mem, 14, -4
	.dwcfi	save_reg_to_mem, 3, -8
$C$DW$27	.dwtag  DW_TAG_variable, DW_AT_name("sensor_id")
	.dwattr $C$DW$27, DW_AT_TI_symbol_name("sensor_id")
	.dwattr $C$DW$27, DW_AT_type(*$C$DW$T$21)
	.dwattr $C$DW$27, DW_AT_location[DW_OP_breg13 0]
        STRB      A1, [SP, #0]          ; [DPU_3_PIPE] |44| 
	.dwpsn	file "../ds1820.c",line 45,column 2,is_stmt,isa 1
;----------------------------------------------------------------------
;  45 | GPIOPinTypeGPIOOutput(DS1820_DATA_PORT_BASE, ds1820_data_bit);         
;----------------------------------------------------------------------
        LDR       A1, $C$CON3           ; [DPU_3_PIPE] |45| 
        LDRB      A2, [A1, #0]          ; [DPU_3_PIPE] |45| 
        LDR       A1, $C$CON4           ; [DPU_3_PIPE] |45| 
$C$DW$28	.dwtag  DW_TAG_TI_branch
	.dwattr $C$DW$28, DW_AT_low_pc(0x00)
	.dwattr $C$DW$28, DW_AT_name("GPIOPinTypeGPIOOutput")
	.dwattr $C$DW$28, DW_AT_TI_call
        BL        GPIOPinTypeGPIOOutput ; [DPU_3_PIPE] |45| 
        ; CALL OCCURS {GPIOPinTypeGPIOOutput }  ; [] |45| 
	.dwpsn	file "../ds1820.c",line 46,column 1,is_stmt,isa 1
$C$DW$29	.dwtag  DW_TAG_TI_branch
	.dwattr $C$DW$29, DW_AT_low_pc(0x00)
	.dwattr $C$DW$29, DW_AT_TI_return
        POP       {A4, PC}              ; [DPU_3_PIPE] 
	.dwcfi	cfa_offset, 0
        ; BRANCH OCCURS                  ; [] 
	.dwattr $C$DW$25, DW_AT_TI_end_file("../ds1820.c")
	.dwattr $C$DW$25, DW_AT_TI_end_line(0x2e)
	.dwattr $C$DW$25, DW_AT_TI_end_column(0x01)
	.dwendentry
	.dwendtag $C$DW$25

	.sect	".text:set_line"
	.clink
	.thumbfunc set_line
	.thumb
	.global	set_line

$C$DW$30	.dwtag  DW_TAG_subprogram, DW_AT_name("set_line")
	.dwattr $C$DW$30, DW_AT_low_pc(set_line)
	.dwattr $C$DW$30, DW_AT_high_pc(0x00)
	.dwattr $C$DW$30, DW_AT_TI_symbol_name("set_line")
	.dwattr $C$DW$30, DW_AT_external
	.dwattr $C$DW$30, DW_AT_TI_begin_file("../ds1820.c")
	.dwattr $C$DW$30, DW_AT_TI_begin_line(0x30)
	.dwattr $C$DW$30, DW_AT_TI_begin_column(0x06)
	.dwattr $C$DW$30, DW_AT_decl_file("../ds1820.c")
	.dwattr $C$DW$30, DW_AT_decl_line(0x30)
	.dwattr $C$DW$30, DW_AT_decl_column(0x06)
	.dwattr $C$DW$30, DW_AT_TI_max_frame_size(0x08)
	.dwpsn	file "../ds1820.c",line 49,column 1,is_stmt,address set_line,isa 1

	.dwfde $C$DW$CIE, set_line
$C$DW$31	.dwtag  DW_TAG_formal_parameter, DW_AT_name("sensor_id")
	.dwattr $C$DW$31, DW_AT_TI_symbol_name("sensor_id")
	.dwattr $C$DW$31, DW_AT_type(*$C$DW$T$21)
	.dwattr $C$DW$31, DW_AT_location[DW_OP_reg0]
$C$DW$32	.dwtag  DW_TAG_formal_parameter, DW_AT_name("state")
	.dwattr $C$DW$32, DW_AT_TI_symbol_name("state")
	.dwattr $C$DW$32, DW_AT_type(*$C$DW$T$21)
	.dwattr $C$DW$32, DW_AT_location[DW_OP_reg1]
;----------------------------------------------------------------------
;  48 | void set_line(uint8_t sensor_id, uint8_t state)                        
;----------------------------------------------------------------------

;*****************************************************************************
;* FUNCTION NAME: set_line                                                   *
;*                                                                           *
;*   Regs Modified     : A1,A2,A3,A4,V9,SP,LR,SR,D0,D0_hi,D1,D1_hi,D2,D2_hi, *
;*                           D3,D3_hi,D4,D4_hi,D5,D5_hi,D6,D6_hi,D7,D7_hi,   *
;*                           FPEXC,FPSCR                                     *
;*   Regs Used         : A1,A2,A3,A4,V9,SP,LR,SR,D0,D0_hi,D1,D1_hi,D2,D2_hi, *
;*                           D3,D3_hi,D4,D4_hi,D5,D5_hi,D6,D6_hi,D7,D7_hi,   *
;*                           FPEXC,FPSCR                                     *
;*   Local Frame Size  : 0 Args + 4 Auto + 4 Save = 8 byte                   *
;*****************************************************************************
set_line:
;* --------------------------------------------------------------------------*
	.dwcfi	cfa_offset, 0
        PUSH      {A4, LR}              ; [DPU_3_PIPE] 
	.dwcfi	cfa_offset, 8
	.dwcfi	save_reg_to_mem, 14, -4
	.dwcfi	save_reg_to_mem, 3, -8
$C$DW$33	.dwtag  DW_TAG_variable, DW_AT_name("sensor_id")
	.dwattr $C$DW$33, DW_AT_TI_symbol_name("sensor_id")
	.dwattr $C$DW$33, DW_AT_type(*$C$DW$T$21)
	.dwattr $C$DW$33, DW_AT_location[DW_OP_breg13 0]
$C$DW$34	.dwtag  DW_TAG_variable, DW_AT_name("state")
	.dwattr $C$DW$34, DW_AT_TI_symbol_name("state")
	.dwattr $C$DW$34, DW_AT_type(*$C$DW$T$21)
	.dwattr $C$DW$34, DW_AT_location[DW_OP_breg13 1]
        STRB      A2, [SP, #1]          ; [DPU_3_PIPE] |49| 
        STRB      A1, [SP, #0]          ; [DPU_3_PIPE] |49| 
	.dwpsn	file "../ds1820.c",line 50,column 2,is_stmt,isa 1
;----------------------------------------------------------------------
;  50 | if(state)                                                              
;----------------------------------------------------------------------
        LDRB      A1, [SP, #1]          ; [DPU_3_PIPE] |50| 
        CBZ       A1, ||$C$L1||         ; [] 
        ; BRANCHCC OCCURS {||$C$L1||}    ; [] |50| 
;* --------------------------------------------------------------------------*
	.dwpsn	file "../ds1820.c",line 51,column 3,is_stmt,isa 1
;----------------------------------------------------------------------
;  51 | GPIOPinWrite(DS1820_DATA_PORT_BASE, ds1820_data_bit, ds1820_data_bit); 
;  52 | else                                                                   
;----------------------------------------------------------------------
        LDR       A1, $C$CON5           ; [DPU_3_PIPE] |51| 
        LDR       A2, $C$CON5           ; [DPU_3_PIPE] |51| 
        LDRB      A3, [A1, #0]          ; [DPU_3_PIPE] |51| 
        LDRB      A2, [A2, #0]          ; [DPU_3_PIPE] |51| 
        LDR       A1, $C$CON6           ; [DPU_3_PIPE] |51| 
$C$DW$35	.dwtag  DW_TAG_TI_branch
	.dwattr $C$DW$35, DW_AT_low_pc(0x00)
	.dwattr $C$DW$35, DW_AT_name("GPIOPinWrite")
	.dwattr $C$DW$35, DW_AT_TI_call
        BL        GPIOPinWrite          ; [DPU_3_PIPE] |51| 
        ; CALL OCCURS {GPIOPinWrite }    ; [] |51| 
        B         ||$C$L2||             ; [DPU_3_PIPE] |51| 
        ; BRANCH OCCURS {||$C$L2||}      ; [] |51| 
;* --------------------------------------------------------------------------*
||$C$L1||:    
	.dwpsn	file "../ds1820.c",line 53,column 3,is_stmt,isa 1
;----------------------------------------------------------------------
;  53 | GPIOPinWrite(DS1820_DATA_PORT_BASE, ds1820_data_bit, 0);               
;----------------------------------------------------------------------
        LDR       A1, $C$CON5           ; [DPU_3_PIPE] |53| 
        LDRB      A2, [A1, #0]          ; [DPU_3_PIPE] |53| 
        LDR       A1, $C$CON6           ; [DPU_3_PIPE] |53| 
        MOVS      A3, #0                ; [DPU_3_PIPE] |53| 
$C$DW$36	.dwtag  DW_TAG_TI_branch
	.dwattr $C$DW$36, DW_AT_low_pc(0x00)
	.dwattr $C$DW$36, DW_AT_name("GPIOPinWrite")
	.dwattr $C$DW$36, DW_AT_TI_call
        BL        GPIOPinWrite          ; [DPU_3_PIPE] |53| 
        ; CALL OCCURS {GPIOPinWrite }    ; [] |53| 
	.dwpsn	file "../ds1820.c",line 54,column 1,is_stmt,isa 1
;* --------------------------------------------------------------------------*
||$C$L2||:    
$C$DW$37	.dwtag  DW_TAG_TI_branch
	.dwattr $C$DW$37, DW_AT_low_pc(0x00)
	.dwattr $C$DW$37, DW_AT_TI_return
        POP       {A4, PC}              ; [DPU_3_PIPE] 
	.dwcfi	cfa_offset, 0
        ; BRANCH OCCURS                  ; [] 
	.dwattr $C$DW$30, DW_AT_TI_end_file("../ds1820.c")
	.dwattr $C$DW$30, DW_AT_TI_end_line(0x36)
	.dwattr $C$DW$30, DW_AT_TI_end_column(0x01)
	.dwendentry
	.dwendtag $C$DW$30

	.sect	".text:get_line"
	.clink
	.thumbfunc get_line
	.thumb
	.global	get_line

$C$DW$38	.dwtag  DW_TAG_subprogram, DW_AT_name("get_line")
	.dwattr $C$DW$38, DW_AT_low_pc(get_line)
	.dwattr $C$DW$38, DW_AT_high_pc(0x00)
	.dwattr $C$DW$38, DW_AT_TI_symbol_name("get_line")
	.dwattr $C$DW$38, DW_AT_external
	.dwattr $C$DW$38, DW_AT_type(*$C$DW$T$21)
	.dwattr $C$DW$38, DW_AT_TI_begin_file("../ds1820.c")
	.dwattr $C$DW$38, DW_AT_TI_begin_line(0x38)
	.dwattr $C$DW$38, DW_AT_TI_begin_column(0x09)
	.dwattr $C$DW$38, DW_AT_decl_file("../ds1820.c")
	.dwattr $C$DW$38, DW_AT_decl_line(0x38)
	.dwattr $C$DW$38, DW_AT_decl_column(0x09)
	.dwattr $C$DW$38, DW_AT_TI_max_frame_size(0x08)
	.dwpsn	file "../ds1820.c",line 57,column 1,is_stmt,address get_line,isa 1

	.dwfde $C$DW$CIE, get_line
$C$DW$39	.dwtag  DW_TAG_formal_parameter, DW_AT_name("sensor_id")
	.dwattr $C$DW$39, DW_AT_TI_symbol_name("sensor_id")
	.dwattr $C$DW$39, DW_AT_type(*$C$DW$T$21)
	.dwattr $C$DW$39, DW_AT_location[DW_OP_reg0]
;----------------------------------------------------------------------
;  56 | uint8_t get_line(uint8_t sensor_id)                                    
;----------------------------------------------------------------------

;*****************************************************************************
;* FUNCTION NAME: get_line                                                   *
;*                                                                           *
;*   Regs Modified     : A1,A2,A3,A4,V9,SP,LR,SR,D0,D0_hi,D1,D1_hi,D2,D2_hi, *
;*                           D3,D3_hi,D4,D4_hi,D5,D5_hi,D6,D6_hi,D7,D7_hi,   *
;*                           FPEXC,FPSCR                                     *
;*   Regs Used         : A1,A2,A3,A4,V9,SP,LR,SR,D0,D0_hi,D1,D1_hi,D2,D2_hi, *
;*                           D3,D3_hi,D4,D4_hi,D5,D5_hi,D6,D6_hi,D7,D7_hi,   *
;*                           FPEXC,FPSCR                                     *
;*   Local Frame Size  : 0 Args + 4 Auto + 4 Save = 8 byte                   *
;*****************************************************************************
get_line:
;* --------------------------------------------------------------------------*
	.dwcfi	cfa_offset, 0
        PUSH      {A4, LR}              ; [DPU_3_PIPE] 
	.dwcfi	cfa_offset, 8
	.dwcfi	save_reg_to_mem, 14, -4
	.dwcfi	save_reg_to_mem, 3, -8
$C$DW$40	.dwtag  DW_TAG_variable, DW_AT_name("sensor_id")
	.dwattr $C$DW$40, DW_AT_TI_symbol_name("sensor_id")
	.dwattr $C$DW$40, DW_AT_type(*$C$DW$T$21)
	.dwattr $C$DW$40, DW_AT_location[DW_OP_breg13 0]
        STRB      A1, [SP, #0]          ; [DPU_3_PIPE] |57| 
	.dwpsn	file "../ds1820.c",line 58,column 2,is_stmt,isa 1
;----------------------------------------------------------------------
;  58 | return GPIOPinRead(DS1820_DATA_PORT_BASE,ds1820_data_bit);             
;----------------------------------------------------------------------
        LDR       A1, $C$CON7           ; [DPU_3_PIPE] |58| 
        LDRB      A2, [A1, #0]          ; [DPU_3_PIPE] |58| 
        LDR       A1, $C$CON8           ; [DPU_3_PIPE] |58| 
$C$DW$41	.dwtag  DW_TAG_TI_branch
	.dwattr $C$DW$41, DW_AT_low_pc(0x00)
	.dwattr $C$DW$41, DW_AT_name("GPIOPinRead")
	.dwattr $C$DW$41, DW_AT_TI_call
        BL        GPIOPinRead           ; [DPU_3_PIPE] |58| 
        ; CALL OCCURS {GPIOPinRead }     ; [] |58| 
        UXTB      A1, A1                ; [DPU_3_PIPE] |58| 
	.dwpsn	file "../ds1820.c",line 59,column 1,is_stmt,isa 1
$C$DW$42	.dwtag  DW_TAG_TI_branch
	.dwattr $C$DW$42, DW_AT_low_pc(0x00)
	.dwattr $C$DW$42, DW_AT_TI_return
        POP       {A4, PC}              ; [DPU_3_PIPE] 
	.dwcfi	cfa_offset, 0
        ; BRANCH OCCURS                  ; [] 
	.dwattr $C$DW$38, DW_AT_TI_end_file("../ds1820.c")
	.dwattr $C$DW$38, DW_AT_TI_end_line(0x3b)
	.dwattr $C$DW$38, DW_AT_TI_end_column(0x01)
	.dwendentry
	.dwendtag $C$DW$38

	.sect	".text:init_ds1820"
	.clink
	.thumbfunc init_ds1820
	.thumb
	.global	init_ds1820

$C$DW$43	.dwtag  DW_TAG_subprogram, DW_AT_name("init_ds1820")
	.dwattr $C$DW$43, DW_AT_low_pc(init_ds1820)
	.dwattr $C$DW$43, DW_AT_high_pc(0x00)
	.dwattr $C$DW$43, DW_AT_TI_symbol_name("init_ds1820")
	.dwattr $C$DW$43, DW_AT_external
	.dwattr $C$DW$43, DW_AT_TI_begin_file("../ds1820.c")
	.dwattr $C$DW$43, DW_AT_TI_begin_line(0x3d)
	.dwattr $C$DW$43, DW_AT_TI_begin_column(0x06)
	.dwattr $C$DW$43, DW_AT_decl_file("../ds1820.c")
	.dwattr $C$DW$43, DW_AT_decl_line(0x3d)
	.dwattr $C$DW$43, DW_AT_decl_column(0x06)
	.dwattr $C$DW$43, DW_AT_TI_max_frame_size(0x08)
	.dwpsn	file "../ds1820.c",line 62,column 1,is_stmt,address init_ds1820,isa 1

	.dwfde $C$DW$CIE, init_ds1820
;----------------------------------------------------------------------
;  61 | void init_ds1820()                                                     
;----------------------------------------------------------------------

;*****************************************************************************
;* FUNCTION NAME: init_ds1820                                                *
;*                                                                           *
;*   Regs Modified     : A1,A2,A3,A4,V9,SP,LR,SR,D0,D0_hi,D1,D1_hi,D2,D2_hi, *
;*                           D3,D3_hi,D4,D4_hi,D5,D5_hi,D6,D6_hi,D7,D7_hi,   *
;*                           FPEXC,FPSCR                                     *
;*   Regs Used         : A1,A2,A3,A4,V9,SP,LR,SR,D0,D0_hi,D1,D1_hi,D2,D2_hi, *
;*                           D3,D3_hi,D4,D4_hi,D5,D5_hi,D6,D6_hi,D7,D7_hi,   *
;*                           FPEXC,FPSCR                                     *
;*   Local Frame Size  : 0 Args + 0 Auto + 4 Save = 4 byte                   *
;*****************************************************************************
init_ds1820:
;* --------------------------------------------------------------------------*
	.dwcfi	cfa_offset, 0
        PUSH      {A4, LR}              ; [DPU_3_PIPE] 
	.dwcfi	cfa_offset, 8
	.dwcfi	save_reg_to_mem, 14, -4
	.dwcfi	save_reg_to_mem, 3, -8
	.dwpsn	file "../ds1820.c",line 63,column 2,is_stmt,isa 1
;----------------------------------------------------------------------
;  63 | SysCtlPeripheralEnable(DS1820_DATA_PORT_PERIPH);                       
;----------------------------------------------------------------------
        LDR       A1, $C$CON9           ; [DPU_3_PIPE] |63| 
$C$DW$44	.dwtag  DW_TAG_TI_branch
	.dwattr $C$DW$44, DW_AT_low_pc(0x00)
	.dwattr $C$DW$44, DW_AT_name("SysCtlPeripheralEnable")
	.dwattr $C$DW$44, DW_AT_TI_call
        BL        SysCtlPeripheralEnable ; [DPU_3_PIPE] |63| 
        ; CALL OCCURS {SysCtlPeripheralEnable }  ; [] |63| 
	.dwpsn	file "../ds1820.c",line 65,column 1,is_stmt,isa 1
$C$DW$45	.dwtag  DW_TAG_TI_branch
	.dwattr $C$DW$45, DW_AT_low_pc(0x00)
	.dwattr $C$DW$45, DW_AT_TI_return
        POP       {A4, PC}              ; [DPU_3_PIPE] 
	.dwcfi	cfa_offset, 0
        ; BRANCH OCCURS                  ; [] 
	.dwattr $C$DW$43, DW_AT_TI_end_file("../ds1820.c")
	.dwattr $C$DW$43, DW_AT_TI_end_line(0x41)
	.dwattr $C$DW$43, DW_AT_TI_end_column(0x01)
	.dwendentry
	.dwendtag $C$DW$43

	.sect	".text:reset_ds1820"
	.clink
	.thumbfunc reset_ds1820
	.thumb
	.global	reset_ds1820

$C$DW$46	.dwtag  DW_TAG_subprogram, DW_AT_name("reset_ds1820")
	.dwattr $C$DW$46, DW_AT_low_pc(reset_ds1820)
	.dwattr $C$DW$46, DW_AT_high_pc(0x00)
	.dwattr $C$DW$46, DW_AT_TI_symbol_name("reset_ds1820")
	.dwattr $C$DW$46, DW_AT_external
	.dwattr $C$DW$46, DW_AT_type(*$C$DW$T$21)
	.dwattr $C$DW$46, DW_AT_TI_begin_file("../ds1820.c")
	.dwattr $C$DW$46, DW_AT_TI_begin_line(0x43)
	.dwattr $C$DW$46, DW_AT_TI_begin_column(0x09)
	.dwattr $C$DW$46, DW_AT_decl_file("../ds1820.c")
	.dwattr $C$DW$46, DW_AT_decl_line(0x43)
	.dwattr $C$DW$46, DW_AT_decl_column(0x09)
	.dwattr $C$DW$46, DW_AT_TI_max_frame_size(0x08)
	.dwpsn	file "../ds1820.c",line 68,column 1,is_stmt,address reset_ds1820,isa 1

	.dwfde $C$DW$CIE, reset_ds1820
$C$DW$47	.dwtag  DW_TAG_formal_parameter, DW_AT_name("sensor_id")
	.dwattr $C$DW$47, DW_AT_TI_symbol_name("sensor_id")
	.dwattr $C$DW$47, DW_AT_type(*$C$DW$T$21)
	.dwattr $C$DW$47, DW_AT_location[DW_OP_reg0]
;----------------------------------------------------------------------
;  67 | uint8_t reset_ds1820(uint8_t sensor_id)                                
;----------------------------------------------------------------------

;*****************************************************************************
;* FUNCTION NAME: reset_ds1820                                               *
;*                                                                           *
;*   Regs Modified     : A1,A2,A3,A4,V9,SP,LR,SR,D0,D0_hi,D1,D1_hi,D2,D2_hi, *
;*                           D3,D3_hi,D4,D4_hi,D5,D5_hi,D6,D6_hi,D7,D7_hi,   *
;*                           FPEXC,FPSCR                                     *
;*   Regs Used         : A1,A2,A3,A4,V9,SP,LR,SR,D0,D0_hi,D1,D1_hi,D2,D2_hi, *
;*                           D3,D3_hi,D4,D4_hi,D5,D5_hi,D6,D6_hi,D7,D7_hi,   *
;*                           FPEXC,FPSCR                                     *
;*   Local Frame Size  : 0 Args + 4 Auto + 4 Save = 8 byte                   *
;*****************************************************************************
reset_ds1820:
;* --------------------------------------------------------------------------*
	.dwcfi	cfa_offset, 0
        PUSH      {A4, LR}              ; [DPU_3_PIPE] 
	.dwcfi	cfa_offset, 8
	.dwcfi	save_reg_to_mem, 14, -4
	.dwcfi	save_reg_to_mem, 3, -8
$C$DW$48	.dwtag  DW_TAG_variable, DW_AT_name("sensor_id")
	.dwattr $C$DW$48, DW_AT_TI_symbol_name("sensor_id")
	.dwattr $C$DW$48, DW_AT_type(*$C$DW$T$21)
	.dwattr $C$DW$48, DW_AT_location[DW_OP_breg13 0]
$C$DW$49	.dwtag  DW_TAG_variable, DW_AT_name("value")
	.dwattr $C$DW$49, DW_AT_TI_symbol_name("value")
	.dwattr $C$DW$49, DW_AT_type(*$C$DW$T$21)
	.dwattr $C$DW$49, DW_AT_location[DW_OP_breg13 1]
;----------------------------------------------------------------------
;  69 | uint8_t value;                                                         
;----------------------------------------------------------------------
        STRB      A1, [SP, #0]          ; [DPU_3_PIPE] |68| 
	.dwpsn	file "../ds1820.c",line 70,column 2,is_stmt,isa 1
;----------------------------------------------------------------------
;  70 | set_mode_output(sensor_id);                                            
;----------------------------------------------------------------------
        LDRB      A1, [SP, #0]          ; [DPU_3_PIPE] |70| 
$C$DW$50	.dwtag  DW_TAG_TI_branch
	.dwattr $C$DW$50, DW_AT_low_pc(0x00)
	.dwattr $C$DW$50, DW_AT_name("set_mode_output")
	.dwattr $C$DW$50, DW_AT_TI_call
        BL        set_mode_output       ; [DPU_3_PIPE] |70| 
        ; CALL OCCURS {set_mode_output }  ; [] |70| 
	.dwpsn	file "../ds1820.c",line 71,column 5,is_stmt,isa 1
;----------------------------------------------------------------------
;  71 | set_line(sensor_id, LOW);                                              
;----------------------------------------------------------------------
        LDRB      A1, [SP, #0]          ; [DPU_3_PIPE] |71| 
        MOVS      A2, #0                ; [DPU_3_PIPE] |71| 
$C$DW$51	.dwtag  DW_TAG_TI_branch
	.dwattr $C$DW$51, DW_AT_low_pc(0x00)
	.dwattr $C$DW$51, DW_AT_name("set_line")
	.dwattr $C$DW$51, DW_AT_TI_call
        BL        set_line              ; [DPU_3_PIPE] |71| 
        ; CALL OCCURS {set_line }        ; [] |71| 
	.dwpsn	file "../ds1820.c",line 72,column 5,is_stmt,isa 1
;----------------------------------------------------------------------
;  72 | delay_us(700);                                                         
;----------------------------------------------------------------------
        MOV       A1, #700              ; [DPU_3_PIPE] |72| 
$C$DW$52	.dwtag  DW_TAG_TI_branch
	.dwattr $C$DW$52, DW_AT_low_pc(0x00)
	.dwattr $C$DW$52, DW_AT_name("delay_us")
	.dwattr $C$DW$52, DW_AT_TI_call
        BL        delay_us              ; [DPU_3_PIPE] |72| 
        ; CALL OCCURS {delay_us }        ; [] |72| 
	.dwpsn	file "../ds1820.c",line 73,column 5,is_stmt,isa 1
;----------------------------------------------------------------------
;  73 | set_line(sensor_id, HIGH);                                             
;----------------------------------------------------------------------
        LDRB      A1, [SP, #0]          ; [DPU_3_PIPE] |73| 
        MOVS      A2, #1                ; [DPU_3_PIPE] |73| 
$C$DW$53	.dwtag  DW_TAG_TI_branch
	.dwattr $C$DW$53, DW_AT_low_pc(0x00)
	.dwattr $C$DW$53, DW_AT_name("set_line")
	.dwattr $C$DW$53, DW_AT_TI_call
        BL        set_line              ; [DPU_3_PIPE] |73| 
        ; CALL OCCURS {set_line }        ; [] |73| 
	.dwpsn	file "../ds1820.c",line 74,column 5,is_stmt,isa 1
;----------------------------------------------------------------------
;  74 | set_mode_input(sensor_id);                                             
;----------------------------------------------------------------------
        LDRB      A1, [SP, #0]          ; [DPU_3_PIPE] |74| 
$C$DW$54	.dwtag  DW_TAG_TI_branch
	.dwattr $C$DW$54, DW_AT_low_pc(0x00)
	.dwattr $C$DW$54, DW_AT_name("set_mode_input")
	.dwattr $C$DW$54, DW_AT_TI_call
        BL        set_mode_input        ; [DPU_3_PIPE] |74| 
        ; CALL OCCURS {set_mode_input }  ; [] |74| 
	.dwpsn	file "../ds1820.c",line 75,column 5,is_stmt,isa 1
;----------------------------------------------------------------------
;  75 | delay_us(60);                                                          
;----------------------------------------------------------------------
        MOVS      A1, #60               ; [DPU_3_PIPE] |75| 
$C$DW$55	.dwtag  DW_TAG_TI_branch
	.dwattr $C$DW$55, DW_AT_low_pc(0x00)
	.dwattr $C$DW$55, DW_AT_name("delay_us")
	.dwattr $C$DW$55, DW_AT_TI_call
        BL        delay_us              ; [DPU_3_PIPE] |75| 
        ; CALL OCCURS {delay_us }        ; [] |75| 
	.dwpsn	file "../ds1820.c",line 76,column 5,is_stmt,isa 1
;----------------------------------------------------------------------
;  76 | value = get_line(sensor_id);                                           
;----------------------------------------------------------------------
        LDRB      A1, [SP, #0]          ; [DPU_3_PIPE] |76| 
$C$DW$56	.dwtag  DW_TAG_TI_branch
	.dwattr $C$DW$56, DW_AT_low_pc(0x00)
	.dwattr $C$DW$56, DW_AT_name("get_line")
	.dwattr $C$DW$56, DW_AT_TI_call
        BL        get_line              ; [DPU_3_PIPE] |76| 
        ; CALL OCCURS {get_line }        ; [] |76| 
        STRB      A1, [SP, #1]          ; [DPU_3_PIPE] |76| 
	.dwpsn	file "../ds1820.c",line 77,column 5,is_stmt,isa 1
;----------------------------------------------------------------------
;  77 | delay_us(420);                                                         
;----------------------------------------------------------------------
        MOV       A1, #420              ; [DPU_3_PIPE] |77| 
$C$DW$57	.dwtag  DW_TAG_TI_branch
	.dwattr $C$DW$57, DW_AT_low_pc(0x00)
	.dwattr $C$DW$57, DW_AT_name("delay_us")
	.dwattr $C$DW$57, DW_AT_TI_call
        BL        delay_us              ; [DPU_3_PIPE] |77| 
        ; CALL OCCURS {delay_us }        ; [] |77| 
	.dwpsn	file "../ds1820.c",line 78,column 5,is_stmt,isa 1
;----------------------------------------------------------------------
;  78 | return value;                                                          
;----------------------------------------------------------------------
        LDRB      A1, [SP, #1]          ; [DPU_3_PIPE] |78| 
	.dwpsn	file "../ds1820.c",line 79,column 1,is_stmt,isa 1
$C$DW$58	.dwtag  DW_TAG_TI_branch
	.dwattr $C$DW$58, DW_AT_low_pc(0x00)
	.dwattr $C$DW$58, DW_AT_TI_return
        POP       {A4, PC}              ; [DPU_3_PIPE] 
	.dwcfi	cfa_offset, 0
        ; BRANCH OCCURS                  ; [] 
	.dwattr $C$DW$46, DW_AT_TI_end_file("../ds1820.c")
	.dwattr $C$DW$46, DW_AT_TI_end_line(0x4f)
	.dwattr $C$DW$46, DW_AT_TI_end_column(0x01)
	.dwendentry
	.dwendtag $C$DW$46

	.sect	".text:writeslot"
	.clink
	.thumbfunc writeslot
	.thumb
	.global	writeslot

$C$DW$59	.dwtag  DW_TAG_subprogram, DW_AT_name("writeslot")
	.dwattr $C$DW$59, DW_AT_low_pc(writeslot)
	.dwattr $C$DW$59, DW_AT_high_pc(0x00)
	.dwattr $C$DW$59, DW_AT_TI_symbol_name("writeslot")
	.dwattr $C$DW$59, DW_AT_external
	.dwattr $C$DW$59, DW_AT_TI_begin_file("../ds1820.c")
	.dwattr $C$DW$59, DW_AT_TI_begin_line(0x51)
	.dwattr $C$DW$59, DW_AT_TI_begin_column(0x06)
	.dwattr $C$DW$59, DW_AT_decl_file("../ds1820.c")
	.dwattr $C$DW$59, DW_AT_decl_line(0x51)
	.dwattr $C$DW$59, DW_AT_decl_column(0x06)
	.dwattr $C$DW$59, DW_AT_TI_max_frame_size(0x08)
	.dwpsn	file "../ds1820.c",line 82,column 1,is_stmt,address writeslot,isa 1

	.dwfde $C$DW$CIE, writeslot
$C$DW$60	.dwtag  DW_TAG_formal_parameter, DW_AT_name("sensor_id")
	.dwattr $C$DW$60, DW_AT_TI_symbol_name("sensor_id")
	.dwattr $C$DW$60, DW_AT_type(*$C$DW$T$21)
	.dwattr $C$DW$60, DW_AT_location[DW_OP_reg0]
$C$DW$61	.dwtag  DW_TAG_formal_parameter, DW_AT_name("data")
	.dwattr $C$DW$61, DW_AT_TI_symbol_name("data")
	.dwattr $C$DW$61, DW_AT_type(*$C$DW$T$21)
	.dwattr $C$DW$61, DW_AT_location[DW_OP_reg1]
;----------------------------------------------------------------------
;  81 | void writeslot(uint8_t sensor_id, uint8_t data)                        
;----------------------------------------------------------------------

;*****************************************************************************
;* FUNCTION NAME: writeslot                                                  *
;*                                                                           *
;*   Regs Modified     : A1,A2,A3,A4,V9,SP,LR,SR,D0,D0_hi,D1,D1_hi,D2,D2_hi, *
;*                           D3,D3_hi,D4,D4_hi,D5,D5_hi,D6,D6_hi,D7,D7_hi,   *
;*                           FPEXC,FPSCR                                     *
;*   Regs Used         : A1,A2,A3,A4,V9,SP,LR,SR,D0,D0_hi,D1,D1_hi,D2,D2_hi, *
;*                           D3,D3_hi,D4,D4_hi,D5,D5_hi,D6,D6_hi,D7,D7_hi,   *
;*                           FPEXC,FPSCR                                     *
;*   Local Frame Size  : 0 Args + 4 Auto + 4 Save = 8 byte                   *
;*****************************************************************************
writeslot:
;* --------------------------------------------------------------------------*
	.dwcfi	cfa_offset, 0
        PUSH      {A4, LR}              ; [DPU_3_PIPE] 
	.dwcfi	cfa_offset, 8
	.dwcfi	save_reg_to_mem, 14, -4
	.dwcfi	save_reg_to_mem, 3, -8
$C$DW$62	.dwtag  DW_TAG_variable, DW_AT_name("sensor_id")
	.dwattr $C$DW$62, DW_AT_TI_symbol_name("sensor_id")
	.dwattr $C$DW$62, DW_AT_type(*$C$DW$T$21)
	.dwattr $C$DW$62, DW_AT_location[DW_OP_breg13 0]
$C$DW$63	.dwtag  DW_TAG_variable, DW_AT_name("data")
	.dwattr $C$DW$63, DW_AT_TI_symbol_name("data")
	.dwattr $C$DW$63, DW_AT_type(*$C$DW$T$21)
	.dwattr $C$DW$63, DW_AT_location[DW_OP_breg13 1]
        STRB      A2, [SP, #1]          ; [DPU_3_PIPE] |82| 
        STRB      A1, [SP, #0]          ; [DPU_3_PIPE] |82| 
	.dwpsn	file "../ds1820.c",line 83,column 2,is_stmt,isa 1
;----------------------------------------------------------------------
;  83 | set_line(sensor_id, HIGH);                                             
;----------------------------------------------------------------------
        LDRB      A1, [SP, #0]          ; [DPU_3_PIPE] |83| 
        MOVS      A2, #1                ; [DPU_3_PIPE] |83| 
$C$DW$64	.dwtag  DW_TAG_TI_branch
	.dwattr $C$DW$64, DW_AT_low_pc(0x00)
	.dwattr $C$DW$64, DW_AT_name("set_line")
	.dwattr $C$DW$64, DW_AT_TI_call
        BL        set_line              ; [DPU_3_PIPE] |83| 
        ; CALL OCCURS {set_line }        ; [] |83| 
	.dwpsn	file "../ds1820.c",line 84,column 2,is_stmt,isa 1
;----------------------------------------------------------------------
;  84 | set_mode_output(sensor_id);                                            
;----------------------------------------------------------------------
        LDRB      A1, [SP, #0]          ; [DPU_3_PIPE] |84| 
$C$DW$65	.dwtag  DW_TAG_TI_branch
	.dwattr $C$DW$65, DW_AT_low_pc(0x00)
	.dwattr $C$DW$65, DW_AT_name("set_mode_output")
	.dwattr $C$DW$65, DW_AT_TI_call
        BL        set_mode_output       ; [DPU_3_PIPE] |84| 
        ; CALL OCCURS {set_mode_output }  ; [] |84| 
	.dwpsn	file "../ds1820.c",line 85,column 2,is_stmt,isa 1
;----------------------------------------------------------------------
;  85 | set_line(sensor_id, LOW);                                              
;----------------------------------------------------------------------
        LDRB      A1, [SP, #0]          ; [DPU_3_PIPE] |85| 
        MOVS      A2, #0                ; [DPU_3_PIPE] |85| 
$C$DW$66	.dwtag  DW_TAG_TI_branch
	.dwattr $C$DW$66, DW_AT_low_pc(0x00)
	.dwattr $C$DW$66, DW_AT_name("set_line")
	.dwattr $C$DW$66, DW_AT_TI_call
        BL        set_line              ; [DPU_3_PIPE] |85| 
        ; CALL OCCURS {set_line }        ; [] |85| 
	.dwpsn	file "../ds1820.c",line 86,column 2,is_stmt,isa 1
;----------------------------------------------------------------------
;  86 | if(data)                                                               
;----------------------------------------------------------------------
        LDRB      A1, [SP, #1]          ; [DPU_3_PIPE] |86| 
        CBZ       A1, ||$C$L3||         ; [] 
        ; BRANCHCC OCCURS {||$C$L3||}    ; [] |86| 
;* --------------------------------------------------------------------------*
	.dwpsn	file "../ds1820.c",line 88,column 3,is_stmt,isa 1
;----------------------------------------------------------------------
;  88 | delay_us(10);                                                          
;----------------------------------------------------------------------
        MOVS      A1, #10               ; [DPU_3_PIPE] |88| 
$C$DW$67	.dwtag  DW_TAG_TI_branch
	.dwattr $C$DW$67, DW_AT_low_pc(0x00)
	.dwattr $C$DW$67, DW_AT_name("delay_us")
	.dwattr $C$DW$67, DW_AT_TI_call
        BL        delay_us              ; [DPU_3_PIPE] |88| 
        ; CALL OCCURS {delay_us }        ; [] |88| 
	.dwpsn	file "../ds1820.c",line 89,column 3,is_stmt,isa 1
;----------------------------------------------------------------------
;  89 | set_mode_input(sensor_id);                                             
;----------------------------------------------------------------------
        LDRB      A1, [SP, #0]          ; [DPU_3_PIPE] |89| 
$C$DW$68	.dwtag  DW_TAG_TI_branch
	.dwattr $C$DW$68, DW_AT_low_pc(0x00)
	.dwattr $C$DW$68, DW_AT_name("set_mode_input")
	.dwattr $C$DW$68, DW_AT_TI_call
        BL        set_mode_input        ; [DPU_3_PIPE] |89| 
        ; CALL OCCURS {set_mode_input }  ; [] |89| 
	.dwpsn	file "../ds1820.c",line 90,column 3,is_stmt,isa 1
;----------------------------------------------------------------------
;  90 | delay_us(80);                                                          
;----------------------------------------------------------------------
        MOVS      A1, #80               ; [DPU_3_PIPE] |90| 
$C$DW$69	.dwtag  DW_TAG_TI_branch
	.dwattr $C$DW$69, DW_AT_low_pc(0x00)
	.dwattr $C$DW$69, DW_AT_name("delay_us")
	.dwattr $C$DW$69, DW_AT_TI_call
        BL        delay_us              ; [DPU_3_PIPE] |90| 
        ; CALL OCCURS {delay_us }        ; [] |90| 
	.dwpsn	file "../ds1820.c",line 91,column 2,is_stmt,isa 1
;----------------------------------------------------------------------
;  92 | else                                                                   
;----------------------------------------------------------------------
        B         ||$C$L4||             ; [DPU_3_PIPE] |91| 
        ; BRANCH OCCURS {||$C$L4||}      ; [] |91| 
;* --------------------------------------------------------------------------*
||$C$L3||:    
	.dwpsn	file "../ds1820.c",line 94,column 3,is_stmt,isa 1
;----------------------------------------------------------------------
;  94 | delay_us(80);                                                          
;----------------------------------------------------------------------
        MOVS      A1, #80               ; [DPU_3_PIPE] |94| 
$C$DW$70	.dwtag  DW_TAG_TI_branch
	.dwattr $C$DW$70, DW_AT_low_pc(0x00)
	.dwattr $C$DW$70, DW_AT_name("delay_us")
	.dwattr $C$DW$70, DW_AT_TI_call
        BL        delay_us              ; [DPU_3_PIPE] |94| 
        ; CALL OCCURS {delay_us }        ; [] |94| 
	.dwpsn	file "../ds1820.c",line 95,column 3,is_stmt,isa 1
;----------------------------------------------------------------------
;  95 | set_mode_input(sensor_id);                                             
;----------------------------------------------------------------------
        LDRB      A1, [SP, #0]          ; [DPU_3_PIPE] |95| 
$C$DW$71	.dwtag  DW_TAG_TI_branch
	.dwattr $C$DW$71, DW_AT_low_pc(0x00)
	.dwattr $C$DW$71, DW_AT_name("set_mode_input")
	.dwattr $C$DW$71, DW_AT_TI_call
        BL        set_mode_input        ; [DPU_3_PIPE] |95| 
        ; CALL OCCURS {set_mode_input }  ; [] |95| 
	.dwpsn	file "../ds1820.c",line 96,column 3,is_stmt,isa 1
;----------------------------------------------------------------------
;  96 | delay_us(10);                                                          
;----------------------------------------------------------------------
        MOVS      A1, #10               ; [DPU_3_PIPE] |96| 
$C$DW$72	.dwtag  DW_TAG_TI_branch
	.dwattr $C$DW$72, DW_AT_low_pc(0x00)
	.dwattr $C$DW$72, DW_AT_name("delay_us")
	.dwattr $C$DW$72, DW_AT_TI_call
        BL        delay_us              ; [DPU_3_PIPE] |96| 
        ; CALL OCCURS {delay_us }        ; [] |96| 
	.dwpsn	file "../ds1820.c",line 98,column 1,is_stmt,isa 1
;* --------------------------------------------------------------------------*
||$C$L4||:    
$C$DW$73	.dwtag  DW_TAG_TI_branch
	.dwattr $C$DW$73, DW_AT_low_pc(0x00)
	.dwattr $C$DW$73, DW_AT_TI_return
        POP       {A4, PC}              ; [DPU_3_PIPE] 
	.dwcfi	cfa_offset, 0
        ; BRANCH OCCURS                  ; [] 
	.dwattr $C$DW$59, DW_AT_TI_end_file("../ds1820.c")
	.dwattr $C$DW$59, DW_AT_TI_end_line(0x62)
	.dwattr $C$DW$59, DW_AT_TI_end_column(0x01)
	.dwendentry
	.dwendtag $C$DW$59

	.sect	".text:readslot"
	.clink
	.thumbfunc readslot
	.thumb
	.global	readslot

$C$DW$74	.dwtag  DW_TAG_subprogram, DW_AT_name("readslot")
	.dwattr $C$DW$74, DW_AT_low_pc(readslot)
	.dwattr $C$DW$74, DW_AT_high_pc(0x00)
	.dwattr $C$DW$74, DW_AT_TI_symbol_name("readslot")
	.dwattr $C$DW$74, DW_AT_external
	.dwattr $C$DW$74, DW_AT_type(*$C$DW$T$21)
	.dwattr $C$DW$74, DW_AT_TI_begin_file("../ds1820.c")
	.dwattr $C$DW$74, DW_AT_TI_begin_line(0x64)
	.dwattr $C$DW$74, DW_AT_TI_begin_column(0x09)
	.dwattr $C$DW$74, DW_AT_decl_file("../ds1820.c")
	.dwattr $C$DW$74, DW_AT_decl_line(0x64)
	.dwattr $C$DW$74, DW_AT_decl_column(0x09)
	.dwattr $C$DW$74, DW_AT_TI_max_frame_size(0x08)
	.dwpsn	file "../ds1820.c",line 101,column 1,is_stmt,address readslot,isa 1

	.dwfde $C$DW$CIE, readslot
$C$DW$75	.dwtag  DW_TAG_formal_parameter, DW_AT_name("sensor_id")
	.dwattr $C$DW$75, DW_AT_TI_symbol_name("sensor_id")
	.dwattr $C$DW$75, DW_AT_type(*$C$DW$T$21)
	.dwattr $C$DW$75, DW_AT_location[DW_OP_reg0]
;----------------------------------------------------------------------
; 100 | uint8_t readslot(uint8_t sensor_id)                                    
;----------------------------------------------------------------------

;*****************************************************************************
;* FUNCTION NAME: readslot                                                   *
;*                                                                           *
;*   Regs Modified     : A1,A2,A3,A4,V9,SP,LR,SR,D0,D0_hi,D1,D1_hi,D2,D2_hi, *
;*                           D3,D3_hi,D4,D4_hi,D5,D5_hi,D6,D6_hi,D7,D7_hi,   *
;*                           FPEXC,FPSCR                                     *
;*   Regs Used         : A1,A2,A3,A4,V9,SP,LR,SR,D0,D0_hi,D1,D1_hi,D2,D2_hi, *
;*                           D3,D3_hi,D4,D4_hi,D5,D5_hi,D6,D6_hi,D7,D7_hi,   *
;*                           FPEXC,FPSCR                                     *
;*   Local Frame Size  : 0 Args + 4 Auto + 4 Save = 8 byte                   *
;*****************************************************************************
readslot:
;* --------------------------------------------------------------------------*
	.dwcfi	cfa_offset, 0
        PUSH      {A4, LR}              ; [DPU_3_PIPE] 
	.dwcfi	cfa_offset, 8
	.dwcfi	save_reg_to_mem, 14, -4
	.dwcfi	save_reg_to_mem, 3, -8
$C$DW$76	.dwtag  DW_TAG_variable, DW_AT_name("sensor_id")
	.dwattr $C$DW$76, DW_AT_TI_symbol_name("sensor_id")
	.dwattr $C$DW$76, DW_AT_type(*$C$DW$T$21)
	.dwattr $C$DW$76, DW_AT_location[DW_OP_breg13 0]
$C$DW$77	.dwtag  DW_TAG_variable, DW_AT_name("value")
	.dwattr $C$DW$77, DW_AT_TI_symbol_name("value")
	.dwattr $C$DW$77, DW_AT_type(*$C$DW$T$21)
	.dwattr $C$DW$77, DW_AT_location[DW_OP_breg13 1]
;----------------------------------------------------------------------
; 102 | uint8_t value;                                                         
;----------------------------------------------------------------------
        STRB      A1, [SP, #0]          ; [DPU_3_PIPE] |101| 
	.dwpsn	file "../ds1820.c",line 103,column 2,is_stmt,isa 1
;----------------------------------------------------------------------
; 103 | set_line(sensor_id, HIGH);                                             
;----------------------------------------------------------------------
        LDRB      A1, [SP, #0]          ; [DPU_3_PIPE] |103| 
        MOVS      A2, #1                ; [DPU_3_PIPE] |103| 
$C$DW$78	.dwtag  DW_TAG_TI_branch
	.dwattr $C$DW$78, DW_AT_low_pc(0x00)
	.dwattr $C$DW$78, DW_AT_name("set_line")
	.dwattr $C$DW$78, DW_AT_TI_call
        BL        set_line              ; [DPU_3_PIPE] |103| 
        ; CALL OCCURS {set_line }        ; [] |103| 
	.dwpsn	file "../ds1820.c",line 104,column 2,is_stmt,isa 1
;----------------------------------------------------------------------
; 104 | set_mode_output(sensor_id);                                            
;----------------------------------------------------------------------
        LDRB      A1, [SP, #0]          ; [DPU_3_PIPE] |104| 
$C$DW$79	.dwtag  DW_TAG_TI_branch
	.dwattr $C$DW$79, DW_AT_low_pc(0x00)
	.dwattr $C$DW$79, DW_AT_name("set_mode_output")
	.dwattr $C$DW$79, DW_AT_TI_call
        BL        set_mode_output       ; [DPU_3_PIPE] |104| 
        ; CALL OCCURS {set_mode_output }  ; [] |104| 
	.dwpsn	file "../ds1820.c",line 105,column 2,is_stmt,isa 1
;----------------------------------------------------------------------
; 105 | set_line(sensor_id, LOW);                                              
;----------------------------------------------------------------------
        LDRB      A1, [SP, #0]          ; [DPU_3_PIPE] |105| 
        MOVS      A2, #0                ; [DPU_3_PIPE] |105| 
$C$DW$80	.dwtag  DW_TAG_TI_branch
	.dwattr $C$DW$80, DW_AT_low_pc(0x00)
	.dwattr $C$DW$80, DW_AT_name("set_line")
	.dwattr $C$DW$80, DW_AT_TI_call
        BL        set_line              ; [DPU_3_PIPE] |105| 
        ; CALL OCCURS {set_line }        ; [] |105| 
	.dwpsn	file "../ds1820.c",line 106,column 2,is_stmt,isa 1
;----------------------------------------------------------------------
; 106 | delay_us(10);                                                          
;----------------------------------------------------------------------
        MOVS      A1, #10               ; [DPU_3_PIPE] |106| 
$C$DW$81	.dwtag  DW_TAG_TI_branch
	.dwattr $C$DW$81, DW_AT_low_pc(0x00)
	.dwattr $C$DW$81, DW_AT_name("delay_us")
	.dwattr $C$DW$81, DW_AT_TI_call
        BL        delay_us              ; [DPU_3_PIPE] |106| 
        ; CALL OCCURS {delay_us }        ; [] |106| 
	.dwpsn	file "../ds1820.c",line 107,column 2,is_stmt,isa 1
;----------------------------------------------------------------------
; 107 | set_mode_input(sensor_id);                                             
;----------------------------------------------------------------------
        LDRB      A1, [SP, #0]          ; [DPU_3_PIPE] |107| 
$C$DW$82	.dwtag  DW_TAG_TI_branch
	.dwattr $C$DW$82, DW_AT_low_pc(0x00)
	.dwattr $C$DW$82, DW_AT_name("set_mode_input")
	.dwattr $C$DW$82, DW_AT_TI_call
        BL        set_mode_input        ; [DPU_3_PIPE] |107| 
        ; CALL OCCURS {set_mode_input }  ; [] |107| 
	.dwpsn	file "../ds1820.c",line 108,column 2,is_stmt,isa 1
;----------------------------------------------------------------------
; 108 | delay_us(10);                                                          
;----------------------------------------------------------------------
        MOVS      A1, #10               ; [DPU_3_PIPE] |108| 
$C$DW$83	.dwtag  DW_TAG_TI_branch
	.dwattr $C$DW$83, DW_AT_low_pc(0x00)
	.dwattr $C$DW$83, DW_AT_name("delay_us")
	.dwattr $C$DW$83, DW_AT_TI_call
        BL        delay_us              ; [DPU_3_PIPE] |108| 
        ; CALL OCCURS {delay_us }        ; [] |108| 
	.dwpsn	file "../ds1820.c",line 109,column 2,is_stmt,isa 1
;----------------------------------------------------------------------
; 109 | value = get_line(sensor_id);                                           
;----------------------------------------------------------------------
        LDRB      A1, [SP, #0]          ; [DPU_3_PIPE] |109| 
$C$DW$84	.dwtag  DW_TAG_TI_branch
	.dwattr $C$DW$84, DW_AT_low_pc(0x00)
	.dwattr $C$DW$84, DW_AT_name("get_line")
	.dwattr $C$DW$84, DW_AT_TI_call
        BL        get_line              ; [DPU_3_PIPE] |109| 
        ; CALL OCCURS {get_line }        ; [] |109| 
        STRB      A1, [SP, #1]          ; [DPU_3_PIPE] |109| 
	.dwpsn	file "../ds1820.c",line 110,column 2,is_stmt,isa 1
;----------------------------------------------------------------------
; 110 | delay_us(50);                                                          
;----------------------------------------------------------------------
        MOVS      A1, #50               ; [DPU_3_PIPE] |110| 
$C$DW$85	.dwtag  DW_TAG_TI_branch
	.dwattr $C$DW$85, DW_AT_low_pc(0x00)
	.dwattr $C$DW$85, DW_AT_name("delay_us")
	.dwattr $C$DW$85, DW_AT_TI_call
        BL        delay_us              ; [DPU_3_PIPE] |110| 
        ; CALL OCCURS {delay_us }        ; [] |110| 
	.dwpsn	file "../ds1820.c",line 111,column 2,is_stmt,isa 1
;----------------------------------------------------------------------
; 111 | return value;                                                          
;----------------------------------------------------------------------
        LDRB      A1, [SP, #1]          ; [DPU_3_PIPE] |111| 
	.dwpsn	file "../ds1820.c",line 112,column 1,is_stmt,isa 1
$C$DW$86	.dwtag  DW_TAG_TI_branch
	.dwattr $C$DW$86, DW_AT_low_pc(0x00)
	.dwattr $C$DW$86, DW_AT_TI_return
        POP       {A4, PC}              ; [DPU_3_PIPE] 
	.dwcfi	cfa_offset, 0
        ; BRANCH OCCURS                  ; [] 
	.dwattr $C$DW$74, DW_AT_TI_end_file("../ds1820.c")
	.dwattr $C$DW$74, DW_AT_TI_end_line(0x70)
	.dwattr $C$DW$74, DW_AT_TI_end_column(0x01)
	.dwendentry
	.dwendtag $C$DW$74

	.sect	".text:write_ds1820"
	.clink
	.thumbfunc write_ds1820
	.thumb
	.global	write_ds1820

$C$DW$87	.dwtag  DW_TAG_subprogram, DW_AT_name("write_ds1820")
	.dwattr $C$DW$87, DW_AT_low_pc(write_ds1820)
	.dwattr $C$DW$87, DW_AT_high_pc(0x00)
	.dwattr $C$DW$87, DW_AT_TI_symbol_name("write_ds1820")
	.dwattr $C$DW$87, DW_AT_external
	.dwattr $C$DW$87, DW_AT_TI_begin_file("../ds1820.c")
	.dwattr $C$DW$87, DW_AT_TI_begin_line(0x72)
	.dwattr $C$DW$87, DW_AT_TI_begin_column(0x06)
	.dwattr $C$DW$87, DW_AT_decl_file("../ds1820.c")
	.dwattr $C$DW$87, DW_AT_decl_line(0x72)
	.dwattr $C$DW$87, DW_AT_decl_column(0x06)
	.dwattr $C$DW$87, DW_AT_TI_max_frame_size(0x08)
	.dwpsn	file "../ds1820.c",line 115,column 1,is_stmt,address write_ds1820,isa 1

	.dwfde $C$DW$CIE, write_ds1820
$C$DW$88	.dwtag  DW_TAG_formal_parameter, DW_AT_name("sensor_id")
	.dwattr $C$DW$88, DW_AT_TI_symbol_name("sensor_id")
	.dwattr $C$DW$88, DW_AT_type(*$C$DW$T$21)
	.dwattr $C$DW$88, DW_AT_location[DW_OP_reg0]
$C$DW$89	.dwtag  DW_TAG_formal_parameter, DW_AT_name("data")
	.dwattr $C$DW$89, DW_AT_TI_symbol_name("data")
	.dwattr $C$DW$89, DW_AT_type(*$C$DW$T$21)
	.dwattr $C$DW$89, DW_AT_location[DW_OP_reg1]
;----------------------------------------------------------------------
; 114 | void write_ds1820(uint8_t sensor_id, uint8_t data)                     
;----------------------------------------------------------------------

;*****************************************************************************
;* FUNCTION NAME: write_ds1820                                               *
;*                                                                           *
;*   Regs Modified     : A1,A2,A3,A4,V9,SP,LR,SR,D0,D0_hi,D1,D1_hi,D2,D2_hi, *
;*                           D3,D3_hi,D4,D4_hi,D5,D5_hi,D6,D6_hi,D7,D7_hi,   *
;*                           FPEXC,FPSCR                                     *
;*   Regs Used         : A1,A2,A3,A4,V9,SP,LR,SR,D0,D0_hi,D1,D1_hi,D2,D2_hi, *
;*                           D3,D3_hi,D4,D4_hi,D5,D5_hi,D6,D6_hi,D7,D7_hi,   *
;*                           FPEXC,FPSCR                                     *
;*   Local Frame Size  : 0 Args + 4 Auto + 4 Save = 8 byte                   *
;*****************************************************************************
write_ds1820:
;* --------------------------------------------------------------------------*
	.dwcfi	cfa_offset, 0
        PUSH      {A4, LR}              ; [DPU_3_PIPE] 
	.dwcfi	cfa_offset, 8
	.dwcfi	save_reg_to_mem, 14, -4
	.dwcfi	save_reg_to_mem, 3, -8
$C$DW$90	.dwtag  DW_TAG_variable, DW_AT_name("sensor_id")
	.dwattr $C$DW$90, DW_AT_TI_symbol_name("sensor_id")
	.dwattr $C$DW$90, DW_AT_type(*$C$DW$T$21)
	.dwattr $C$DW$90, DW_AT_location[DW_OP_breg13 0]
$C$DW$91	.dwtag  DW_TAG_variable, DW_AT_name("data")
	.dwattr $C$DW$91, DW_AT_TI_symbol_name("data")
	.dwattr $C$DW$91, DW_AT_type(*$C$DW$T$21)
	.dwattr $C$DW$91, DW_AT_location[DW_OP_breg13 1]
$C$DW$92	.dwtag  DW_TAG_variable, DW_AT_name("i")
	.dwattr $C$DW$92, DW_AT_TI_symbol_name("i")
	.dwattr $C$DW$92, DW_AT_type(*$C$DW$T$21)
	.dwattr $C$DW$92, DW_AT_location[DW_OP_breg13 2]
;----------------------------------------------------------------------
; 116 | uint8_t i;                                                             
;----------------------------------------------------------------------
        STRB      A2, [SP, #1]          ; [DPU_3_PIPE] |115| 
        STRB      A1, [SP, #0]          ; [DPU_3_PIPE] |115| 
	.dwpsn	file "../ds1820.c",line 117,column 6,is_stmt,isa 1
;----------------------------------------------------------------------
; 117 | for(i=0; i<8; i++)                                                     
;----------------------------------------------------------------------
        MOVS      A1, #0                ; [DPU_3_PIPE] |117| 
        STRB      A1, [SP, #2]          ; [DPU_3_PIPE] |117| 
	.dwpsn	file "../ds1820.c",line 117,column 11,is_stmt,isa 1
        LDRB      A1, [SP, #2]          ; [DPU_3_PIPE] |117| 
        CMP       A1, #8                ; [DPU_3_PIPE] |117| 
        BGE       ||$C$L6||             ; [DPU_3_PIPE] |117| 
        ; BRANCHCC OCCURS {||$C$L6||}    ; [] |117| 
;* --------------------------------------------------------------------------*
;*   BEGIN LOOP ||$C$L5||
;*
;*   Loop source line                : 117
;*   Loop closing brace source line  : 121
;*   Known Minimum Trip Count        : 1
;*   Known Maximum Trip Count        : 4294967295
;*   Known Max Trip Count Factor     : 1
;* --------------------------------------------------------------------------*
||$C$L5||:    
	.dwpsn	file "../ds1820.c",line 119,column 3,is_stmt,isa 1
;----------------------------------------------------------------------
; 119 | writeslot(sensor_id, data&1);                                          
;----------------------------------------------------------------------
        LDRB      A2, [SP, #1]          ; [DPU_3_PIPE] |119| 
        LDRB      A1, [SP, #0]          ; [DPU_3_PIPE] |119| 
        AND       A2, A2, #1            ; [DPU_3_PIPE] |119| 
$C$DW$93	.dwtag  DW_TAG_TI_branch
	.dwattr $C$DW$93, DW_AT_low_pc(0x00)
	.dwattr $C$DW$93, DW_AT_name("writeslot")
	.dwattr $C$DW$93, DW_AT_TI_call
        BL        writeslot             ; [DPU_3_PIPE] |119| 
        ; CALL OCCURS {writeslot }       ; [] |119| 
	.dwpsn	file "../ds1820.c",line 120,column 3,is_stmt,isa 1
;----------------------------------------------------------------------
; 120 | data >>= 1;                                                            
;----------------------------------------------------------------------
        LDRB      A1, [SP, #1]          ; [DPU_3_PIPE] |120| 
        ASRS      A1, A1, #1            ; [DPU_3_PIPE] |120| 
        STRB      A1, [SP, #1]          ; [DPU_3_PIPE] |120| 
	.dwpsn	file "../ds1820.c",line 117,column 16,is_stmt,isa 1
        LDRB      A1, [SP, #2]          ; [DPU_3_PIPE] |117| 
        ADDS      A1, A1, #1            ; [DPU_3_PIPE] |117| 
        STRB      A1, [SP, #2]          ; [DPU_3_PIPE] |117| 
	.dwpsn	file "../ds1820.c",line 117,column 11,is_stmt,isa 1
        LDRB      A1, [SP, #2]          ; [DPU_3_PIPE] |117| 
        CMP       A1, #8                ; [DPU_3_PIPE] |117| 
        BLT       ||$C$L5||             ; [DPU_3_PIPE] |117| 
        ; BRANCHCC OCCURS {||$C$L5||}    ; [] |117| 
;* --------------------------------------------------------------------------*
	.dwpsn	file "../ds1820.c",line 122,column 1,is_stmt,isa 1
;* --------------------------------------------------------------------------*
||$C$L6||:    
$C$DW$94	.dwtag  DW_TAG_TI_branch
	.dwattr $C$DW$94, DW_AT_low_pc(0x00)
	.dwattr $C$DW$94, DW_AT_TI_return
        POP       {A4, PC}              ; [DPU_3_PIPE] 
	.dwcfi	cfa_offset, 0
        ; BRANCH OCCURS                  ; [] 
	.dwattr $C$DW$87, DW_AT_TI_end_file("../ds1820.c")
	.dwattr $C$DW$87, DW_AT_TI_end_line(0x7a)
	.dwattr $C$DW$87, DW_AT_TI_end_column(0x01)
	.dwendentry
	.dwendtag $C$DW$87

	.sect	".text:read_scratchpad"
	.clink
	.thumbfunc read_scratchpad
	.thumb
	.global	read_scratchpad

$C$DW$95	.dwtag  DW_TAG_subprogram, DW_AT_name("read_scratchpad")
	.dwattr $C$DW$95, DW_AT_low_pc(read_scratchpad)
	.dwattr $C$DW$95, DW_AT_high_pc(0x00)
	.dwattr $C$DW$95, DW_AT_TI_symbol_name("read_scratchpad")
	.dwattr $C$DW$95, DW_AT_external
	.dwattr $C$DW$95, DW_AT_TI_begin_file("../ds1820.c")
	.dwattr $C$DW$95, DW_AT_TI_begin_line(0x7d)
	.dwattr $C$DW$95, DW_AT_TI_begin_column(0x06)
	.dwattr $C$DW$95, DW_AT_decl_file("../ds1820.c")
	.dwattr $C$DW$95, DW_AT_decl_line(0x7d)
	.dwattr $C$DW$95, DW_AT_decl_column(0x06)
	.dwattr $C$DW$95, DW_AT_TI_max_frame_size(0x08)
	.dwpsn	file "../ds1820.c",line 126,column 1,is_stmt,address read_scratchpad,isa 1

	.dwfde $C$DW$CIE, read_scratchpad
$C$DW$96	.dwtag  DW_TAG_formal_parameter, DW_AT_name("sensor_id")
	.dwattr $C$DW$96, DW_AT_TI_symbol_name("sensor_id")
	.dwattr $C$DW$96, DW_AT_type(*$C$DW$T$21)
	.dwattr $C$DW$96, DW_AT_location[DW_OP_reg0]
;----------------------------------------------------------------------
; 125 | void read_scratchpad(uint8_t sensor_id)                                
;----------------------------------------------------------------------

;*****************************************************************************
;* FUNCTION NAME: read_scratchpad                                            *
;*                                                                           *
;*   Regs Modified     : A1,A2,A3,A4,V9,SP,LR,SR,D0,D0_hi,D1,D1_hi,D2,D2_hi, *
;*                           D3,D3_hi,D4,D4_hi,D5,D5_hi,D6,D6_hi,D7,D7_hi,   *
;*                           FPEXC,FPSCR                                     *
;*   Regs Used         : A1,A2,A3,A4,V9,SP,LR,SR,D0,D0_hi,D1,D1_hi,D2,D2_hi, *
;*                           D3,D3_hi,D4,D4_hi,D5,D5_hi,D6,D6_hi,D7,D7_hi,   *
;*                           FPEXC,FPSCR                                     *
;*   Local Frame Size  : 0 Args + 4 Auto + 4 Save = 8 byte                   *
;*****************************************************************************
read_scratchpad:
;* --------------------------------------------------------------------------*
	.dwcfi	cfa_offset, 0
        PUSH      {A4, LR}              ; [DPU_3_PIPE] 
	.dwcfi	cfa_offset, 8
	.dwcfi	save_reg_to_mem, 14, -4
	.dwcfi	save_reg_to_mem, 3, -8
$C$DW$97	.dwtag  DW_TAG_variable, DW_AT_name("sensor_id")
	.dwattr $C$DW$97, DW_AT_TI_symbol_name("sensor_id")
	.dwattr $C$DW$97, DW_AT_type(*$C$DW$T$21)
	.dwattr $C$DW$97, DW_AT_location[DW_OP_breg13 0]
$C$DW$98	.dwtag  DW_TAG_variable, DW_AT_name("i")
	.dwattr $C$DW$98, DW_AT_TI_symbol_name("i")
	.dwattr $C$DW$98, DW_AT_type(*$C$DW$T$21)
	.dwattr $C$DW$98, DW_AT_location[DW_OP_breg13 1]
;----------------------------------------------------------------------
; 127 | uint8_t i;                                                             
;----------------------------------------------------------------------
        STRB      A1, [SP, #0]          ; [DPU_3_PIPE] |126| 
	.dwpsn	file "../ds1820.c",line 128,column 2,is_stmt,isa 1
;----------------------------------------------------------------------
; 128 | temp_ds1820 = 0;                                                       
;----------------------------------------------------------------------
        LDR       A2, $C$CON10          ; [DPU_3_PIPE] |128| 
        MOVS      A1, #0                ; [DPU_3_PIPE] |128| 
        STRH      A1, [A2, #0]          ; [DPU_3_PIPE] |128| 
	.dwpsn	file "../ds1820.c",line 129,column 6,is_stmt,isa 1
;----------------------------------------------------------------------
; 129 | for(i=0;i<8;i++)                                                       
;----------------------------------------------------------------------
        MOVS      A1, #0                ; [DPU_3_PIPE] |129| 
        STRB      A1, [SP, #1]          ; [DPU_3_PIPE] |129| 
	.dwpsn	file "../ds1820.c",line 129,column 10,is_stmt,isa 1
        LDRB      A1, [SP, #1]          ; [DPU_3_PIPE] |129| 
        CMP       A1, #8                ; [DPU_3_PIPE] |129| 
        BGE       ||$C$L9||             ; [DPU_3_PIPE] |129| 
        ; BRANCHCC OCCURS {||$C$L9||}    ; [] |129| 
;* --------------------------------------------------------------------------*
;*   BEGIN LOOP ||$C$L7||
;*
;*   Loop source line                : 129
;*   Loop closing brace source line  : 136
;*   Known Minimum Trip Count        : 1
;*   Known Maximum Trip Count        : 4294967295
;*   Known Max Trip Count Factor     : 1
;* --------------------------------------------------------------------------*
||$C$L7||:    
	.dwpsn	file "../ds1820.c",line 131,column 3,is_stmt,isa 1
;----------------------------------------------------------------------
; 131 | temp_ds1820 >>= 1;                                                     
;----------------------------------------------------------------------
        LDR       A2, $C$CON10          ; [DPU_3_PIPE] |131| 
        LDRH      A1, [A2, #0]          ; [DPU_3_PIPE] |131| 
        ASRS      A1, A1, #1            ; [DPU_3_PIPE] |131| 
        STRH      A1, [A2, #0]          ; [DPU_3_PIPE] |131| 
	.dwpsn	file "../ds1820.c",line 132,column 3,is_stmt,isa 1
;----------------------------------------------------------------------
; 132 | if(readslot(sensor_id))                                                
;----------------------------------------------------------------------
        LDRB      A1, [SP, #0]          ; [DPU_3_PIPE] |132| 
$C$DW$99	.dwtag  DW_TAG_TI_branch
	.dwattr $C$DW$99, DW_AT_low_pc(0x00)
	.dwattr $C$DW$99, DW_AT_name("readslot")
	.dwattr $C$DW$99, DW_AT_TI_call
        BL        readslot              ; [DPU_3_PIPE] |132| 
        ; CALL OCCURS {readslot }        ; [] |132| 
        CBZ       A1, ||$C$L8||         ; [] 
        ; BRANCHCC OCCURS {||$C$L8||}    ; [] |132| 
;* --------------------------------------------------------------------------*
	.dwpsn	file "../ds1820.c",line 134,column 4,is_stmt,isa 1
;----------------------------------------------------------------------
; 134 | temp_ds1820 |= 0x80;                                                   
;----------------------------------------------------------------------
        LDR       A2, $C$CON10          ; [DPU_3_PIPE] |134| 
        LDRH      A1, [A2, #0]          ; [DPU_3_PIPE] |134| 
        ORR       A1, A1, #128          ; [DPU_3_PIPE] |134| 
        STRH      A1, [A2, #0]          ; [DPU_3_PIPE] |134| 
;* --------------------------------------------------------------------------*
||$C$L8||:    
	.dwpsn	file "../ds1820.c",line 129,column 14,is_stmt,isa 1
        LDRB      A1, [SP, #1]          ; [DPU_3_PIPE] |129| 
        ADDS      A1, A1, #1            ; [DPU_3_PIPE] |129| 
        STRB      A1, [SP, #1]          ; [DPU_3_PIPE] |129| 
	.dwpsn	file "../ds1820.c",line 129,column 10,is_stmt,isa 1
        LDRB      A1, [SP, #1]          ; [DPU_3_PIPE] |129| 
        CMP       A1, #8                ; [DPU_3_PIPE] |129| 
        BLT       ||$C$L7||             ; [DPU_3_PIPE] |129| 
        ; BRANCHCC OCCURS {||$C$L7||}    ; [] |129| 
;* --------------------------------------------------------------------------*
||$C$L9||:    
	.dwpsn	file "../ds1820.c",line 137,column 2,is_stmt,isa 1
;----------------------------------------------------------------------
; 137 | temp_ds1820 &= 0xff;                                                   
;----------------------------------------------------------------------
        LDR       A2, $C$CON10          ; [DPU_3_PIPE] |137| 
        LDRH      A1, [A2, #0]          ; [DPU_3_PIPE] |137| 
        AND       A1, A1, #255          ; [DPU_3_PIPE] |137| 
        STRH      A1, [A2, #0]          ; [DPU_3_PIPE] |137| 
	.dwpsn	file "../ds1820.c",line 138,column 2,is_stmt,isa 1
;----------------------------------------------------------------------
; 138 | temp_ds1820 >>= 1;//truncate the LSB                                   
; 140 | #if 0                                                                  
; 141 | temp_ds1820 = ((0xff - temp_ds1820) + 1) >> 1;// convert from 2's compl
;     | ement                                                                  
; 142 | #endif                                                                 
;----------------------------------------------------------------------
        LDR       A2, $C$CON10          ; [DPU_3_PIPE] |138| 
        LDRH      A1, [A2, #0]          ; [DPU_3_PIPE] |138| 
        ASRS      A1, A1, #1            ; [DPU_3_PIPE] |138| 
        STRH      A1, [A2, #0]          ; [DPU_3_PIPE] |138| 
	.dwpsn	file "../ds1820.c",line 143,column 1,is_stmt,isa 1
$C$DW$100	.dwtag  DW_TAG_TI_branch
	.dwattr $C$DW$100, DW_AT_low_pc(0x00)
	.dwattr $C$DW$100, DW_AT_TI_return
        POP       {A4, PC}              ; [DPU_3_PIPE] 
	.dwcfi	cfa_offset, 0
        ; BRANCH OCCURS                  ; [] 
	.dwattr $C$DW$95, DW_AT_TI_end_file("../ds1820.c")
	.dwattr $C$DW$95, DW_AT_TI_end_line(0x8f)
	.dwattr $C$DW$95, DW_AT_TI_end_column(0x01)
	.dwendentry
	.dwendtag $C$DW$95

	.sect	".text:read_ds1820"
	.clink
	.thumbfunc read_ds1820
	.thumb
	.global	read_ds1820

$C$DW$101	.dwtag  DW_TAG_subprogram, DW_AT_name("read_ds1820")
	.dwattr $C$DW$101, DW_AT_low_pc(read_ds1820)
	.dwattr $C$DW$101, DW_AT_high_pc(0x00)
	.dwattr $C$DW$101, DW_AT_TI_symbol_name("read_ds1820")
	.dwattr $C$DW$101, DW_AT_external
	.dwattr $C$DW$101, DW_AT_type(*$C$DW$T$43)
	.dwattr $C$DW$101, DW_AT_TI_begin_file("../ds1820.c")
	.dwattr $C$DW$101, DW_AT_TI_begin_line(0x91)
	.dwattr $C$DW$101, DW_AT_TI_begin_column(0x0a)
	.dwattr $C$DW$101, DW_AT_decl_file("../ds1820.c")
	.dwattr $C$DW$101, DW_AT_decl_line(0x91)
	.dwattr $C$DW$101, DW_AT_decl_column(0x0a)
	.dwattr $C$DW$101, DW_AT_TI_max_frame_size(0x08)
	.dwpsn	file "../ds1820.c",line 146,column 1,is_stmt,address read_ds1820,isa 1

	.dwfde $C$DW$CIE, read_ds1820
$C$DW$102	.dwtag  DW_TAG_formal_parameter, DW_AT_name("sensor_id")
	.dwattr $C$DW$102, DW_AT_TI_symbol_name("sensor_id")
	.dwattr $C$DW$102, DW_AT_type(*$C$DW$T$21)
	.dwattr $C$DW$102, DW_AT_location[DW_OP_reg0]
;----------------------------------------------------------------------
; 145 | uint16_t read_ds1820(uint8_t sensor_id)                                
;----------------------------------------------------------------------

;*****************************************************************************
;* FUNCTION NAME: read_ds1820                                                *
;*                                                                           *
;*   Regs Modified     : A1,A2,A3,A4,V9,SP,LR,SR,D0,D0_hi,D1,D1_hi,D2,D2_hi, *
;*                           D3,D3_hi,D4,D4_hi,D5,D5_hi,D6,D6_hi,D7,D7_hi,   *
;*                           FPEXC,FPSCR                                     *
;*   Regs Used         : A1,A2,A3,A4,V9,SP,LR,SR,D0,D0_hi,D1,D1_hi,D2,D2_hi, *
;*                           D3,D3_hi,D4,D4_hi,D5,D5_hi,D6,D6_hi,D7,D7_hi,   *
;*                           FPEXC,FPSCR                                     *
;*   Local Frame Size  : 0 Args + 4 Auto + 4 Save = 8 byte                   *
;*****************************************************************************
read_ds1820:
;* --------------------------------------------------------------------------*
	.dwcfi	cfa_offset, 0
        PUSH      {A4, LR}              ; [DPU_3_PIPE] 
	.dwcfi	cfa_offset, 8
	.dwcfi	save_reg_to_mem, 14, -4
	.dwcfi	save_reg_to_mem, 3, -8
$C$DW$103	.dwtag  DW_TAG_variable, DW_AT_name("sensor_id")
	.dwattr $C$DW$103, DW_AT_TI_symbol_name("sensor_id")
	.dwattr $C$DW$103, DW_AT_type(*$C$DW$T$21)
	.dwattr $C$DW$103, DW_AT_location[DW_OP_breg13 0]
        STRB      A1, [SP, #0]          ; [DPU_3_PIPE] |146| 
	.dwpsn	file "../ds1820.c",line 147,column 2,is_stmt,isa 1
;----------------------------------------------------------------------
; 147 | reset_ds1820(sensor_id);                                               
;----------------------------------------------------------------------
        LDRB      A1, [SP, #0]          ; [DPU_3_PIPE] |147| 
$C$DW$104	.dwtag  DW_TAG_TI_branch
	.dwattr $C$DW$104, DW_AT_low_pc(0x00)
	.dwattr $C$DW$104, DW_AT_name("reset_ds1820")
	.dwattr $C$DW$104, DW_AT_TI_call
        BL        reset_ds1820          ; [DPU_3_PIPE] |147| 
        ; CALL OCCURS {reset_ds1820 }    ; [] |147| 
	.dwpsn	file "../ds1820.c",line 148,column 2,is_stmt,isa 1
;----------------------------------------------------------------------
; 148 | write_ds1820(sensor_id, DS1820_CONVERT_T);                             
;----------------------------------------------------------------------
        LDRB      A1, [SP, #0]          ; [DPU_3_PIPE] |148| 
        MOVS      A2, #204              ; [DPU_3_PIPE] |148| 
$C$DW$105	.dwtag  DW_TAG_TI_branch
	.dwattr $C$DW$105, DW_AT_low_pc(0x00)
	.dwattr $C$DW$105, DW_AT_name("write_ds1820")
	.dwattr $C$DW$105, DW_AT_TI_call
        BL        write_ds1820          ; [DPU_3_PIPE] |148| 
        ; CALL OCCURS {write_ds1820 }    ; [] |148| 
	.dwpsn	file "../ds1820.c",line 149,column 2,is_stmt,isa 1
;----------------------------------------------------------------------
; 149 | write_ds1820(sensor_id, DS1820_SKIP_ROM);                              
;----------------------------------------------------------------------
        LDRB      A1, [SP, #0]          ; [DPU_3_PIPE] |149| 
        MOVS      A2, #68               ; [DPU_3_PIPE] |149| 
$C$DW$106	.dwtag  DW_TAG_TI_branch
	.dwattr $C$DW$106, DW_AT_low_pc(0x00)
	.dwattr $C$DW$106, DW_AT_name("write_ds1820")
	.dwattr $C$DW$106, DW_AT_TI_call
        BL        write_ds1820          ; [DPU_3_PIPE] |149| 
        ; CALL OCCURS {write_ds1820 }    ; [] |149| 
	.dwpsn	file "../ds1820.c",line 150,column 2,is_stmt,isa 1
;----------------------------------------------------------------------
; 150 | set_line(sensor_id, HIGH);                                             
;----------------------------------------------------------------------
        LDRB      A1, [SP, #0]          ; [DPU_3_PIPE] |150| 
        MOVS      A2, #1                ; [DPU_3_PIPE] |150| 
$C$DW$107	.dwtag  DW_TAG_TI_branch
	.dwattr $C$DW$107, DW_AT_low_pc(0x00)
	.dwattr $C$DW$107, DW_AT_name("set_line")
	.dwattr $C$DW$107, DW_AT_TI_call
        BL        set_line              ; [DPU_3_PIPE] |150| 
        ; CALL OCCURS {set_line }        ; [] |150| 
	.dwpsn	file "../ds1820.c",line 151,column 2,is_stmt,isa 1
;----------------------------------------------------------------------
; 151 | delay_us(800);                                                         
;----------------------------------------------------------------------
        MOV       A1, #800              ; [DPU_3_PIPE] |151| 
$C$DW$108	.dwtag  DW_TAG_TI_branch
	.dwattr $C$DW$108, DW_AT_low_pc(0x00)
	.dwattr $C$DW$108, DW_AT_name("delay_us")
	.dwattr $C$DW$108, DW_AT_TI_call
        BL        delay_us              ; [DPU_3_PIPE] |151| 
        ; CALL OCCURS {delay_us }        ; [] |151| 
	.dwpsn	file "../ds1820.c",line 152,column 2,is_stmt,isa 1
;----------------------------------------------------------------------
; 152 | reset_ds1820(sensor_id);                                               
;----------------------------------------------------------------------
        LDRB      A1, [SP, #0]          ; [DPU_3_PIPE] |152| 
$C$DW$109	.dwtag  DW_TAG_TI_branch
	.dwattr $C$DW$109, DW_AT_low_pc(0x00)
	.dwattr $C$DW$109, DW_AT_name("reset_ds1820")
	.dwattr $C$DW$109, DW_AT_TI_call
        BL        reset_ds1820          ; [DPU_3_PIPE] |152| 
        ; CALL OCCURS {reset_ds1820 }    ; [] |152| 
	.dwpsn	file "../ds1820.c",line 153,column 2,is_stmt,isa 1
;----------------------------------------------------------------------
; 153 | write_ds1820(sensor_id, DS1820_CONVERT_T);                             
;----------------------------------------------------------------------
        LDRB      A1, [SP, #0]          ; [DPU_3_PIPE] |153| 
        MOVS      A2, #204              ; [DPU_3_PIPE] |153| 
$C$DW$110	.dwtag  DW_TAG_TI_branch
	.dwattr $C$DW$110, DW_AT_low_pc(0x00)
	.dwattr $C$DW$110, DW_AT_name("write_ds1820")
	.dwattr $C$DW$110, DW_AT_TI_call
        BL        write_ds1820          ; [DPU_3_PIPE] |153| 
        ; CALL OCCURS {write_ds1820 }    ; [] |153| 
	.dwpsn	file "../ds1820.c",line 154,column 2,is_stmt,isa 1
;----------------------------------------------------------------------
; 154 | write_ds1820(sensor_id, DS1820_READ_SCRATCHPAD);                       
;----------------------------------------------------------------------
        LDRB      A1, [SP, #0]          ; [DPU_3_PIPE] |154| 
        MOVS      A2, #190              ; [DPU_3_PIPE] |154| 
$C$DW$111	.dwtag  DW_TAG_TI_branch
	.dwattr $C$DW$111, DW_AT_low_pc(0x00)
	.dwattr $C$DW$111, DW_AT_name("write_ds1820")
	.dwattr $C$DW$111, DW_AT_TI_call
        BL        write_ds1820          ; [DPU_3_PIPE] |154| 
        ; CALL OCCURS {write_ds1820 }    ; [] |154| 
	.dwpsn	file "../ds1820.c",line 155,column 2,is_stmt,isa 1
;----------------------------------------------------------------------
; 155 | read_scratchpad(sensor_id);                                            
;----------------------------------------------------------------------
        LDRB      A1, [SP, #0]          ; [DPU_3_PIPE] |155| 
$C$DW$112	.dwtag  DW_TAG_TI_branch
	.dwattr $C$DW$112, DW_AT_low_pc(0x00)
	.dwattr $C$DW$112, DW_AT_name("read_scratchpad")
	.dwattr $C$DW$112, DW_AT_TI_call
        BL        read_scratchpad       ; [DPU_3_PIPE] |155| 
        ; CALL OCCURS {read_scratchpad }  ; [] |155| 
	.dwpsn	file "../ds1820.c",line 156,column 2,is_stmt,isa 1
;----------------------------------------------------------------------
; 156 | reset_ds1820(sensor_id);                                               
;----------------------------------------------------------------------
        LDRB      A1, [SP, #0]          ; [DPU_3_PIPE] |156| 
$C$DW$113	.dwtag  DW_TAG_TI_branch
	.dwattr $C$DW$113, DW_AT_low_pc(0x00)
	.dwattr $C$DW$113, DW_AT_name("reset_ds1820")
	.dwattr $C$DW$113, DW_AT_TI_call
        BL        reset_ds1820          ; [DPU_3_PIPE] |156| 
        ; CALL OCCURS {reset_ds1820 }    ; [] |156| 
	.dwpsn	file "../ds1820.c",line 157,column 2,is_stmt,isa 1
;----------------------------------------------------------------------
; 157 | if(temp_ds1820 == 85)                                                  
;----------------------------------------------------------------------
        LDR       A1, $C$CON11          ; [DPU_3_PIPE] |157| 
        LDRH      A1, [A1, #0]          ; [DPU_3_PIPE] |157| 
        CMP       A1, #85               ; [DPU_3_PIPE] |157| 
        BNE       ||$C$L10||            ; [DPU_3_PIPE] |157| 
        ; BRANCHCC OCCURS {||$C$L10||}   ; [] |157| 
;* --------------------------------------------------------------------------*
	.dwpsn	file "../ds1820.c",line 158,column 3,is_stmt,isa 1
;----------------------------------------------------------------------
; 158 | temp_ds1820 = 0;                                                       
;----------------------------------------------------------------------
        LDR       A2, $C$CON11          ; [DPU_3_PIPE] |158| 
        MOVS      A1, #0                ; [DPU_3_PIPE] |158| 
        STRH      A1, [A2, #0]          ; [DPU_3_PIPE] |158| 
;* --------------------------------------------------------------------------*
||$C$L10||:    
	.dwpsn	file "../ds1820.c",line 160,column 2,is_stmt,isa 1
;----------------------------------------------------------------------
; 160 | return temp_ds1820;                                                    
;----------------------------------------------------------------------
        LDR       A1, $C$CON11          ; [DPU_3_PIPE] |160| 
        LDRH      A1, [A1, #0]          ; [DPU_3_PIPE] |160| 
	.dwpsn	file "../ds1820.c",line 161,column 1,is_stmt,isa 1
$C$DW$114	.dwtag  DW_TAG_TI_branch
	.dwattr $C$DW$114, DW_AT_low_pc(0x00)
	.dwattr $C$DW$114, DW_AT_TI_return
        POP       {A4, PC}              ; [DPU_3_PIPE] 
	.dwcfi	cfa_offset, 0
        ; BRANCH OCCURS                  ; [] 
	.dwattr $C$DW$101, DW_AT_TI_end_file("../ds1820.c")
	.dwattr $C$DW$101, DW_AT_TI_end_line(0xa1)
	.dwattr $C$DW$101, DW_AT_TI_end_column(0x01)
	.dwendentry
	.dwendtag $C$DW$101

	.sect	".text:read_ds1820_1"
	.clink
	.thumbfunc read_ds1820_1
	.thumb
	.global	read_ds1820_1

$C$DW$115	.dwtag  DW_TAG_subprogram, DW_AT_name("read_ds1820_1")
	.dwattr $C$DW$115, DW_AT_low_pc(read_ds1820_1)
	.dwattr $C$DW$115, DW_AT_high_pc(0x00)
	.dwattr $C$DW$115, DW_AT_TI_symbol_name("read_ds1820_1")
	.dwattr $C$DW$115, DW_AT_external
	.dwattr $C$DW$115, DW_AT_type(*$C$DW$T$21)
	.dwattr $C$DW$115, DW_AT_TI_begin_file("../ds1820.c")
	.dwattr $C$DW$115, DW_AT_TI_begin_line(0xa3)
	.dwattr $C$DW$115, DW_AT_TI_begin_column(0x09)
	.dwattr $C$DW$115, DW_AT_decl_file("../ds1820.c")
	.dwattr $C$DW$115, DW_AT_decl_line(0xa3)
	.dwattr $C$DW$115, DW_AT_decl_column(0x09)
	.dwattr $C$DW$115, DW_AT_TI_max_frame_size(0x08)
	.dwpsn	file "../ds1820.c",line 164,column 1,is_stmt,address read_ds1820_1,isa 1

	.dwfde $C$DW$CIE, read_ds1820_1
;----------------------------------------------------------------------
; 163 | uint8_t read_ds1820_1()                                                
;----------------------------------------------------------------------

;*****************************************************************************
;* FUNCTION NAME: read_ds1820_1                                              *
;*                                                                           *
;*   Regs Modified     : A1,A2,A3,A4,V9,SP,LR,SR,D0,D0_hi,D1,D1_hi,D2,D2_hi, *
;*                           D3,D3_hi,D4,D4_hi,D5,D5_hi,D6,D6_hi,D7,D7_hi,   *
;*                           FPEXC,FPSCR                                     *
;*   Regs Used         : A1,A2,A3,A4,V9,SP,LR,SR,D0,D0_hi,D1,D1_hi,D2,D2_hi, *
;*                           D3,D3_hi,D4,D4_hi,D5,D5_hi,D6,D6_hi,D7,D7_hi,   *
;*                           FPEXC,FPSCR                                     *
;*   Local Frame Size  : 0 Args + 0 Auto + 4 Save = 4 byte                   *
;*****************************************************************************
read_ds1820_1:
;* --------------------------------------------------------------------------*
	.dwcfi	cfa_offset, 0
        PUSH      {A4, LR}              ; [DPU_3_PIPE] 
	.dwcfi	cfa_offset, 8
	.dwcfi	save_reg_to_mem, 14, -4
	.dwcfi	save_reg_to_mem, 3, -8
	.dwpsn	file "../ds1820.c",line 165,column 2,is_stmt,isa 1
;----------------------------------------------------------------------
; 165 | ds1820_data_bit = DS1820_1_DATA_PORT_BIT;                              
;----------------------------------------------------------------------
        LDR       A2, $C$CON12          ; [DPU_3_PIPE] |165| 
        MOVS      A1, #1                ; [DPU_3_PIPE] |165| 
        STRB      A1, [A2, #0]          ; [DPU_3_PIPE] |165| 
	.dwpsn	file "../ds1820.c",line 166,column 2,is_stmt,isa 1
;----------------------------------------------------------------------
; 166 | return (uint8_t)read_ds1820(1);                                        
;----------------------------------------------------------------------
        MOVS      A1, #1                ; [DPU_3_PIPE] |166| 
$C$DW$116	.dwtag  DW_TAG_TI_branch
	.dwattr $C$DW$116, DW_AT_low_pc(0x00)
	.dwattr $C$DW$116, DW_AT_name("read_ds1820")
	.dwattr $C$DW$116, DW_AT_TI_call
        BL        read_ds1820           ; [DPU_3_PIPE] |166| 
        ; CALL OCCURS {read_ds1820 }     ; [] |166| 
        UXTB      A1, A1                ; [DPU_3_PIPE] |166| 
	.dwpsn	file "../ds1820.c",line 167,column 1,is_stmt,isa 1
$C$DW$117	.dwtag  DW_TAG_TI_branch
	.dwattr $C$DW$117, DW_AT_low_pc(0x00)
	.dwattr $C$DW$117, DW_AT_TI_return
        POP       {A4, PC}              ; [DPU_3_PIPE] 
	.dwcfi	cfa_offset, 0
        ; BRANCH OCCURS                  ; [] 
	.dwattr $C$DW$115, DW_AT_TI_end_file("../ds1820.c")
	.dwattr $C$DW$115, DW_AT_TI_end_line(0xa7)
	.dwattr $C$DW$115, DW_AT_TI_end_column(0x01)
	.dwendentry
	.dwendtag $C$DW$115

	.sect	".text:read_ds1820_2"
	.clink
	.thumbfunc read_ds1820_2
	.thumb
	.global	read_ds1820_2

$C$DW$118	.dwtag  DW_TAG_subprogram, DW_AT_name("read_ds1820_2")
	.dwattr $C$DW$118, DW_AT_low_pc(read_ds1820_2)
	.dwattr $C$DW$118, DW_AT_high_pc(0x00)
	.dwattr $C$DW$118, DW_AT_TI_symbol_name("read_ds1820_2")
	.dwattr $C$DW$118, DW_AT_external
	.dwattr $C$DW$118, DW_AT_type(*$C$DW$T$21)
	.dwattr $C$DW$118, DW_AT_TI_begin_file("../ds1820.c")
	.dwattr $C$DW$118, DW_AT_TI_begin_line(0xa8)
	.dwattr $C$DW$118, DW_AT_TI_begin_column(0x09)
	.dwattr $C$DW$118, DW_AT_decl_file("../ds1820.c")
	.dwattr $C$DW$118, DW_AT_decl_line(0xa8)
	.dwattr $C$DW$118, DW_AT_decl_column(0x09)
	.dwattr $C$DW$118, DW_AT_TI_max_frame_size(0x08)
	.dwpsn	file "../ds1820.c",line 169,column 1,is_stmt,address read_ds1820_2,isa 1

	.dwfde $C$DW$CIE, read_ds1820_2
;----------------------------------------------------------------------
; 168 | uint8_t read_ds1820_2()                                                
;----------------------------------------------------------------------

;*****************************************************************************
;* FUNCTION NAME: read_ds1820_2                                              *
;*                                                                           *
;*   Regs Modified     : A1,A2,A3,A4,V9,SP,LR,SR,D0,D0_hi,D1,D1_hi,D2,D2_hi, *
;*                           D3,D3_hi,D4,D4_hi,D5,D5_hi,D6,D6_hi,D7,D7_hi,   *
;*                           FPEXC,FPSCR                                     *
;*   Regs Used         : A1,A2,A3,A4,V9,SP,LR,SR,D0,D0_hi,D1,D1_hi,D2,D2_hi, *
;*                           D3,D3_hi,D4,D4_hi,D5,D5_hi,D6,D6_hi,D7,D7_hi,   *
;*                           FPEXC,FPSCR                                     *
;*   Local Frame Size  : 0 Args + 0 Auto + 4 Save = 4 byte                   *
;*****************************************************************************
read_ds1820_2:
;* --------------------------------------------------------------------------*
	.dwcfi	cfa_offset, 0
        PUSH      {A4, LR}              ; [DPU_3_PIPE] 
	.dwcfi	cfa_offset, 8
	.dwcfi	save_reg_to_mem, 14, -4
	.dwcfi	save_reg_to_mem, 3, -8
	.dwpsn	file "../ds1820.c",line 170,column 2,is_stmt,isa 1
;----------------------------------------------------------------------
; 170 | ds1820_data_bit = DS1820_2_DATA_PORT_BIT;                              
;----------------------------------------------------------------------
        LDR       A2, $C$CON13          ; [DPU_3_PIPE] |170| 
        MOVS      A1, #2                ; [DPU_3_PIPE] |170| 
        STRB      A1, [A2, #0]          ; [DPU_3_PIPE] |170| 
	.dwpsn	file "../ds1820.c",line 171,column 2,is_stmt,isa 1
;----------------------------------------------------------------------
; 171 | return (uint8_t)read_ds1820(2);                                        
;----------------------------------------------------------------------
        MOVS      A1, #2                ; [DPU_3_PIPE] |171| 
$C$DW$119	.dwtag  DW_TAG_TI_branch
	.dwattr $C$DW$119, DW_AT_low_pc(0x00)
	.dwattr $C$DW$119, DW_AT_name("read_ds1820")
	.dwattr $C$DW$119, DW_AT_TI_call
        BL        read_ds1820           ; [DPU_3_PIPE] |171| 
        ; CALL OCCURS {read_ds1820 }     ; [] |171| 
        UXTB      A1, A1                ; [DPU_3_PIPE] |171| 
	.dwpsn	file "../ds1820.c",line 172,column 1,is_stmt,isa 1
$C$DW$120	.dwtag  DW_TAG_TI_branch
	.dwattr $C$DW$120, DW_AT_low_pc(0x00)
	.dwattr $C$DW$120, DW_AT_TI_return
        POP       {A4, PC}              ; [DPU_3_PIPE] 
	.dwcfi	cfa_offset, 0
        ; BRANCH OCCURS                  ; [] 
	.dwattr $C$DW$118, DW_AT_TI_end_file("../ds1820.c")
	.dwattr $C$DW$118, DW_AT_TI_end_line(0xac)
	.dwattr $C$DW$118, DW_AT_TI_end_column(0x01)
	.dwendentry
	.dwendtag $C$DW$118

	.sect	".text:read_ds1820_3"
	.clink
	.thumbfunc read_ds1820_3
	.thumb
	.global	read_ds1820_3

$C$DW$121	.dwtag  DW_TAG_subprogram, DW_AT_name("read_ds1820_3")
	.dwattr $C$DW$121, DW_AT_low_pc(read_ds1820_3)
	.dwattr $C$DW$121, DW_AT_high_pc(0x00)
	.dwattr $C$DW$121, DW_AT_TI_symbol_name("read_ds1820_3")
	.dwattr $C$DW$121, DW_AT_external
	.dwattr $C$DW$121, DW_AT_type(*$C$DW$T$21)
	.dwattr $C$DW$121, DW_AT_TI_begin_file("../ds1820.c")
	.dwattr $C$DW$121, DW_AT_TI_begin_line(0xad)
	.dwattr $C$DW$121, DW_AT_TI_begin_column(0x09)
	.dwattr $C$DW$121, DW_AT_decl_file("../ds1820.c")
	.dwattr $C$DW$121, DW_AT_decl_line(0xad)
	.dwattr $C$DW$121, DW_AT_decl_column(0x09)
	.dwattr $C$DW$121, DW_AT_TI_max_frame_size(0x08)
	.dwpsn	file "../ds1820.c",line 174,column 1,is_stmt,address read_ds1820_3,isa 1

	.dwfde $C$DW$CIE, read_ds1820_3
;----------------------------------------------------------------------
; 173 | uint8_t read_ds1820_3()                                                
;----------------------------------------------------------------------

;*****************************************************************************
;* FUNCTION NAME: read_ds1820_3                                              *
;*                                                                           *
;*   Regs Modified     : A1,A2,A3,A4,V9,SP,LR,SR,D0,D0_hi,D1,D1_hi,D2,D2_hi, *
;*                           D3,D3_hi,D4,D4_hi,D5,D5_hi,D6,D6_hi,D7,D7_hi,   *
;*                           FPEXC,FPSCR                                     *
;*   Regs Used         : A1,A2,A3,A4,V9,SP,LR,SR,D0,D0_hi,D1,D1_hi,D2,D2_hi, *
;*                           D3,D3_hi,D4,D4_hi,D5,D5_hi,D6,D6_hi,D7,D7_hi,   *
;*                           FPEXC,FPSCR                                     *
;*   Local Frame Size  : 0 Args + 0 Auto + 4 Save = 4 byte                   *
;*****************************************************************************
read_ds1820_3:
;* --------------------------------------------------------------------------*
	.dwcfi	cfa_offset, 0
        PUSH      {A4, LR}              ; [DPU_3_PIPE] 
	.dwcfi	cfa_offset, 8
	.dwcfi	save_reg_to_mem, 14, -4
	.dwcfi	save_reg_to_mem, 3, -8
	.dwpsn	file "../ds1820.c",line 175,column 2,is_stmt,isa 1
;----------------------------------------------------------------------
; 175 | return (uint8_t)read_ds1820(3);                                        
;----------------------------------------------------------------------
        MOVS      A1, #3                ; [DPU_3_PIPE] |175| 
$C$DW$122	.dwtag  DW_TAG_TI_branch
	.dwattr $C$DW$122, DW_AT_low_pc(0x00)
	.dwattr $C$DW$122, DW_AT_name("read_ds1820")
	.dwattr $C$DW$122, DW_AT_TI_call
        BL        read_ds1820           ; [DPU_3_PIPE] |175| 
        ; CALL OCCURS {read_ds1820 }     ; [] |175| 
        UXTB      A1, A1                ; [DPU_3_PIPE] |175| 
	.dwpsn	file "../ds1820.c",line 176,column 1,is_stmt,isa 1
$C$DW$123	.dwtag  DW_TAG_TI_branch
	.dwattr $C$DW$123, DW_AT_low_pc(0x00)
	.dwattr $C$DW$123, DW_AT_TI_return
        POP       {A4, PC}              ; [DPU_3_PIPE] 
	.dwcfi	cfa_offset, 0
        ; BRANCH OCCURS                  ; [] 
	.dwattr $C$DW$121, DW_AT_TI_end_file("../ds1820.c")
	.dwattr $C$DW$121, DW_AT_TI_end_line(0xb0)
	.dwattr $C$DW$121, DW_AT_TI_end_column(0x01)
	.dwendentry
	.dwendtag $C$DW$121

;******************************************************************************
;* CONSTANT TABLE                                                             *
;******************************************************************************
	.sect	".text:set_mode_input"
	.align	4
||$C$CON1||:	.bits	ds1820_data_bit,32
	.align	4
||$C$CON2||:	.bits	1073770496,32
;******************************************************************************
;* CONSTANT TABLE                                                             *
;******************************************************************************
	.sect	".text:set_mode_output"
	.align	4
||$C$CON3||:	.bits	ds1820_data_bit,32
	.align	4
||$C$CON4||:	.bits	1073770496,32
;******************************************************************************
;* CONSTANT TABLE                                                             *
;******************************************************************************
	.sect	".text:set_line"
	.align	4
||$C$CON5||:	.bits	ds1820_data_bit,32
	.align	4
||$C$CON6||:	.bits	1073770496,32
;******************************************************************************
;* CONSTANT TABLE                                                             *
;******************************************************************************
	.sect	".text:get_line"
	.align	4
||$C$CON7||:	.bits	ds1820_data_bit,32
	.align	4
||$C$CON8||:	.bits	1073770496,32
;******************************************************************************
;* CONSTANT TABLE                                                             *
;******************************************************************************
	.sect	".text:init_ds1820"
	.align	4
||$C$CON9||:	.bits	-268433405,32
;******************************************************************************
;* CONSTANT TABLE                                                             *
;******************************************************************************
	.sect	".text:read_scratchpad"
	.align	4
||$C$CON10||:	.bits	temp_ds1820,32
;******************************************************************************
;* CONSTANT TABLE                                                             *
;******************************************************************************
	.sect	".text:read_ds1820"
	.align	4
||$C$CON11||:	.bits	temp_ds1820,32
;******************************************************************************
;* CONSTANT TABLE                                                             *
;******************************************************************************
	.sect	".text:read_ds1820_1"
	.align	4
||$C$CON12||:	.bits	ds1820_data_bit,32
;******************************************************************************
;* CONSTANT TABLE                                                             *
;******************************************************************************
	.sect	".text:read_ds1820_2"
	.align	4
||$C$CON13||:	.bits	ds1820_data_bit,32
;*****************************************************************************
;* UNDEFINED EXTERNAL REFERENCES                                             *
;*****************************************************************************
	.global	GPIOPinRead
	.global	GPIOPinWrite
	.global	GPIOPinTypeGPIOInput
	.global	GPIOPinTypeGPIOOutput
	.global	SysCtlPeripheralEnable
	.global	delay_us

;******************************************************************************
;* BUILD ATTRIBUTES                                                           *
;******************************************************************************
	.battr "aeabi", Tag_File, 1, Tag_ABI_PCS_wchar_t(2)
	.battr "aeabi", Tag_File, 1, Tag_ABI_FP_rounding(0)
	.battr "aeabi", Tag_File, 1, Tag_ABI_FP_denormal(0)
	.battr "aeabi", Tag_File, 1, Tag_ABI_FP_exceptions(0)
	.battr "aeabi", Tag_File, 1, Tag_ABI_FP_number_model(1)
	.battr "aeabi", Tag_File, 1, Tag_ABI_enum_size(0)
	.battr "aeabi", Tag_File, 1, Tag_ABI_optimization_goals(5)
	.battr "aeabi", Tag_File, 1, Tag_ABI_FP_optimization_goals(0)
	.battr "TI", Tag_File, 1, Tag_Bitfield_layout(2)
	.battr "TI", Tag_File, 1, Tag_FP_interface(1)

;******************************************************************************
;* TYPE INFORMATION                                                           *
;******************************************************************************
$C$DW$T$2	.dwtag  DW_TAG_unspecified_type
	.dwattr $C$DW$T$2, DW_AT_name("void")
$C$DW$T$3	.dwtag  DW_TAG_pointer_type
	.dwattr $C$DW$T$3, DW_AT_type(*$C$DW$T$2)
	.dwattr $C$DW$T$3, DW_AT_address_class(0x20)
$C$DW$T$4	.dwtag  DW_TAG_base_type
	.dwattr $C$DW$T$4, DW_AT_encoding(DW_ATE_boolean)
	.dwattr $C$DW$T$4, DW_AT_name("bool")
	.dwattr $C$DW$T$4, DW_AT_byte_size(0x01)
$C$DW$T$5	.dwtag  DW_TAG_base_type
	.dwattr $C$DW$T$5, DW_AT_encoding(DW_ATE_signed_char)
	.dwattr $C$DW$T$5, DW_AT_name("signed char")
	.dwattr $C$DW$T$5, DW_AT_byte_size(0x01)
$C$DW$T$33	.dwtag  DW_TAG_typedef, DW_AT_name("int8_t")
	.dwattr $C$DW$T$33, DW_AT_type(*$C$DW$T$5)
	.dwattr $C$DW$T$33, DW_AT_language(DW_LANG_C)
	.dwattr $C$DW$T$33, DW_AT_decl_file("C:/ti/ccsv6/tools/compiler/ti-cgt-arm_5.2.5/include/stdint.h")
	.dwattr $C$DW$T$33, DW_AT_decl_line(0x2a)
	.dwattr $C$DW$T$33, DW_AT_decl_column(0x1d)
$C$DW$T$34	.dwtag  DW_TAG_typedef, DW_AT_name("int_least8_t")
	.dwattr $C$DW$T$34, DW_AT_type(*$C$DW$T$33)
	.dwattr $C$DW$T$34, DW_AT_language(DW_LANG_C)
	.dwattr $C$DW$T$34, DW_AT_decl_file("C:/ti/ccsv6/tools/compiler/ti-cgt-arm_5.2.5/include/stdint.h")
	.dwattr $C$DW$T$34, DW_AT_decl_line(0x37)
	.dwattr $C$DW$T$34, DW_AT_decl_column(0x17)
$C$DW$T$6	.dwtag  DW_TAG_base_type
	.dwattr $C$DW$T$6, DW_AT_encoding(DW_ATE_unsigned_char)
	.dwattr $C$DW$T$6, DW_AT_name("unsigned char")
	.dwattr $C$DW$T$6, DW_AT_byte_size(0x01)
$C$DW$T$21	.dwtag  DW_TAG_typedef, DW_AT_name("uint8_t")
	.dwattr $C$DW$T$21, DW_AT_type(*$C$DW$T$6)
	.dwattr $C$DW$T$21, DW_AT_language(DW_LANG_C)
	.dwattr $C$DW$T$21, DW_AT_decl_file("C:/ti/ccsv6/tools/compiler/ti-cgt-arm_5.2.5/include/stdint.h")
	.dwattr $C$DW$T$21, DW_AT_decl_line(0x2b)
	.dwattr $C$DW$T$21, DW_AT_decl_column(0x1c)
$C$DW$T$38	.dwtag  DW_TAG_typedef, DW_AT_name("uint_least8_t")
	.dwattr $C$DW$T$38, DW_AT_type(*$C$DW$T$21)
	.dwattr $C$DW$T$38, DW_AT_language(DW_LANG_C)
	.dwattr $C$DW$T$38, DW_AT_decl_file("C:/ti/ccsv6/tools/compiler/ti-cgt-arm_5.2.5/include/stdint.h")
	.dwattr $C$DW$T$38, DW_AT_decl_line(0x38)
	.dwattr $C$DW$T$38, DW_AT_decl_column(0x16)
$C$DW$T$7	.dwtag  DW_TAG_base_type
	.dwattr $C$DW$T$7, DW_AT_encoding(DW_ATE_signed_char)
	.dwattr $C$DW$T$7, DW_AT_name("wchar_t")
	.dwattr $C$DW$T$7, DW_AT_byte_size(0x02)
$C$DW$T$8	.dwtag  DW_TAG_base_type
	.dwattr $C$DW$T$8, DW_AT_encoding(DW_ATE_signed)
	.dwattr $C$DW$T$8, DW_AT_name("short")
	.dwattr $C$DW$T$8, DW_AT_byte_size(0x02)
$C$DW$T$39	.dwtag  DW_TAG_typedef, DW_AT_name("int16_t")
	.dwattr $C$DW$T$39, DW_AT_type(*$C$DW$T$8)
	.dwattr $C$DW$T$39, DW_AT_language(DW_LANG_C)
	.dwattr $C$DW$T$39, DW_AT_decl_file("C:/ti/ccsv6/tools/compiler/ti-cgt-arm_5.2.5/include/stdint.h")
	.dwattr $C$DW$T$39, DW_AT_decl_line(0x2c)
	.dwattr $C$DW$T$39, DW_AT_decl_column(0x1d)
$C$DW$T$40	.dwtag  DW_TAG_typedef, DW_AT_name("int_least16_t")
	.dwattr $C$DW$T$40, DW_AT_type(*$C$DW$T$39)
	.dwattr $C$DW$T$40, DW_AT_language(DW_LANG_C)
	.dwattr $C$DW$T$40, DW_AT_decl_file("C:/ti/ccsv6/tools/compiler/ti-cgt-arm_5.2.5/include/stdint.h")
	.dwattr $C$DW$T$40, DW_AT_decl_line(0x3a)
	.dwattr $C$DW$T$40, DW_AT_decl_column(0x17)
$C$DW$T$9	.dwtag  DW_TAG_base_type
	.dwattr $C$DW$T$9, DW_AT_encoding(DW_ATE_unsigned)
	.dwattr $C$DW$T$9, DW_AT_name("unsigned short")
	.dwattr $C$DW$T$9, DW_AT_byte_size(0x02)
$C$DW$T$41	.dwtag  DW_TAG_typedef, DW_AT_name("_Wchart")
	.dwattr $C$DW$T$41, DW_AT_type(*$C$DW$T$9)
	.dwattr $C$DW$T$41, DW_AT_language(DW_LANG_C)
	.dwattr $C$DW$T$41, DW_AT_decl_file("C:/ti/ccsv6/tools/compiler/ti-cgt-arm_5.2.5/include/yvals.h")
	.dwattr $C$DW$T$41, DW_AT_decl_line(0x1e5)
	.dwattr $C$DW$T$41, DW_AT_decl_column(0x21)
$C$DW$T$42	.dwtag  DW_TAG_typedef, DW_AT_name("_Wintt")
	.dwattr $C$DW$T$42, DW_AT_type(*$C$DW$T$9)
	.dwattr $C$DW$T$42, DW_AT_language(DW_LANG_C)
	.dwattr $C$DW$T$42, DW_AT_decl_file("C:/ti/ccsv6/tools/compiler/ti-cgt-arm_5.2.5/include/yvals.h")
	.dwattr $C$DW$T$42, DW_AT_decl_line(0x1e6)
	.dwattr $C$DW$T$42, DW_AT_decl_column(0x21)
$C$DW$T$43	.dwtag  DW_TAG_typedef, DW_AT_name("uint16_t")
	.dwattr $C$DW$T$43, DW_AT_type(*$C$DW$T$9)
	.dwattr $C$DW$T$43, DW_AT_language(DW_LANG_C)
	.dwattr $C$DW$T$43, DW_AT_decl_file("C:/ti/ccsv6/tools/compiler/ti-cgt-arm_5.2.5/include/stdint.h")
	.dwattr $C$DW$T$43, DW_AT_decl_line(0x2d)
	.dwattr $C$DW$T$43, DW_AT_decl_column(0x1c)
$C$DW$T$46	.dwtag  DW_TAG_typedef, DW_AT_name("uint_least16_t")
	.dwattr $C$DW$T$46, DW_AT_type(*$C$DW$T$43)
	.dwattr $C$DW$T$46, DW_AT_language(DW_LANG_C)
	.dwattr $C$DW$T$46, DW_AT_decl_file("C:/ti/ccsv6/tools/compiler/ti-cgt-arm_5.2.5/include/stdint.h")
	.dwattr $C$DW$T$46, DW_AT_decl_line(0x3b)
	.dwattr $C$DW$T$46, DW_AT_decl_column(0x16)
$C$DW$T$10	.dwtag  DW_TAG_base_type
	.dwattr $C$DW$T$10, DW_AT_encoding(DW_ATE_signed)
	.dwattr $C$DW$T$10, DW_AT_name("int")
	.dwattr $C$DW$T$10, DW_AT_byte_size(0x04)
$C$DW$T$47	.dwtag  DW_TAG_typedef, DW_AT_name("_Ptrdifft")
	.dwattr $C$DW$T$47, DW_AT_type(*$C$DW$T$10)
	.dwattr $C$DW$T$47, DW_AT_language(DW_LANG_C)
	.dwattr $C$DW$T$47, DW_AT_decl_file("C:/ti/ccsv6/tools/compiler/ti-cgt-arm_5.2.5/include/yvals.h")
	.dwattr $C$DW$T$47, DW_AT_decl_line(0xa9)
	.dwattr $C$DW$T$47, DW_AT_decl_column(0x1e)
$C$DW$T$48	.dwtag  DW_TAG_typedef, DW_AT_name("int32_t")
	.dwattr $C$DW$T$48, DW_AT_type(*$C$DW$T$10)
	.dwattr $C$DW$T$48, DW_AT_language(DW_LANG_C)
	.dwattr $C$DW$T$48, DW_AT_decl_file("C:/ti/ccsv6/tools/compiler/ti-cgt-arm_5.2.5/include/stdint.h")
	.dwattr $C$DW$T$48, DW_AT_decl_line(0x2e)
	.dwattr $C$DW$T$48, DW_AT_decl_column(0x1d)
$C$DW$T$51	.dwtag  DW_TAG_typedef, DW_AT_name("int_fast16_t")
	.dwattr $C$DW$T$51, DW_AT_type(*$C$DW$T$48)
	.dwattr $C$DW$T$51, DW_AT_language(DW_LANG_C)
	.dwattr $C$DW$T$51, DW_AT_decl_file("C:/ti/ccsv6/tools/compiler/ti-cgt-arm_5.2.5/include/stdint.h")
	.dwattr $C$DW$T$51, DW_AT_decl_line(0x47)
	.dwattr $C$DW$T$51, DW_AT_decl_column(0x17)
$C$DW$T$52	.dwtag  DW_TAG_typedef, DW_AT_name("int_fast32_t")
	.dwattr $C$DW$T$52, DW_AT_type(*$C$DW$T$48)
	.dwattr $C$DW$T$52, DW_AT_language(DW_LANG_C)
	.dwattr $C$DW$T$52, DW_AT_decl_file("C:/ti/ccsv6/tools/compiler/ti-cgt-arm_5.2.5/include/stdint.h")
	.dwattr $C$DW$T$52, DW_AT_decl_line(0x4a)
	.dwattr $C$DW$T$52, DW_AT_decl_column(0x17)
$C$DW$T$53	.dwtag  DW_TAG_typedef, DW_AT_name("int_fast8_t")
	.dwattr $C$DW$T$53, DW_AT_type(*$C$DW$T$48)
	.dwattr $C$DW$T$53, DW_AT_language(DW_LANG_C)
	.dwattr $C$DW$T$53, DW_AT_decl_file("C:/ti/ccsv6/tools/compiler/ti-cgt-arm_5.2.5/include/stdint.h")
	.dwattr $C$DW$T$53, DW_AT_decl_line(0x45)
	.dwattr $C$DW$T$53, DW_AT_decl_column(0x17)
$C$DW$T$54	.dwtag  DW_TAG_typedef, DW_AT_name("int_least32_t")
	.dwattr $C$DW$T$54, DW_AT_type(*$C$DW$T$48)
	.dwattr $C$DW$T$54, DW_AT_language(DW_LANG_C)
	.dwattr $C$DW$T$54, DW_AT_decl_file("C:/ti/ccsv6/tools/compiler/ti-cgt-arm_5.2.5/include/stdint.h")
	.dwattr $C$DW$T$54, DW_AT_decl_line(0x3c)
	.dwattr $C$DW$T$54, DW_AT_decl_column(0x17)
$C$DW$T$55	.dwtag  DW_TAG_typedef, DW_AT_name("intptr_t")
	.dwattr $C$DW$T$55, DW_AT_type(*$C$DW$T$10)
	.dwattr $C$DW$T$55, DW_AT_language(DW_LANG_C)
	.dwattr $C$DW$T$55, DW_AT_decl_file("C:/ti/ccsv6/tools/compiler/ti-cgt-arm_5.2.5/include/stdint.h")
	.dwattr $C$DW$T$55, DW_AT_decl_line(0x52)
	.dwattr $C$DW$T$55, DW_AT_decl_column(0x1a)
$C$DW$T$11	.dwtag  DW_TAG_base_type
	.dwattr $C$DW$T$11, DW_AT_encoding(DW_ATE_unsigned)
	.dwattr $C$DW$T$11, DW_AT_name("unsigned int")
	.dwattr $C$DW$T$11, DW_AT_byte_size(0x04)
$C$DW$T$56	.dwtag  DW_TAG_typedef, DW_AT_name("_Sizet")
	.dwattr $C$DW$T$56, DW_AT_type(*$C$DW$T$11)
	.dwattr $C$DW$T$56, DW_AT_language(DW_LANG_C)
	.dwattr $C$DW$T$56, DW_AT_decl_file("C:/ti/ccsv6/tools/compiler/ti-cgt-arm_5.2.5/include/yvals.h")
	.dwattr $C$DW$T$56, DW_AT_decl_line(0xab)
	.dwattr $C$DW$T$56, DW_AT_decl_column(0x1a)
$C$DW$T$20	.dwtag  DW_TAG_typedef, DW_AT_name("uint32_t")
	.dwattr $C$DW$T$20, DW_AT_type(*$C$DW$T$11)
	.dwattr $C$DW$T$20, DW_AT_language(DW_LANG_C)
	.dwattr $C$DW$T$20, DW_AT_decl_file("C:/ti/ccsv6/tools/compiler/ti-cgt-arm_5.2.5/include/stdint.h")
	.dwattr $C$DW$T$20, DW_AT_decl_line(0x2f)
	.dwattr $C$DW$T$20, DW_AT_decl_column(0x1c)
$C$DW$T$57	.dwtag  DW_TAG_typedef, DW_AT_name("uint_fast16_t")
	.dwattr $C$DW$T$57, DW_AT_type(*$C$DW$T$20)
	.dwattr $C$DW$T$57, DW_AT_language(DW_LANG_C)
	.dwattr $C$DW$T$57, DW_AT_decl_file("C:/ti/ccsv6/tools/compiler/ti-cgt-arm_5.2.5/include/stdint.h")
	.dwattr $C$DW$T$57, DW_AT_decl_line(0x48)
	.dwattr $C$DW$T$57, DW_AT_decl_column(0x16)
$C$DW$T$58	.dwtag  DW_TAG_typedef, DW_AT_name("uint_fast32_t")
	.dwattr $C$DW$T$58, DW_AT_type(*$C$DW$T$20)
	.dwattr $C$DW$T$58, DW_AT_language(DW_LANG_C)
	.dwattr $C$DW$T$58, DW_AT_decl_file("C:/ti/ccsv6/tools/compiler/ti-cgt-arm_5.2.5/include/stdint.h")
	.dwattr $C$DW$T$58, DW_AT_decl_line(0x4b)
	.dwattr $C$DW$T$58, DW_AT_decl_column(0x16)
$C$DW$T$59	.dwtag  DW_TAG_typedef, DW_AT_name("uint_fast8_t")
	.dwattr $C$DW$T$59, DW_AT_type(*$C$DW$T$20)
	.dwattr $C$DW$T$59, DW_AT_language(DW_LANG_C)
	.dwattr $C$DW$T$59, DW_AT_decl_file("C:/ti/ccsv6/tools/compiler/ti-cgt-arm_5.2.5/include/stdint.h")
	.dwattr $C$DW$T$59, DW_AT_decl_line(0x46)
	.dwattr $C$DW$T$59, DW_AT_decl_column(0x16)
$C$DW$T$60	.dwtag  DW_TAG_typedef, DW_AT_name("uint_least32_t")
	.dwattr $C$DW$T$60, DW_AT_type(*$C$DW$T$20)
	.dwattr $C$DW$T$60, DW_AT_language(DW_LANG_C)
	.dwattr $C$DW$T$60, DW_AT_decl_file("C:/ti/ccsv6/tools/compiler/ti-cgt-arm_5.2.5/include/stdint.h")
	.dwattr $C$DW$T$60, DW_AT_decl_line(0x3d)
	.dwattr $C$DW$T$60, DW_AT_decl_column(0x16)
$C$DW$T$61	.dwtag  DW_TAG_typedef, DW_AT_name("uintptr_t")
	.dwattr $C$DW$T$61, DW_AT_type(*$C$DW$T$11)
	.dwattr $C$DW$T$61, DW_AT_language(DW_LANG_C)
	.dwattr $C$DW$T$61, DW_AT_decl_file("C:/ti/ccsv6/tools/compiler/ti-cgt-arm_5.2.5/include/stdint.h")
	.dwattr $C$DW$T$61, DW_AT_decl_line(0x53)
	.dwattr $C$DW$T$61, DW_AT_decl_column(0x1a)
$C$DW$T$12	.dwtag  DW_TAG_base_type
	.dwattr $C$DW$T$12, DW_AT_encoding(DW_ATE_signed)
	.dwattr $C$DW$T$12, DW_AT_name("long")
	.dwattr $C$DW$T$12, DW_AT_byte_size(0x04)
$C$DW$T$62	.dwtag  DW_TAG_typedef, DW_AT_name("_Int32t")
	.dwattr $C$DW$T$62, DW_AT_type(*$C$DW$T$12)
	.dwattr $C$DW$T$62, DW_AT_language(DW_LANG_C)
	.dwattr $C$DW$T$62, DW_AT_decl_file("C:/ti/ccsv6/tools/compiler/ti-cgt-arm_5.2.5/include/yvals.h")
	.dwattr $C$DW$T$62, DW_AT_decl_line(0xa6)
	.dwattr $C$DW$T$62, DW_AT_decl_column(0x0e)
$C$DW$T$13	.dwtag  DW_TAG_base_type
	.dwattr $C$DW$T$13, DW_AT_encoding(DW_ATE_unsigned)
	.dwattr $C$DW$T$13, DW_AT_name("unsigned long")
	.dwattr $C$DW$T$13, DW_AT_byte_size(0x04)
$C$DW$T$63	.dwtag  DW_TAG_typedef, DW_AT_name("_Uint32t")
	.dwattr $C$DW$T$63, DW_AT_type(*$C$DW$T$13)
	.dwattr $C$DW$T$63, DW_AT_language(DW_LANG_C)
	.dwattr $C$DW$T$63, DW_AT_decl_file("C:/ti/ccsv6/tools/compiler/ti-cgt-arm_5.2.5/include/yvals.h")
	.dwattr $C$DW$T$63, DW_AT_decl_line(0xa7)
	.dwattr $C$DW$T$63, DW_AT_decl_column(0x17)
$C$DW$T$14	.dwtag  DW_TAG_base_type
	.dwattr $C$DW$T$14, DW_AT_encoding(DW_ATE_signed)
	.dwattr $C$DW$T$14, DW_AT_name("long long")
	.dwattr $C$DW$T$14, DW_AT_byte_size(0x08)
$C$DW$T$64	.dwtag  DW_TAG_typedef, DW_AT_name("_Longlong")
	.dwattr $C$DW$T$64, DW_AT_type(*$C$DW$T$14)
	.dwattr $C$DW$T$64, DW_AT_language(DW_LANG_C)
	.dwattr $C$DW$T$64, DW_AT_decl_file("C:/ti/ccsv6/tools/compiler/ti-cgt-arm_5.2.5/include/yvals.h")
	.dwattr $C$DW$T$64, DW_AT_decl_line(0x1b5)
	.dwattr $C$DW$T$64, DW_AT_decl_column(0x13)
$C$DW$T$65	.dwtag  DW_TAG_typedef, DW_AT_name("int64_t")
	.dwattr $C$DW$T$65, DW_AT_type(*$C$DW$T$14)
	.dwattr $C$DW$T$65, DW_AT_language(DW_LANG_C)
	.dwattr $C$DW$T$65, DW_AT_decl_file("C:/ti/ccsv6/tools/compiler/ti-cgt-arm_5.2.5/include/stdint.h")
	.dwattr $C$DW$T$65, DW_AT_decl_line(0x32)
	.dwattr $C$DW$T$65, DW_AT_decl_column(0x21)
$C$DW$T$66	.dwtag  DW_TAG_typedef, DW_AT_name("int_fast64_t")
	.dwattr $C$DW$T$66, DW_AT_type(*$C$DW$T$65)
	.dwattr $C$DW$T$66, DW_AT_language(DW_LANG_C)
	.dwattr $C$DW$T$66, DW_AT_decl_file("C:/ti/ccsv6/tools/compiler/ti-cgt-arm_5.2.5/include/stdint.h")
	.dwattr $C$DW$T$66, DW_AT_decl_line(0x4e)
	.dwattr $C$DW$T$66, DW_AT_decl_column(0x17)
$C$DW$T$67	.dwtag  DW_TAG_typedef, DW_AT_name("int_least64_t")
	.dwattr $C$DW$T$67, DW_AT_type(*$C$DW$T$65)
	.dwattr $C$DW$T$67, DW_AT_language(DW_LANG_C)
	.dwattr $C$DW$T$67, DW_AT_decl_file("C:/ti/ccsv6/tools/compiler/ti-cgt-arm_5.2.5/include/stdint.h")
	.dwattr $C$DW$T$67, DW_AT_decl_line(0x40)
	.dwattr $C$DW$T$67, DW_AT_decl_column(0x17)
$C$DW$T$68	.dwtag  DW_TAG_typedef, DW_AT_name("intmax_t")
	.dwattr $C$DW$T$68, DW_AT_type(*$C$DW$T$14)
	.dwattr $C$DW$T$68, DW_AT_language(DW_LANG_C)
	.dwattr $C$DW$T$68, DW_AT_decl_file("C:/ti/ccsv6/tools/compiler/ti-cgt-arm_5.2.5/include/stdint.h")
	.dwattr $C$DW$T$68, DW_AT_decl_line(0x56)
	.dwattr $C$DW$T$68, DW_AT_decl_column(0x20)
$C$DW$T$15	.dwtag  DW_TAG_base_type
	.dwattr $C$DW$T$15, DW_AT_encoding(DW_ATE_unsigned)
	.dwattr $C$DW$T$15, DW_AT_name("unsigned long long")
	.dwattr $C$DW$T$15, DW_AT_byte_size(0x08)
$C$DW$T$69	.dwtag  DW_TAG_typedef, DW_AT_name("_ULonglong")
	.dwattr $C$DW$T$69, DW_AT_type(*$C$DW$T$15)
	.dwattr $C$DW$T$69, DW_AT_language(DW_LANG_C)
	.dwattr $C$DW$T$69, DW_AT_decl_file("C:/ti/ccsv6/tools/compiler/ti-cgt-arm_5.2.5/include/yvals.h")
	.dwattr $C$DW$T$69, DW_AT_decl_line(0x1b6)
	.dwattr $C$DW$T$69, DW_AT_decl_column(0x14)
$C$DW$T$70	.dwtag  DW_TAG_typedef, DW_AT_name("uint64_t")
	.dwattr $C$DW$T$70, DW_AT_type(*$C$DW$T$15)
	.dwattr $C$DW$T$70, DW_AT_language(DW_LANG_C)
	.dwattr $C$DW$T$70, DW_AT_decl_file("C:/ti/ccsv6/tools/compiler/ti-cgt-arm_5.2.5/include/stdint.h")
	.dwattr $C$DW$T$70, DW_AT_decl_line(0x33)
	.dwattr $C$DW$T$70, DW_AT_decl_column(0x20)
$C$DW$T$71	.dwtag  DW_TAG_typedef, DW_AT_name("uint_fast64_t")
	.dwattr $C$DW$T$71, DW_AT_type(*$C$DW$T$70)
	.dwattr $C$DW$T$71, DW_AT_language(DW_LANG_C)
	.dwattr $C$DW$T$71, DW_AT_decl_file("C:/ti/ccsv6/tools/compiler/ti-cgt-arm_5.2.5/include/stdint.h")
	.dwattr $C$DW$T$71, DW_AT_decl_line(0x4f)
	.dwattr $C$DW$T$71, DW_AT_decl_column(0x16)
$C$DW$T$72	.dwtag  DW_TAG_typedef, DW_AT_name("uint_least64_t")
	.dwattr $C$DW$T$72, DW_AT_type(*$C$DW$T$70)
	.dwattr $C$DW$T$72, DW_AT_language(DW_LANG_C)
	.dwattr $C$DW$T$72, DW_AT_decl_file("C:/ti/ccsv6/tools/compiler/ti-cgt-arm_5.2.5/include/stdint.h")
	.dwattr $C$DW$T$72, DW_AT_decl_line(0x41)
	.dwattr $C$DW$T$72, DW_AT_decl_column(0x16)
$C$DW$T$73	.dwtag  DW_TAG_typedef, DW_AT_name("uintmax_t")
	.dwattr $C$DW$T$73, DW_AT_type(*$C$DW$T$15)
	.dwattr $C$DW$T$73, DW_AT_language(DW_LANG_C)
	.dwattr $C$DW$T$73, DW_AT_decl_file("C:/ti/ccsv6/tools/compiler/ti-cgt-arm_5.2.5/include/stdint.h")
	.dwattr $C$DW$T$73, DW_AT_decl_line(0x57)
	.dwattr $C$DW$T$73, DW_AT_decl_column(0x20)
$C$DW$T$16	.dwtag  DW_TAG_base_type
	.dwattr $C$DW$T$16, DW_AT_encoding(DW_ATE_float)
	.dwattr $C$DW$T$16, DW_AT_name("float")
	.dwattr $C$DW$T$16, DW_AT_byte_size(0x04)
$C$DW$T$17	.dwtag  DW_TAG_base_type
	.dwattr $C$DW$T$17, DW_AT_encoding(DW_ATE_float)
	.dwattr $C$DW$T$17, DW_AT_name("double")
	.dwattr $C$DW$T$17, DW_AT_byte_size(0x08)
$C$DW$T$18	.dwtag  DW_TAG_base_type
	.dwattr $C$DW$T$18, DW_AT_encoding(DW_ATE_float)
	.dwattr $C$DW$T$18, DW_AT_name("long double")
	.dwattr $C$DW$T$18, DW_AT_byte_size(0x08)
$C$DW$T$75	.dwtag  DW_TAG_typedef, DW_AT_name("_Sysch_t")
	.dwattr $C$DW$T$75, DW_AT_type(*$C$DW$T$6)
	.dwattr $C$DW$T$75, DW_AT_language(DW_LANG_C)
	.dwattr $C$DW$T$75, DW_AT_decl_file("C:/ti/ccsv6/tools/compiler/ti-cgt-arm_5.2.5/include/yvals.h")
	.dwattr $C$DW$T$75, DW_AT_decl_line(0x218)
	.dwattr $C$DW$T$75, DW_AT_decl_column(0x0e)
$C$DW$T$76	.dwtag  DW_TAG_pointer_type
	.dwattr $C$DW$T$76, DW_AT_type(*$C$DW$T$6)
	.dwattr $C$DW$T$76, DW_AT_address_class(0x20)
$C$DW$T$77	.dwtag  DW_TAG_typedef, DW_AT_name("__builtin_va_list")
	.dwattr $C$DW$T$77, DW_AT_type(*$C$DW$T$76)
	.dwattr $C$DW$T$77, DW_AT_language(DW_LANG_C)
	.dwattr $C$DW$T$77, DW_AT_decl_file("../ds1820.c")
	.dwattr $C$DW$T$77, DW_AT_decl_line(0xb0)
	.dwattr $C$DW$T$77, DW_AT_decl_column(0x01)

$C$DW$T$19	.dwtag  DW_TAG_structure_type
	.dwattr $C$DW$T$19, DW_AT_name("__va_list")
	.dwattr $C$DW$T$19, DW_AT_byte_size(0x04)
$C$DW$124	.dwtag  DW_TAG_member
	.dwattr $C$DW$124, DW_AT_type(*$C$DW$T$3)
	.dwattr $C$DW$124, DW_AT_name("__ap")
	.dwattr $C$DW$124, DW_AT_TI_symbol_name("__ap")
	.dwattr $C$DW$124, DW_AT_data_member_location[DW_OP_plus_uconst 0x0]
	.dwattr $C$DW$124, DW_AT_accessibility(DW_ACCESS_public)
	.dwattr $C$DW$124, DW_AT_decl_file("C:/ti/ccsv6/tools/compiler/ti-cgt-arm_5.2.5/include/stdarg.h")
	.dwattr $C$DW$124, DW_AT_decl_line(0x36)
	.dwattr $C$DW$124, DW_AT_decl_column(0x0c)
	.dwendtag $C$DW$T$19

	.dwattr $C$DW$T$19, DW_AT_decl_file("C:/ti/ccsv6/tools/compiler/ti-cgt-arm_5.2.5/include/stdarg.h")
	.dwattr $C$DW$T$19, DW_AT_decl_line(0x35)
	.dwattr $C$DW$T$19, DW_AT_decl_column(0x10)
$C$DW$T$78	.dwtag  DW_TAG_typedef, DW_AT_name("va_list")
	.dwattr $C$DW$T$78, DW_AT_type(*$C$DW$T$19)
	.dwattr $C$DW$T$78, DW_AT_language(DW_LANG_C)
	.dwattr $C$DW$T$78, DW_AT_decl_file("C:/ti/ccsv6/tools/compiler/ti-cgt-arm_5.2.5/include/stdarg.h")
	.dwattr $C$DW$T$78, DW_AT_decl_line(0x37)
	.dwattr $C$DW$T$78, DW_AT_decl_column(0x03)
$C$DW$T$79	.dwtag  DW_TAG_typedef, DW_AT_name("_Va_list")
	.dwattr $C$DW$T$79, DW_AT_type(*$C$DW$T$78)
	.dwattr $C$DW$T$79, DW_AT_language(DW_LANG_C)
	.dwattr $C$DW$T$79, DW_AT_decl_file("C:/ti/ccsv6/tools/compiler/ti-cgt-arm_5.2.5/include/yvals.h")
	.dwattr $C$DW$T$79, DW_AT_decl_line(0x1f6)
	.dwattr $C$DW$T$79, DW_AT_decl_column(0x17)
	.dwattr $C$DW$CU, DW_AT_language(DW_LANG_C)

;***************************************************************
;* DWARF CIE ENTRIES                                           *
;***************************************************************

$C$DW$CIE	.dwcie 14
	.dwcfi	cfa_register, 13
	.dwcfi	cfa_offset, 0
	.dwcfi	undefined, 0
	.dwcfi	undefined, 1
	.dwcfi	undefined, 2
	.dwcfi	undefined, 3
	.dwcfi	same_value, 4
	.dwcfi	same_value, 5
	.dwcfi	same_value, 6
	.dwcfi	same_value, 7
	.dwcfi	same_value, 8
	.dwcfi	same_value, 9
	.dwcfi	same_value, 10
	.dwcfi	same_value, 11
	.dwcfi	undefined, 12
	.dwcfi	undefined, 13
	.dwcfi	undefined, 14
	.dwcfi	undefined, 14
	.dwcfi	undefined, 7
	.dwcfi	undefined, 64
	.dwcfi	undefined, 65
	.dwcfi	undefined, 66
	.dwcfi	undefined, 67
	.dwcfi	undefined, 68
	.dwcfi	undefined, 69
	.dwcfi	undefined, 70
	.dwcfi	undefined, 71
	.dwcfi	undefined, 72
	.dwcfi	undefined, 73
	.dwcfi	undefined, 74
	.dwcfi	undefined, 75
	.dwcfi	undefined, 76
	.dwcfi	undefined, 77
	.dwcfi	undefined, 78
	.dwcfi	undefined, 79
	.dwcfi	same_value, 80
	.dwcfi	same_value, 81
	.dwcfi	same_value, 82
	.dwcfi	same_value, 83
	.dwcfi	same_value, 84
	.dwcfi	same_value, 85
	.dwcfi	same_value, 86
	.dwcfi	same_value, 87
	.dwcfi	same_value, 88
	.dwcfi	same_value, 89
	.dwcfi	same_value, 90
	.dwcfi	same_value, 91
	.dwcfi	same_value, 92
	.dwcfi	same_value, 93
	.dwcfi	same_value, 94
	.dwcfi	same_value, 95
	.dwendentry
	.dwendtag $C$DW$CU

