;******************************************************************************
;* TI ARM C/C++ Codegen                                             PC v5.2.6 *
;* Date/Time created: Thu Apr 28 12:50:02 2016                                *
;******************************************************************************
	.compiler_opts --abi=eabi --arm_vmrs_si_workaround=off --code_state=16 --diag_wrap=off --disable_dual_state --embedded_constants=on --endian=little --float_support=FPv4SPD16 --hll_source=on --object_format=elf --silicon_version=7M4 --symdebug:dwarf --symdebug:dwarf_version=3 --unaligned_access=on 
	.thumb

$C$DW$CU	.dwtag  DW_TAG_compile_unit
	.dwattr $C$DW$CU, DW_AT_name("../esp8266.c")
	.dwattr $C$DW$CU, DW_AT_producer("TI TI ARM C/C++ Codegen PC v5.2.6 Copyright (c) 1996-2015 Texas Instruments Incorporated")
	.dwattr $C$DW$CU, DW_AT_TI_version(0x01)
	.dwattr $C$DW$CU, DW_AT_comp_dir("D:\Deian\Dev\TI\workspace6\LaunchpadRoomControl\timers\Debug")

$C$DW$1	.dwtag  DW_TAG_subprogram, DW_AT_name("__builtin_strlen")
	.dwattr $C$DW$1, DW_AT_TI_symbol_name("__builtin_strlen")
	.dwattr $C$DW$1, DW_AT_type(*$C$DW$T$11)
	.dwattr $C$DW$1, DW_AT_declaration
	.dwattr $C$DW$1, DW_AT_external
$C$DW$2	.dwtag  DW_TAG_formal_parameter
	.dwattr $C$DW$2, DW_AT_type(*$C$DW$T$46)
	.dwendtag $C$DW$1


$C$DW$3	.dwtag  DW_TAG_subprogram, DW_AT_name("strlen")
	.dwattr $C$DW$3, DW_AT_TI_symbol_name("strlen")
	.dwattr $C$DW$3, DW_AT_type(*$C$DW$T$26)
	.dwattr $C$DW$3, DW_AT_declaration
	.dwattr $C$DW$3, DW_AT_external
	.dwattr $C$DW$3, DW_AT_decl_file("C:/ti/ccsv6/tools/compiler/ti-cgt-arm_5.2.6/include/string.h")
	.dwattr $C$DW$3, DW_AT_decl_line(0x4f)
	.dwattr $C$DW$3, DW_AT_decl_column(0x14)
$C$DW$4	.dwtag  DW_TAG_formal_parameter
	.dwattr $C$DW$4, DW_AT_type(*$C$DW$T$46)
	.dwendtag $C$DW$3


$C$DW$5	.dwtag  DW_TAG_subprogram, DW_AT_name("strcpy")
	.dwattr $C$DW$5, DW_AT_TI_symbol_name("strcpy")
	.dwattr $C$DW$5, DW_AT_type(*$C$DW$T$42)
	.dwattr $C$DW$5, DW_AT_declaration
	.dwattr $C$DW$5, DW_AT_external
	.dwattr $C$DW$5, DW_AT_decl_file("C:/ti/ccsv6/tools/compiler/ti-cgt-arm_5.2.6/include/string.h")
	.dwattr $C$DW$5, DW_AT_decl_line(0x51)
	.dwattr $C$DW$5, DW_AT_decl_column(0x12)
$C$DW$6	.dwtag  DW_TAG_formal_parameter
	.dwattr $C$DW$6, DW_AT_type(*$C$DW$T$42)
$C$DW$7	.dwtag  DW_TAG_formal_parameter
	.dwattr $C$DW$7, DW_AT_type(*$C$DW$T$46)
	.dwendtag $C$DW$5


$C$DW$8	.dwtag  DW_TAG_subprogram, DW_AT_name("strcat")
	.dwattr $C$DW$8, DW_AT_TI_symbol_name("strcat")
	.dwattr $C$DW$8, DW_AT_type(*$C$DW$T$42)
	.dwattr $C$DW$8, DW_AT_declaration
	.dwattr $C$DW$8, DW_AT_external
	.dwattr $C$DW$8, DW_AT_decl_file("C:/ti/ccsv6/tools/compiler/ti-cgt-arm_5.2.6/include/string.h")
	.dwattr $C$DW$8, DW_AT_decl_line(0x53)
	.dwattr $C$DW$8, DW_AT_decl_column(0x12)
$C$DW$9	.dwtag  DW_TAG_formal_parameter
	.dwattr $C$DW$9, DW_AT_type(*$C$DW$T$42)
$C$DW$10	.dwtag  DW_TAG_formal_parameter
	.dwattr $C$DW$10, DW_AT_type(*$C$DW$T$46)
	.dwendtag $C$DW$8


$C$DW$11	.dwtag  DW_TAG_subprogram, DW_AT_name("strncat")
	.dwattr $C$DW$11, DW_AT_TI_symbol_name("strncat")
	.dwattr $C$DW$11, DW_AT_type(*$C$DW$T$42)
	.dwattr $C$DW$11, DW_AT_declaration
	.dwattr $C$DW$11, DW_AT_external
	.dwattr $C$DW$11, DW_AT_decl_file("C:/ti/ccsv6/tools/compiler/ti-cgt-arm_5.2.6/include/string.h")
	.dwattr $C$DW$11, DW_AT_decl_line(0x54)
	.dwattr $C$DW$11, DW_AT_decl_column(0x12)
$C$DW$12	.dwtag  DW_TAG_formal_parameter
	.dwattr $C$DW$12, DW_AT_type(*$C$DW$T$42)
$C$DW$13	.dwtag  DW_TAG_formal_parameter
	.dwattr $C$DW$13, DW_AT_type(*$C$DW$T$46)
$C$DW$14	.dwtag  DW_TAG_formal_parameter
	.dwattr $C$DW$14, DW_AT_type(*$C$DW$T$26)
	.dwendtag $C$DW$11


$C$DW$15	.dwtag  DW_TAG_subprogram, DW_AT_name("strstr")
	.dwattr $C$DW$15, DW_AT_TI_symbol_name("strstr")
	.dwattr $C$DW$15, DW_AT_type(*$C$DW$T$42)
	.dwattr $C$DW$15, DW_AT_declaration
	.dwattr $C$DW$15, DW_AT_external
	.dwattr $C$DW$15, DW_AT_decl_file("C:/ti/ccsv6/tools/compiler/ti-cgt-arm_5.2.6/include/string.h")
	.dwattr $C$DW$15, DW_AT_decl_line(0x60)
	.dwattr $C$DW$15, DW_AT_decl_column(0x16)
$C$DW$16	.dwtag  DW_TAG_formal_parameter
	.dwattr $C$DW$16, DW_AT_type(*$C$DW$T$46)
$C$DW$17	.dwtag  DW_TAG_formal_parameter
	.dwattr $C$DW$17, DW_AT_type(*$C$DW$T$46)
	.dwendtag $C$DW$15


$C$DW$18	.dwtag  DW_TAG_subprogram, DW_AT_name("strtok")
	.dwattr $C$DW$18, DW_AT_TI_symbol_name("strtok")
	.dwattr $C$DW$18, DW_AT_type(*$C$DW$T$42)
	.dwattr $C$DW$18, DW_AT_declaration
	.dwattr $C$DW$18, DW_AT_external
	.dwattr $C$DW$18, DW_AT_decl_file("C:/ti/ccsv6/tools/compiler/ti-cgt-arm_5.2.6/include/string.h")
	.dwattr $C$DW$18, DW_AT_decl_line(0x61)
	.dwattr $C$DW$18, DW_AT_decl_column(0x16)
$C$DW$19	.dwtag  DW_TAG_formal_parameter
	.dwattr $C$DW$19, DW_AT_type(*$C$DW$T$42)
$C$DW$20	.dwtag  DW_TAG_formal_parameter
	.dwattr $C$DW$20, DW_AT_type(*$C$DW$T$46)
	.dwendtag $C$DW$18


$C$DW$21	.dwtag  DW_TAG_subprogram, DW_AT_name("memset")
	.dwattr $C$DW$21, DW_AT_TI_symbol_name("memset")
	.dwattr $C$DW$21, DW_AT_type(*$C$DW$T$3)
	.dwattr $C$DW$21, DW_AT_declaration
	.dwattr $C$DW$21, DW_AT_external
	.dwattr $C$DW$21, DW_AT_decl_file("C:/ti/ccsv6/tools/compiler/ti-cgt-arm_5.2.6/include/string.h")
	.dwattr $C$DW$21, DW_AT_decl_line(0x6f)
	.dwattr $C$DW$21, DW_AT_decl_column(0x16)
$C$DW$22	.dwtag  DW_TAG_formal_parameter
	.dwattr $C$DW$22, DW_AT_type(*$C$DW$T$3)
$C$DW$23	.dwtag  DW_TAG_formal_parameter
	.dwattr $C$DW$23, DW_AT_type(*$C$DW$T$10)
$C$DW$24	.dwtag  DW_TAG_formal_parameter
	.dwattr $C$DW$24, DW_AT_type(*$C$DW$T$26)
	.dwendtag $C$DW$21


$C$DW$25	.dwtag  DW_TAG_subprogram, DW_AT_name("atoi")
	.dwattr $C$DW$25, DW_AT_TI_symbol_name("atoi")
	.dwattr $C$DW$25, DW_AT_type(*$C$DW$T$10)
	.dwattr $C$DW$25, DW_AT_declaration
	.dwattr $C$DW$25, DW_AT_external
	.dwattr $C$DW$25, DW_AT_decl_file("C:/ti/ccsv6/tools/compiler/ti-cgt-arm_5.2.6/include/stdlib.h")
	.dwattr $C$DW$25, DW_AT_decl_line(0x90)
	.dwattr $C$DW$25, DW_AT_decl_column(0x1c)
$C$DW$26	.dwtag  DW_TAG_formal_parameter
	.dwattr $C$DW$26, DW_AT_type(*$C$DW$T$46)
	.dwendtag $C$DW$25


$C$DW$27	.dwtag  DW_TAG_subprogram, DW_AT_name("isdigit")
	.dwattr $C$DW$27, DW_AT_TI_symbol_name("isdigit")
	.dwattr $C$DW$27, DW_AT_type(*$C$DW$T$10)
	.dwattr $C$DW$27, DW_AT_declaration
	.dwattr $C$DW$27, DW_AT_external
	.dwattr $C$DW$27, DW_AT_decl_file("C:\ti\ccsv6\tools\compiler\ti-cgt-arm_5.2.6\include\_isfuncdcl.h")
	.dwattr $C$DW$27, DW_AT_decl_line(0x2e)
	.dwattr $C$DW$27, DW_AT_decl_column(0x0c)
$C$DW$28	.dwtag  DW_TAG_formal_parameter
	.dwattr $C$DW$28, DW_AT_type(*$C$DW$T$10)
	.dwendtag $C$DW$27


$C$DW$29	.dwtag  DW_TAG_subprogram, DW_AT_name("GPIOPinWrite")
	.dwattr $C$DW$29, DW_AT_TI_symbol_name("GPIOPinWrite")
	.dwattr $C$DW$29, DW_AT_declaration
	.dwattr $C$DW$29, DW_AT_external
	.dwattr $C$DW$29, DW_AT_decl_file("C:/ti/TivaWare/driverlib/gpio.h")
	.dwattr $C$DW$29, DW_AT_decl_line(0x9e)
	.dwattr $C$DW$29, DW_AT_decl_column(0x0d)
$C$DW$30	.dwtag  DW_TAG_formal_parameter
	.dwattr $C$DW$30, DW_AT_type(*$C$DW$T$29)
$C$DW$31	.dwtag  DW_TAG_formal_parameter
	.dwattr $C$DW$31, DW_AT_type(*$C$DW$T$30)
$C$DW$32	.dwtag  DW_TAG_formal_parameter
	.dwattr $C$DW$32, DW_AT_type(*$C$DW$T$30)
	.dwendtag $C$DW$29


$C$DW$33	.dwtag  DW_TAG_subprogram, DW_AT_name("GPIOPinConfigure")
	.dwattr $C$DW$33, DW_AT_TI_symbol_name("GPIOPinConfigure")
	.dwattr $C$DW$33, DW_AT_declaration
	.dwattr $C$DW$33, DW_AT_external
	.dwattr $C$DW$33, DW_AT_decl_file("C:/ti/TivaWare/driverlib/gpio.h")
	.dwattr $C$DW$33, DW_AT_decl_line(0x9f)
	.dwattr $C$DW$33, DW_AT_decl_column(0x0d)
$C$DW$34	.dwtag  DW_TAG_formal_parameter
	.dwattr $C$DW$34, DW_AT_type(*$C$DW$T$29)
	.dwendtag $C$DW$33


$C$DW$35	.dwtag  DW_TAG_subprogram, DW_AT_name("GPIOPinTypeGPIOOutput")
	.dwattr $C$DW$35, DW_AT_TI_symbol_name("GPIOPinTypeGPIOOutput")
	.dwattr $C$DW$35, DW_AT_declaration
	.dwattr $C$DW$35, DW_AT_external
	.dwattr $C$DW$35, DW_AT_decl_file("C:/ti/TivaWare/driverlib/gpio.h")
	.dwattr $C$DW$35, DW_AT_decl_line(0xa9)
	.dwattr $C$DW$35, DW_AT_decl_column(0x0d)
$C$DW$36	.dwtag  DW_TAG_formal_parameter
	.dwattr $C$DW$36, DW_AT_type(*$C$DW$T$29)
$C$DW$37	.dwtag  DW_TAG_formal_parameter
	.dwattr $C$DW$37, DW_AT_type(*$C$DW$T$30)
	.dwendtag $C$DW$35


$C$DW$38	.dwtag  DW_TAG_subprogram, DW_AT_name("GPIOPinTypeUART")
	.dwattr $C$DW$38, DW_AT_TI_symbol_name("GPIOPinTypeUART")
	.dwattr $C$DW$38, DW_AT_declaration
	.dwattr $C$DW$38, DW_AT_external
	.dwattr $C$DW$38, DW_AT_decl_file("C:/ti/TivaWare/driverlib/gpio.h")
	.dwattr $C$DW$38, DW_AT_decl_line(0xb5)
	.dwattr $C$DW$38, DW_AT_decl_column(0x0d)
$C$DW$39	.dwtag  DW_TAG_formal_parameter
	.dwattr $C$DW$39, DW_AT_type(*$C$DW$T$29)
$C$DW$40	.dwtag  DW_TAG_formal_parameter
	.dwattr $C$DW$40, DW_AT_type(*$C$DW$T$30)
	.dwendtag $C$DW$38


$C$DW$41	.dwtag  DW_TAG_subprogram, DW_AT_name("SysCtlPeripheralEnable")
	.dwattr $C$DW$41, DW_AT_TI_symbol_name("SysCtlPeripheralEnable")
	.dwattr $C$DW$41, DW_AT_declaration
	.dwattr $C$DW$41, DW_AT_external
	.dwattr $C$DW$41, DW_AT_decl_file("C:/ti/TivaWare/driverlib/sysctl.h")
	.dwattr $C$DW$41, DW_AT_decl_line(0x24e)
	.dwattr $C$DW$41, DW_AT_decl_column(0x0d)
$C$DW$42	.dwtag  DW_TAG_formal_parameter
	.dwattr $C$DW$42, DW_AT_type(*$C$DW$T$29)
	.dwendtag $C$DW$41


$C$DW$43	.dwtag  DW_TAG_subprogram, DW_AT_name("SysCtlDelay")
	.dwattr $C$DW$43, DW_AT_TI_symbol_name("SysCtlDelay")
	.dwattr $C$DW$43, DW_AT_declaration
	.dwattr $C$DW$43, DW_AT_external
	.dwattr $C$DW$43, DW_AT_decl_file("C:/ti/TivaWare/driverlib/sysctl.h")
	.dwattr $C$DW$43, DW_AT_decl_line(0x268)
	.dwattr $C$DW$43, DW_AT_decl_column(0x0d)
$C$DW$44	.dwtag  DW_TAG_formal_parameter
	.dwattr $C$DW$44, DW_AT_type(*$C$DW$T$29)
	.dwendtag $C$DW$43


$C$DW$45	.dwtag  DW_TAG_subprogram, DW_AT_name("SysCtlClockGet")
	.dwattr $C$DW$45, DW_AT_TI_symbol_name("SysCtlClockGet")
	.dwattr $C$DW$45, DW_AT_type(*$C$DW$T$29)
	.dwattr $C$DW$45, DW_AT_declaration
	.dwattr $C$DW$45, DW_AT_external
	.dwattr $C$DW$45, DW_AT_decl_file("C:/ti/TivaWare/driverlib/sysctl.h")
	.dwattr $C$DW$45, DW_AT_decl_line(0x26c)
	.dwattr $C$DW$45, DW_AT_decl_column(0x11)

$C$DW$46	.dwtag  DW_TAG_subprogram, DW_AT_name("UARTConfigSetExpClk")
	.dwattr $C$DW$46, DW_AT_TI_symbol_name("UARTConfigSetExpClk")
	.dwattr $C$DW$46, DW_AT_declaration
	.dwattr $C$DW$46, DW_AT_external
	.dwattr $C$DW$46, DW_AT_decl_file("C:/ti/TivaWare/driverlib/uart.h")
	.dwattr $C$DW$46, DW_AT_decl_line(0xc8)
	.dwattr $C$DW$46, DW_AT_decl_column(0x0d)
$C$DW$47	.dwtag  DW_TAG_formal_parameter
	.dwattr $C$DW$47, DW_AT_type(*$C$DW$T$29)
$C$DW$48	.dwtag  DW_TAG_formal_parameter
	.dwattr $C$DW$48, DW_AT_type(*$C$DW$T$29)
$C$DW$49	.dwtag  DW_TAG_formal_parameter
	.dwattr $C$DW$49, DW_AT_type(*$C$DW$T$29)
$C$DW$50	.dwtag  DW_TAG_formal_parameter
	.dwattr $C$DW$50, DW_AT_type(*$C$DW$T$29)
	.dwendtag $C$DW$46


$C$DW$51	.dwtag  DW_TAG_subprogram, DW_AT_name("UARTCharsAvail")
	.dwattr $C$DW$51, DW_AT_TI_symbol_name("UARTCharsAvail")
	.dwattr $C$DW$51, DW_AT_type(*$C$DW$T$163)
	.dwattr $C$DW$51, DW_AT_declaration
	.dwattr $C$DW$51, DW_AT_external
	.dwattr $C$DW$51, DW_AT_decl_file("C:/ti/TivaWare/driverlib/uart.h")
	.dwattr $C$DW$51, DW_AT_decl_line(0xd2)
	.dwattr $C$DW$51, DW_AT_decl_column(0x0d)
$C$DW$52	.dwtag  DW_TAG_formal_parameter
	.dwattr $C$DW$52, DW_AT_type(*$C$DW$T$29)
	.dwendtag $C$DW$51


$C$DW$53	.dwtag  DW_TAG_subprogram, DW_AT_name("UARTCharGetNonBlocking")
	.dwattr $C$DW$53, DW_AT_TI_symbol_name("UARTCharGetNonBlocking")
	.dwattr $C$DW$53, DW_AT_type(*$C$DW$T$87)
	.dwattr $C$DW$53, DW_AT_declaration
	.dwattr $C$DW$53, DW_AT_external
	.dwattr $C$DW$53, DW_AT_decl_file("C:/ti/TivaWare/driverlib/uart.h")
	.dwattr $C$DW$53, DW_AT_decl_line(0xd4)
	.dwattr $C$DW$53, DW_AT_decl_column(0x10)
$C$DW$54	.dwtag  DW_TAG_formal_parameter
	.dwattr $C$DW$54, DW_AT_type(*$C$DW$T$29)
	.dwendtag $C$DW$53


$C$DW$55	.dwtag  DW_TAG_subprogram, DW_AT_name("UARTCharGet")
	.dwattr $C$DW$55, DW_AT_TI_symbol_name("UARTCharGet")
	.dwattr $C$DW$55, DW_AT_type(*$C$DW$T$87)
	.dwattr $C$DW$55, DW_AT_declaration
	.dwattr $C$DW$55, DW_AT_external
	.dwattr $C$DW$55, DW_AT_decl_file("C:/ti/TivaWare/driverlib/uart.h")
	.dwattr $C$DW$55, DW_AT_decl_line(0xd5)
	.dwattr $C$DW$55, DW_AT_decl_column(0x10)
$C$DW$56	.dwtag  DW_TAG_formal_parameter
	.dwattr $C$DW$56, DW_AT_type(*$C$DW$T$29)
	.dwendtag $C$DW$55


$C$DW$57	.dwtag  DW_TAG_subprogram, DW_AT_name("UARTCharPut")
	.dwattr $C$DW$57, DW_AT_TI_symbol_name("UARTCharPut")
	.dwattr $C$DW$57, DW_AT_declaration
	.dwattr $C$DW$57, DW_AT_external
	.dwattr $C$DW$57, DW_AT_decl_file("C:/ti/TivaWare/driverlib/uart.h")
	.dwattr $C$DW$57, DW_AT_decl_line(0xd7)
	.dwattr $C$DW$57, DW_AT_decl_column(0x0d)
$C$DW$58	.dwtag  DW_TAG_formal_parameter
	.dwattr $C$DW$58, DW_AT_type(*$C$DW$T$29)
$C$DW$59	.dwtag  DW_TAG_formal_parameter
	.dwattr $C$DW$59, DW_AT_type(*$C$DW$T$6)
	.dwendtag $C$DW$57


$C$DW$60	.dwtag  DW_TAG_subprogram, DW_AT_name("uitoa")
	.dwattr $C$DW$60, DW_AT_TI_symbol_name("uitoa")
	.dwattr $C$DW$60, DW_AT_declaration
	.dwattr $C$DW$60, DW_AT_external
	.dwattr $C$DW$60, DW_AT_decl_file("..\utils.h")
	.dwattr $C$DW$60, DW_AT_decl_line(0x10)
	.dwattr $C$DW$60, DW_AT_decl_column(0x06)
$C$DW$61	.dwtag  DW_TAG_formal_parameter
	.dwattr $C$DW$61, DW_AT_type(*$C$DW$T$29)
$C$DW$62	.dwtag  DW_TAG_formal_parameter
	.dwattr $C$DW$62, DW_AT_type(*$C$DW$T$42)
$C$DW$63	.dwtag  DW_TAG_formal_parameter
	.dwattr $C$DW$63, DW_AT_type(*$C$DW$T$10)
	.dwendtag $C$DW$60


$C$DW$64	.dwtag  DW_TAG_subprogram, DW_AT_name("LOGprintf")
	.dwattr $C$DW$64, DW_AT_TI_symbol_name("LOGprintf")
	.dwattr $C$DW$64, DW_AT_declaration
	.dwattr $C$DW$64, DW_AT_external
	.dwattr $C$DW$64, DW_AT_decl_file("..\utils.h")
	.dwattr $C$DW$64, DW_AT_decl_line(0x15)
	.dwattr $C$DW$64, DW_AT_decl_column(0x06)
$C$DW$65	.dwtag  DW_TAG_formal_parameter
	.dwattr $C$DW$65, DW_AT_type(*$C$DW$T$46)
$C$DW$66	.dwtag  DW_TAG_unspecified_parameters
	.dwendtag $C$DW$64

	.common	dummy$1,1,1
	.common	dummy$2,1,1
	.sect	".const:.string"
	.align	1
	.elfsym	||$P$T0$3||,SYM_SIZE(8)
||$P$T0$3||:
	.bits	65,8			; $P$T0$3[0] @ 0
	.bits	84,8			; $P$T0$3[1] @ 8
	.bits	69,8			; $P$T0$3[2] @ 16
	.bits	48,8			; $P$T0$3[3] @ 24
	.bits	0,8			; $P$T0$3[4] @ 32

$C$DW$67	.dwtag  DW_TAG_variable, DW_AT_name("$P$T0$3")
	.dwattr $C$DW$67, DW_AT_TI_symbol_name("$P$T0$3")
	.dwattr $C$DW$67, DW_AT_type(*$C$DW$T$119)
	.dwattr $C$DW$67, DW_AT_location[DW_OP_addr ||$P$T0$3||]
	.dwattr $C$DW$67, DW_AT_decl_file("../esp8266.c")
	.dwattr $C$DW$67, DW_AT_decl_line(0x172)
	.dwattr $C$DW$67, DW_AT_decl_column(0x07)
	.sect	".const:.string"
	.align	1
	.elfsym	||$P$T1$4||,SYM_SIZE(4)
||$P$T1$4||:
	.bits	79,8			; $P$T1$4[0] @ 0
	.bits	75,8			; $P$T1$4[1] @ 8
	.bits	0,8			; $P$T1$4[2] @ 16

$C$DW$68	.dwtag  DW_TAG_variable, DW_AT_name("$P$T1$4")
	.dwattr $C$DW$68, DW_AT_TI_symbol_name("$P$T1$4")
	.dwattr $C$DW$68, DW_AT_type(*$C$DW$T$120)
	.dwattr $C$DW$68, DW_AT_location[DW_OP_addr ||$P$T1$4||]
	.dwattr $C$DW$68, DW_AT_decl_file("../esp8266.c")
	.dwattr $C$DW$68, DW_AT_decl_line(0x173)
	.dwattr $C$DW$68, DW_AT_decl_column(0x07)
	.sect	".const:.string:$P$T2$5"
	.clink
	.align	1
	.elfsym	||$P$T2$5||,SYM_SIZE(36)
||$P$T2$5||:
	.bits	65,8			; $P$T2$5[0] @ 0
	.bits	84,8			; $P$T2$5[1] @ 8
	.bits	43,8			; $P$T2$5[2] @ 16
	.bits	67,8			; $P$T2$5[3] @ 24
	.bits	73,8			; $P$T2$5[4] @ 32
	.bits	80,8			; $P$T2$5[5] @ 40
	.bits	83,8			; $P$T2$5[6] @ 48
	.bits	84,8			; $P$T2$5[7] @ 56
	.bits	65,8			; $P$T2$5[8] @ 64
	.bits	82,8			; $P$T2$5[9] @ 72
	.bits	84,8			; $P$T2$5[10] @ 80
	.bits	61,8			; $P$T2$5[11] @ 88
	.bits	34,8			; $P$T2$5[12] @ 96
	.bits	84,8			; $P$T2$5[13] @ 104
	.bits	67,8			; $P$T2$5[14] @ 112
	.bits	80,8			; $P$T2$5[15] @ 120
	.bits	34,8			; $P$T2$5[16] @ 128
	.bits	44,8			; $P$T2$5[17] @ 136
	.bits	34,8			; $P$T2$5[18] @ 144
	.bits	103,8			; $P$T2$5[19] @ 152
	.bits	111,8			; $P$T2$5[20] @ 160
	.bits	111,8			; $P$T2$5[21] @ 168
	.bits	103,8			; $P$T2$5[22] @ 176
	.bits	108,8			; $P$T2$5[23] @ 184
	.bits	101,8			; $P$T2$5[24] @ 192
	.bits	46,8			; $P$T2$5[25] @ 200
	.bits	99,8			; $P$T2$5[26] @ 208
	.bits	111,8			; $P$T2$5[27] @ 216
	.bits	109,8			; $P$T2$5[28] @ 224
	.bits	34,8			; $P$T2$5[29] @ 232
	.bits	44,8			; $P$T2$5[30] @ 240
	.bits	56,8			; $P$T2$5[31] @ 248
	.bits	48,8			; $P$T2$5[32] @ 256
	.bits	0,8			; $P$T2$5[33] @ 264

$C$DW$69	.dwtag  DW_TAG_variable, DW_AT_name("$P$T2$5")
	.dwattr $C$DW$69, DW_AT_TI_symbol_name("$P$T2$5")
	.dwattr $C$DW$69, DW_AT_type(*$C$DW$T$121)
	.dwattr $C$DW$69, DW_AT_location[DW_OP_addr ||$P$T2$5||]
	.dwattr $C$DW$69, DW_AT_decl_file("../esp8266.c")
	.dwattr $C$DW$69, DW_AT_decl_line(0x174)
	.dwattr $C$DW$69, DW_AT_decl_column(0x07)
	.sect	".const:.string"
	.align	1
	.elfsym	||$P$T3$6||,SYM_SIZE(8)
||$P$T3$6||:
	.bits	67,8			; $P$T3$6[0] @ 0
	.bits	79,8			; $P$T3$6[1] @ 8
	.bits	78,8			; $P$T3$6[2] @ 16
	.bits	78,8			; $P$T3$6[3] @ 24
	.bits	69,8			; $P$T3$6[4] @ 32
	.bits	67,8			; $P$T3$6[5] @ 40
	.bits	84,8			; $P$T3$6[6] @ 48
	.bits	0,8			; $P$T3$6[7] @ 56

$C$DW$70	.dwtag  DW_TAG_variable, DW_AT_name("$P$T3$6")
	.dwattr $C$DW$70, DW_AT_TI_symbol_name("$P$T3$6")
	.dwattr $C$DW$70, DW_AT_type(*$C$DW$T$122)
	.dwattr $C$DW$70, DW_AT_location[DW_OP_addr ||$P$T3$6||]
	.dwattr $C$DW$70, DW_AT_decl_file("../esp8266.c")
	.dwattr $C$DW$70, DW_AT_decl_line(0x175)
	.dwattr $C$DW$70, DW_AT_decl_column(0x07)
	.sect	".const:.string"
	.align	1
	.elfsym	||$P$T4$7||,SYM_SIZE(16)
||$P$T4$7||:
	.bits	65,8			; $P$T4$7[0] @ 0
	.bits	84,8			; $P$T4$7[1] @ 8
	.bits	43,8			; $P$T4$7[2] @ 16
	.bits	67,8			; $P$T4$7[3] @ 24
	.bits	73,8			; $P$T4$7[4] @ 32
	.bits	80,8			; $P$T4$7[5] @ 40
	.bits	83,8			; $P$T4$7[6] @ 48
	.bits	69,8			; $P$T4$7[7] @ 56
	.bits	78,8			; $P$T4$7[8] @ 64
	.bits	68,8			; $P$T4$7[9] @ 72
	.bits	61,8			; $P$T4$7[10] @ 80
	.bits	50,8			; $P$T4$7[11] @ 88
	.bits	57,8			; $P$T4$7[12] @ 96
	.bits	0,8			; $P$T4$7[13] @ 104

$C$DW$71	.dwtag  DW_TAG_variable, DW_AT_name("$P$T4$7")
	.dwattr $C$DW$71, DW_AT_TI_symbol_name("$P$T4$7")
	.dwattr $C$DW$71, DW_AT_type(*$C$DW$T$123)
	.dwattr $C$DW$71, DW_AT_location[DW_OP_addr ||$P$T4$7||]
	.dwattr $C$DW$71, DW_AT_decl_file("../esp8266.c")
	.dwattr $C$DW$71, DW_AT_decl_line(0x176)
	.dwattr $C$DW$71, DW_AT_decl_column(0x07)
	.sect	".const:.string"
	.align	1
	.elfsym	||$P$T5$8||,SYM_SIZE(4)
||$P$T5$8||:
	.bits	62,8			; $P$T5$8[0] @ 0
	.bits	0,8			; $P$T5$8[1] @ 8

$C$DW$72	.dwtag  DW_TAG_variable, DW_AT_name("$P$T5$8")
	.dwattr $C$DW$72, DW_AT_TI_symbol_name("$P$T5$8")
	.dwattr $C$DW$72, DW_AT_type(*$C$DW$T$124)
	.dwattr $C$DW$72, DW_AT_location[DW_OP_addr ||$P$T5$8||]
	.dwattr $C$DW$72, DW_AT_decl_file("../esp8266.c")
	.dwattr $C$DW$72, DW_AT_decl_line(0x177)
	.dwattr $C$DW$72, DW_AT_decl_column(0x07)
	.sect	".const:.string"
	.align	1
	.elfsym	||$P$T6$9||,SYM_SIZE(16)
||$P$T6$9||:
	.bits	71,8			; $P$T6$9[0] @ 0
	.bits	69,8			; $P$T6$9[1] @ 8
	.bits	84,8			; $P$T6$9[2] @ 16
	.bits	32,8			; $P$T6$9[3] @ 24
	.bits	47,8			; $P$T6$9[4] @ 32
	.bits	32,8			; $P$T6$9[5] @ 40
	.bits	72,8			; $P$T6$9[6] @ 48
	.bits	84,8			; $P$T6$9[7] @ 56
	.bits	84,8			; $P$T6$9[8] @ 64
	.bits	80,8			; $P$T6$9[9] @ 72
	.bits	47,8			; $P$T6$9[10] @ 80
	.bits	49,8			; $P$T6$9[11] @ 88
	.bits	46,8			; $P$T6$9[12] @ 96
	.bits	49,8			; $P$T6$9[13] @ 104
	.bits	0,8			; $P$T6$9[14] @ 112

$C$DW$73	.dwtag  DW_TAG_variable, DW_AT_name("$P$T6$9")
	.dwattr $C$DW$73, DW_AT_TI_symbol_name("$P$T6$9")
	.dwattr $C$DW$73, DW_AT_type(*$C$DW$T$125)
	.dwattr $C$DW$73, DW_AT_location[DW_OP_addr ||$P$T6$9||]
	.dwattr $C$DW$73, DW_AT_decl_file("../esp8266.c")
	.dwattr $C$DW$73, DW_AT_decl_line(0x178)
	.dwattr $C$DW$73, DW_AT_decl_column(0x07)
	.sect	".const:.string"
	.align	1
	.elfsym	||$P$T7$10||,SYM_SIZE(12)
||$P$T7$10||:
	.bits	72,8			; $P$T7$10[0] @ 0
	.bits	111,8			; $P$T7$10[1] @ 8
	.bits	115,8			; $P$T7$10[2] @ 16
	.bits	116,8			; $P$T7$10[3] @ 24
	.bits	58,8			; $P$T7$10[4] @ 32
	.bits	116,8			; $P$T7$10[5] @ 40
	.bits	101,8			; $P$T7$10[6] @ 48
	.bits	115,8			; $P$T7$10[7] @ 56
	.bits	116,8			; $P$T7$10[8] @ 64
	.bits	0,8			; $P$T7$10[9] @ 72

$C$DW$74	.dwtag  DW_TAG_variable, DW_AT_name("$P$T7$10")
	.dwattr $C$DW$74, DW_AT_TI_symbol_name("$P$T7$10")
	.dwattr $C$DW$74, DW_AT_type(*$C$DW$T$126)
	.dwattr $C$DW$74, DW_AT_location[DW_OP_addr ||$P$T7$10||]
	.dwattr $C$DW$74, DW_AT_decl_file("../esp8266.c")
	.dwattr $C$DW$74, DW_AT_decl_line(0x179)
	.dwattr $C$DW$74, DW_AT_decl_column(0x07)
	.sect	".const:.string"
	.align	1
	.elfsym	||$P$T8$11||,SYM_SIZE(4)
||$P$T8$11||:
	.bits	71,8			; $P$T8$11[0] @ 0
	.bits	77,8			; $P$T8$11[1] @ 8
	.bits	84,8			; $P$T8$11[2] @ 16
	.bits	0,8			; $P$T8$11[3] @ 24

$C$DW$75	.dwtag  DW_TAG_variable, DW_AT_name("$P$T8$11")
	.dwattr $C$DW$75, DW_AT_TI_symbol_name("$P$T8$11")
	.dwattr $C$DW$75, DW_AT_type(*$C$DW$T$127)
	.dwattr $C$DW$75, DW_AT_location[DW_OP_addr ||$P$T8$11||]
	.dwattr $C$DW$75, DW_AT_decl_file("../esp8266.c")
	.dwattr $C$DW$75, DW_AT_decl_line(0x17a)
	.dwattr $C$DW$75, DW_AT_decl_column(0x07)
;	C:\ti\ccsv6\tools\compiler\ti-cgt-arm_5.2.6\bin\armacpia.exe -@C:\\Users\\dcosas\\AppData\\Local\\Temp\\2522812 
	.sect	".text:uart_send"
	.clink
	.thumbfunc uart_send
	.thumb
	.global	uart_send

$C$DW$76	.dwtag  DW_TAG_subprogram, DW_AT_name("uart_send")
	.dwattr $C$DW$76, DW_AT_low_pc(uart_send)
	.dwattr $C$DW$76, DW_AT_high_pc(0x00)
	.dwattr $C$DW$76, DW_AT_TI_symbol_name("uart_send")
	.dwattr $C$DW$76, DW_AT_external
	.dwattr $C$DW$76, DW_AT_TI_begin_file("../esp8266.c")
	.dwattr $C$DW$76, DW_AT_TI_begin_line(0x42)
	.dwattr $C$DW$76, DW_AT_TI_begin_column(0x06)
	.dwattr $C$DW$76, DW_AT_decl_file("../esp8266.c")
	.dwattr $C$DW$76, DW_AT_decl_line(0x42)
	.dwattr $C$DW$76, DW_AT_decl_column(0x06)
	.dwattr $C$DW$76, DW_AT_TI_max_frame_size(0x08)
	.dwpsn	file "../esp8266.c",line 67,column 1,is_stmt,address uart_send,isa 1

	.dwfde $C$DW$CIE, uart_send
$C$DW$77	.dwtag  DW_TAG_formal_parameter, DW_AT_name("str")
	.dwattr $C$DW$77, DW_AT_TI_symbol_name("str")
	.dwattr $C$DW$77, DW_AT_type(*$C$DW$T$42)
	.dwattr $C$DW$77, DW_AT_location[DW_OP_reg0]
;----------------------------------------------------------------------
;  66 | void uart_send(char* str)                                              
;----------------------------------------------------------------------

;*****************************************************************************
;* FUNCTION NAME: uart_send                                                  *
;*                                                                           *
;*   Regs Modified     : A1,A2,A3,A4,V9,SP,LR,SR,D0,D0_hi,D1,D1_hi,D2,D2_hi, *
;*                           D3,D3_hi,D4,D4_hi,D5,D5_hi,D6,D6_hi,D7,D7_hi,   *
;*                           FPEXC,FPSCR                                     *
;*   Regs Used         : A1,A2,A3,A4,V9,SP,LR,SR,D0,D0_hi,D1,D1_hi,D2,D2_hi, *
;*                           D3,D3_hi,D4,D4_hi,D5,D5_hi,D6,D6_hi,D7,D7_hi,   *
;*                           FPEXC,FPSCR                                     *
;*   Local Frame Size  : 0 Args + 4 Auto + 4 Save = 8 byte                   *
;*****************************************************************************
uart_send:
;* --------------------------------------------------------------------------*
	.dwcfi	cfa_offset, 0
        PUSH      {A4, LR}              ; [DPU_3_PIPE] 
	.dwcfi	cfa_offset, 8
	.dwcfi	save_reg_to_mem, 14, -4
	.dwcfi	save_reg_to_mem, 3, -8
$C$DW$78	.dwtag  DW_TAG_variable, DW_AT_name("str")
	.dwattr $C$DW$78, DW_AT_TI_symbol_name("str")
	.dwattr $C$DW$78, DW_AT_type(*$C$DW$T$42)
	.dwattr $C$DW$78, DW_AT_location[DW_OP_breg13 0]
        STR       A1, [SP, #0]          ; [DPU_3_PIPE] |67| 
	.dwpsn	file "../esp8266.c",line 68,column 2,is_stmt,isa 1
;----------------------------------------------------------------------
;  68 | while(*str)                                                            
;----------------------------------------------------------------------
        B         ||$C$L2||             ; [DPU_3_PIPE] |68| 
        ; BRANCH OCCURS {||$C$L2||}      ; [] |68| 
;* --------------------------------------------------------------------------*
||$C$L1||:    
	.dwpsn	file "../esp8266.c",line 70,column 3,is_stmt,isa 1
;----------------------------------------------------------------------
;  70 | UARTCharPut(UART5_BASE, *str++);                                       
;----------------------------------------------------------------------
        LDR       A1, [SP, #0]          ; [DPU_3_PIPE] |70| 
        LDRB      A2, [A1], #1          ; [DPU_3_PIPE] |70| 
        STR       A1, [SP, #0]          ; [DPU_3_PIPE] |70| 
        LDR       A1, $C$CON1           ; [DPU_3_PIPE] |70| 
$C$DW$79	.dwtag  DW_TAG_TI_branch
	.dwattr $C$DW$79, DW_AT_low_pc(0x00)
	.dwattr $C$DW$79, DW_AT_name("UARTCharPut")
	.dwattr $C$DW$79, DW_AT_TI_call
        BL        UARTCharPut           ; [DPU_3_PIPE] |70| 
        ; CALL OCCURS {UARTCharPut }     ; [] |70| 
;* --------------------------------------------------------------------------*
;*   BEGIN LOOP ||$C$L2||
;* --------------------------------------------------------------------------*
||$C$L2||:    
	.dwpsn	file "../esp8266.c",line 68,column 2,is_stmt,isa 1
        LDR       A1, [SP, #0]          ; [DPU_3_PIPE] |68| 
        LDRB      A1, [A1, #0]          ; [DPU_3_PIPE] |68| 
        CMP       A1, #0                ; [DPU_3_PIPE] |68| 
        BNE       ||$C$L1||             ; [DPU_3_PIPE] |68| 
        ; BRANCHCC OCCURS {||$C$L1||}    ; [] |68| 
;* --------------------------------------------------------------------------*
	.dwpsn	file "../esp8266.c",line 72,column 2,is_stmt,isa 1
;----------------------------------------------------------------------
;  72 | UARTCharPut(UART5_BASE, 13);                                           
;----------------------------------------------------------------------
        LDR       A1, $C$CON1           ; [DPU_3_PIPE] |72| 
        MOVS      A2, #13               ; [DPU_3_PIPE] |72| 
$C$DW$80	.dwtag  DW_TAG_TI_branch
	.dwattr $C$DW$80, DW_AT_low_pc(0x00)
	.dwattr $C$DW$80, DW_AT_name("UARTCharPut")
	.dwattr $C$DW$80, DW_AT_TI_call
        BL        UARTCharPut           ; [DPU_3_PIPE] |72| 
        ; CALL OCCURS {UARTCharPut }     ; [] |72| 
	.dwpsn	file "../esp8266.c",line 73,column 2,is_stmt,isa 1
;----------------------------------------------------------------------
;  73 | UARTCharPut(UART5_BASE, 10);                                           
;----------------------------------------------------------------------
        LDR       A1, $C$CON1           ; [DPU_3_PIPE] |73| 
        MOVS      A2, #10               ; [DPU_3_PIPE] |73| 
$C$DW$81	.dwtag  DW_TAG_TI_branch
	.dwattr $C$DW$81, DW_AT_low_pc(0x00)
	.dwattr $C$DW$81, DW_AT_name("UARTCharPut")
	.dwattr $C$DW$81, DW_AT_TI_call
        BL        UARTCharPut           ; [DPU_3_PIPE] |73| 
        ; CALL OCCURS {UARTCharPut }     ; [] |73| 
	.dwpsn	file "../esp8266.c",line 74,column 1,is_stmt,isa 1
$C$DW$82	.dwtag  DW_TAG_TI_branch
	.dwattr $C$DW$82, DW_AT_low_pc(0x00)
	.dwattr $C$DW$82, DW_AT_TI_return
        POP       {A4, PC}              ; [DPU_3_PIPE] 
	.dwcfi	cfa_offset, 0
        ; BRANCH OCCURS                  ; [] 
	.dwattr $C$DW$76, DW_AT_TI_end_file("../esp8266.c")
	.dwattr $C$DW$76, DW_AT_TI_end_line(0x4a)
	.dwattr $C$DW$76, DW_AT_TI_end_column(0x01)
	.dwendentry
	.dwendtag $C$DW$76

	.sect	".text:esp8266_send"
	.clink
	.thumbfunc esp8266_send
	.thumb
	.global	esp8266_send

$C$DW$83	.dwtag  DW_TAG_subprogram, DW_AT_name("esp8266_send")
	.dwattr $C$DW$83, DW_AT_low_pc(esp8266_send)
	.dwattr $C$DW$83, DW_AT_high_pc(0x00)
	.dwattr $C$DW$83, DW_AT_TI_symbol_name("esp8266_send")
	.dwattr $C$DW$83, DW_AT_external
	.dwattr $C$DW$83, DW_AT_type(*$C$DW$T$30)
	.dwattr $C$DW$83, DW_AT_TI_begin_file("../esp8266.c")
	.dwattr $C$DW$83, DW_AT_TI_begin_line(0x4c)
	.dwattr $C$DW$83, DW_AT_TI_begin_column(0x09)
	.dwattr $C$DW$83, DW_AT_decl_file("../esp8266.c")
	.dwattr $C$DW$83, DW_AT_decl_line(0x4c)
	.dwattr $C$DW$83, DW_AT_decl_column(0x09)
	.dwattr $C$DW$83, DW_AT_TI_max_frame_size(0x50)
	.dwpsn	file "../esp8266.c",line 77,column 1,is_stmt,address esp8266_send,isa 1

	.dwfde $C$DW$CIE, esp8266_send
$C$DW$84	.dwtag  DW_TAG_variable, DW_AT_name("dummy")
	.dwattr $C$DW$84, DW_AT_TI_symbol_name("dummy$1")
	.dwattr $C$DW$84, DW_AT_type(*$C$DW$T$6)
	.dwattr $C$DW$84, DW_AT_location[DW_OP_addr dummy$1]
$C$DW$85	.dwtag  DW_TAG_formal_parameter, DW_AT_name("str")
	.dwattr $C$DW$85, DW_AT_TI_symbol_name("str")
	.dwattr $C$DW$85, DW_AT_type(*$C$DW$T$42)
	.dwattr $C$DW$85, DW_AT_location[DW_OP_reg0]
$C$DW$86	.dwtag  DW_TAG_formal_parameter, DW_AT_name("confirmation")
	.dwattr $C$DW$86, DW_AT_TI_symbol_name("confirmation")
	.dwattr $C$DW$86, DW_AT_type(*$C$DW$T$42)
	.dwattr $C$DW$86, DW_AT_location[DW_OP_reg1]
;----------------------------------------------------------------------
;  76 | uint8_t esp8266_send(char* str, char* confirmation)                    
;----------------------------------------------------------------------

;*****************************************************************************
;* FUNCTION NAME: esp8266_send                                               *
;*                                                                           *
;*   Regs Modified     : A1,A2,A3,A4,V9,SP,LR,SR,D0,D0_hi,D1,D1_hi,D2,D2_hi, *
;*                           D3,D3_hi,D4,D4_hi,D5,D5_hi,D6,D6_hi,D7,D7_hi,   *
;*                           FPEXC,FPSCR                                     *
;*   Regs Used         : A1,A2,A3,A4,V9,SP,LR,SR,D0,D0_hi,D1,D1_hi,D2,D2_hi, *
;*                           D3,D3_hi,D4,D4_hi,D5,D5_hi,D6,D6_hi,D7,D7_hi,   *
;*                           FPEXC,FPSCR                                     *
;*   Local Frame Size  : 0 Args + 76 Auto + 4 Save = 80 byte                 *
;*****************************************************************************
esp8266_send:
;* --------------------------------------------------------------------------*
	.dwcfi	cfa_offset, 0
        PUSH      {LR}                  ; [DPU_3_PIPE] 
	.dwcfi	cfa_offset, 4
	.dwcfi	save_reg_to_mem, 14, -4
        SUB       SP, SP, #76           ; [DPU_3_PIPE] 
	.dwcfi	cfa_offset, 80
$C$DW$87	.dwtag  DW_TAG_variable, DW_AT_name("str")
	.dwattr $C$DW$87, DW_AT_TI_symbol_name("str")
	.dwattr $C$DW$87, DW_AT_type(*$C$DW$T$42)
	.dwattr $C$DW$87, DW_AT_location[DW_OP_breg13 0]
$C$DW$88	.dwtag  DW_TAG_variable, DW_AT_name("confirmation")
	.dwattr $C$DW$88, DW_AT_TI_symbol_name("confirmation")
	.dwattr $C$DW$88, DW_AT_type(*$C$DW$T$42)
	.dwattr $C$DW$88, DW_AT_location[DW_OP_breg13 4]
$C$DW$89	.dwtag  DW_TAG_variable, DW_AT_name("timeout")
	.dwattr $C$DW$89, DW_AT_TI_symbol_name("timeout")
	.dwattr $C$DW$89, DW_AT_type(*$C$DW$T$29)
	.dwattr $C$DW$89, DW_AT_location[DW_OP_breg13 8]
$C$DW$90	.dwtag  DW_TAG_variable, DW_AT_name("result")
	.dwattr $C$DW$90, DW_AT_TI_symbol_name("result")
	.dwattr $C$DW$90, DW_AT_type(*$C$DW$T$30)
	.dwattr $C$DW$90, DW_AT_location[DW_OP_breg13 12]
$C$DW$91	.dwtag  DW_TAG_variable, DW_AT_name("uart_data")
	.dwattr $C$DW$91, DW_AT_TI_symbol_name("uart_data")
	.dwattr $C$DW$91, DW_AT_type(*$C$DW$T$135)
	.dwattr $C$DW$91, DW_AT_location[DW_OP_breg13 13]
$C$DW$92	.dwtag  DW_TAG_variable, DW_AT_name("uart_data_counter")
	.dwattr $C$DW$92, DW_AT_TI_symbol_name("uart_data_counter")
	.dwattr $C$DW$92, DW_AT_type(*$C$DW$T$6)
	.dwattr $C$DW$92, DW_AT_location[DW_OP_breg13 73]
        STR       A2, [SP, #4]          ; [DPU_3_PIPE] |77| 
        STR       A1, [SP, #0]          ; [DPU_3_PIPE] |77| 
	.dwpsn	file "../esp8266.c",line 78,column 19,is_stmt,isa 1
;----------------------------------------------------------------------
;  78 | uint32_t timeout = 0;                                                  
;----------------------------------------------------------------------
        MOVS      A1, #0                ; [DPU_3_PIPE] |78| 
        STR       A1, [SP, #8]          ; [DPU_3_PIPE] |78| 
	.dwpsn	file "../esp8266.c",line 79,column 17,is_stmt,isa 1
;----------------------------------------------------------------------
;  79 | uint8_t result = 0;                                                    
;  80 | char uart_data[UART5_BUFFER_SIZE], uart_data_counter;                  
;  81 | static char dummy;                                                     
;  82 | //memset ((void*)uart_data,'\0',255);                                  
;----------------------------------------------------------------------
        MOVS      A1, #0                ; [DPU_3_PIPE] |79| 
        STRB      A1, [SP, #12]         ; [DPU_3_PIPE] |79| 
	.dwpsn	file "../esp8266.c",line 83,column 6,is_stmt,isa 1
;----------------------------------------------------------------------
;  83 | for(uart_data_counter = 0; uart_data_counter < UART5_BUFFER_SIZE; uart_
;     | data_counter++)                                                        
;----------------------------------------------------------------------
        MOVS      A1, #0                ; [DPU_3_PIPE] |83| 
        STRB      A1, [SP, #73]         ; [DPU_3_PIPE] |83| 
	.dwpsn	file "../esp8266.c",line 83,column 29,is_stmt,isa 1
        LDRB      A1, [SP, #73]         ; [DPU_3_PIPE] |83| 
        CMP       A1, #60               ; [DPU_3_PIPE] |83| 
        BGE       ||$C$L5||             ; [DPU_3_PIPE] |83| 
        ; BRANCHCC OCCURS {||$C$L5||}    ; [] |83| 
;* --------------------------------------------------------------------------*
;*   BEGIN LOOP ||$C$L3||
;*
;*   Loop source line                : 83
;*   Loop closing brace source line  : 86
;*   Known Minimum Trip Count        : 1
;*   Known Maximum Trip Count        : 4294967295
;*   Known Max Trip Count Factor     : 1
;* --------------------------------------------------------------------------*
||$C$L3||:    
	.dwpsn	file "../esp8266.c",line 85,column 3,is_stmt,isa 1
;----------------------------------------------------------------------
;  85 | uart_data[uart_data_counter] = 0;                                      
;----------------------------------------------------------------------
        LDRB      A1, [SP, #73]         ; [DPU_3_PIPE] |85| 
        MOVS      A2, #0                ; [DPU_3_PIPE] |85| 
        ADD       A1, A1, SP            ; [DPU_3_PIPE] |85| 
        STRB      A2, [A1, #13]         ; [DPU_3_PIPE] |85| 
	.dwpsn	file "../esp8266.c",line 83,column 68,is_stmt,isa 1
        LDRB      A1, [SP, #73]         ; [DPU_3_PIPE] |83| 
        ADDS      A1, A1, #1            ; [DPU_3_PIPE] |83| 
        STRB      A1, [SP, #73]         ; [DPU_3_PIPE] |83| 
	.dwpsn	file "../esp8266.c",line 83,column 29,is_stmt,isa 1
        LDRB      A1, [SP, #73]         ; [DPU_3_PIPE] |83| 
        CMP       A1, #60               ; [DPU_3_PIPE] |83| 
        BLT       ||$C$L3||             ; [DPU_3_PIPE] |83| 
        ; BRANCHCC OCCURS {||$C$L3||}    ; [] |83| 
;* --------------------------------------------------------------------------*
	.dwpsn	file "../esp8266.c",line 87,column 2,is_stmt,isa 1
;----------------------------------------------------------------------
;  87 | while(UARTCharsAvail(UART5_BASE))                                      
;----------------------------------------------------------------------
        B         ||$C$L5||             ; [DPU_3_PIPE] |87| 
        ; BRANCH OCCURS {||$C$L5||}      ; [] |87| 
;* --------------------------------------------------------------------------*
||$C$L4||:    
	.dwpsn	file "../esp8266.c",line 89,column 3,is_stmt,isa 1
;----------------------------------------------------------------------
;  89 | dummy = UARTCharGet(UART5_BASE);                                       
;----------------------------------------------------------------------
        LDR       A1, $C$CON3           ; [DPU_3_PIPE] |89| 
$C$DW$93	.dwtag  DW_TAG_TI_branch
	.dwattr $C$DW$93, DW_AT_low_pc(0x00)
	.dwattr $C$DW$93, DW_AT_name("UARTCharGet")
	.dwattr $C$DW$93, DW_AT_TI_call
        BL        UARTCharGet           ; [DPU_3_PIPE] |89| 
        ; CALL OCCURS {UARTCharGet }     ; [] |89| 
        LDR       A2, $C$CON2           ; [DPU_3_PIPE] |89| 
        STRB      A1, [A2, #0]          ; [DPU_3_PIPE] |89| 
;* --------------------------------------------------------------------------*
;*   BEGIN LOOP ||$C$L5||
;* --------------------------------------------------------------------------*
||$C$L5||:    
	.dwpsn	file "../esp8266.c",line 87,column 2,is_stmt,isa 1
        LDR       A1, $C$CON3           ; [DPU_3_PIPE] |87| 
$C$DW$94	.dwtag  DW_TAG_TI_branch
	.dwattr $C$DW$94, DW_AT_low_pc(0x00)
	.dwattr $C$DW$94, DW_AT_name("UARTCharsAvail")
	.dwattr $C$DW$94, DW_AT_TI_call
        BL        UARTCharsAvail        ; [DPU_3_PIPE] |87| 
        ; CALL OCCURS {UARTCharsAvail }  ; [] |87| 
        CMP       A1, #0                ; [DPU_3_PIPE] |87| 
        BNE       ||$C$L4||             ; [DPU_3_PIPE] |87| 
        ; BRANCHCC OCCURS {||$C$L4||}    ; [] |87| 
;* --------------------------------------------------------------------------*
	.dwpsn	file "../esp8266.c",line 91,column 2,is_stmt,isa 1
;----------------------------------------------------------------------
;  91 | uart_data_counter = 0;                                                 
;----------------------------------------------------------------------
        MOVS      A1, #0                ; [DPU_3_PIPE] |91| 
        STRB      A1, [SP, #73]         ; [DPU_3_PIPE] |91| 
	.dwpsn	file "../esp8266.c",line 92,column 2,is_stmt,isa 1
;----------------------------------------------------------------------
;  92 | uart_send(str);                                                        
;----------------------------------------------------------------------
        LDR       A1, [SP, #0]          ; [DPU_3_PIPE] |92| 
$C$DW$95	.dwtag  DW_TAG_TI_branch
	.dwattr $C$DW$95, DW_AT_low_pc(0x00)
	.dwattr $C$DW$95, DW_AT_name("uart_send")
	.dwattr $C$DW$95, DW_AT_TI_call
        BL        uart_send             ; [DPU_3_PIPE] |92| 
        ; CALL OCCURS {uart_send }       ; [] |92| 
	.dwpsn	file "../esp8266.c",line 94,column 2,is_stmt,isa 1
;----------------------------------------------------------------------
;  94 | while(!result)                                                         
;----------------------------------------------------------------------
        B         ||$C$L10||            ; [DPU_3_PIPE] |94| 
        ; BRANCH OCCURS {||$C$L10||}     ; [] |94| 
;* --------------------------------------------------------------------------*
||$C$L6||:    
	.dwpsn	file "../esp8266.c",line 96,column 3,is_stmt,isa 1
;----------------------------------------------------------------------
;  96 | dummy = UARTCharGetNonBlocking(UART5_BASE);                            
;----------------------------------------------------------------------
        LDR       A1, $C$CON3           ; [DPU_3_PIPE] |96| 
$C$DW$96	.dwtag  DW_TAG_TI_branch
	.dwattr $C$DW$96, DW_AT_low_pc(0x00)
	.dwattr $C$DW$96, DW_AT_name("UARTCharGetNonBlocking")
	.dwattr $C$DW$96, DW_AT_TI_call
        BL        UARTCharGetNonBlocking ; [DPU_3_PIPE] |96| 
        ; CALL OCCURS {UARTCharGetNonBlocking }  ; [] |96| 
        LDR       A2, $C$CON2           ; [DPU_3_PIPE] |96| 
        STRB      A1, [A2, #0]          ; [DPU_3_PIPE] |96| 
	.dwpsn	file "../esp8266.c",line 97,column 3,is_stmt,isa 1
;----------------------------------------------------------------------
;  97 | if(dummy == 10)                                                        
;  99 |         //LOGprintf("ESP:%s\n", uart_data);                            
;----------------------------------------------------------------------
        LDR       A1, $C$CON2           ; [DPU_3_PIPE] |97| 
        LDRB      A1, [A1, #0]          ; [DPU_3_PIPE] |97| 
        CMP       A1, #10               ; [DPU_3_PIPE] |97| 
        BNE       ||$C$L7||             ; [DPU_3_PIPE] |97| 
        ; BRANCHCC OCCURS {||$C$L7||}    ; [] |97| 
;* --------------------------------------------------------------------------*
	.dwpsn	file "../esp8266.c",line 100,column 4,is_stmt,isa 1
;----------------------------------------------------------------------
; 100 | memset(uart_data, 0, UART5_BUFFER_SIZE);                               
;----------------------------------------------------------------------
        ADD       A1, SP, #13           ; [DPU_3_PIPE] |100| 
        MOVS      A2, #0                ; [DPU_3_PIPE] |100| 
        MOVS      A3, #60               ; [DPU_3_PIPE] |100| 
$C$DW$97	.dwtag  DW_TAG_TI_branch
	.dwattr $C$DW$97, DW_AT_low_pc(0x00)
	.dwattr $C$DW$97, DW_AT_name("memset")
	.dwattr $C$DW$97, DW_AT_TI_call
        BL        memset                ; [DPU_3_PIPE] |100| 
        ; CALL OCCURS {memset }          ; [] |100| 
	.dwpsn	file "../esp8266.c",line 101,column 4,is_stmt,isa 1
;----------------------------------------------------------------------
; 101 | uart_data_counter = 0;                                                 
;----------------------------------------------------------------------
        MOVS      A1, #0                ; [DPU_3_PIPE] |101| 
        STRB      A1, [SP, #73]         ; [DPU_3_PIPE] |101| 
;* --------------------------------------------------------------------------*
||$C$L7||:    
	.dwpsn	file "../esp8266.c",line 103,column 3,is_stmt,isa 1
;----------------------------------------------------------------------
; 103 | if((dummy>=0x20) && (dummy <= '~'))                                    
;----------------------------------------------------------------------
        LDR       A1, $C$CON2           ; [DPU_3_PIPE] |103| 
        LDRB      A1, [A1, #0]          ; [DPU_3_PIPE] |103| 
        CMP       A1, #32               ; [DPU_3_PIPE] |103| 
        BLT       ||$C$L9||             ; [DPU_3_PIPE] |103| 
        ; BRANCHCC OCCURS {||$C$L9||}    ; [] |103| 
;* --------------------------------------------------------------------------*
        LDR       A1, $C$CON2           ; [DPU_3_PIPE] |103| 
        LDRB      A1, [A1, #0]          ; [DPU_3_PIPE] |103| 
        CMP       A1, #126              ; [DPU_3_PIPE] |103| 
        BGT       ||$C$L9||             ; [DPU_3_PIPE] |103| 
        ; BRANCHCC OCCURS {||$C$L9||}    ; [] |103| 
;* --------------------------------------------------------------------------*
	.dwpsn	file "../esp8266.c",line 105,column 4,is_stmt,isa 1
;----------------------------------------------------------------------
; 105 | uart_data[uart_data_counter++] = dummy;                                
;----------------------------------------------------------------------
        LDRB      A1, [SP, #73]         ; [DPU_3_PIPE] |105| 
        LDR       A2, $C$CON2           ; [DPU_3_PIPE] |105| 
        ADDS      A3, A1, #1            ; [DPU_3_PIPE] |105| 
        LDRB      A2, [A2, #0]          ; [DPU_3_PIPE] |105| 
        STRB      A3, [SP, #73]         ; [DPU_3_PIPE] |105| 
        ADD       A1, A1, SP            ; [DPU_3_PIPE] |105| 
        STRB      A2, [A1, #13]         ; [DPU_3_PIPE] |105| 
	.dwpsn	file "../esp8266.c",line 106,column 4,is_stmt,isa 1
;----------------------------------------------------------------------
; 106 | if(uart_data_counter == UART5_BUFFER_SIZE)                             
;----------------------------------------------------------------------
        LDRB      A1, [SP, #73]         ; [DPU_3_PIPE] |106| 
        CMP       A1, #60               ; [DPU_3_PIPE] |106| 
        BNE       ||$C$L8||             ; [DPU_3_PIPE] |106| 
        ; BRANCHCC OCCURS {||$C$L8||}    ; [] |106| 
;* --------------------------------------------------------------------------*
	.dwpsn	file "../esp8266.c",line 107,column 7,is_stmt,isa 1
;----------------------------------------------------------------------
; 107 | uart_data_counter = 0;                                                 
;----------------------------------------------------------------------
        MOVS      A1, #0                ; [DPU_3_PIPE] |107| 
        STRB      A1, [SP, #73]         ; [DPU_3_PIPE] |107| 
;* --------------------------------------------------------------------------*
||$C$L8||:    
	.dwpsn	file "../esp8266.c",line 108,column 4,is_stmt,isa 1
;----------------------------------------------------------------------
; 108 | if(strstr((const char*)uart_data, confirmation))                       
; 110 |         //LOGprintf("Data:%s\n", uart_data);                           
;----------------------------------------------------------------------
        LDR       A2, [SP, #4]          ; [DPU_3_PIPE] |108| 
        ADD       A1, SP, #13           ; [DPU_3_PIPE] |108| 
$C$DW$98	.dwtag  DW_TAG_TI_branch
	.dwattr $C$DW$98, DW_AT_low_pc(0x00)
	.dwattr $C$DW$98, DW_AT_name("strstr")
	.dwattr $C$DW$98, DW_AT_TI_call
        BL        strstr                ; [DPU_3_PIPE] |108| 
        ; CALL OCCURS {strstr }          ; [] |108| 
        CBZ       A1, ||$C$L9||         ; [] 
        ; BRANCHCC OCCURS {||$C$L9||}    ; [] |108| 
;* --------------------------------------------------------------------------*
	.dwpsn	file "../esp8266.c",line 111,column 5,is_stmt,isa 1
;----------------------------------------------------------------------
; 111 | return 1;                                                              
;----------------------------------------------------------------------
        MOVS      A1, #1                ; [DPU_3_PIPE] |111| 
        B         ||$C$L11||            ; [DPU_3_PIPE] |111| 
        ; BRANCH OCCURS {||$C$L11||}     ; [] |111| 
;* --------------------------------------------------------------------------*
||$C$L9||:    
	.dwpsn	file "../esp8266.c",line 115,column 3,is_stmt,isa 1
;----------------------------------------------------------------------
; 115 | timeout++;                                                             
;----------------------------------------------------------------------
        LDR       A1, [SP, #8]          ; [DPU_3_PIPE] |115| 
        ADDS      A1, A1, #1            ; [DPU_3_PIPE] |115| 
        STR       A1, [SP, #8]          ; [DPU_3_PIPE] |115| 
	.dwpsn	file "../esp8266.c",line 116,column 3,is_stmt,isa 1
;----------------------------------------------------------------------
; 116 | if(timeout>10000000)                                                   
; 118 |         //LOGprintf("Timeout:%s\n", uart_data);                        
;----------------------------------------------------------------------
        LDR       A2, $C$CON4           ; [DPU_3_PIPE] |116| 
        LDR       A1, [SP, #8]          ; [DPU_3_PIPE] |116| 
        CMP       A2, A1                ; [DPU_3_PIPE] |116| 
        BCS       ||$C$L10||            ; [DPU_3_PIPE] |116| 
        ; BRANCHCC OCCURS {||$C$L10||}   ; [] |116| 
;* --------------------------------------------------------------------------*
	.dwpsn	file "../esp8266.c",line 119,column 4,is_stmt,isa 1
;----------------------------------------------------------------------
; 119 | return 0;                                                              
;----------------------------------------------------------------------
        MOVS      A1, #0                ; [DPU_3_PIPE] |119| 
        B         ||$C$L11||            ; [DPU_3_PIPE] |119| 
        ; BRANCH OCCURS {||$C$L11||}     ; [] |119| 
;* --------------------------------------------------------------------------*
;*   BEGIN LOOP ||$C$L10||
;* --------------------------------------------------------------------------*
||$C$L10||:    
	.dwpsn	file "../esp8266.c",line 94,column 8,is_stmt,isa 1
        LDRB      A1, [SP, #12]         ; [DPU_3_PIPE] |94| 
        CMP       A1, #0                ; [DPU_3_PIPE] |94| 
        BEQ       ||$C$L6||             ; [DPU_3_PIPE] |94| 
        ; BRANCHCC OCCURS {||$C$L6||}    ; [] |94| 
;* --------------------------------------------------------------------------*
	.dwpsn	file "../esp8266.c",line 122,column 2,is_stmt,isa 1
;----------------------------------------------------------------------
; 122 | return result;                                                         
;----------------------------------------------------------------------
        LDRB      A1, [SP, #12]         ; [DPU_3_PIPE] |122| 
;* --------------------------------------------------------------------------*
||$C$L11||:    
	.dwpsn	file "../esp8266.c",line 123,column 1,is_stmt,isa 1
        ADD       SP, SP, #76           ; [DPU_3_PIPE] 
	.dwcfi	cfa_offset, 4
$C$DW$99	.dwtag  DW_TAG_TI_branch
	.dwattr $C$DW$99, DW_AT_low_pc(0x00)
	.dwattr $C$DW$99, DW_AT_TI_return
        POP       {PC}                  ; [DPU_3_PIPE] 
	.dwcfi	cfa_offset, 0
        ; BRANCH OCCURS                  ; [] 
	.dwattr $C$DW$83, DW_AT_TI_end_file("../esp8266.c")
	.dwattr $C$DW$83, DW_AT_TI_end_line(0x7b)
	.dwattr $C$DW$83, DW_AT_TI_end_column(0x01)
	.dwendentry
	.dwendtag $C$DW$83

	.sect	".text:esp8266_sendAndReturnResponse"
	.clink
	.thumbfunc esp8266_sendAndReturnResponse
	.thumb
	.global	esp8266_sendAndReturnResponse

$C$DW$100	.dwtag  DW_TAG_subprogram, DW_AT_name("esp8266_sendAndReturnResponse")
	.dwattr $C$DW$100, DW_AT_low_pc(esp8266_sendAndReturnResponse)
	.dwattr $C$DW$100, DW_AT_high_pc(0x00)
	.dwattr $C$DW$100, DW_AT_TI_symbol_name("esp8266_sendAndReturnResponse")
	.dwattr $C$DW$100, DW_AT_external
	.dwattr $C$DW$100, DW_AT_type(*$C$DW$T$30)
	.dwattr $C$DW$100, DW_AT_TI_begin_file("../esp8266.c")
	.dwattr $C$DW$100, DW_AT_TI_begin_line(0x7d)
	.dwattr $C$DW$100, DW_AT_TI_begin_column(0x09)
	.dwattr $C$DW$100, DW_AT_decl_file("../esp8266.c")
	.dwattr $C$DW$100, DW_AT_decl_line(0x7d)
	.dwattr $C$DW$100, DW_AT_decl_column(0x09)
	.dwattr $C$DW$100, DW_AT_TI_max_frame_size(0x58)
	.dwpsn	file "../esp8266.c",line 126,column 1,is_stmt,address esp8266_sendAndReturnResponse,isa 1

	.dwfde $C$DW$CIE, esp8266_sendAndReturnResponse
$C$DW$101	.dwtag  DW_TAG_variable, DW_AT_name("dummy")
	.dwattr $C$DW$101, DW_AT_TI_symbol_name("dummy$2")
	.dwattr $C$DW$101, DW_AT_type(*$C$DW$T$6)
	.dwattr $C$DW$101, DW_AT_location[DW_OP_addr dummy$2]
$C$DW$102	.dwtag  DW_TAG_formal_parameter, DW_AT_name("str")
	.dwattr $C$DW$102, DW_AT_TI_symbol_name("str")
	.dwattr $C$DW$102, DW_AT_type(*$C$DW$T$42)
	.dwattr $C$DW$102, DW_AT_location[DW_OP_reg0]
$C$DW$103	.dwtag  DW_TAG_formal_parameter, DW_AT_name("confirmation")
	.dwattr $C$DW$103, DW_AT_TI_symbol_name("confirmation")
	.dwattr $C$DW$103, DW_AT_type(*$C$DW$T$42)
	.dwattr $C$DW$103, DW_AT_location[DW_OP_reg1]
$C$DW$104	.dwtag  DW_TAG_formal_parameter, DW_AT_name("response")
	.dwattr $C$DW$104, DW_AT_TI_symbol_name("response")
	.dwattr $C$DW$104, DW_AT_type(*$C$DW$T$42)
	.dwattr $C$DW$104, DW_AT_location[DW_OP_reg2]
;----------------------------------------------------------------------
; 125 | uint8_t esp8266_sendAndReturnResponse(char* str, char* confirmation, ch
;     | ar* response)                                                          
;----------------------------------------------------------------------

;*****************************************************************************
;* FUNCTION NAME: esp8266_sendAndReturnResponse                              *
;*                                                                           *
;*   Regs Modified     : A1,A2,A3,A4,V9,SP,LR,SR,D0,D0_hi,D1,D1_hi,D2,D2_hi, *
;*                           D3,D3_hi,D4,D4_hi,D5,D5_hi,D6,D6_hi,D7,D7_hi,   *
;*                           FPEXC,FPSCR                                     *
;*   Regs Used         : A1,A2,A3,A4,V9,SP,LR,SR,D0,D0_hi,D1,D1_hi,D2,D2_hi, *
;*                           D3,D3_hi,D4,D4_hi,D5,D5_hi,D6,D6_hi,D7,D7_hi,   *
;*                           FPEXC,FPSCR                                     *
;*   Local Frame Size  : 0 Args + 80 Auto + 4 Save = 84 byte                 *
;*****************************************************************************
esp8266_sendAndReturnResponse:
;* --------------------------------------------------------------------------*
	.dwcfi	cfa_offset, 0
        PUSH      {LR}                  ; [DPU_3_PIPE] 
	.dwcfi	cfa_offset, 4
	.dwcfi	save_reg_to_mem, 14, -4
        SUB       SP, SP, #84           ; [DPU_3_PIPE] 
	.dwcfi	cfa_offset, 88
$C$DW$105	.dwtag  DW_TAG_variable, DW_AT_name("str")
	.dwattr $C$DW$105, DW_AT_TI_symbol_name("str")
	.dwattr $C$DW$105, DW_AT_type(*$C$DW$T$42)
	.dwattr $C$DW$105, DW_AT_location[DW_OP_breg13 0]
$C$DW$106	.dwtag  DW_TAG_variable, DW_AT_name("confirmation")
	.dwattr $C$DW$106, DW_AT_TI_symbol_name("confirmation")
	.dwattr $C$DW$106, DW_AT_type(*$C$DW$T$42)
	.dwattr $C$DW$106, DW_AT_location[DW_OP_breg13 4]
$C$DW$107	.dwtag  DW_TAG_variable, DW_AT_name("response")
	.dwattr $C$DW$107, DW_AT_TI_symbol_name("response")
	.dwattr $C$DW$107, DW_AT_type(*$C$DW$T$42)
	.dwattr $C$DW$107, DW_AT_location[DW_OP_breg13 8]
$C$DW$108	.dwtag  DW_TAG_variable, DW_AT_name("timeout")
	.dwattr $C$DW$108, DW_AT_TI_symbol_name("timeout")
	.dwattr $C$DW$108, DW_AT_type(*$C$DW$T$29)
	.dwattr $C$DW$108, DW_AT_location[DW_OP_breg13 12]
$C$DW$109	.dwtag  DW_TAG_variable, DW_AT_name("result")
	.dwattr $C$DW$109, DW_AT_TI_symbol_name("result")
	.dwattr $C$DW$109, DW_AT_type(*$C$DW$T$30)
	.dwattr $C$DW$109, DW_AT_location[DW_OP_breg13 16]
$C$DW$110	.dwtag  DW_TAG_variable, DW_AT_name("uart_data")
	.dwattr $C$DW$110, DW_AT_TI_symbol_name("uart_data")
	.dwattr $C$DW$110, DW_AT_type(*$C$DW$T$135)
	.dwattr $C$DW$110, DW_AT_location[DW_OP_breg13 17]
$C$DW$111	.dwtag  DW_TAG_variable, DW_AT_name("uart_data_counter")
	.dwattr $C$DW$111, DW_AT_TI_symbol_name("uart_data_counter")
	.dwattr $C$DW$111, DW_AT_type(*$C$DW$T$6)
	.dwattr $C$DW$111, DW_AT_location[DW_OP_breg13 77]
        STR       A3, [SP, #8]          ; [DPU_3_PIPE] |126| 
        STR       A2, [SP, #4]          ; [DPU_3_PIPE] |126| 
        STR       A1, [SP, #0]          ; [DPU_3_PIPE] |126| 
	.dwpsn	file "../esp8266.c",line 127,column 19,is_stmt,isa 1
;----------------------------------------------------------------------
; 127 | uint32_t timeout = 0;                                                  
;----------------------------------------------------------------------
        MOVS      A1, #0                ; [DPU_3_PIPE] |127| 
        STR       A1, [SP, #12]         ; [DPU_3_PIPE] |127| 
	.dwpsn	file "../esp8266.c",line 128,column 17,is_stmt,isa 1
;----------------------------------------------------------------------
; 128 | uint8_t result = 0;                                                    
; 129 | char uart_data[UART5_BUFFER_SIZE], uart_data_counter;                  
; 130 | static char dummy;                                                     
; 131 | //memset ((void*)uart_data,'\0',255);                                  
;----------------------------------------------------------------------
        MOVS      A1, #0                ; [DPU_3_PIPE] |128| 
        STRB      A1, [SP, #16]         ; [DPU_3_PIPE] |128| 
	.dwpsn	file "../esp8266.c",line 132,column 6,is_stmt,isa 1
;----------------------------------------------------------------------
; 132 | for(uart_data_counter = 0; uart_data_counter < UART5_BUFFER_SIZE; uart_
;     | data_counter++)                                                        
;----------------------------------------------------------------------
        MOVS      A1, #0                ; [DPU_3_PIPE] |132| 
        STRB      A1, [SP, #77]         ; [DPU_3_PIPE] |132| 
	.dwpsn	file "../esp8266.c",line 132,column 29,is_stmt,isa 1
        LDRB      A1, [SP, #77]         ; [DPU_3_PIPE] |132| 
        CMP       A1, #60               ; [DPU_3_PIPE] |132| 
        BGE       ||$C$L14||            ; [DPU_3_PIPE] |132| 
        ; BRANCHCC OCCURS {||$C$L14||}   ; [] |132| 
;* --------------------------------------------------------------------------*
;*   BEGIN LOOP ||$C$L12||
;*
;*   Loop source line                : 132
;*   Loop closing brace source line  : 135
;*   Known Minimum Trip Count        : 1
;*   Known Maximum Trip Count        : 4294967295
;*   Known Max Trip Count Factor     : 1
;* --------------------------------------------------------------------------*
||$C$L12||:    
	.dwpsn	file "../esp8266.c",line 134,column 3,is_stmt,isa 1
;----------------------------------------------------------------------
; 134 | uart_data[uart_data_counter] = 0;                                      
;----------------------------------------------------------------------
        LDRB      A1, [SP, #77]         ; [DPU_3_PIPE] |134| 
        MOVS      A2, #0                ; [DPU_3_PIPE] |134| 
        ADD       A1, A1, SP            ; [DPU_3_PIPE] |134| 
        STRB      A2, [A1, #17]         ; [DPU_3_PIPE] |134| 
	.dwpsn	file "../esp8266.c",line 132,column 68,is_stmt,isa 1
        LDRB      A1, [SP, #77]         ; [DPU_3_PIPE] |132| 
        ADDS      A1, A1, #1            ; [DPU_3_PIPE] |132| 
        STRB      A1, [SP, #77]         ; [DPU_3_PIPE] |132| 
	.dwpsn	file "../esp8266.c",line 132,column 29,is_stmt,isa 1
        LDRB      A1, [SP, #77]         ; [DPU_3_PIPE] |132| 
        CMP       A1, #60               ; [DPU_3_PIPE] |132| 
        BLT       ||$C$L12||            ; [DPU_3_PIPE] |132| 
        ; BRANCHCC OCCURS {||$C$L12||}   ; [] |132| 
;* --------------------------------------------------------------------------*
	.dwpsn	file "../esp8266.c",line 136,column 2,is_stmt,isa 1
;----------------------------------------------------------------------
; 136 | while(UARTCharsAvail(UART5_BASE))                                      
;----------------------------------------------------------------------
        B         ||$C$L14||            ; [DPU_3_PIPE] |136| 
        ; BRANCH OCCURS {||$C$L14||}     ; [] |136| 
;* --------------------------------------------------------------------------*
||$C$L13||:    
	.dwpsn	file "../esp8266.c",line 138,column 3,is_stmt,isa 1
;----------------------------------------------------------------------
; 138 | dummy = UARTCharGet(UART5_BASE);                                       
;----------------------------------------------------------------------
        LDR       A1, $C$CON6           ; [DPU_3_PIPE] |138| 
$C$DW$112	.dwtag  DW_TAG_TI_branch
	.dwattr $C$DW$112, DW_AT_low_pc(0x00)
	.dwattr $C$DW$112, DW_AT_name("UARTCharGet")
	.dwattr $C$DW$112, DW_AT_TI_call
        BL        UARTCharGet           ; [DPU_3_PIPE] |138| 
        ; CALL OCCURS {UARTCharGet }     ; [] |138| 
        LDR       A2, $C$CON5           ; [DPU_3_PIPE] |138| 
        STRB      A1, [A2, #0]          ; [DPU_3_PIPE] |138| 
;* --------------------------------------------------------------------------*
;*   BEGIN LOOP ||$C$L14||
;* --------------------------------------------------------------------------*
||$C$L14||:    
	.dwpsn	file "../esp8266.c",line 136,column 2,is_stmt,isa 1
        LDR       A1, $C$CON6           ; [DPU_3_PIPE] |136| 
$C$DW$113	.dwtag  DW_TAG_TI_branch
	.dwattr $C$DW$113, DW_AT_low_pc(0x00)
	.dwattr $C$DW$113, DW_AT_name("UARTCharsAvail")
	.dwattr $C$DW$113, DW_AT_TI_call
        BL        UARTCharsAvail        ; [DPU_3_PIPE] |136| 
        ; CALL OCCURS {UARTCharsAvail }  ; [] |136| 
        CMP       A1, #0                ; [DPU_3_PIPE] |136| 
        BNE       ||$C$L13||            ; [DPU_3_PIPE] |136| 
        ; BRANCHCC OCCURS {||$C$L13||}   ; [] |136| 
;* --------------------------------------------------------------------------*
	.dwpsn	file "../esp8266.c",line 140,column 2,is_stmt,isa 1
;----------------------------------------------------------------------
; 140 | uart_data_counter = 0;                                                 
;----------------------------------------------------------------------
        MOVS      A1, #0                ; [DPU_3_PIPE] |140| 
        STRB      A1, [SP, #77]         ; [DPU_3_PIPE] |140| 
	.dwpsn	file "../esp8266.c",line 141,column 2,is_stmt,isa 1
;----------------------------------------------------------------------
; 141 | uart_send(str);                                                        
;----------------------------------------------------------------------
        LDR       A1, [SP, #0]          ; [DPU_3_PIPE] |141| 
$C$DW$114	.dwtag  DW_TAG_TI_branch
	.dwattr $C$DW$114, DW_AT_low_pc(0x00)
	.dwattr $C$DW$114, DW_AT_name("uart_send")
	.dwattr $C$DW$114, DW_AT_TI_call
        BL        uart_send             ; [DPU_3_PIPE] |141| 
        ; CALL OCCURS {uart_send }       ; [] |141| 
	.dwpsn	file "../esp8266.c",line 143,column 2,is_stmt,isa 1
;----------------------------------------------------------------------
; 143 | while(!result)                                                         
;----------------------------------------------------------------------
        B         ||$C$L19||            ; [DPU_3_PIPE] |143| 
        ; BRANCH OCCURS {||$C$L19||}     ; [] |143| 
;* --------------------------------------------------------------------------*
||$C$L15||:    
	.dwpsn	file "../esp8266.c",line 145,column 3,is_stmt,isa 1
;----------------------------------------------------------------------
; 145 | dummy = UARTCharGetNonBlocking(UART5_BASE);                            
;----------------------------------------------------------------------
        LDR       A1, $C$CON6           ; [DPU_3_PIPE] |145| 
$C$DW$115	.dwtag  DW_TAG_TI_branch
	.dwattr $C$DW$115, DW_AT_low_pc(0x00)
	.dwattr $C$DW$115, DW_AT_name("UARTCharGetNonBlocking")
	.dwattr $C$DW$115, DW_AT_TI_call
        BL        UARTCharGetNonBlocking ; [DPU_3_PIPE] |145| 
        ; CALL OCCURS {UARTCharGetNonBlocking }  ; [] |145| 
        LDR       A2, $C$CON5           ; [DPU_3_PIPE] |145| 
        STRB      A1, [A2, #0]          ; [DPU_3_PIPE] |145| 
	.dwpsn	file "../esp8266.c",line 146,column 3,is_stmt,isa 1
;----------------------------------------------------------------------
; 146 | if(dummy == 10)                                                        
; 148 |         //LOGprintf("ESP:%s\n", uart_data);                            
;----------------------------------------------------------------------
        LDR       A1, $C$CON5           ; [DPU_3_PIPE] |146| 
        LDRB      A1, [A1, #0]          ; [DPU_3_PIPE] |146| 
        CMP       A1, #10               ; [DPU_3_PIPE] |146| 
        BNE       ||$C$L16||            ; [DPU_3_PIPE] |146| 
        ; BRANCHCC OCCURS {||$C$L16||}   ; [] |146| 
;* --------------------------------------------------------------------------*
	.dwpsn	file "../esp8266.c",line 149,column 4,is_stmt,isa 1
;----------------------------------------------------------------------
; 149 | memset(uart_data, 0, UART5_BUFFER_SIZE);                               
;----------------------------------------------------------------------
        ADD       A1, SP, #17           ; [DPU_3_PIPE] |149| 
        MOVS      A2, #0                ; [DPU_3_PIPE] |149| 
        MOVS      A3, #60               ; [DPU_3_PIPE] |149| 
$C$DW$116	.dwtag  DW_TAG_TI_branch
	.dwattr $C$DW$116, DW_AT_low_pc(0x00)
	.dwattr $C$DW$116, DW_AT_name("memset")
	.dwattr $C$DW$116, DW_AT_TI_call
        BL        memset                ; [DPU_3_PIPE] |149| 
        ; CALL OCCURS {memset }          ; [] |149| 
	.dwpsn	file "../esp8266.c",line 150,column 4,is_stmt,isa 1
;----------------------------------------------------------------------
; 150 | uart_data_counter = 0;                                                 
;----------------------------------------------------------------------
        MOVS      A1, #0                ; [DPU_3_PIPE] |150| 
        STRB      A1, [SP, #77]         ; [DPU_3_PIPE] |150| 
;* --------------------------------------------------------------------------*
||$C$L16||:    
	.dwpsn	file "../esp8266.c",line 152,column 3,is_stmt,isa 1
;----------------------------------------------------------------------
; 152 | if((dummy>=0x20) && (dummy <= '~'))//valid characters from SPACE to ~  
;----------------------------------------------------------------------
        LDR       A1, $C$CON5           ; [DPU_3_PIPE] |152| 
        LDRB      A1, [A1, #0]          ; [DPU_3_PIPE] |152| 
        CMP       A1, #32               ; [DPU_3_PIPE] |152| 
        BLT       ||$C$L18||            ; [DPU_3_PIPE] |152| 
        ; BRANCHCC OCCURS {||$C$L18||}   ; [] |152| 
;* --------------------------------------------------------------------------*
        LDR       A1, $C$CON5           ; [DPU_3_PIPE] |152| 
        LDRB      A1, [A1, #0]          ; [DPU_3_PIPE] |152| 
        CMP       A1, #126              ; [DPU_3_PIPE] |152| 
        BGT       ||$C$L18||            ; [DPU_3_PIPE] |152| 
        ; BRANCHCC OCCURS {||$C$L18||}   ; [] |152| 
;* --------------------------------------------------------------------------*
	.dwpsn	file "../esp8266.c",line 154,column 4,is_stmt,isa 1
;----------------------------------------------------------------------
; 154 | uart_data[uart_data_counter++] = dummy;                                
;----------------------------------------------------------------------
        LDRB      A1, [SP, #77]         ; [DPU_3_PIPE] |154| 
        LDR       A2, $C$CON5           ; [DPU_3_PIPE] |154| 
        ADDS      A3, A1, #1            ; [DPU_3_PIPE] |154| 
        LDRB      A2, [A2, #0]          ; [DPU_3_PIPE] |154| 
        STRB      A3, [SP, #77]         ; [DPU_3_PIPE] |154| 
        ADD       A1, A1, SP            ; [DPU_3_PIPE] |154| 
        STRB      A2, [A1, #17]         ; [DPU_3_PIPE] |154| 
	.dwpsn	file "../esp8266.c",line 155,column 4,is_stmt,isa 1
;----------------------------------------------------------------------
; 155 | if(uart_data_counter == UART5_BUFFER_SIZE)                             
;----------------------------------------------------------------------
        LDRB      A1, [SP, #77]         ; [DPU_3_PIPE] |155| 
        CMP       A1, #60               ; [DPU_3_PIPE] |155| 
        BNE       ||$C$L17||            ; [DPU_3_PIPE] |155| 
        ; BRANCHCC OCCURS {||$C$L17||}   ; [] |155| 
;* --------------------------------------------------------------------------*
	.dwpsn	file "../esp8266.c",line 156,column 7,is_stmt,isa 1
;----------------------------------------------------------------------
; 156 | uart_data_counter = 0;                                                 
;----------------------------------------------------------------------
        MOVS      A1, #0                ; [DPU_3_PIPE] |156| 
        STRB      A1, [SP, #77]         ; [DPU_3_PIPE] |156| 
;* --------------------------------------------------------------------------*
||$C$L17||:    
	.dwpsn	file "../esp8266.c",line 157,column 4,is_stmt,isa 1
;----------------------------------------------------------------------
; 157 | if(strstr((const char*)uart_data, confirmation))                       
;----------------------------------------------------------------------
        LDR       A2, [SP, #4]          ; [DPU_3_PIPE] |157| 
        ADD       A1, SP, #17           ; [DPU_3_PIPE] |157| 
$C$DW$117	.dwtag  DW_TAG_TI_branch
	.dwattr $C$DW$117, DW_AT_low_pc(0x00)
	.dwattr $C$DW$117, DW_AT_name("strstr")
	.dwattr $C$DW$117, DW_AT_TI_call
        BL        strstr                ; [DPU_3_PIPE] |157| 
        ; CALL OCCURS {strstr }          ; [] |157| 
        CBZ       A1, ||$C$L18||        ; [] 
        ; BRANCHCC OCCURS {||$C$L18||}   ; [] |157| 
;* --------------------------------------------------------------------------*
	.dwpsn	file "../esp8266.c",line 159,column 5,is_stmt,isa 1
;----------------------------------------------------------------------
; 159 | strcpy(response, uart_data);                                           
; 160 | //LOGprintf("Data:%s\n", uart_data);                                   
;----------------------------------------------------------------------
        LDR       A1, [SP, #8]          ; [DPU_3_PIPE] |159| 
        ADD       A2, SP, #17           ; [DPU_3_PIPE] |159| 
$C$DW$118	.dwtag  DW_TAG_TI_branch
	.dwattr $C$DW$118, DW_AT_low_pc(0x00)
	.dwattr $C$DW$118, DW_AT_name("strcpy")
	.dwattr $C$DW$118, DW_AT_TI_call
        BL        strcpy                ; [DPU_3_PIPE] |159| 
        ; CALL OCCURS {strcpy }          ; [] |159| 
	.dwpsn	file "../esp8266.c",line 161,column 5,is_stmt,isa 1
;----------------------------------------------------------------------
; 161 | return 1;                                                              
;----------------------------------------------------------------------
        MOVS      A1, #1                ; [DPU_3_PIPE] |161| 
        B         ||$C$L20||            ; [DPU_3_PIPE] |161| 
        ; BRANCH OCCURS {||$C$L20||}     ; [] |161| 
;* --------------------------------------------------------------------------*
||$C$L18||:    
	.dwpsn	file "../esp8266.c",line 165,column 3,is_stmt,isa 1
;----------------------------------------------------------------------
; 165 | timeout++;                                                             
;----------------------------------------------------------------------
        LDR       A1, [SP, #12]         ; [DPU_3_PIPE] |165| 
        ADDS      A1, A1, #1            ; [DPU_3_PIPE] |165| 
        STR       A1, [SP, #12]         ; [DPU_3_PIPE] |165| 
	.dwpsn	file "../esp8266.c",line 166,column 3,is_stmt,isa 1
;----------------------------------------------------------------------
; 166 | if(timeout>10000000)                                                   
; 168 |         //LOGprintf("Timeout:%s\n", uart_data);                        
;----------------------------------------------------------------------
        LDR       A2, $C$CON7           ; [DPU_3_PIPE] |166| 
        LDR       A1, [SP, #12]         ; [DPU_3_PIPE] |166| 
        CMP       A2, A1                ; [DPU_3_PIPE] |166| 
        BCS       ||$C$L19||            ; [DPU_3_PIPE] |166| 
        ; BRANCHCC OCCURS {||$C$L19||}   ; [] |166| 
;* --------------------------------------------------------------------------*
	.dwpsn	file "../esp8266.c",line 169,column 4,is_stmt,isa 1
;----------------------------------------------------------------------
; 169 | return 0;                                                              
;----------------------------------------------------------------------
        MOVS      A1, #0                ; [DPU_3_PIPE] |169| 
        B         ||$C$L20||            ; [DPU_3_PIPE] |169| 
        ; BRANCH OCCURS {||$C$L20||}     ; [] |169| 
;* --------------------------------------------------------------------------*
;*   BEGIN LOOP ||$C$L19||
;* --------------------------------------------------------------------------*
||$C$L19||:    
	.dwpsn	file "../esp8266.c",line 143,column 8,is_stmt,isa 1
        LDRB      A1, [SP, #16]         ; [DPU_3_PIPE] |143| 
        CMP       A1, #0                ; [DPU_3_PIPE] |143| 
        BEQ       ||$C$L15||            ; [DPU_3_PIPE] |143| 
        ; BRANCHCC OCCURS {||$C$L15||}   ; [] |143| 
;* --------------------------------------------------------------------------*
	.dwpsn	file "../esp8266.c",line 172,column 2,is_stmt,isa 1
;----------------------------------------------------------------------
; 172 | return result;                                                         
;----------------------------------------------------------------------
        LDRB      A1, [SP, #16]         ; [DPU_3_PIPE] |172| 
;* --------------------------------------------------------------------------*
||$C$L20||:    
	.dwpsn	file "../esp8266.c",line 173,column 1,is_stmt,isa 1
        ADD       SP, SP, #84           ; [DPU_3_PIPE] 
	.dwcfi	cfa_offset, 4
$C$DW$119	.dwtag  DW_TAG_TI_branch
	.dwattr $C$DW$119, DW_AT_low_pc(0x00)
	.dwattr $C$DW$119, DW_AT_TI_return
        POP       {PC}                  ; [DPU_3_PIPE] 
	.dwcfi	cfa_offset, 0
        ; BRANCH OCCURS                  ; [] 
	.dwattr $C$DW$100, DW_AT_TI_end_file("../esp8266.c")
	.dwattr $C$DW$100, DW_AT_TI_end_line(0xad)
	.dwattr $C$DW$100, DW_AT_TI_end_column(0x01)
	.dwendentry
	.dwendtag $C$DW$100

	.sect	".text:setResetPinState"
	.clink
	.thumbfunc setResetPinState
	.thumb
	.global	setResetPinState

$C$DW$120	.dwtag  DW_TAG_subprogram, DW_AT_name("setResetPinState")
	.dwattr $C$DW$120, DW_AT_low_pc(setResetPinState)
	.dwattr $C$DW$120, DW_AT_high_pc(0x00)
	.dwattr $C$DW$120, DW_AT_TI_symbol_name("setResetPinState")
	.dwattr $C$DW$120, DW_AT_external
	.dwattr $C$DW$120, DW_AT_TI_begin_file("../esp8266.c")
	.dwattr $C$DW$120, DW_AT_TI_begin_line(0xaf)
	.dwattr $C$DW$120, DW_AT_TI_begin_column(0x06)
	.dwattr $C$DW$120, DW_AT_decl_file("../esp8266.c")
	.dwattr $C$DW$120, DW_AT_decl_line(0xaf)
	.dwattr $C$DW$120, DW_AT_decl_column(0x06)
	.dwattr $C$DW$120, DW_AT_TI_max_frame_size(0x08)
	.dwpsn	file "../esp8266.c",line 176,column 1,is_stmt,address setResetPinState,isa 1

	.dwfde $C$DW$CIE, setResetPinState
$C$DW$121	.dwtag  DW_TAG_formal_parameter, DW_AT_name("state")
	.dwattr $C$DW$121, DW_AT_TI_symbol_name("state")
	.dwattr $C$DW$121, DW_AT_type(*$C$DW$T$30)
	.dwattr $C$DW$121, DW_AT_location[DW_OP_reg0]
;----------------------------------------------------------------------
; 175 | void setResetPinState(uint8_t state)                                   
;----------------------------------------------------------------------

;*****************************************************************************
;* FUNCTION NAME: setResetPinState                                           *
;*                                                                           *
;*   Regs Modified     : A1,A2,A3,A4,V9,SP,LR,SR,D0,D0_hi,D1,D1_hi,D2,D2_hi, *
;*                           D3,D3_hi,D4,D4_hi,D5,D5_hi,D6,D6_hi,D7,D7_hi,   *
;*                           FPEXC,FPSCR                                     *
;*   Regs Used         : A1,A2,A3,A4,V9,SP,LR,SR,D0,D0_hi,D1,D1_hi,D2,D2_hi, *
;*                           D3,D3_hi,D4,D4_hi,D5,D5_hi,D6,D6_hi,D7,D7_hi,   *
;*                           FPEXC,FPSCR                                     *
;*   Local Frame Size  : 0 Args + 4 Auto + 4 Save = 8 byte                   *
;*****************************************************************************
setResetPinState:
;* --------------------------------------------------------------------------*
	.dwcfi	cfa_offset, 0
        PUSH      {A4, LR}              ; [DPU_3_PIPE] 
	.dwcfi	cfa_offset, 8
	.dwcfi	save_reg_to_mem, 14, -4
	.dwcfi	save_reg_to_mem, 3, -8
$C$DW$122	.dwtag  DW_TAG_variable, DW_AT_name("state")
	.dwattr $C$DW$122, DW_AT_TI_symbol_name("state")
	.dwattr $C$DW$122, DW_AT_type(*$C$DW$T$30)
	.dwattr $C$DW$122, DW_AT_location[DW_OP_breg13 0]
        STRB      A1, [SP, #0]          ; [DPU_3_PIPE] |176| 
	.dwpsn	file "../esp8266.c",line 177,column 2,is_stmt,isa 1
;----------------------------------------------------------------------
; 177 | if(state == LOW)                                                       
;----------------------------------------------------------------------
        LDRB      A1, [SP, #0]          ; [DPU_3_PIPE] |177| 
        CBNZ      A1, ||$C$L21||        ; [] 
        ; BRANCHCC OCCURS {||$C$L21||}   ; [] |177| 
;* --------------------------------------------------------------------------*
	.dwpsn	file "../esp8266.c",line 178,column 3,is_stmt,isa 1
;----------------------------------------------------------------------
; 178 | GPIOPinWrite(GPIO_PORTE_BASE, GPIO_PIN_3, 0);                          
; 179 | else                                                                   
;----------------------------------------------------------------------
        LDR       A1, $C$CON8           ; [DPU_3_PIPE] |178| 
        MOVS      A2, #8                ; [DPU_3_PIPE] |178| 
        MOVS      A3, #0                ; [DPU_3_PIPE] |178| 
$C$DW$123	.dwtag  DW_TAG_TI_branch
	.dwattr $C$DW$123, DW_AT_low_pc(0x00)
	.dwattr $C$DW$123, DW_AT_name("GPIOPinWrite")
	.dwattr $C$DW$123, DW_AT_TI_call
        BL        GPIOPinWrite          ; [DPU_3_PIPE] |178| 
        ; CALL OCCURS {GPIOPinWrite }    ; [] |178| 
        B         ||$C$L22||            ; [DPU_3_PIPE] |178| 
        ; BRANCH OCCURS {||$C$L22||}     ; [] |178| 
;* --------------------------------------------------------------------------*
||$C$L21||:    
	.dwpsn	file "../esp8266.c",line 180,column 3,is_stmt,isa 1
;----------------------------------------------------------------------
; 180 | GPIOPinWrite(GPIO_PORTE_BASE, GPIO_PIN_3, GPIO_PIN_3);                 
;----------------------------------------------------------------------
        LDR       A1, $C$CON8           ; [DPU_3_PIPE] |180| 
        MOVS      A2, #8                ; [DPU_3_PIPE] |180| 
        MOVS      A3, #8                ; [DPU_3_PIPE] |180| 
$C$DW$124	.dwtag  DW_TAG_TI_branch
	.dwattr $C$DW$124, DW_AT_low_pc(0x00)
	.dwattr $C$DW$124, DW_AT_name("GPIOPinWrite")
	.dwattr $C$DW$124, DW_AT_TI_call
        BL        GPIOPinWrite          ; [DPU_3_PIPE] |180| 
        ; CALL OCCURS {GPIOPinWrite }    ; [] |180| 
	.dwpsn	file "../esp8266.c",line 181,column 1,is_stmt,isa 1
;* --------------------------------------------------------------------------*
||$C$L22||:    
$C$DW$125	.dwtag  DW_TAG_TI_branch
	.dwattr $C$DW$125, DW_AT_low_pc(0x00)
	.dwattr $C$DW$125, DW_AT_TI_return
        POP       {A4, PC}              ; [DPU_3_PIPE] 
	.dwcfi	cfa_offset, 0
        ; BRANCH OCCURS                  ; [] 
	.dwattr $C$DW$120, DW_AT_TI_end_file("../esp8266.c")
	.dwattr $C$DW$120, DW_AT_TI_end_line(0xb5)
	.dwattr $C$DW$120, DW_AT_TI_end_column(0x01)
	.dwendentry
	.dwendtag $C$DW$120

	.sect	".text:esp8266_reset"
	.clink
	.thumbfunc esp8266_reset
	.thumb
	.global	esp8266_reset

$C$DW$126	.dwtag  DW_TAG_subprogram, DW_AT_name("esp8266_reset")
	.dwattr $C$DW$126, DW_AT_low_pc(esp8266_reset)
	.dwattr $C$DW$126, DW_AT_high_pc(0x00)
	.dwattr $C$DW$126, DW_AT_TI_symbol_name("esp8266_reset")
	.dwattr $C$DW$126, DW_AT_external
	.dwattr $C$DW$126, DW_AT_TI_begin_file("../esp8266.c")
	.dwattr $C$DW$126, DW_AT_TI_begin_line(0xb6)
	.dwattr $C$DW$126, DW_AT_TI_begin_column(0x06)
	.dwattr $C$DW$126, DW_AT_decl_file("../esp8266.c")
	.dwattr $C$DW$126, DW_AT_decl_line(0xb6)
	.dwattr $C$DW$126, DW_AT_decl_column(0x06)
	.dwattr $C$DW$126, DW_AT_TI_max_frame_size(0x08)
	.dwpsn	file "../esp8266.c",line 183,column 1,is_stmt,address esp8266_reset,isa 1

	.dwfde $C$DW$CIE, esp8266_reset
;----------------------------------------------------------------------
; 182 | void esp8266_reset()                                                   
; 184 | //uart_send(RESET_ESP8266);                                            
;----------------------------------------------------------------------

;*****************************************************************************
;* FUNCTION NAME: esp8266_reset                                              *
;*                                                                           *
;*   Regs Modified     : A1,A2,A3,A4,V9,SP,LR,SR,D0,D0_hi,D1,D1_hi,D2,D2_hi, *
;*                           D3,D3_hi,D4,D4_hi,D5,D5_hi,D6,D6_hi,D7,D7_hi,   *
;*                           FPEXC,FPSCR                                     *
;*   Regs Used         : A1,A2,A3,A4,V9,SP,LR,SR,D0,D0_hi,D1,D1_hi,D2,D2_hi, *
;*                           D3,D3_hi,D4,D4_hi,D5,D5_hi,D6,D6_hi,D7,D7_hi,   *
;*                           FPEXC,FPSCR                                     *
;*   Local Frame Size  : 0 Args + 0 Auto + 4 Save = 4 byte                   *
;*****************************************************************************
esp8266_reset:
;* --------------------------------------------------------------------------*
	.dwcfi	cfa_offset, 0
        PUSH      {A4, LR}              ; [DPU_3_PIPE] 
	.dwcfi	cfa_offset, 8
	.dwcfi	save_reg_to_mem, 14, -4
	.dwcfi	save_reg_to_mem, 3, -8
	.dwpsn	file "../esp8266.c",line 185,column 2,is_stmt,isa 1
;----------------------------------------------------------------------
; 185 | setResetPinState(LOW);                                                 
;----------------------------------------------------------------------
        MOVS      A1, #0                ; [DPU_3_PIPE] |185| 
$C$DW$127	.dwtag  DW_TAG_TI_branch
	.dwattr $C$DW$127, DW_AT_low_pc(0x00)
	.dwattr $C$DW$127, DW_AT_name("setResetPinState")
	.dwattr $C$DW$127, DW_AT_TI_call
        BL        setResetPinState      ; [DPU_3_PIPE] |185| 
        ; CALL OCCURS {setResetPinState }  ; [] |185| 
	.dwpsn	file "../esp8266.c",line 186,column 2,is_stmt,isa 1
;----------------------------------------------------------------------
; 186 | SysCtlDelay(SysCtlClockGet());                                         
;----------------------------------------------------------------------
$C$DW$128	.dwtag  DW_TAG_TI_branch
	.dwattr $C$DW$128, DW_AT_low_pc(0x00)
	.dwattr $C$DW$128, DW_AT_name("SysCtlClockGet")
	.dwattr $C$DW$128, DW_AT_TI_call
        BL        SysCtlClockGet        ; [DPU_3_PIPE] |186| 
        ; CALL OCCURS {SysCtlClockGet }  ; [] |186| 
$C$DW$129	.dwtag  DW_TAG_TI_branch
	.dwattr $C$DW$129, DW_AT_low_pc(0x00)
	.dwattr $C$DW$129, DW_AT_name("SysCtlDelay")
	.dwattr $C$DW$129, DW_AT_TI_call
        BL        SysCtlDelay           ; [DPU_3_PIPE] |186| 
        ; CALL OCCURS {SysCtlDelay }     ; [] |186| 
	.dwpsn	file "../esp8266.c",line 187,column 2,is_stmt,isa 1
;----------------------------------------------------------------------
; 187 | SysCtlDelay(SysCtlClockGet());                                         
;----------------------------------------------------------------------
$C$DW$130	.dwtag  DW_TAG_TI_branch
	.dwattr $C$DW$130, DW_AT_low_pc(0x00)
	.dwattr $C$DW$130, DW_AT_name("SysCtlClockGet")
	.dwattr $C$DW$130, DW_AT_TI_call
        BL        SysCtlClockGet        ; [DPU_3_PIPE] |187| 
        ; CALL OCCURS {SysCtlClockGet }  ; [] |187| 
$C$DW$131	.dwtag  DW_TAG_TI_branch
	.dwattr $C$DW$131, DW_AT_low_pc(0x00)
	.dwattr $C$DW$131, DW_AT_name("SysCtlDelay")
	.dwattr $C$DW$131, DW_AT_TI_call
        BL        SysCtlDelay           ; [DPU_3_PIPE] |187| 
        ; CALL OCCURS {SysCtlDelay }     ; [] |187| 
	.dwpsn	file "../esp8266.c",line 188,column 2,is_stmt,isa 1
;----------------------------------------------------------------------
; 188 | SysCtlDelay(SysCtlClockGet());                                         
;----------------------------------------------------------------------
$C$DW$132	.dwtag  DW_TAG_TI_branch
	.dwattr $C$DW$132, DW_AT_low_pc(0x00)
	.dwattr $C$DW$132, DW_AT_name("SysCtlClockGet")
	.dwattr $C$DW$132, DW_AT_TI_call
        BL        SysCtlClockGet        ; [DPU_3_PIPE] |188| 
        ; CALL OCCURS {SysCtlClockGet }  ; [] |188| 
$C$DW$133	.dwtag  DW_TAG_TI_branch
	.dwattr $C$DW$133, DW_AT_low_pc(0x00)
	.dwattr $C$DW$133, DW_AT_name("SysCtlDelay")
	.dwattr $C$DW$133, DW_AT_TI_call
        BL        SysCtlDelay           ; [DPU_3_PIPE] |188| 
        ; CALL OCCURS {SysCtlDelay }     ; [] |188| 
	.dwpsn	file "../esp8266.c",line 189,column 2,is_stmt,isa 1
;----------------------------------------------------------------------
; 189 | setResetPinState(HIGH);                                                
;----------------------------------------------------------------------
        MOVS      A1, #1                ; [DPU_3_PIPE] |189| 
$C$DW$134	.dwtag  DW_TAG_TI_branch
	.dwattr $C$DW$134, DW_AT_low_pc(0x00)
	.dwattr $C$DW$134, DW_AT_name("setResetPinState")
	.dwattr $C$DW$134, DW_AT_TI_call
        BL        setResetPinState      ; [DPU_3_PIPE] |189| 
        ; CALL OCCURS {setResetPinState }  ; [] |189| 
	.dwpsn	file "../esp8266.c",line 190,column 2,is_stmt,isa 1
;----------------------------------------------------------------------
; 190 | SysCtlDelay(SysCtlClockGet());                                         
;----------------------------------------------------------------------
$C$DW$135	.dwtag  DW_TAG_TI_branch
	.dwattr $C$DW$135, DW_AT_low_pc(0x00)
	.dwattr $C$DW$135, DW_AT_name("SysCtlClockGet")
	.dwattr $C$DW$135, DW_AT_TI_call
        BL        SysCtlClockGet        ; [DPU_3_PIPE] |190| 
        ; CALL OCCURS {SysCtlClockGet }  ; [] |190| 
$C$DW$136	.dwtag  DW_TAG_TI_branch
	.dwattr $C$DW$136, DW_AT_low_pc(0x00)
	.dwattr $C$DW$136, DW_AT_name("SysCtlDelay")
	.dwattr $C$DW$136, DW_AT_TI_call
        BL        SysCtlDelay           ; [DPU_3_PIPE] |190| 
        ; CALL OCCURS {SysCtlDelay }     ; [] |190| 
	.dwpsn	file "../esp8266.c",line 191,column 2,is_stmt,isa 1
;----------------------------------------------------------------------
; 191 | SysCtlDelay(SysCtlClockGet());                                         
;----------------------------------------------------------------------
$C$DW$137	.dwtag  DW_TAG_TI_branch
	.dwattr $C$DW$137, DW_AT_low_pc(0x00)
	.dwattr $C$DW$137, DW_AT_name("SysCtlClockGet")
	.dwattr $C$DW$137, DW_AT_TI_call
        BL        SysCtlClockGet        ; [DPU_3_PIPE] |191| 
        ; CALL OCCURS {SysCtlClockGet }  ; [] |191| 
;* --------------------------------------------------------------------------*
$C$DW$138	.dwtag  DW_TAG_TI_branch
	.dwattr $C$DW$138, DW_AT_low_pc(0x00)
	.dwattr $C$DW$138, DW_AT_name("SysCtlDelay")
	.dwattr $C$DW$138, DW_AT_TI_call
        BL        SysCtlDelay           ; [DPU_3_PIPE] |191| 
        ; CALL OCCURS {SysCtlDelay }     ; [] |191| 
	.dwpsn	file "../esp8266.c",line 192,column 2,is_stmt,isa 1
;----------------------------------------------------------------------
; 192 | uart_send(CONNECT_TO_AP);                                              
;----------------------------------------------------------------------
        ADR       A1, $C$SL1            ; [DPU_3_PIPE] |192| 
$C$DW$139	.dwtag  DW_TAG_TI_branch
	.dwattr $C$DW$139, DW_AT_low_pc(0x00)
	.dwattr $C$DW$139, DW_AT_name("uart_send")
	.dwattr $C$DW$139, DW_AT_TI_call
        BL        uart_send             ; [DPU_3_PIPE] |192| 
        ; CALL OCCURS {uart_send }       ; [] |192| 
	.dwpsn	file "../esp8266.c",line 193,column 2,is_stmt,isa 1
;----------------------------------------------------------------------
; 193 | SysCtlDelay(SysCtlClockGet());                                         
;----------------------------------------------------------------------
$C$DW$140	.dwtag  DW_TAG_TI_branch
	.dwattr $C$DW$140, DW_AT_low_pc(0x00)
	.dwattr $C$DW$140, DW_AT_name("SysCtlClockGet")
	.dwattr $C$DW$140, DW_AT_TI_call
        BL        SysCtlClockGet        ; [DPU_3_PIPE] |193| 
        ; CALL OCCURS {SysCtlClockGet }  ; [] |193| 
$C$DW$141	.dwtag  DW_TAG_TI_branch
	.dwattr $C$DW$141, DW_AT_low_pc(0x00)
	.dwattr $C$DW$141, DW_AT_name("SysCtlDelay")
	.dwattr $C$DW$141, DW_AT_TI_call
        BL        SysCtlDelay           ; [DPU_3_PIPE] |193| 
        ; CALL OCCURS {SysCtlDelay }     ; [] |193| 
	.dwpsn	file "../esp8266.c",line 194,column 2,is_stmt,isa 1
;----------------------------------------------------------------------
; 194 | SysCtlDelay(SysCtlClockGet());                                         
;----------------------------------------------------------------------
$C$DW$142	.dwtag  DW_TAG_TI_branch
	.dwattr $C$DW$142, DW_AT_low_pc(0x00)
	.dwattr $C$DW$142, DW_AT_name("SysCtlClockGet")
	.dwattr $C$DW$142, DW_AT_TI_call
        BL        SysCtlClockGet        ; [DPU_3_PIPE] |194| 
        ; CALL OCCURS {SysCtlClockGet }  ; [] |194| 
$C$DW$143	.dwtag  DW_TAG_TI_branch
	.dwattr $C$DW$143, DW_AT_low_pc(0x00)
	.dwattr $C$DW$143, DW_AT_name("SysCtlDelay")
	.dwattr $C$DW$143, DW_AT_TI_call
        BL        SysCtlDelay           ; [DPU_3_PIPE] |194| 
        ; CALL OCCURS {SysCtlDelay }     ; [] |194| 
	.dwpsn	file "../esp8266.c",line 195,column 1,is_stmt,isa 1
$C$DW$144	.dwtag  DW_TAG_TI_branch
	.dwattr $C$DW$144, DW_AT_low_pc(0x00)
	.dwattr $C$DW$144, DW_AT_TI_return
        POP       {A4, PC}              ; [DPU_3_PIPE] 
	.dwcfi	cfa_offset, 0
        ; BRANCH OCCURS                  ; [] 
	.dwattr $C$DW$126, DW_AT_TI_end_file("../esp8266.c")
	.dwattr $C$DW$126, DW_AT_TI_end_line(0xc3)
	.dwattr $C$DW$126, DW_AT_TI_end_column(0x01)
	.dwendentry
	.dwendtag $C$DW$126

	.sect	".text:send_esp8266"
	.clink
	.thumbfunc send_esp8266
	.thumb
	.global	send_esp8266

$C$DW$145	.dwtag  DW_TAG_subprogram, DW_AT_name("send_esp8266")
	.dwattr $C$DW$145, DW_AT_low_pc(send_esp8266)
	.dwattr $C$DW$145, DW_AT_high_pc(0x00)
	.dwattr $C$DW$145, DW_AT_TI_symbol_name("send_esp8266")
	.dwattr $C$DW$145, DW_AT_external
	.dwattr $C$DW$145, DW_AT_type(*$C$DW$T$30)
	.dwattr $C$DW$145, DW_AT_TI_begin_file("../esp8266.c")
	.dwattr $C$DW$145, DW_AT_TI_begin_line(0xc5)
	.dwattr $C$DW$145, DW_AT_TI_begin_column(0x09)
	.dwattr $C$DW$145, DW_AT_decl_file("../esp8266.c")
	.dwattr $C$DW$145, DW_AT_decl_line(0xc5)
	.dwattr $C$DW$145, DW_AT_decl_column(0x09)
	.dwattr $C$DW$145, DW_AT_TI_max_frame_size(0xa8)
	.dwpsn	file "../esp8266.c",line 204,column 1,is_stmt,address send_esp8266,isa 1

	.dwfde $C$DW$CIE, send_esp8266
$C$DW$146	.dwtag  DW_TAG_formal_parameter, DW_AT_name("humidity_data")
	.dwattr $C$DW$146, DW_AT_TI_symbol_name("humidity_data")
	.dwattr $C$DW$146, DW_AT_type(*$C$DW$T$29)
	.dwattr $C$DW$146, DW_AT_location[DW_OP_reg0]
$C$DW$147	.dwtag  DW_TAG_formal_parameter, DW_AT_name("temperature_data_1")
	.dwattr $C$DW$147, DW_AT_TI_symbol_name("temperature_data_1")
	.dwattr $C$DW$147, DW_AT_type(*$C$DW$T$29)
	.dwattr $C$DW$147, DW_AT_location[DW_OP_reg1]
$C$DW$148	.dwtag  DW_TAG_formal_parameter, DW_AT_name("temperature_data_2")
	.dwattr $C$DW$148, DW_AT_TI_symbol_name("temperature_data_2")
	.dwattr $C$DW$148, DW_AT_type(*$C$DW$T$29)
	.dwattr $C$DW$148, DW_AT_location[DW_OP_reg2]
$C$DW$149	.dwtag  DW_TAG_formal_parameter, DW_AT_name("temperature_data_3")
	.dwattr $C$DW$149, DW_AT_TI_symbol_name("temperature_data_3")
	.dwattr $C$DW$149, DW_AT_type(*$C$DW$T$29)
	.dwattr $C$DW$149, DW_AT_location[DW_OP_reg3]
$C$DW$150	.dwtag  DW_TAG_formal_parameter, DW_AT_name("co2level")
	.dwattr $C$DW$150, DW_AT_TI_symbol_name("co2level")
	.dwattr $C$DW$150, DW_AT_type(*$C$DW$T$29)
	.dwattr $C$DW$150, DW_AT_location[DW_OP_breg13 168]
$C$DW$151	.dwtag  DW_TAG_formal_parameter, DW_AT_name("water_relay")
	.dwattr $C$DW$151, DW_AT_TI_symbol_name("water_relay")
	.dwattr $C$DW$151, DW_AT_type(*$C$DW$T$29)
	.dwattr $C$DW$151, DW_AT_location[DW_OP_breg13 172]
$C$DW$152	.dwtag  DW_TAG_formal_parameter, DW_AT_name("fan_relay")
	.dwattr $C$DW$152, DW_AT_TI_symbol_name("fan_relay")
	.dwattr $C$DW$152, DW_AT_type(*$C$DW$T$29)
	.dwattr $C$DW$152, DW_AT_location[DW_OP_breg13 176]
;----------------------------------------------------------------------
; 197 | uint8_t send_esp8266(   uint32_t humidity_data,//field1                
; 198 | uint32_t temperature_data_1, //field2                                  
; 199 | uint32_t temperature_data_2,  //field3                                 
; 200 | uint32_t temperature_data_3, //field4                                  
; 201 | uint32_t co2level,  //field5                                           
; 202 | uint32_t water_relay, //field6                                         
; 203 | uint32_t fan_relay)//field7                                            
;----------------------------------------------------------------------

;*****************************************************************************
;* FUNCTION NAME: send_esp8266                                               *
;*                                                                           *
;*   Regs Modified     : A1,A2,A3,A4,V4,V9,SP,LR,SR,D0,D0_hi,D1,D1_hi,D2,    *
;*                           D2_hi,D3,D3_hi,D4,D4_hi,D5,D5_hi,D6,D6_hi,D7,   *
;*                           D7_hi,FPEXC,FPSCR                               *
;*   Regs Used         : A1,A2,A3,A4,V4,V9,SP,LR,SR,D0,D0_hi,D1,D1_hi,D2,    *
;*                           D2_hi,D3,D3_hi,D4,D4_hi,D5,D5_hi,D6,D6_hi,D7,   *
;*                           D7_hi,FPEXC,FPSCR                               *
;*   Local Frame Size  : 0 Args + 160 Auto + 8 Save = 168 byte               *
;*****************************************************************************
send_esp8266:
;* --------------------------------------------------------------------------*
	.dwcfi	cfa_offset, 0
        PUSH      {V4, LR}              ; [DPU_3_PIPE] 
	.dwcfi	cfa_offset, 8
	.dwcfi	save_reg_to_mem, 14, -4
	.dwcfi	save_reg_to_mem, 7, -8
        ADD       V4, SP, #8            ; [DPU_3_PIPE] 
        SUB       SP, SP, #160          ; [DPU_3_PIPE] 
	.dwcfi	cfa_offset, 168
$C$DW$153	.dwtag  DW_TAG_variable, DW_AT_name("humidity_data")
	.dwattr $C$DW$153, DW_AT_TI_symbol_name("humidity_data")
	.dwattr $C$DW$153, DW_AT_type(*$C$DW$T$29)
	.dwattr $C$DW$153, DW_AT_location[DW_OP_breg13 0]
$C$DW$154	.dwtag  DW_TAG_variable, DW_AT_name("temperature_data_1")
	.dwattr $C$DW$154, DW_AT_TI_symbol_name("temperature_data_1")
	.dwattr $C$DW$154, DW_AT_type(*$C$DW$T$29)
	.dwattr $C$DW$154, DW_AT_location[DW_OP_breg13 4]
$C$DW$155	.dwtag  DW_TAG_variable, DW_AT_name("temperature_data_2")
	.dwattr $C$DW$155, DW_AT_TI_symbol_name("temperature_data_2")
	.dwattr $C$DW$155, DW_AT_type(*$C$DW$T$29)
	.dwattr $C$DW$155, DW_AT_location[DW_OP_breg13 8]
$C$DW$156	.dwtag  DW_TAG_variable, DW_AT_name("temperature_data_3")
	.dwattr $C$DW$156, DW_AT_TI_symbol_name("temperature_data_3")
	.dwattr $C$DW$156, DW_AT_type(*$C$DW$T$29)
	.dwattr $C$DW$156, DW_AT_location[DW_OP_breg13 12]
$C$DW$157	.dwtag  DW_TAG_variable, DW_AT_name("cmnd")
	.dwattr $C$DW$157, DW_AT_TI_symbol_name("cmnd")
	.dwattr $C$DW$157, DW_AT_type(*$C$DW$T$136)
	.dwattr $C$DW$157, DW_AT_location[DW_OP_breg13 16]
$C$DW$158	.dwtag  DW_TAG_variable, DW_AT_name("cmnd_len_array")
	.dwattr $C$DW$158, DW_AT_TI_symbol_name("cmnd_len_array")
	.dwattr $C$DW$158, DW_AT_type(*$C$DW$T$137)
	.dwattr $C$DW$158, DW_AT_location[DW_OP_breg13 124]
$C$DW$159	.dwtag  DW_TAG_variable, DW_AT_name("cmnd_len_array_temp")
	.dwattr $C$DW$159, DW_AT_TI_symbol_name("cmnd_len_array_temp")
	.dwattr $C$DW$159, DW_AT_type(*$C$DW$T$138)
	.dwattr $C$DW$159, DW_AT_location[DW_OP_breg13 140]
$C$DW$160	.dwtag  DW_TAG_variable, DW_AT_name("buffer")
	.dwattr $C$DW$160, DW_AT_TI_symbol_name("buffer")
	.dwattr $C$DW$160, DW_AT_type(*$C$DW$T$140)
	.dwattr $C$DW$160, DW_AT_location[DW_OP_breg13 144]
$C$DW$161	.dwtag  DW_TAG_variable, DW_AT_name("buffer_long")
	.dwattr $C$DW$161, DW_AT_TI_symbol_name("buffer_long")
	.dwattr $C$DW$161, DW_AT_type(*$C$DW$T$142)
	.dwattr $C$DW$161, DW_AT_location[DW_OP_breg13 148]
$C$DW$162	.dwtag  DW_TAG_variable, DW_AT_name("result")
	.dwattr $C$DW$162, DW_AT_TI_symbol_name("result")
	.dwattr $C$DW$162, DW_AT_type(*$C$DW$T$30)
	.dwattr $C$DW$162, DW_AT_location[DW_OP_breg13 156]
$C$DW$163	.dwtag  DW_TAG_variable, DW_AT_name("cmnd_len")
	.dwattr $C$DW$163, DW_AT_TI_symbol_name("cmnd_len")
	.dwattr $C$DW$163, DW_AT_type(*$C$DW$T$74)
	.dwattr $C$DW$163, DW_AT_location[DW_OP_breg13 158]
;----------------------------------------------------------------------
; 205 | char cmnd[106];                                                        
; 206 | char cmnd_len_array[15];                                               
;----------------------------------------------------------------------
        STR       A4, [SP, #12]         ; [DPU_3_PIPE] |204| 
        STR       A3, [SP, #8]          ; [DPU_3_PIPE] |204| 
        STR       A2, [SP, #4]          ; [DPU_3_PIPE] |204| 
        STR       A1, [SP, #0]          ; [DPU_3_PIPE] |204| 
	.dwpsn	file "../esp8266.c",line 207,column 29,is_stmt,isa 1
;----------------------------------------------------------------------
; 207 | char cmnd_len_array_temp[3]={0,0,0};                                   
;----------------------------------------------------------------------
        MOVS      A2, #0                ; [DPU_3_PIPE] |207| 
        MOVS      A3, #3                ; [DPU_3_PIPE] |207| 
        ADD       A1, SP, #140          ; [DPU_3_PIPE] |207| 
$C$DW$164	.dwtag  DW_TAG_TI_branch
	.dwattr $C$DW$164, DW_AT_low_pc(0x00)
	.dwattr $C$DW$164, DW_AT_name("memset")
	.dwattr $C$DW$164, DW_AT_TI_call
        BL        memset                ; [DPU_3_PIPE] |207| 
        ; CALL OCCURS {memset }          ; [] |207| 
	.dwpsn	file "../esp8266.c",line 208,column 16,is_stmt,isa 1
;----------------------------------------------------------------------
; 208 | char buffer[2]={0,0};                                                  
;----------------------------------------------------------------------
        MOVS      A2, #0                ; [DPU_3_PIPE] |208| 
        MOVS      A3, #2                ; [DPU_3_PIPE] |208| 
        ADD       A1, SP, #144          ; [DPU_3_PIPE] |208| 
$C$DW$165	.dwtag  DW_TAG_TI_branch
	.dwattr $C$DW$165, DW_AT_low_pc(0x00)
	.dwattr $C$DW$165, DW_AT_name("memset")
	.dwattr $C$DW$165, DW_AT_TI_call
        BL        memset                ; [DPU_3_PIPE] |208| 
        ; CALL OCCURS {memset }          ; [] |208| 
	.dwpsn	file "../esp8266.c",line 209,column 22,is_stmt,isa 1
;----------------------------------------------------------------------
; 209 | char buffer_long[6] = {0,0,0,0,0};                                     
;----------------------------------------------------------------------
        MOVS      A2, #0                ; [DPU_3_PIPE] |209| 
        MOVS      A3, #6                ; [DPU_3_PIPE] |209| 
        ADD       A1, SP, #148          ; [DPU_3_PIPE] |209| 
$C$DW$166	.dwtag  DW_TAG_TI_branch
	.dwattr $C$DW$166, DW_AT_low_pc(0x00)
	.dwattr $C$DW$166, DW_AT_name("memset")
	.dwattr $C$DW$166, DW_AT_TI_call
        BL        memset                ; [DPU_3_PIPE] |209| 
        ; CALL OCCURS {memset }          ; [] |209| 
	.dwpsn	file "../esp8266.c",line 210,column 16,is_stmt,isa 1
;----------------------------------------------------------------------
; 210 | uint8_t result=1;                                                      
; 211 | uint16_t cmnd_len;                                                     
; 212 | //      memset(cmnd,0,106);                                            
; 213 | //      memset(buffer_long, '0',5);                                    
;----------------------------------------------------------------------
        MOVS      A1, #1                ; [DPU_3_PIPE] |210| 
        STRB      A1, [SP, #156]        ; [DPU_3_PIPE] |210| 
	.dwpsn	file "../esp8266.c",line 215,column 2,is_stmt,isa 1
;----------------------------------------------------------------------
; 215 | strcpy(cmnd,SEND_DATA);                                                
; 216 | //strcpy(cmnd,SEND_DATA_TEST);                                         
; 217 | //field1 humidity                                                      
;----------------------------------------------------------------------
        ADR       A2, $C$SL2            ; [DPU_3_PIPE] |215| 
        ADD       A1, SP, #16           ; [DPU_3_PIPE] |215| 
$C$DW$167	.dwtag  DW_TAG_TI_branch
	.dwattr $C$DW$167, DW_AT_low_pc(0x00)
	.dwattr $C$DW$167, DW_AT_name("strcpy")
	.dwattr $C$DW$167, DW_AT_TI_call
        BL        strcpy                ; [DPU_3_PIPE] |215| 
        ; CALL OCCURS {strcpy }          ; [] |215| 
	.dwpsn	file "../esp8266.c",line 218,column 2,is_stmt,isa 1
;----------------------------------------------------------------------
; 218 | buffer[0] = (char)(humidity_data / 10)+'0';//decimal                   
;----------------------------------------------------------------------
        LDR       A2, [SP, #0]          ; [DPU_3_PIPE] |218| 
        MOVS      A1, #10               ; [DPU_3_PIPE] |218| 
        UDIV      A1, A2, A1            ; [DPU_3_PIPE] |218| 
        UXTB      A1, A1                ; [DPU_3_PIPE] |218| 
        ADDS      A1, A1, #48           ; [DPU_3_PIPE] |218| 
        STRB      A1, [SP, #144]        ; [DPU_3_PIPE] |218| 
	.dwpsn	file "../esp8266.c",line 219,column 2,is_stmt,isa 1
;----------------------------------------------------------------------
; 219 | buffer[1] = (char)(humidity_data % 10)+'0';//unit                      
;----------------------------------------------------------------------
        LDR       A1, [SP, #0]          ; [DPU_3_PIPE] |219| 
        MOVS      A3, #10               ; [DPU_3_PIPE] |219| 
        UDIV      A2, A1, A3            ; [DPU_3_PIPE] |219| 
        MULS      A2, A2, A3            ; [DPU_3_PIPE] |219| 
        SUBS      A1, A1, A2            ; [DPU_3_PIPE] |219| 
        UXTB      A1, A1                ; [DPU_3_PIPE] |219| 
        ADDS      A1, A1, #48           ; [DPU_3_PIPE] |219| 
        STRB      A1, [SP, #145]        ; [DPU_3_PIPE] |219| 
	.dwpsn	file "../esp8266.c",line 220,column 2,is_stmt,isa 1
;----------------------------------------------------------------------
; 220 | strncat(cmnd, buffer,2);                                               
; 221 | //field2 temperature 1                                                 
;----------------------------------------------------------------------
        MOVS      A3, #2                ; [DPU_3_PIPE] |220| 
        ADD       A1, SP, #16           ; [DPU_3_PIPE] |220| 
        ADD       A2, SP, #144          ; [DPU_3_PIPE] |220| 
$C$DW$168	.dwtag  DW_TAG_TI_branch
	.dwattr $C$DW$168, DW_AT_low_pc(0x00)
	.dwattr $C$DW$168, DW_AT_name("strncat")
	.dwattr $C$DW$168, DW_AT_TI_call
        BL        strncat               ; [DPU_3_PIPE] |220| 
        ; CALL OCCURS {strncat }         ; [] |220| 
	.dwpsn	file "../esp8266.c",line 222,column 2,is_stmt,isa 1
;----------------------------------------------------------------------
; 222 | strcat(cmnd,SEND_DATA_FIELD2);                                         
;----------------------------------------------------------------------
        ADR       A2, $C$SL3            ; [DPU_3_PIPE] |222| 
        ADD       A1, SP, #16           ; [DPU_3_PIPE] |222| 
$C$DW$169	.dwtag  DW_TAG_TI_branch
	.dwattr $C$DW$169, DW_AT_low_pc(0x00)
	.dwattr $C$DW$169, DW_AT_name("strcat")
	.dwattr $C$DW$169, DW_AT_TI_call
        BL        strcat                ; [DPU_3_PIPE] |222| 
        ; CALL OCCURS {strcat }          ; [] |222| 
	.dwpsn	file "../esp8266.c",line 223,column 2,is_stmt,isa 1
;----------------------------------------------------------------------
; 223 | buffer[0] = (char)(temperature_data_1 / 10)+'0';//decimal              
;----------------------------------------------------------------------
        LDR       A2, [SP, #4]          ; [DPU_3_PIPE] |223| 
        MOVS      A1, #10               ; [DPU_3_PIPE] |223| 
        UDIV      A1, A2, A1            ; [DPU_3_PIPE] |223| 
        UXTB      A1, A1                ; [DPU_3_PIPE] |223| 
        ADDS      A1, A1, #48           ; [DPU_3_PIPE] |223| 
        STRB      A1, [SP, #144]        ; [DPU_3_PIPE] |223| 
	.dwpsn	file "../esp8266.c",line 224,column 2,is_stmt,isa 1
;----------------------------------------------------------------------
; 224 | buffer[1] = (char)(temperature_data_1 % 10)+'0';//unit                 
;----------------------------------------------------------------------
        LDR       A1, [SP, #4]          ; [DPU_3_PIPE] |224| 
        MOVS      A3, #10               ; [DPU_3_PIPE] |224| 
        UDIV      A2, A1, A3            ; [DPU_3_PIPE] |224| 
        MULS      A2, A2, A3            ; [DPU_3_PIPE] |224| 
        SUBS      A1, A1, A2            ; [DPU_3_PIPE] |224| 
        UXTB      A1, A1                ; [DPU_3_PIPE] |224| 
        ADDS      A1, A1, #48           ; [DPU_3_PIPE] |224| 
        STRB      A1, [SP, #145]        ; [DPU_3_PIPE] |224| 
	.dwpsn	file "../esp8266.c",line 225,column 2,is_stmt,isa 1
;----------------------------------------------------------------------
; 225 | strncat(cmnd, buffer,2);                                               
; 226 | //field3 temperature 2                                                 
;----------------------------------------------------------------------
        MOVS      A3, #2                ; [DPU_3_PIPE] |225| 
        ADD       A1, SP, #16           ; [DPU_3_PIPE] |225| 
        ADD       A2, SP, #144          ; [DPU_3_PIPE] |225| 
$C$DW$170	.dwtag  DW_TAG_TI_branch
	.dwattr $C$DW$170, DW_AT_low_pc(0x00)
	.dwattr $C$DW$170, DW_AT_name("strncat")
	.dwattr $C$DW$170, DW_AT_TI_call
        BL        strncat               ; [DPU_3_PIPE] |225| 
        ; CALL OCCURS {strncat }         ; [] |225| 
	.dwpsn	file "../esp8266.c",line 227,column 2,is_stmt,isa 1
;----------------------------------------------------------------------
; 227 | strcat(cmnd,SEND_DATA_FIELD3);                                         
;----------------------------------------------------------------------
        ADR       A2, $C$SL4            ; [DPU_3_PIPE] |227| 
        ADD       A1, SP, #16           ; [DPU_3_PIPE] |227| 
$C$DW$171	.dwtag  DW_TAG_TI_branch
	.dwattr $C$DW$171, DW_AT_low_pc(0x00)
	.dwattr $C$DW$171, DW_AT_name("strcat")
	.dwattr $C$DW$171, DW_AT_TI_call
        BL        strcat                ; [DPU_3_PIPE] |227| 
        ; CALL OCCURS {strcat }          ; [] |227| 
	.dwpsn	file "../esp8266.c",line 228,column 2,is_stmt,isa 1
;----------------------------------------------------------------------
; 228 | buffer[0] = (char)(temperature_data_2 / 10)+'0';//decimal              
;----------------------------------------------------------------------
        LDR       A2, [SP, #8]          ; [DPU_3_PIPE] |228| 
        MOVS      A1, #10               ; [DPU_3_PIPE] |228| 
        UDIV      A1, A2, A1            ; [DPU_3_PIPE] |228| 
        UXTB      A1, A1                ; [DPU_3_PIPE] |228| 
        ADDS      A1, A1, #48           ; [DPU_3_PIPE] |228| 
        STRB      A1, [SP, #144]        ; [DPU_3_PIPE] |228| 
	.dwpsn	file "../esp8266.c",line 229,column 2,is_stmt,isa 1
;----------------------------------------------------------------------
; 229 | buffer[1] = (char)(temperature_data_2 % 10)+'0';//unit                 
;----------------------------------------------------------------------
        LDR       A1, [SP, #8]          ; [DPU_3_PIPE] |229| 
        MOVS      A3, #10               ; [DPU_3_PIPE] |229| 
        UDIV      A2, A1, A3            ; [DPU_3_PIPE] |229| 
        MULS      A2, A2, A3            ; [DPU_3_PIPE] |229| 
        SUBS      A1, A1, A2            ; [DPU_3_PIPE] |229| 
        UXTB      A1, A1                ; [DPU_3_PIPE] |229| 
        ADDS      A1, A1, #48           ; [DPU_3_PIPE] |229| 
        STRB      A1, [SP, #145]        ; [DPU_3_PIPE] |229| 
	.dwpsn	file "../esp8266.c",line 230,column 2,is_stmt,isa 1
;----------------------------------------------------------------------
; 230 | strncat(cmnd, buffer,2);                                               
; 231 | //field4 temperature 3                                                 
;----------------------------------------------------------------------
        MOVS      A3, #2                ; [DPU_3_PIPE] |230| 
        ADD       A1, SP, #16           ; [DPU_3_PIPE] |230| 
        ADD       A2, SP, #144          ; [DPU_3_PIPE] |230| 
$C$DW$172	.dwtag  DW_TAG_TI_branch
	.dwattr $C$DW$172, DW_AT_low_pc(0x00)
	.dwattr $C$DW$172, DW_AT_name("strncat")
	.dwattr $C$DW$172, DW_AT_TI_call
        BL        strncat               ; [DPU_3_PIPE] |230| 
        ; CALL OCCURS {strncat }         ; [] |230| 
	.dwpsn	file "../esp8266.c",line 232,column 2,is_stmt,isa 1
;----------------------------------------------------------------------
; 232 | strcat(cmnd,SEND_DATA_FIELD4);                                         
;----------------------------------------------------------------------
        ADR       A2, $C$SL5            ; [DPU_3_PIPE] |232| 
        ADD       A1, SP, #16           ; [DPU_3_PIPE] |232| 
$C$DW$173	.dwtag  DW_TAG_TI_branch
	.dwattr $C$DW$173, DW_AT_low_pc(0x00)
	.dwattr $C$DW$173, DW_AT_name("strcat")
	.dwattr $C$DW$173, DW_AT_TI_call
        BL        strcat                ; [DPU_3_PIPE] |232| 
        ; CALL OCCURS {strcat }          ; [] |232| 
	.dwpsn	file "../esp8266.c",line 233,column 2,is_stmt,isa 1
;----------------------------------------------------------------------
; 233 | buffer[0] = (char)(temperature_data_3 / 10)+'0';//decimal              
;----------------------------------------------------------------------
        LDR       A2, [SP, #12]         ; [DPU_3_PIPE] |233| 
        MOVS      A1, #10               ; [DPU_3_PIPE] |233| 
        UDIV      A1, A2, A1            ; [DPU_3_PIPE] |233| 
        UXTB      A1, A1                ; [DPU_3_PIPE] |233| 
        ADDS      A1, A1, #48           ; [DPU_3_PIPE] |233| 
        STRB      A1, [SP, #144]        ; [DPU_3_PIPE] |233| 
	.dwpsn	file "../esp8266.c",line 234,column 2,is_stmt,isa 1
;----------------------------------------------------------------------
; 234 | buffer[1] = (char)(temperature_data_3 % 10)+'0';//unit                 
;----------------------------------------------------------------------
        LDR       A1, [SP, #12]         ; [DPU_3_PIPE] |234| 
        MOVS      A3, #10               ; [DPU_3_PIPE] |234| 
        UDIV      A2, A1, A3            ; [DPU_3_PIPE] |234| 
        MULS      A2, A2, A3            ; [DPU_3_PIPE] |234| 
        SUBS      A1, A1, A2            ; [DPU_3_PIPE] |234| 
        UXTB      A1, A1                ; [DPU_3_PIPE] |234| 
        ADDS      A1, A1, #48           ; [DPU_3_PIPE] |234| 
        STRB      A1, [SP, #145]        ; [DPU_3_PIPE] |234| 
	.dwpsn	file "../esp8266.c",line 235,column 2,is_stmt,isa 1
;----------------------------------------------------------------------
; 235 | strncat(cmnd, buffer,2);                                               
; 236 | //field5 CO2 level                                                     
;----------------------------------------------------------------------
        MOVS      A3, #2                ; [DPU_3_PIPE] |235| 
        ADD       A1, SP, #16           ; [DPU_3_PIPE] |235| 
        ADD       A2, SP, #144          ; [DPU_3_PIPE] |235| 
$C$DW$174	.dwtag  DW_TAG_TI_branch
	.dwattr $C$DW$174, DW_AT_low_pc(0x00)
	.dwattr $C$DW$174, DW_AT_name("strncat")
	.dwattr $C$DW$174, DW_AT_TI_call
        BL        strncat               ; [DPU_3_PIPE] |235| 
        ; CALL OCCURS {strncat }         ; [] |235| 
;* --------------------------------------------------------------------------*
	.dwpsn	file "../esp8266.c",line 237,column 2,is_stmt,isa 1
;----------------------------------------------------------------------
; 237 | strcat(cmnd,SEND_DATA_FIELD5);                                         
;----------------------------------------------------------------------
        ADD       A1, SP, #16           ; [DPU_3_PIPE] |237| 
        ADR       A2, $C$SL6            ; [DPU_3_PIPE] |237| 
$C$DW$175	.dwtag  DW_TAG_TI_branch
	.dwattr $C$DW$175, DW_AT_low_pc(0x00)
	.dwattr $C$DW$175, DW_AT_name("strcat")
	.dwattr $C$DW$175, DW_AT_TI_call
        BL        strcat                ; [DPU_3_PIPE] |237| 
        ; CALL OCCURS {strcat }          ; [] |237| 
	.dwpsn	file "../esp8266.c",line 238,column 2,is_stmt,isa 1
;----------------------------------------------------------------------
; 238 | uitoa(co2level, buffer_long, 5);                                       
;----------------------------------------------------------------------
        LDR       A1, [V4, #0]          ; [DPU_3_PIPE] |238| 
        ADD       A2, SP, #148          ; [DPU_3_PIPE] |238| 
        MOVS      A3, #5                ; [DPU_3_PIPE] |238| 
$C$DW$176	.dwtag  DW_TAG_TI_branch
	.dwattr $C$DW$176, DW_AT_low_pc(0x00)
	.dwattr $C$DW$176, DW_AT_name("uitoa")
	.dwattr $C$DW$176, DW_AT_TI_call
        BL        uitoa                 ; [DPU_3_PIPE] |238| 
        ; CALL OCCURS {uitoa }           ; [] |238| 
	.dwpsn	file "../esp8266.c",line 239,column 2,is_stmt,isa 1
;----------------------------------------------------------------------
; 239 | strncat(cmnd, buffer_long,5);                                          
; 240 | //field6 Water relay                                                   
;----------------------------------------------------------------------
        ADD       A1, SP, #16           ; [DPU_3_PIPE] |239| 
        ADD       A2, SP, #148          ; [DPU_3_PIPE] |239| 
        MOVS      A3, #5                ; [DPU_3_PIPE] |239| 
$C$DW$177	.dwtag  DW_TAG_TI_branch
	.dwattr $C$DW$177, DW_AT_low_pc(0x00)
	.dwattr $C$DW$177, DW_AT_name("strncat")
	.dwattr $C$DW$177, DW_AT_TI_call
        BL        strncat               ; [DPU_3_PIPE] |239| 
        ; CALL OCCURS {strncat }         ; [] |239| 
	.dwpsn	file "../esp8266.c",line 241,column 2,is_stmt,isa 1
;----------------------------------------------------------------------
; 241 | strcat(cmnd,SEND_DATA_FIELD6);                                         
;----------------------------------------------------------------------
        ADD       A1, SP, #16           ; [DPU_3_PIPE] |241| 
        ADR       A2, $C$SL7            ; [DPU_3_PIPE] |241| 
$C$DW$178	.dwtag  DW_TAG_TI_branch
	.dwattr $C$DW$178, DW_AT_low_pc(0x00)
	.dwattr $C$DW$178, DW_AT_name("strcat")
	.dwattr $C$DW$178, DW_AT_TI_call
        BL        strcat                ; [DPU_3_PIPE] |241| 
        ; CALL OCCURS {strcat }          ; [] |241| 
	.dwpsn	file "../esp8266.c",line 242,column 2,is_stmt,isa 1
;----------------------------------------------------------------------
; 242 | buffer[0] = (char)(water_relay)+'0';//decimal                          
;----------------------------------------------------------------------
        LDRB      A1, [V4, #4]          ; [DPU_3_PIPE] |242| 
        ADDS      A1, A1, #48           ; [DPU_3_PIPE] |242| 
        STRB      A1, [SP, #144]        ; [DPU_3_PIPE] |242| 
	.dwpsn	file "../esp8266.c",line 243,column 2,is_stmt,isa 1
;----------------------------------------------------------------------
; 243 | buffer[1] = '0';//unit                                                 
;----------------------------------------------------------------------
        MOVS      A1, #48               ; [DPU_3_PIPE] |243| 
        STRB      A1, [SP, #145]        ; [DPU_3_PIPE] |243| 
	.dwpsn	file "../esp8266.c",line 244,column 2,is_stmt,isa 1
;----------------------------------------------------------------------
; 244 | strncat(cmnd, buffer,2);                                               
; 245 | //field7 Fan relay                                                     
;----------------------------------------------------------------------
        ADD       A2, SP, #144          ; [DPU_3_PIPE] |244| 
        MOVS      A3, #2                ; [DPU_3_PIPE] |244| 
        ADD       A1, SP, #16           ; [DPU_3_PIPE] |244| 
$C$DW$179	.dwtag  DW_TAG_TI_branch
	.dwattr $C$DW$179, DW_AT_low_pc(0x00)
	.dwattr $C$DW$179, DW_AT_name("strncat")
	.dwattr $C$DW$179, DW_AT_TI_call
        BL        strncat               ; [DPU_3_PIPE] |244| 
        ; CALL OCCURS {strncat }         ; [] |244| 
	.dwpsn	file "../esp8266.c",line 246,column 2,is_stmt,isa 1
;----------------------------------------------------------------------
; 246 | strcat(cmnd,SEND_DATA_FIELD7);                                         
;----------------------------------------------------------------------
        ADD       A1, SP, #16           ; [DPU_3_PIPE] |246| 
        ADR       A2, $C$SL8            ; [DPU_3_PIPE] |246| 
$C$DW$180	.dwtag  DW_TAG_TI_branch
	.dwattr $C$DW$180, DW_AT_low_pc(0x00)
	.dwattr $C$DW$180, DW_AT_name("strcat")
	.dwattr $C$DW$180, DW_AT_TI_call
        BL        strcat                ; [DPU_3_PIPE] |246| 
        ; CALL OCCURS {strcat }          ; [] |246| 
	.dwpsn	file "../esp8266.c",line 247,column 2,is_stmt,isa 1
;----------------------------------------------------------------------
; 247 | buffer[0] = (char)(fan_relay)+'0';//decimal                            
;----------------------------------------------------------------------
        LDRB      A1, [V4, #8]          ; [DPU_3_PIPE] |247| 
        ADDS      A1, A1, #48           ; [DPU_3_PIPE] |247| 
        STRB      A1, [SP, #144]        ; [DPU_3_PIPE] |247| 
	.dwpsn	file "../esp8266.c",line 248,column 2,is_stmt,isa 1
;----------------------------------------------------------------------
; 248 | buffer[1] = '0';//unit                                                 
;----------------------------------------------------------------------
        MOVS      A1, #48               ; [DPU_3_PIPE] |248| 
        STRB      A1, [SP, #145]        ; [DPU_3_PIPE] |248| 
	.dwpsn	file "../esp8266.c",line 249,column 2,is_stmt,isa 1
;----------------------------------------------------------------------
; 249 | strncat(cmnd, buffer,2);                                               
;----------------------------------------------------------------------
        ADD       A2, SP, #144          ; [DPU_3_PIPE] |249| 
        MOVS      A3, #2                ; [DPU_3_PIPE] |249| 
        ADD       A1, SP, #16           ; [DPU_3_PIPE] |249| 
$C$DW$181	.dwtag  DW_TAG_TI_branch
	.dwattr $C$DW$181, DW_AT_low_pc(0x00)
	.dwattr $C$DW$181, DW_AT_name("strncat")
	.dwattr $C$DW$181, DW_AT_TI_call
        BL        strncat               ; [DPU_3_PIPE] |249| 
        ; CALL OCCURS {strncat }         ; [] |249| 
	.dwpsn	file "../esp8266.c",line 251,column 2,is_stmt,isa 1
;----------------------------------------------------------------------
; 251 | cmnd_len = strlen(cmnd);                                               
;----------------------------------------------------------------------
        ADD       A1, SP, #16           ; [DPU_3_PIPE] |251| 
$C$DW$182	.dwtag  DW_TAG_TI_branch
	.dwattr $C$DW$182, DW_AT_low_pc(0x00)
	.dwattr $C$DW$182, DW_AT_name("strlen")
	.dwattr $C$DW$182, DW_AT_TI_call
        BL        strlen                ; [DPU_3_PIPE] |251| 
        ; CALL OCCURS {strlen }          ; [] |251| 
        STRH      A1, [SP, #158]        ; [DPU_3_PIPE] |251| 
	.dwpsn	file "../esp8266.c",line 252,column 2,is_stmt,isa 1
;----------------------------------------------------------------------
; 252 | if(cmnd_len>106)                                                       
; 254 | #ifdef DEBUG                                                           
;----------------------------------------------------------------------
        LDRH      A1, [SP, #158]        ; [DPU_3_PIPE] |252| 
        CMP       A1, #106              ; [DPU_3_PIPE] |252| 
        BLE       ||$C$L23||            ; [DPU_3_PIPE] |252| 
        ; BRANCHCC OCCURS {||$C$L23||}   ; [] |252| 
;* --------------------------------------------------------------------------*
	.dwpsn	file "../esp8266.c",line 255,column 3,is_stmt,isa 1
;----------------------------------------------------------------------
; 255 | LOGprintf("Cmnd size exceedes allowed length (%d)\n", cmnd_len);       
; 256 | #endif                                                                 
;----------------------------------------------------------------------
        LDRH      A2, [SP, #158]        ; [DPU_3_PIPE] |255| 
        ADR       A1, $C$SL9            ; [DPU_3_PIPE] |255| 
$C$DW$183	.dwtag  DW_TAG_TI_branch
	.dwattr $C$DW$183, DW_AT_low_pc(0x00)
	.dwattr $C$DW$183, DW_AT_name("LOGprintf")
	.dwattr $C$DW$183, DW_AT_TI_call
        BL        LOGprintf             ; [DPU_3_PIPE] |255| 
        ; CALL OCCURS {LOGprintf }       ; [] |255| 
	.dwpsn	file "../esp8266.c",line 257,column 3,is_stmt,isa 1
;----------------------------------------------------------------------
; 257 | return 0;//too much data                                               
;----------------------------------------------------------------------
        MOVS      A1, #0                ; [DPU_3_PIPE] |257| 
        B         ||$C$L26||            ; [DPU_3_PIPE] |257| 
        ; BRANCH OCCURS {||$C$L26||}     ; [] |257| 
;* --------------------------------------------------------------------------*
||$C$L23||:    
	.dwpsn	file "../esp8266.c",line 259,column 2,is_stmt,isa 1
;----------------------------------------------------------------------
; 259 | cmnd_len += 2;                                                         
;----------------------------------------------------------------------
        LDRH      A1, [SP, #158]        ; [DPU_3_PIPE] |259| 
        ADDS      A1, A1, #2            ; [DPU_3_PIPE] |259| 
        STRH      A1, [SP, #158]        ; [DPU_3_PIPE] |259| 
	.dwpsn	file "../esp8266.c",line 260,column 2,is_stmt,isa 1
;----------------------------------------------------------------------
; 260 | uitoa(cmnd_len, cmnd_len_array_temp, 3);                               
;----------------------------------------------------------------------
        LDRH      A1, [SP, #158]        ; [DPU_3_PIPE] |260| 
        ADD       A2, SP, #140          ; [DPU_3_PIPE] |260| 
        MOVS      A3, #3                ; [DPU_3_PIPE] |260| 
$C$DW$184	.dwtag  DW_TAG_TI_branch
	.dwattr $C$DW$184, DW_AT_low_pc(0x00)
	.dwattr $C$DW$184, DW_AT_name("uitoa")
	.dwattr $C$DW$184, DW_AT_TI_call
        BL        uitoa                 ; [DPU_3_PIPE] |260| 
        ; CALL OCCURS {uitoa }           ; [] |260| 
	.dwpsn	file "../esp8266.c",line 261,column 2,is_stmt,isa 1
;----------------------------------------------------------------------
; 261 | strcpy(cmnd_len_array, SEND_AT_CIPSEND);                               
;----------------------------------------------------------------------
        ADD       A1, SP, #124          ; [DPU_3_PIPE] |261| 
        ADR       A2, $C$SL10           ; [DPU_3_PIPE] |261| 
$C$DW$185	.dwtag  DW_TAG_TI_branch
	.dwattr $C$DW$185, DW_AT_low_pc(0x00)
	.dwattr $C$DW$185, DW_AT_name("strcpy")
	.dwattr $C$DW$185, DW_AT_TI_call
        BL        strcpy                ; [DPU_3_PIPE] |261| 
        ; CALL OCCURS {strcpy }          ; [] |261| 
	.dwpsn	file "../esp8266.c",line 262,column 2,is_stmt,isa 1
;----------------------------------------------------------------------
; 262 | strcat(cmnd_len_array, cmnd_len_array_temp);                           
;----------------------------------------------------------------------
        ADD       A1, SP, #124          ; [DPU_3_PIPE] |262| 
        ADD       A2, SP, #140          ; [DPU_3_PIPE] |262| 
$C$DW$186	.dwtag  DW_TAG_TI_branch
	.dwattr $C$DW$186, DW_AT_low_pc(0x00)
	.dwattr $C$DW$186, DW_AT_name("strcat")
	.dwattr $C$DW$186, DW_AT_TI_call
        BL        strcat                ; [DPU_3_PIPE] |262| 
        ; CALL OCCURS {strcat }          ; [] |262| 
	.dwpsn	file "../esp8266.c",line 264,column 2,is_stmt,isa 1
;----------------------------------------------------------------------
; 264 | uart_send(CONNECT_TO_THINGSPEAK);                                      
;----------------------------------------------------------------------
        ADR       A1, $C$SL11           ; [DPU_3_PIPE] |264| 
$C$DW$187	.dwtag  DW_TAG_TI_branch
	.dwattr $C$DW$187, DW_AT_low_pc(0x00)
	.dwattr $C$DW$187, DW_AT_name("uart_send")
	.dwattr $C$DW$187, DW_AT_TI_call
        BL        uart_send             ; [DPU_3_PIPE] |264| 
        ; CALL OCCURS {uart_send }       ; [] |264| 
	.dwpsn	file "../esp8266.c",line 265,column 2,is_stmt,isa 1
;----------------------------------------------------------------------
; 265 | SysCtlDelay(SysCtlClockGet());                                         
;----------------------------------------------------------------------
$C$DW$188	.dwtag  DW_TAG_TI_branch
	.dwattr $C$DW$188, DW_AT_low_pc(0x00)
	.dwattr $C$DW$188, DW_AT_name("SysCtlClockGet")
	.dwattr $C$DW$188, DW_AT_TI_call
        BL        SysCtlClockGet        ; [DPU_3_PIPE] |265| 
        ; CALL OCCURS {SysCtlClockGet }  ; [] |265| 
$C$DW$189	.dwtag  DW_TAG_TI_branch
	.dwattr $C$DW$189, DW_AT_low_pc(0x00)
	.dwattr $C$DW$189, DW_AT_name("SysCtlDelay")
	.dwattr $C$DW$189, DW_AT_TI_call
        BL        SysCtlDelay           ; [DPU_3_PIPE] |265| 
        ; CALL OCCURS {SysCtlDelay }     ; [] |265| 
	.dwpsn	file "../esp8266.c",line 266,column 2,is_stmt,isa 1
;----------------------------------------------------------------------
; 266 | SysCtlDelay(SysCtlClockGet());                                         
;----------------------------------------------------------------------
$C$DW$190	.dwtag  DW_TAG_TI_branch
	.dwattr $C$DW$190, DW_AT_low_pc(0x00)
	.dwattr $C$DW$190, DW_AT_name("SysCtlClockGet")
	.dwattr $C$DW$190, DW_AT_TI_call
        BL        SysCtlClockGet        ; [DPU_3_PIPE] |266| 
        ; CALL OCCURS {SysCtlClockGet }  ; [] |266| 
$C$DW$191	.dwtag  DW_TAG_TI_branch
	.dwattr $C$DW$191, DW_AT_low_pc(0x00)
	.dwattr $C$DW$191, DW_AT_name("SysCtlDelay")
	.dwattr $C$DW$191, DW_AT_TI_call
        BL        SysCtlDelay           ; [DPU_3_PIPE] |266| 
        ; CALL OCCURS {SysCtlDelay }     ; [] |266| 
	.dwpsn	file "../esp8266.c",line 267,column 2,is_stmt,isa 1
;----------------------------------------------------------------------
; 267 | SysCtlDelay(SysCtlClockGet());                                         
;----------------------------------------------------------------------
$C$DW$192	.dwtag  DW_TAG_TI_branch
	.dwattr $C$DW$192, DW_AT_low_pc(0x00)
	.dwattr $C$DW$192, DW_AT_name("SysCtlClockGet")
	.dwattr $C$DW$192, DW_AT_TI_call
        BL        SysCtlClockGet        ; [DPU_3_PIPE] |267| 
        ; CALL OCCURS {SysCtlClockGet }  ; [] |267| 
$C$DW$193	.dwtag  DW_TAG_TI_branch
	.dwattr $C$DW$193, DW_AT_low_pc(0x00)
	.dwattr $C$DW$193, DW_AT_name("SysCtlDelay")
	.dwattr $C$DW$193, DW_AT_TI_call
        BL        SysCtlDelay           ; [DPU_3_PIPE] |267| 
        ; CALL OCCURS {SysCtlDelay }     ; [] |267| 
	.dwpsn	file "../esp8266.c",line 268,column 2,is_stmt,isa 1
;----------------------------------------------------------------------
; 268 | cmnd_len_array[14] = '\0';                                             
;----------------------------------------------------------------------
        MOVS      A1, #0                ; [DPU_3_PIPE] |268| 
        STRB      A1, [SP, #138]        ; [DPU_3_PIPE] |268| 
	.dwpsn	file "../esp8266.c",line 269,column 2,is_stmt,isa 1
;----------------------------------------------------------------------
; 269 | result = esp8266_send(cmnd_len_array, CMD_LENGTH_CONFIRMATION);        
;----------------------------------------------------------------------
        ADR       A2, $C$SL12           ; [DPU_3_PIPE] |269| 
        ADD       A1, SP, #124          ; [DPU_3_PIPE] |269| 
$C$DW$194	.dwtag  DW_TAG_TI_branch
	.dwattr $C$DW$194, DW_AT_low_pc(0x00)
	.dwattr $C$DW$194, DW_AT_name("esp8266_send")
	.dwattr $C$DW$194, DW_AT_TI_call
        BL        esp8266_send          ; [DPU_3_PIPE] |269| 
        ; CALL OCCURS {esp8266_send }    ; [] |269| 
;* --------------------------------------------------------------------------*
        STRB      A1, [SP, #156]        ; [DPU_3_PIPE] |269| 
	.dwpsn	file "../esp8266.c",line 270,column 2,is_stmt,isa 1
;----------------------------------------------------------------------
; 270 | if(!result)                                                            
; 272 | #ifdef DEBUG                                                           
;----------------------------------------------------------------------
        LDRB      A1, [SP, #156]        ; [DPU_3_PIPE] |270| 
        CBNZ      A1, ||$C$L24||        ; [] 
        ; BRANCHCC OCCURS {||$C$L24||}   ; [] |270| 
;* --------------------------------------------------------------------------*
	.dwpsn	file "../esp8266.c",line 273,column 3,is_stmt,isa 1
;----------------------------------------------------------------------
; 273 | LOGprintf("Failed to send: %s\n", cmnd_len_array);                     
; 274 | #endif                                                                 
;----------------------------------------------------------------------
        ADR       A1, $C$SL13           ; [DPU_3_PIPE] |273| 
        ADD       A2, SP, #124          ; [DPU_3_PIPE] |273| 
$C$DW$195	.dwtag  DW_TAG_TI_branch
	.dwattr $C$DW$195, DW_AT_low_pc(0x00)
	.dwattr $C$DW$195, DW_AT_name("LOGprintf")
	.dwattr $C$DW$195, DW_AT_TI_call
        BL        LOGprintf             ; [DPU_3_PIPE] |273| 
        ; CALL OCCURS {LOGprintf }       ; [] |273| 
	.dwpsn	file "../esp8266.c",line 275,column 6,is_stmt,isa 1
;----------------------------------------------------------------------
; 275 | esp8266_reset();                                                       
;----------------------------------------------------------------------
$C$DW$196	.dwtag  DW_TAG_TI_branch
	.dwattr $C$DW$196, DW_AT_low_pc(0x00)
	.dwattr $C$DW$196, DW_AT_name("esp8266_reset")
	.dwattr $C$DW$196, DW_AT_TI_call
        BL        esp8266_reset         ; [DPU_3_PIPE] |275| 
        ; CALL OCCURS {esp8266_reset }   ; [] |275| 
	.dwpsn	file "../esp8266.c",line 276,column 5,is_stmt,isa 1
;----------------------------------------------------------------------
; 276 | return 0;                                                              
;----------------------------------------------------------------------
        MOVS      A1, #0                ; [DPU_3_PIPE] |276| 
        B         ||$C$L26||            ; [DPU_3_PIPE] |276| 
        ; BRANCH OCCURS {||$C$L26||}     ; [] |276| 
;* --------------------------------------------------------------------------*
||$C$L24||:    
	.dwpsn	file "../esp8266.c",line 278,column 2,is_stmt,isa 1
;----------------------------------------------------------------------
; 278 | result = esp8266_send(cmnd, CMD_CONFIRMATION);                         
;----------------------------------------------------------------------
        ADD       A1, SP, #16           ; [DPU_3_PIPE] |278| 
        ADR       A2, $C$SL14           ; [DPU_3_PIPE] |278| 
$C$DW$197	.dwtag  DW_TAG_TI_branch
	.dwattr $C$DW$197, DW_AT_low_pc(0x00)
	.dwattr $C$DW$197, DW_AT_name("esp8266_send")
	.dwattr $C$DW$197, DW_AT_TI_call
        BL        esp8266_send          ; [DPU_3_PIPE] |278| 
        ; CALL OCCURS {esp8266_send }    ; [] |278| 
        STRB      A1, [SP, #156]        ; [DPU_3_PIPE] |278| 
	.dwpsn	file "../esp8266.c",line 279,column 2,is_stmt,isa 1
;----------------------------------------------------------------------
; 279 | if(!result)                                                            
; 281 | #ifdef DEBUG                                                           
;----------------------------------------------------------------------
        LDRB      A1, [SP, #156]        ; [DPU_3_PIPE] |279| 
        CBNZ      A1, ||$C$L25||        ; [] 
        ; BRANCHCC OCCURS {||$C$L25||}   ; [] |279| 
;* --------------------------------------------------------------------------*
	.dwpsn	file "../esp8266.c",line 282,column 3,is_stmt,isa 1
;----------------------------------------------------------------------
; 282 | LOGprintf("Failed to send cmnd\n");                                    
;----------------------------------------------------------------------
        ADR       A1, $C$SL15           ; [DPU_3_PIPE] |282| 
$C$DW$198	.dwtag  DW_TAG_TI_branch
	.dwattr $C$DW$198, DW_AT_low_pc(0x00)
	.dwattr $C$DW$198, DW_AT_name("LOGprintf")
	.dwattr $C$DW$198, DW_AT_TI_call
        BL        LOGprintf             ; [DPU_3_PIPE] |282| 
        ; CALL OCCURS {LOGprintf }       ; [] |282| 
	.dwpsn	file "../esp8266.c",line 283,column 3,is_stmt,isa 1
;----------------------------------------------------------------------
; 283 | LOGprintf("%s", cmnd);                                                 
; 284 | #endif                                                                 
;----------------------------------------------------------------------
        ADR       A1, $C$SL16           ; [DPU_3_PIPE] |283| 
        ADD       A2, SP, #16           ; [DPU_3_PIPE] |283| 
$C$DW$199	.dwtag  DW_TAG_TI_branch
	.dwattr $C$DW$199, DW_AT_low_pc(0x00)
	.dwattr $C$DW$199, DW_AT_name("LOGprintf")
	.dwattr $C$DW$199, DW_AT_TI_call
        BL        LOGprintf             ; [DPU_3_PIPE] |283| 
        ; CALL OCCURS {LOGprintf }       ; [] |283| 
	.dwpsn	file "../esp8266.c",line 285,column 6,is_stmt,isa 1
;----------------------------------------------------------------------
; 285 | esp8266_reset();                                                       
;----------------------------------------------------------------------
$C$DW$200	.dwtag  DW_TAG_TI_branch
	.dwattr $C$DW$200, DW_AT_low_pc(0x00)
	.dwattr $C$DW$200, DW_AT_name("esp8266_reset")
	.dwattr $C$DW$200, DW_AT_TI_call
        BL        esp8266_reset         ; [DPU_3_PIPE] |285| 
        ; CALL OCCURS {esp8266_reset }   ; [] |285| 
	.dwpsn	file "../esp8266.c",line 286,column 5,is_stmt,isa 1
;----------------------------------------------------------------------
; 286 | return 0;                                                              
;----------------------------------------------------------------------
        MOVS      A1, #0                ; [DPU_3_PIPE] |286| 
        B         ||$C$L26||            ; [DPU_3_PIPE] |286| 
        ; BRANCH OCCURS {||$C$L26||}     ; [] |286| 
;* --------------------------------------------------------------------------*
||$C$L25||:    
	.dwpsn	file "../esp8266.c",line 288,column 2,is_stmt,isa 1
;----------------------------------------------------------------------
; 288 | return 1;                                                              
;----------------------------------------------------------------------
        MOVS      A1, #1                ; [DPU_3_PIPE] |288| 
;* --------------------------------------------------------------------------*
||$C$L26||:    
	.dwpsn	file "../esp8266.c",line 289,column 1,is_stmt,isa 1
        ADD       SP, SP, #160          ; [DPU_3_PIPE] 
	.dwcfi	cfa_offset, 8
$C$DW$201	.dwtag  DW_TAG_TI_branch
	.dwattr $C$DW$201, DW_AT_low_pc(0x00)
	.dwattr $C$DW$201, DW_AT_TI_return
        POP       {V4, PC}              ; [DPU_3_PIPE] 
	.dwcfi	cfa_offset, 0
        ; BRANCH OCCURS                  ; [] 
	.dwattr $C$DW$145, DW_AT_TI_end_file("../esp8266.c")
	.dwattr $C$DW$145, DW_AT_TI_end_line(0x121)
	.dwattr $C$DW$145, DW_AT_TI_end_column(0x01)
	.dwendentry
	.dwendtag $C$DW$145

	.sect	".text:setESP8266ResetPin"
	.clink
	.thumbfunc setESP8266ResetPin
	.thumb
	.global	setESP8266ResetPin

$C$DW$202	.dwtag  DW_TAG_subprogram, DW_AT_name("setESP8266ResetPin")
	.dwattr $C$DW$202, DW_AT_low_pc(setESP8266ResetPin)
	.dwattr $C$DW$202, DW_AT_high_pc(0x00)
	.dwattr $C$DW$202, DW_AT_TI_symbol_name("setESP8266ResetPin")
	.dwattr $C$DW$202, DW_AT_external
	.dwattr $C$DW$202, DW_AT_TI_begin_file("../esp8266.c")
	.dwattr $C$DW$202, DW_AT_TI_begin_line(0x123)
	.dwattr $C$DW$202, DW_AT_TI_begin_column(0x06)
	.dwattr $C$DW$202, DW_AT_decl_file("../esp8266.c")
	.dwattr $C$DW$202, DW_AT_decl_line(0x123)
	.dwattr $C$DW$202, DW_AT_decl_column(0x06)
	.dwattr $C$DW$202, DW_AT_TI_max_frame_size(0x08)
	.dwpsn	file "../esp8266.c",line 292,column 1,is_stmt,address setESP8266ResetPin,isa 1

	.dwfde $C$DW$CIE, setESP8266ResetPin
;----------------------------------------------------------------------
; 291 | void setESP8266ResetPin()                                              
;----------------------------------------------------------------------

;*****************************************************************************
;* FUNCTION NAME: setESP8266ResetPin                                         *
;*                                                                           *
;*   Regs Modified     : A1,A2,A3,A4,V9,SP,LR,SR,D0,D0_hi,D1,D1_hi,D2,D2_hi, *
;*                           D3,D3_hi,D4,D4_hi,D5,D5_hi,D6,D6_hi,D7,D7_hi,   *
;*                           FPEXC,FPSCR                                     *
;*   Regs Used         : A1,A2,A3,A4,V9,SP,LR,SR,D0,D0_hi,D1,D1_hi,D2,D2_hi, *
;*                           D3,D3_hi,D4,D4_hi,D5,D5_hi,D6,D6_hi,D7,D7_hi,   *
;*                           FPEXC,FPSCR                                     *
;*   Local Frame Size  : 0 Args + 0 Auto + 4 Save = 4 byte                   *
;*****************************************************************************
setESP8266ResetPin:
;* --------------------------------------------------------------------------*
	.dwcfi	cfa_offset, 0
        PUSH      {A4, LR}              ; [DPU_3_PIPE] 
	.dwcfi	cfa_offset, 8
	.dwcfi	save_reg_to_mem, 14, -4
	.dwcfi	save_reg_to_mem, 3, -8
	.dwpsn	file "../esp8266.c",line 293,column 2,is_stmt,isa 1
;----------------------------------------------------------------------
; 293 | SysCtlPeripheralEnable(SYSCTL_PERIPH_GPIOE);                           
;----------------------------------------------------------------------
        LDR       A1, $C$CON9           ; [DPU_3_PIPE] |293| 
$C$DW$203	.dwtag  DW_TAG_TI_branch
	.dwattr $C$DW$203, DW_AT_low_pc(0x00)
	.dwattr $C$DW$203, DW_AT_name("SysCtlPeripheralEnable")
	.dwattr $C$DW$203, DW_AT_TI_call
        BL        SysCtlPeripheralEnable ; [DPU_3_PIPE] |293| 
        ; CALL OCCURS {SysCtlPeripheralEnable }  ; [] |293| 
	.dwpsn	file "../esp8266.c",line 294,column 2,is_stmt,isa 1
;----------------------------------------------------------------------
; 294 | GPIOPinTypeGPIOOutput(GPIO_PORTE_BASE, GPIO_PIN_3);                    
;----------------------------------------------------------------------
        LDR       A1, $C$CON10          ; [DPU_3_PIPE] |294| 
        MOVS      A2, #8                ; [DPU_3_PIPE] |294| 
$C$DW$204	.dwtag  DW_TAG_TI_branch
	.dwattr $C$DW$204, DW_AT_low_pc(0x00)
	.dwattr $C$DW$204, DW_AT_name("GPIOPinTypeGPIOOutput")
	.dwattr $C$DW$204, DW_AT_TI_call
        BL        GPIOPinTypeGPIOOutput ; [DPU_3_PIPE] |294| 
        ; CALL OCCURS {GPIOPinTypeGPIOOutput }  ; [] |294| 
	.dwpsn	file "../esp8266.c",line 295,column 2,is_stmt,isa 1
;----------------------------------------------------------------------
; 295 | GPIOPinWrite(GPIO_PORTE_BASE, GPIO_PIN_3, GPIO_PIN_3);                 
;----------------------------------------------------------------------
        LDR       A1, $C$CON10          ; [DPU_3_PIPE] |295| 
        MOVS      A2, #8                ; [DPU_3_PIPE] |295| 
        MOVS      A3, #8                ; [DPU_3_PIPE] |295| 
$C$DW$205	.dwtag  DW_TAG_TI_branch
	.dwattr $C$DW$205, DW_AT_low_pc(0x00)
	.dwattr $C$DW$205, DW_AT_name("GPIOPinWrite")
	.dwattr $C$DW$205, DW_AT_TI_call
        BL        GPIOPinWrite          ; [DPU_3_PIPE] |295| 
        ; CALL OCCURS {GPIOPinWrite }    ; [] |295| 
	.dwpsn	file "../esp8266.c",line 296,column 1,is_stmt,isa 1
$C$DW$206	.dwtag  DW_TAG_TI_branch
	.dwattr $C$DW$206, DW_AT_low_pc(0x00)
	.dwattr $C$DW$206, DW_AT_TI_return
        POP       {A4, PC}              ; [DPU_3_PIPE] 
	.dwcfi	cfa_offset, 0
        ; BRANCH OCCURS                  ; [] 
	.dwattr $C$DW$202, DW_AT_TI_end_file("../esp8266.c")
	.dwattr $C$DW$202, DW_AT_TI_end_line(0x128)
	.dwattr $C$DW$202, DW_AT_TI_end_column(0x01)
	.dwendentry
	.dwendtag $C$DW$202

	.sect	".text:init_esp8266"
	.clink
	.thumbfunc init_esp8266
	.thumb
	.global	init_esp8266

$C$DW$207	.dwtag  DW_TAG_subprogram, DW_AT_name("init_esp8266")
	.dwattr $C$DW$207, DW_AT_low_pc(init_esp8266)
	.dwattr $C$DW$207, DW_AT_high_pc(0x00)
	.dwattr $C$DW$207, DW_AT_TI_symbol_name("init_esp8266")
	.dwattr $C$DW$207, DW_AT_external
	.dwattr $C$DW$207, DW_AT_type(*$C$DW$T$30)
	.dwattr $C$DW$207, DW_AT_TI_begin_file("../esp8266.c")
	.dwattr $C$DW$207, DW_AT_TI_begin_line(0x12b)
	.dwattr $C$DW$207, DW_AT_TI_begin_column(0x09)
	.dwattr $C$DW$207, DW_AT_decl_file("../esp8266.c")
	.dwattr $C$DW$207, DW_AT_decl_line(0x12b)
	.dwattr $C$DW$207, DW_AT_decl_column(0x09)
	.dwattr $C$DW$207, DW_AT_TI_max_frame_size(0x08)
	.dwpsn	file "../esp8266.c",line 300,column 1,is_stmt,address init_esp8266,isa 1

	.dwfde $C$DW$CIE, init_esp8266
;----------------------------------------------------------------------
; 299 | uint8_t init_esp8266()                                                 
;----------------------------------------------------------------------

;*****************************************************************************
;* FUNCTION NAME: init_esp8266                                               *
;*                                                                           *
;*   Regs Modified     : A1,A2,A3,A4,V9,SP,LR,SR,D0,D0_hi,D1,D1_hi,D2,D2_hi, *
;*                           D3,D3_hi,D4,D4_hi,D5,D5_hi,D6,D6_hi,D7,D7_hi,   *
;*                           FPEXC,FPSCR                                     *
;*   Regs Used         : A1,A2,A3,A4,V9,SP,LR,SR,D0,D0_hi,D1,D1_hi,D2,D2_hi, *
;*                           D3,D3_hi,D4,D4_hi,D5,D5_hi,D6,D6_hi,D7,D7_hi,   *
;*                           FPEXC,FPSCR                                     *
;*   Local Frame Size  : 0 Args + 4 Auto + 4 Save = 8 byte                   *
;*****************************************************************************
init_esp8266:
;* --------------------------------------------------------------------------*
	.dwcfi	cfa_offset, 0
        PUSH      {A4, LR}              ; [DPU_3_PIPE] 
	.dwcfi	cfa_offset, 8
	.dwcfi	save_reg_to_mem, 14, -4
	.dwcfi	save_reg_to_mem, 3, -8
$C$DW$208	.dwtag  DW_TAG_variable, DW_AT_name("result")
	.dwattr $C$DW$208, DW_AT_TI_symbol_name("result")
	.dwattr $C$DW$208, DW_AT_type(*$C$DW$T$10)
	.dwattr $C$DW$208, DW_AT_location[DW_OP_breg13 0]
	.dwpsn	file "../esp8266.c",line 301,column 12,is_stmt,isa 1
;----------------------------------------------------------------------
; 301 | int result=1;                                                          
;----------------------------------------------------------------------
        MOVS      A1, #1                ; [DPU_3_PIPE] |301| 
        STR       A1, [SP, #0]          ; [DPU_3_PIPE] |301| 
	.dwpsn	file "../esp8266.c",line 303,column 2,is_stmt,isa 1
;----------------------------------------------------------------------
; 303 | SysCtlPeripheralEnable(SYSCTL_PERIPH_UART5);                           
;----------------------------------------------------------------------
        LDR       A1, $C$CON11          ; [DPU_3_PIPE] |303| 
$C$DW$209	.dwtag  DW_TAG_TI_branch
	.dwattr $C$DW$209, DW_AT_low_pc(0x00)
	.dwattr $C$DW$209, DW_AT_name("SysCtlPeripheralEnable")
	.dwattr $C$DW$209, DW_AT_TI_call
        BL        SysCtlPeripheralEnable ; [DPU_3_PIPE] |303| 
        ; CALL OCCURS {SysCtlPeripheralEnable }  ; [] |303| 
	.dwpsn	file "../esp8266.c",line 304,column 5,is_stmt,isa 1
;----------------------------------------------------------------------
; 304 | SysCtlPeripheralEnable(SYSCTL_PERIPH_GPIOE);                           
;----------------------------------------------------------------------
        LDR       A1, $C$CON12          ; [DPU_3_PIPE] |304| 
$C$DW$210	.dwtag  DW_TAG_TI_branch
	.dwattr $C$DW$210, DW_AT_low_pc(0x00)
	.dwattr $C$DW$210, DW_AT_name("SysCtlPeripheralEnable")
	.dwattr $C$DW$210, DW_AT_TI_call
        BL        SysCtlPeripheralEnable ; [DPU_3_PIPE] |304| 
        ; CALL OCCURS {SysCtlPeripheralEnable }  ; [] |304| 
	.dwpsn	file "../esp8266.c",line 305,column 5,is_stmt,isa 1
;----------------------------------------------------------------------
; 305 | GPIOPinConfigure(GPIO_PE4_U5RX);                                       
;----------------------------------------------------------------------
        LDR       A1, $C$CON13          ; [DPU_3_PIPE] |305| 
$C$DW$211	.dwtag  DW_TAG_TI_branch
	.dwattr $C$DW$211, DW_AT_low_pc(0x00)
	.dwattr $C$DW$211, DW_AT_name("GPIOPinConfigure")
	.dwattr $C$DW$211, DW_AT_TI_call
        BL        GPIOPinConfigure      ; [DPU_3_PIPE] |305| 
        ; CALL OCCURS {GPIOPinConfigure }  ; [] |305| 
	.dwpsn	file "../esp8266.c",line 306,column 5,is_stmt,isa 1
;----------------------------------------------------------------------
; 306 | GPIOPinConfigure(GPIO_PE5_U5TX);                                       
;----------------------------------------------------------------------
        LDR       A1, $C$CON14          ; [DPU_3_PIPE] |306| 
$C$DW$212	.dwtag  DW_TAG_TI_branch
	.dwattr $C$DW$212, DW_AT_low_pc(0x00)
	.dwattr $C$DW$212, DW_AT_name("GPIOPinConfigure")
	.dwattr $C$DW$212, DW_AT_TI_call
        BL        GPIOPinConfigure      ; [DPU_3_PIPE] |306| 
        ; CALL OCCURS {GPIOPinConfigure }  ; [] |306| 
	.dwpsn	file "../esp8266.c",line 307,column 5,is_stmt,isa 1
;----------------------------------------------------------------------
; 307 | GPIOPinTypeUART(GPIO_PORTE_BASE, GPIO_PIN_4 | GPIO_PIN_5);             
;----------------------------------------------------------------------
        LDR       A1, $C$CON15          ; [DPU_3_PIPE] |307| 
        MOVS      A2, #48               ; [DPU_3_PIPE] |307| 
$C$DW$213	.dwtag  DW_TAG_TI_branch
	.dwattr $C$DW$213, DW_AT_low_pc(0x00)
	.dwattr $C$DW$213, DW_AT_name("GPIOPinTypeUART")
	.dwattr $C$DW$213, DW_AT_TI_call
        BL        GPIOPinTypeUART       ; [DPU_3_PIPE] |307| 
        ; CALL OCCURS {GPIOPinTypeUART }  ; [] |307| 
	.dwpsn	file "../esp8266.c",line 308,column 5,is_stmt,isa 1
;----------------------------------------------------------------------
; 308 | UARTConfigSetExpClk(UART5_BASE, SysCtlClockGet(), 9600,                
; 309 |                         (UART_CONFIG_WLEN_8 | UART_CONFIG_STOP_ONE |   
; 310 |                          UART_CONFIG_PAR_NONE));                       
;----------------------------------------------------------------------
$C$DW$214	.dwtag  DW_TAG_TI_branch
	.dwattr $C$DW$214, DW_AT_low_pc(0x00)
	.dwattr $C$DW$214, DW_AT_name("SysCtlClockGet")
	.dwattr $C$DW$214, DW_AT_TI_call
        BL        SysCtlClockGet        ; [DPU_3_PIPE] |308| 
        ; CALL OCCURS {SysCtlClockGet }  ; [] |308| 
        MOV       A2, A1                ; [DPU_3_PIPE] |308| 
        LDR       A1, $C$CON16          ; [DPU_3_PIPE] |308| 
        MOV       A3, #9600             ; [DPU_3_PIPE] |308| 
        MOVS      A4, #96               ; [DPU_3_PIPE] |308| 
$C$DW$215	.dwtag  DW_TAG_TI_branch
	.dwattr $C$DW$215, DW_AT_low_pc(0x00)
	.dwattr $C$DW$215, DW_AT_name("UARTConfigSetExpClk")
	.dwattr $C$DW$215, DW_AT_TI_call
        BL        UARTConfigSetExpClk   ; [DPU_3_PIPE] |308| 
        ; CALL OCCURS {UARTConfigSetExpClk }  ; [] |308| 
	.dwpsn	file "../esp8266.c",line 311,column 5,is_stmt,isa 1
;----------------------------------------------------------------------
; 311 | setESP8266ResetPin();                                                  
;----------------------------------------------------------------------
$C$DW$216	.dwtag  DW_TAG_TI_branch
	.dwattr $C$DW$216, DW_AT_low_pc(0x00)
	.dwattr $C$DW$216, DW_AT_name("setESP8266ResetPin")
	.dwattr $C$DW$216, DW_AT_TI_call
        BL        setESP8266ResetPin    ; [DPU_3_PIPE] |311| 
        ; CALL OCCURS {setESP8266ResetPin }  ; [] |311| 
	.dwpsn	file "../esp8266.c",line 312,column 5,is_stmt,isa 1
;----------------------------------------------------------------------
; 312 | uart_send(CLIENT_MODE_CMD);                                            
;----------------------------------------------------------------------
        ADR       A1, $C$SL17           ; [DPU_3_PIPE] |312| 
$C$DW$217	.dwtag  DW_TAG_TI_branch
	.dwattr $C$DW$217, DW_AT_low_pc(0x00)
	.dwattr $C$DW$217, DW_AT_name("uart_send")
	.dwattr $C$DW$217, DW_AT_TI_call
        BL        uart_send             ; [DPU_3_PIPE] |312| 
        ; CALL OCCURS {uart_send }       ; [] |312| 
	.dwpsn	file "../esp8266.c",line 313,column 2,is_stmt,isa 1
;----------------------------------------------------------------------
; 313 | SysCtlDelay(SysCtlClockGet()/3);                                       
; 314 | //uart_send(CONNECT_TO_AP);                                            
;----------------------------------------------------------------------
$C$DW$218	.dwtag  DW_TAG_TI_branch
	.dwattr $C$DW$218, DW_AT_low_pc(0x00)
	.dwattr $C$DW$218, DW_AT_name("SysCtlClockGet")
	.dwattr $C$DW$218, DW_AT_TI_call
        BL        SysCtlClockGet        ; [DPU_3_PIPE] |313| 
        ; CALL OCCURS {SysCtlClockGet }  ; [] |313| 
        MOVS      A2, #3                ; [DPU_3_PIPE] |313| 
        UDIV      A1, A1, A2            ; [DPU_3_PIPE] |313| 
$C$DW$219	.dwtag  DW_TAG_TI_branch
	.dwattr $C$DW$219, DW_AT_low_pc(0x00)
	.dwattr $C$DW$219, DW_AT_name("SysCtlDelay")
	.dwattr $C$DW$219, DW_AT_TI_call
        BL        SysCtlDelay           ; [DPU_3_PIPE] |313| 
        ; CALL OCCURS {SysCtlDelay }     ; [] |313| 
;* --------------------------------------------------------------------------*
	.dwpsn	file "../esp8266.c",line 315,column 2,is_stmt,isa 1
;----------------------------------------------------------------------
; 315 | esp8266_send(CONNECT_TO_AP, CONNECT_TO_AP_CONFIRMATION);               
; 316 | //LOGprintf("InitESP:%s\n",serialResponse);                            
; 317 | //SysCtlDelay(SysCtlClockGet()/3);                                     
;----------------------------------------------------------------------
        ADR       A1, $C$SL18           ; [DPU_3_PIPE] |315| 
        ADR       A2, $C$SL19           ; [DPU_3_PIPE] |315| 
$C$DW$220	.dwtag  DW_TAG_TI_branch
	.dwattr $C$DW$220, DW_AT_low_pc(0x00)
	.dwattr $C$DW$220, DW_AT_name("esp8266_send")
	.dwattr $C$DW$220, DW_AT_TI_call
        BL        esp8266_send          ; [DPU_3_PIPE] |315| 
        ; CALL OCCURS {esp8266_send }    ; [] |315| 
	.dwpsn	file "../esp8266.c",line 318,column 2,is_stmt,isa 1
;----------------------------------------------------------------------
; 318 | return result;                                                         
;----------------------------------------------------------------------
        LDRB      A1, [SP, #0]          ; [DPU_3_PIPE] |318| 
	.dwpsn	file "../esp8266.c",line 319,column 1,is_stmt,isa 1
$C$DW$221	.dwtag  DW_TAG_TI_branch
	.dwattr $C$DW$221, DW_AT_low_pc(0x00)
	.dwattr $C$DW$221, DW_AT_TI_return
        POP       {A4, PC}              ; [DPU_3_PIPE] 
	.dwcfi	cfa_offset, 0
        ; BRANCH OCCURS                  ; [] 
	.dwattr $C$DW$207, DW_AT_TI_end_file("../esp8266.c")
	.dwattr $C$DW$207, DW_AT_TI_end_line(0x13f)
	.dwattr $C$DW$207, DW_AT_TI_end_column(0x01)
	.dwendentry
	.dwendtag $C$DW$207

	.sect	".text:parseIPD"
	.clink
	.thumbfunc parseIPD
	.thumb
	.global	parseIPD

$C$DW$222	.dwtag  DW_TAG_subprogram, DW_AT_name("parseIPD")
	.dwattr $C$DW$222, DW_AT_low_pc(parseIPD)
	.dwattr $C$DW$222, DW_AT_high_pc(0x00)
	.dwattr $C$DW$222, DW_AT_TI_symbol_name("parseIPD")
	.dwattr $C$DW$222, DW_AT_external
	.dwattr $C$DW$222, DW_AT_type(*$C$DW$T$10)
	.dwattr $C$DW$222, DW_AT_TI_begin_file("../esp8266.c")
	.dwattr $C$DW$222, DW_AT_TI_begin_line(0x141)
	.dwattr $C$DW$222, DW_AT_TI_begin_column(0x05)
	.dwattr $C$DW$222, DW_AT_decl_file("../esp8266.c")
	.dwattr $C$DW$222, DW_AT_decl_line(0x141)
	.dwattr $C$DW$222, DW_AT_decl_column(0x05)
	.dwattr $C$DW$222, DW_AT_TI_max_frame_size(0x20)
	.dwpsn	file "../esp8266.c",line 322,column 1,is_stmt,address parseIPD,isa 1

	.dwfde $C$DW$CIE, parseIPD
$C$DW$223	.dwtag  DW_TAG_formal_parameter, DW_AT_name("ipdMsg")
	.dwattr $C$DW$223, DW_AT_TI_symbol_name("ipdMsg")
	.dwattr $C$DW$223, DW_AT_type(*$C$DW$T$42)
	.dwattr $C$DW$223, DW_AT_location[DW_OP_reg0]
$C$DW$224	.dwtag  DW_TAG_formal_parameter, DW_AT_name("parsedReply")
	.dwattr $C$DW$224, DW_AT_TI_symbol_name("parsedReply")
	.dwattr $C$DW$224, DW_AT_type(*$C$DW$T$42)
	.dwattr $C$DW$224, DW_AT_location[DW_OP_reg1]
;----------------------------------------------------------------------
; 321 | int parseIPD(char* ipdMsg, char* parsedReply)                          
;----------------------------------------------------------------------

;*****************************************************************************
;* FUNCTION NAME: parseIPD                                                   *
;*                                                                           *
;*   Regs Modified     : A1,A2,A3,A4,V9,SP,LR,SR,D0,D0_hi,D1,D1_hi,D2,D2_hi, *
;*                           D3,D3_hi,D4,D4_hi,D5,D5_hi,D6,D6_hi,D7,D7_hi,   *
;*                           FPEXC,FPSCR                                     *
;*   Regs Used         : A1,A2,A3,A4,V9,SP,LR,SR,D0,D0_hi,D1,D1_hi,D2,D2_hi, *
;*                           D3,D3_hi,D4,D4_hi,D5,D5_hi,D6,D6_hi,D7,D7_hi,   *
;*                           FPEXC,FPSCR                                     *
;*   Local Frame Size  : 0 Args + 24 Auto + 4 Save = 28 byte                 *
;*****************************************************************************
parseIPD:
;* --------------------------------------------------------------------------*
	.dwcfi	cfa_offset, 0
        PUSH      {LR}                  ; [DPU_3_PIPE] 
	.dwcfi	cfa_offset, 4
	.dwcfi	save_reg_to_mem, 14, -4
        SUB       SP, SP, #28           ; [DPU_3_PIPE] 
	.dwcfi	cfa_offset, 32
$C$DW$225	.dwtag  DW_TAG_variable, DW_AT_name("ipdMsg")
	.dwattr $C$DW$225, DW_AT_TI_symbol_name("ipdMsg")
	.dwattr $C$DW$225, DW_AT_type(*$C$DW$T$42)
	.dwattr $C$DW$225, DW_AT_location[DW_OP_breg13 0]
$C$DW$226	.dwtag  DW_TAG_variable, DW_AT_name("parsedReply")
	.dwattr $C$DW$226, DW_AT_TI_symbol_name("parsedReply")
	.dwattr $C$DW$226, DW_AT_type(*$C$DW$T$42)
	.dwattr $C$DW$226, DW_AT_location[DW_OP_breg13 4]
$C$DW$227	.dwtag  DW_TAG_variable, DW_AT_name("pch")
	.dwattr $C$DW$227, DW_AT_TI_symbol_name("pch")
	.dwattr $C$DW$227, DW_AT_type(*$C$DW$T$42)
	.dwattr $C$DW$227, DW_AT_location[DW_OP_breg13 8]
$C$DW$228	.dwtag  DW_TAG_variable, DW_AT_name("sizeOfMsg")
	.dwattr $C$DW$228, DW_AT_TI_symbol_name("sizeOfMsg")
	.dwattr $C$DW$228, DW_AT_type(*$C$DW$T$140)
	.dwattr $C$DW$228, DW_AT_location[DW_OP_breg13 12]
$C$DW$229	.dwtag  DW_TAG_variable, DW_AT_name("sizeMsg")
	.dwattr $C$DW$229, DW_AT_TI_symbol_name("sizeMsg")
	.dwattr $C$DW$229, DW_AT_type(*$C$DW$T$10)
	.dwattr $C$DW$229, DW_AT_location[DW_OP_breg13 16]
$C$DW$230	.dwtag  DW_TAG_variable, DW_AT_name("i")
	.dwattr $C$DW$230, DW_AT_TI_symbol_name("i")
	.dwattr $C$DW$230, DW_AT_type(*$C$DW$T$10)
	.dwattr $C$DW$230, DW_AT_location[DW_OP_breg13 20]
;----------------------------------------------------------------------
; 323 | char * pch;                                                            
;----------------------------------------------------------------------
        STR       A2, [SP, #4]          ; [DPU_3_PIPE] |322| 
        STR       A1, [SP, #0]          ; [DPU_3_PIPE] |322| 
	.dwpsn	file "../esp8266.c",line 324,column 19,is_stmt,isa 1
;----------------------------------------------------------------------
; 324 | char sizeOfMsg[2]={0, 0};                                              
;----------------------------------------------------------------------
        MOVS      A3, #2                ; [DPU_3_PIPE] |324| 
        MOVS      A2, #0                ; [DPU_3_PIPE] |324| 
        ADD       A1, SP, #12           ; [DPU_3_PIPE] |324| 
$C$DW$231	.dwtag  DW_TAG_TI_branch
	.dwattr $C$DW$231, DW_AT_low_pc(0x00)
	.dwattr $C$DW$231, DW_AT_name("memset")
	.dwattr $C$DW$231, DW_AT_TI_call
        BL        memset                ; [DPU_3_PIPE] |324| 
        ; CALL OCCURS {memset }          ; [] |324| 
	.dwpsn	file "../esp8266.c",line 325,column 13,is_stmt,isa 1
;----------------------------------------------------------------------
; 325 | int sizeMsg=0;                                                         
;----------------------------------------------------------------------
        MOVS      A1, #0                ; [DPU_3_PIPE] |325| 
        STR       A1, [SP, #16]         ; [DPU_3_PIPE] |325| 
	.dwpsn	file "../esp8266.c",line 326,column 7,is_stmt,isa 1
;----------------------------------------------------------------------
; 326 | int i=0;                                                               
;----------------------------------------------------------------------
        MOVS      A1, #0                ; [DPU_3_PIPE] |326| 
        STR       A1, [SP, #20]         ; [DPU_3_PIPE] |326| 
	.dwpsn	file "../esp8266.c",line 327,column 2,is_stmt,isa 1
;----------------------------------------------------------------------
; 327 | pch = strtok (ipdMsg,",");                                             
;----------------------------------------------------------------------
        LDR       A1, [SP, #0]          ; [DPU_3_PIPE] |327| 
        ADR       A2, $C$SL20           ; [DPU_3_PIPE] |327| 
$C$DW$232	.dwtag  DW_TAG_TI_branch
	.dwattr $C$DW$232, DW_AT_low_pc(0x00)
	.dwattr $C$DW$232, DW_AT_name("strtok")
	.dwattr $C$DW$232, DW_AT_TI_call
        BL        strtok                ; [DPU_3_PIPE] |327| 
        ; CALL OCCURS {strtok }          ; [] |327| 
        STR       A1, [SP, #8]          ; [DPU_3_PIPE] |327| 
	.dwpsn	file "../esp8266.c",line 328,column 2,is_stmt,isa 1
;----------------------------------------------------------------------
; 328 | pch = strtok (NULL, ",");                                              
;----------------------------------------------------------------------
        ADR       A2, $C$SL20           ; [DPU_3_PIPE] |328| 
        MOVS      A1, #0                ; [DPU_3_PIPE] |328| 
$C$DW$233	.dwtag  DW_TAG_TI_branch
	.dwattr $C$DW$233, DW_AT_low_pc(0x00)
	.dwattr $C$DW$233, DW_AT_name("strtok")
	.dwattr $C$DW$233, DW_AT_TI_call
        BL        strtok                ; [DPU_3_PIPE] |328| 
        ; CALL OCCURS {strtok }          ; [] |328| 
        STR       A1, [SP, #8]          ; [DPU_3_PIPE] |328| 
	.dwpsn	file "../esp8266.c",line 330,column 2,is_stmt,isa 1
;----------------------------------------------------------------------
; 330 | if(isdigit(pch[0]))                                                    
;----------------------------------------------------------------------
        LDR       A1, [SP, #8]          ; [DPU_3_PIPE] |330| 
        LDRB      A1, [A1, #0]          ; [DPU_3_PIPE] |330| 
$C$DW$234	.dwtag  DW_TAG_TI_branch
	.dwattr $C$DW$234, DW_AT_low_pc(0x00)
	.dwattr $C$DW$234, DW_AT_name("isdigit")
	.dwattr $C$DW$234, DW_AT_TI_call
        BL        isdigit               ; [DPU_3_PIPE] |330| 
        ; CALL OCCURS {isdigit }         ; [] |330| 
        CBZ       A1, ||$C$L27||        ; [] 
        ; BRANCHCC OCCURS {||$C$L27||}   ; [] |330| 
;* --------------------------------------------------------------------------*
	.dwpsn	file "../esp8266.c",line 331,column 3,is_stmt,isa 1
;----------------------------------------------------------------------
; 331 | sizeOfMsg[0] = pch[0];                                                 
;----------------------------------------------------------------------
        LDR       A1, [SP, #8]          ; [DPU_3_PIPE] |331| 
        LDRB      A1, [A1, #0]          ; [DPU_3_PIPE] |331| 
        STRB      A1, [SP, #12]         ; [DPU_3_PIPE] |331| 
;* --------------------------------------------------------------------------*
||$C$L27||:    
	.dwpsn	file "../esp8266.c",line 332,column 2,is_stmt,isa 1
;----------------------------------------------------------------------
; 332 | if(isdigit(pch[1]))                                                    
;----------------------------------------------------------------------
        LDR       A1, [SP, #8]          ; [DPU_3_PIPE] |332| 
        LDRB      A1, [A1, #1]          ; [DPU_3_PIPE] |332| 
$C$DW$235	.dwtag  DW_TAG_TI_branch
	.dwattr $C$DW$235, DW_AT_low_pc(0x00)
	.dwattr $C$DW$235, DW_AT_name("isdigit")
	.dwattr $C$DW$235, DW_AT_TI_call
        BL        isdigit               ; [DPU_3_PIPE] |332| 
        ; CALL OCCURS {isdigit }         ; [] |332| 
        CBZ       A1, ||$C$L28||        ; [] 
        ; BRANCHCC OCCURS {||$C$L28||}   ; [] |332| 
;* --------------------------------------------------------------------------*
	.dwpsn	file "../esp8266.c",line 333,column 4,is_stmt,isa 1
;----------------------------------------------------------------------
; 333 | sizeOfMsg[1] = pch[1];                                                 
;----------------------------------------------------------------------
        LDR       A1, [SP, #8]          ; [DPU_3_PIPE] |333| 
        LDRB      A1, [A1, #1]          ; [DPU_3_PIPE] |333| 
        STRB      A1, [SP, #13]         ; [DPU_3_PIPE] |333| 
;* --------------------------------------------------------------------------*
||$C$L28||:    
	.dwpsn	file "../esp8266.c",line 334,column 2,is_stmt,isa 1
;----------------------------------------------------------------------
; 334 | sizeMsg = atoi(sizeOfMsg);                                             
;----------------------------------------------------------------------
        ADD       A1, SP, #12           ; [DPU_3_PIPE] |334| 
$C$DW$236	.dwtag  DW_TAG_TI_branch
	.dwattr $C$DW$236, DW_AT_low_pc(0x00)
	.dwattr $C$DW$236, DW_AT_name("atoi")
	.dwattr $C$DW$236, DW_AT_TI_call
        BL        atoi                  ; [DPU_3_PIPE] |334| 
        ; CALL OCCURS {atoi }            ; [] |334| 
        STR       A1, [SP, #16]         ; [DPU_3_PIPE] |334| 
	.dwpsn	file "../esp8266.c",line 335,column 2,is_stmt,isa 1
;----------------------------------------------------------------------
; 335 | pch = strtok (pch,":");                                                
;----------------------------------------------------------------------
        LDR       A1, [SP, #8]          ; [DPU_3_PIPE] |335| 
        ADR       A2, $C$SL21           ; [DPU_3_PIPE] |335| 
$C$DW$237	.dwtag  DW_TAG_TI_branch
	.dwattr $C$DW$237, DW_AT_low_pc(0x00)
	.dwattr $C$DW$237, DW_AT_name("strtok")
	.dwattr $C$DW$237, DW_AT_TI_call
        BL        strtok                ; [DPU_3_PIPE] |335| 
        ; CALL OCCURS {strtok }          ; [] |335| 
        STR       A1, [SP, #8]          ; [DPU_3_PIPE] |335| 
	.dwpsn	file "../esp8266.c",line 336,column 2,is_stmt,isa 1
;----------------------------------------------------------------------
; 336 | pch = strtok (NULL, ":");                                              
;----------------------------------------------------------------------
        ADR       A2, $C$SL21           ; [DPU_3_PIPE] |336| 
        MOVS      A1, #0                ; [DPU_3_PIPE] |336| 
$C$DW$238	.dwtag  DW_TAG_TI_branch
	.dwattr $C$DW$238, DW_AT_low_pc(0x00)
	.dwattr $C$DW$238, DW_AT_name("strtok")
	.dwattr $C$DW$238, DW_AT_TI_call
        BL        strtok                ; [DPU_3_PIPE] |336| 
        ; CALL OCCURS {strtok }          ; [] |336| 
        STR       A1, [SP, #8]          ; [DPU_3_PIPE] |336| 
	.dwpsn	file "../esp8266.c",line 337,column 8,is_stmt,isa 1
;----------------------------------------------------------------------
; 337 | while(i<sizeMsg)                                                       
;----------------------------------------------------------------------
        LDR       A2, [SP, #20]         ; [DPU_3_PIPE] |337| 
        LDR       A1, [SP, #16]         ; [DPU_3_PIPE] |337| 
        CMP       A1, A2                ; [DPU_3_PIPE] |337| 
        BLE       ||$C$L30||            ; [DPU_3_PIPE] |337| 
        ; BRANCHCC OCCURS {||$C$L30||}   ; [] |337| 
;* --------------------------------------------------------------------------*
;*   BEGIN LOOP ||$C$L29||
;*
;*   Loop source line                : 337
;*   Loop closing brace source line  : 341
;*   Known Minimum Trip Count        : 1
;*   Known Maximum Trip Count        : 4294967295
;*   Known Max Trip Count Factor     : 1
;* --------------------------------------------------------------------------*
||$C$L29||:    
	.dwpsn	file "../esp8266.c",line 339,column 3,is_stmt,isa 1
;----------------------------------------------------------------------
; 339 | parsedReply[i] = pch[i];                                               
;----------------------------------------------------------------------
        LDR       A1, [SP, #8]          ; [DPU_3_PIPE] |339| 
        LDR       A2, [SP, #20]         ; [DPU_3_PIPE] |339| 
        LDR       A3, [SP, #4]          ; [DPU_3_PIPE] |339| 
        LDR       A4, [SP, #20]         ; [DPU_3_PIPE] |339| 
        LDRB      A1, [A2, +A1]         ; [DPU_3_PIPE] |339| 
        STRB      A1, [A4, +A3]         ; [DPU_3_PIPE] |339| 
	.dwpsn	file "../esp8266.c",line 340,column 3,is_stmt,isa 1
;----------------------------------------------------------------------
; 340 | i++;                                                                   
;----------------------------------------------------------------------
        LDR       A1, [SP, #20]         ; [DPU_3_PIPE] |340| 
        ADDS      A1, A1, #1            ; [DPU_3_PIPE] |340| 
        STR       A1, [SP, #20]         ; [DPU_3_PIPE] |340| 
	.dwpsn	file "../esp8266.c",line 337,column 8,is_stmt,isa 1
        LDR       A1, [SP, #16]         ; [DPU_3_PIPE] |337| 
        LDR       A2, [SP, #20]         ; [DPU_3_PIPE] |337| 
        CMP       A1, A2                ; [DPU_3_PIPE] |337| 
        BGT       ||$C$L29||            ; [DPU_3_PIPE] |337| 
        ; BRANCHCC OCCURS {||$C$L29||}   ; [] |337| 
;* --------------------------------------------------------------------------*
||$C$L30||:    
	.dwpsn	file "../esp8266.c",line 342,column 2,is_stmt,isa 1
;----------------------------------------------------------------------
; 342 | return 1;                                                              
;----------------------------------------------------------------------
        MOVS      A1, #1                ; [DPU_3_PIPE] |342| 
	.dwpsn	file "../esp8266.c",line 343,column 1,is_stmt,isa 1
        ADD       SP, SP, #28           ; [DPU_3_PIPE] 
	.dwcfi	cfa_offset, 4
$C$DW$239	.dwtag  DW_TAG_TI_branch
	.dwattr $C$DW$239, DW_AT_low_pc(0x00)
	.dwattr $C$DW$239, DW_AT_TI_return
        POP       {PC}                  ; [DPU_3_PIPE] 
	.dwcfi	cfa_offset, 0
        ; BRANCH OCCURS                  ; [] 
	.dwattr $C$DW$222, DW_AT_TI_end_file("../esp8266.c")
	.dwattr $C$DW$222, DW_AT_TI_end_line(0x157)
	.dwattr $C$DW$222, DW_AT_TI_end_column(0x01)
	.dwendentry
	.dwendtag $C$DW$222

	.sect	".text:esp8266_executeTalkBack"
	.clink
	.thumbfunc esp8266_executeTalkBack
	.thumb
	.global	esp8266_executeTalkBack

$C$DW$240	.dwtag  DW_TAG_subprogram, DW_AT_name("esp8266_executeTalkBack")
	.dwattr $C$DW$240, DW_AT_low_pc(esp8266_executeTalkBack)
	.dwattr $C$DW$240, DW_AT_high_pc(0x00)
	.dwattr $C$DW$240, DW_AT_TI_symbol_name("esp8266_executeTalkBack")
	.dwattr $C$DW$240, DW_AT_external
	.dwattr $C$DW$240, DW_AT_type(*$C$DW$T$30)
	.dwattr $C$DW$240, DW_AT_TI_begin_file("../esp8266.c")
	.dwattr $C$DW$240, DW_AT_TI_begin_line(0x159)
	.dwattr $C$DW$240, DW_AT_TI_begin_column(0x09)
	.dwattr $C$DW$240, DW_AT_decl_file("../esp8266.c")
	.dwattr $C$DW$240, DW_AT_decl_line(0x159)
	.dwattr $C$DW$240, DW_AT_decl_column(0x09)
	.dwattr $C$DW$240, DW_AT_TI_max_frame_size(0x48)
	.dwpsn	file "../esp8266.c",line 346,column 1,is_stmt,address esp8266_executeTalkBack,isa 1

	.dwfde $C$DW$CIE, esp8266_executeTalkBack
$C$DW$241	.dwtag  DW_TAG_formal_parameter, DW_AT_name("command")
	.dwattr $C$DW$241, DW_AT_TI_symbol_name("command")
	.dwattr $C$DW$241, DW_AT_type(*$C$DW$T$42)
	.dwattr $C$DW$241, DW_AT_location[DW_OP_reg0]
;----------------------------------------------------------------------
; 345 | uint8_t esp8266_executeTalkBack(char* command)                         
;----------------------------------------------------------------------

;*****************************************************************************
;* FUNCTION NAME: esp8266_executeTalkBack                                    *
;*                                                                           *
;*   Regs Modified     : A1,A2,A3,A4,V9,SP,LR,SR,D0,D0_hi,D1,D1_hi,D2,D2_hi, *
;*                           D3,D3_hi,D4,D4_hi,D5,D5_hi,D6,D6_hi,D7,D7_hi,   *
;*                           FPEXC,FPSCR                                     *
;*   Regs Used         : A1,A2,A3,A4,V9,SP,LR,SR,D0,D0_hi,D1,D1_hi,D2,D2_hi, *
;*                           D3,D3_hi,D4,D4_hi,D5,D5_hi,D6,D6_hi,D7,D7_hi,   *
;*                           FPEXC,FPSCR                                     *
;*   Local Frame Size  : 0 Args + 68 Auto + 4 Save = 72 byte                 *
;*****************************************************************************
esp8266_executeTalkBack:
;* --------------------------------------------------------------------------*
	.dwcfi	cfa_offset, 0
        PUSH      {LR}                  ; [DPU_3_PIPE] 
	.dwcfi	cfa_offset, 4
	.dwcfi	save_reg_to_mem, 14, -4
        SUB       SP, SP, #68           ; [DPU_3_PIPE] 
	.dwcfi	cfa_offset, 72
$C$DW$242	.dwtag  DW_TAG_variable, DW_AT_name("command")
	.dwattr $C$DW$242, DW_AT_TI_symbol_name("command")
	.dwattr $C$DW$242, DW_AT_type(*$C$DW$T$42)
	.dwattr $C$DW$242, DW_AT_location[DW_OP_breg13 0]
$C$DW$243	.dwtag  DW_TAG_variable, DW_AT_name("uart_data")
	.dwattr $C$DW$243, DW_AT_TI_symbol_name("uart_data")
	.dwattr $C$DW$243, DW_AT_type(*$C$DW$T$135)
	.dwattr $C$DW$243, DW_AT_location[DW_OP_breg13 4]
$C$DW$244	.dwtag  DW_TAG_variable, DW_AT_name("response")
	.dwattr $C$DW$244, DW_AT_TI_symbol_name("response")
	.dwattr $C$DW$244, DW_AT_type(*$C$DW$T$10)
	.dwattr $C$DW$244, DW_AT_location[DW_OP_breg13 64]
;----------------------------------------------------------------------
; 347 | char uart_data[UART5_BUFFER_SIZE];                                     
;----------------------------------------------------------------------
        STR       A1, [SP, #0]          ; [DPU_3_PIPE] |346| 
	.dwpsn	file "../esp8266.c",line 348,column 2,is_stmt,isa 1
;----------------------------------------------------------------------
; 348 | memset(uart_data, 0, UART5_BUFFER_SIZE);                               
; 349 | int response;                                                          
;----------------------------------------------------------------------
        MOVS      A2, #0                ; [DPU_3_PIPE] |348| 
        MOVS      A3, #60               ; [DPU_3_PIPE] |348| 
        ADD       A1, SP, #4            ; [DPU_3_PIPE] |348| 
$C$DW$245	.dwtag  DW_TAG_TI_branch
	.dwattr $C$DW$245, DW_AT_low_pc(0x00)
	.dwattr $C$DW$245, DW_AT_name("memset")
	.dwattr $C$DW$245, DW_AT_TI_call
        BL        memset                ; [DPU_3_PIPE] |348| 
        ; CALL OCCURS {memset }          ; [] |348| 
	.dwpsn	file "../esp8266.c",line 350,column 2,is_stmt,isa 1
;----------------------------------------------------------------------
; 350 | response = esp8266_send(ATE0, AT_OK);                                  
;----------------------------------------------------------------------
        ADR       A1, $C$SL22           ; [DPU_3_PIPE] |350| 
        ADR       A2, $C$SL23           ; [DPU_3_PIPE] |350| 
$C$DW$246	.dwtag  DW_TAG_TI_branch
	.dwattr $C$DW$246, DW_AT_low_pc(0x00)
	.dwattr $C$DW$246, DW_AT_name("esp8266_send")
	.dwattr $C$DW$246, DW_AT_TI_call
        BL        esp8266_send          ; [DPU_3_PIPE] |350| 
        ; CALL OCCURS {esp8266_send }    ; [] |350| 
        STR       A1, [SP, #64]         ; [DPU_3_PIPE] |350| 
	.dwpsn	file "../esp8266.c",line 351,column 2,is_stmt,isa 1
;----------------------------------------------------------------------
; 351 | if(!response)                                                          
;----------------------------------------------------------------------
        LDR       A1, [SP, #64]         ; [DPU_3_PIPE] |351| 
        CBNZ      A1, ||$C$L31||        ; [] 
        ; BRANCHCC OCCURS {||$C$L31||}   ; [] |351| 
;* --------------------------------------------------------------------------*
	.dwpsn	file "../esp8266.c",line 352,column 3,is_stmt,isa 1
;----------------------------------------------------------------------
; 352 | return 0;                                                              
;----------------------------------------------------------------------
        MOVS      A1, #0                ; [DPU_3_PIPE] |352| 
        B         ||$C$L35||            ; [DPU_3_PIPE] |352| 
        ; BRANCH OCCURS {||$C$L35||}     ; [] |352| 
;* --------------------------------------------------------------------------*
||$C$L31||:    
	.dwpsn	file "../esp8266.c",line 353,column 2,is_stmt,isa 1
;----------------------------------------------------------------------
; 353 | response = esp8266_send(CONNECT_TO_THINGSPEAK, CONNECT_TO_THINGSPEAK_CO
;     | NFIRMATION);                                                           
;----------------------------------------------------------------------
        ADR       A1, $C$SL24           ; [DPU_3_PIPE] |353| 
        ADR       A2, $C$SL25           ; [DPU_3_PIPE] |353| 
$C$DW$247	.dwtag  DW_TAG_TI_branch
	.dwattr $C$DW$247, DW_AT_low_pc(0x00)
	.dwattr $C$DW$247, DW_AT_name("esp8266_send")
	.dwattr $C$DW$247, DW_AT_TI_call
        BL        esp8266_send          ; [DPU_3_PIPE] |353| 
        ; CALL OCCURS {esp8266_send }    ; [] |353| 
        STR       A1, [SP, #64]         ; [DPU_3_PIPE] |353| 
	.dwpsn	file "../esp8266.c",line 354,column 2,is_stmt,isa 1
;----------------------------------------------------------------------
; 354 | if(!response)                                                          
;----------------------------------------------------------------------
        LDR       A1, [SP, #64]         ; [DPU_3_PIPE] |354| 
        CBNZ      A1, ||$C$L32||        ; [] 
        ; BRANCHCC OCCURS {||$C$L32||}   ; [] |354| 
;* --------------------------------------------------------------------------*
	.dwpsn	file "../esp8266.c",line 355,column 4,is_stmt,isa 1
;----------------------------------------------------------------------
; 355 | return 0;                                                              
;----------------------------------------------------------------------
        MOVS      A1, #0                ; [DPU_3_PIPE] |355| 
        B         ||$C$L35||            ; [DPU_3_PIPE] |355| 
        ; BRANCH OCCURS {||$C$L35||}     ; [] |355| 
;* --------------------------------------------------------------------------*
||$C$L32||:    
	.dwpsn	file "../esp8266.c",line 356,column 2,is_stmt,isa 1
;----------------------------------------------------------------------
; 356 | response = esp8266_send(SEND_CIPSEND_89, CMD_LENGTH_CONFIRMATION);     
;----------------------------------------------------------------------
        ADR       A1, $C$SL26           ; [DPU_3_PIPE] |356| 
        ADR       A2, $C$SL27           ; [DPU_3_PIPE] |356| 
$C$DW$248	.dwtag  DW_TAG_TI_branch
	.dwattr $C$DW$248, DW_AT_low_pc(0x00)
	.dwattr $C$DW$248, DW_AT_name("esp8266_send")
	.dwattr $C$DW$248, DW_AT_TI_call
        BL        esp8266_send          ; [DPU_3_PIPE] |356| 
        ; CALL OCCURS {esp8266_send }    ; [] |356| 
        STR       A1, [SP, #64]         ; [DPU_3_PIPE] |356| 
	.dwpsn	file "../esp8266.c",line 357,column 2,is_stmt,isa 1
;----------------------------------------------------------------------
; 357 | if(!response)                                                          
;----------------------------------------------------------------------
        LDR       A1, [SP, #64]         ; [DPU_3_PIPE] |357| 
        CBNZ      A1, ||$C$L33||        ; [] 
        ; BRANCHCC OCCURS {||$C$L33||}   ; [] |357| 
;* --------------------------------------------------------------------------*
	.dwpsn	file "../esp8266.c",line 358,column 4,is_stmt,isa 1
;----------------------------------------------------------------------
; 358 | return 0;                                                              
;----------------------------------------------------------------------
        MOVS      A1, #0                ; [DPU_3_PIPE] |358| 
        B         ||$C$L35||            ; [DPU_3_PIPE] |358| 
        ; BRANCH OCCURS {||$C$L35||}     ; [] |358| 
;* --------------------------------------------------------------------------*
||$C$L33||:    
	.dwpsn	file "../esp8266.c",line 359,column 2,is_stmt,isa 1
;----------------------------------------------------------------------
; 359 | response = esp8266_sendAndReturnResponse(SEND_EXECUTE_TALKBACK, CMD_CON
;     | FIRMATION, uart_data);                                                 
;----------------------------------------------------------------------
        ADR       A1, $C$SL28           ; [DPU_3_PIPE] |359| 
        ADR       A2, $C$SL29           ; [DPU_3_PIPE] |359| 
        ADD       A3, SP, #4            ; [DPU_3_PIPE] |359| 
$C$DW$249	.dwtag  DW_TAG_TI_branch
	.dwattr $C$DW$249, DW_AT_low_pc(0x00)
	.dwattr $C$DW$249, DW_AT_name("esp8266_sendAndReturnResponse")
	.dwattr $C$DW$249, DW_AT_TI_call
        BL        esp8266_sendAndReturnResponse ; [DPU_3_PIPE] |359| 
        ; CALL OCCURS {esp8266_sendAndReturnResponse }  ; [] |359| 
        STR       A1, [SP, #64]         ; [DPU_3_PIPE] |359| 
	.dwpsn	file "../esp8266.c",line 360,column 2,is_stmt,isa 1
;----------------------------------------------------------------------
; 360 | if(!response)                                                          
;----------------------------------------------------------------------
        LDR       A1, [SP, #64]         ; [DPU_3_PIPE] |360| 
        CBNZ      A1, ||$C$L34||        ; [] 
        ; BRANCHCC OCCURS {||$C$L34||}   ; [] |360| 
;* --------------------------------------------------------------------------*
	.dwpsn	file "../esp8266.c",line 361,column 4,is_stmt,isa 1
;----------------------------------------------------------------------
; 361 | return 0;                                                              
;----------------------------------------------------------------------
        MOVS      A1, #0                ; [DPU_3_PIPE] |361| 
        B         ||$C$L35||            ; [DPU_3_PIPE] |361| 
        ; BRANCH OCCURS {||$C$L35||}     ; [] |361| 
;* --------------------------------------------------------------------------*
||$C$L34||:    
	.dwpsn	file "../esp8266.c",line 362,column 2,is_stmt,isa 1
;----------------------------------------------------------------------
; 362 | parseIPD(uart_data, command);                                          
;----------------------------------------------------------------------
        LDR       A2, [SP, #0]          ; [DPU_3_PIPE] |362| 
        ADD       A1, SP, #4            ; [DPU_3_PIPE] |362| 
$C$DW$250	.dwtag  DW_TAG_TI_branch
	.dwattr $C$DW$250, DW_AT_low_pc(0x00)
	.dwattr $C$DW$250, DW_AT_name("parseIPD")
	.dwattr $C$DW$250, DW_AT_TI_call
        BL        parseIPD              ; [DPU_3_PIPE] |362| 
        ; CALL OCCURS {parseIPD }        ; [] |362| 
	.dwpsn	file "../esp8266.c",line 363,column 2,is_stmt,isa 1
;----------------------------------------------------------------------
; 363 | LOGprintf("RCV:%s\n", command);                                        
;----------------------------------------------------------------------
        LDR       A2, [SP, #0]          ; [DPU_3_PIPE] |363| 
        ADR       A1, $C$SL30           ; [DPU_3_PIPE] |363| 
$C$DW$251	.dwtag  DW_TAG_TI_branch
	.dwattr $C$DW$251, DW_AT_low_pc(0x00)
	.dwattr $C$DW$251, DW_AT_name("LOGprintf")
	.dwattr $C$DW$251, DW_AT_TI_call
        BL        LOGprintf             ; [DPU_3_PIPE] |363| 
        ; CALL OCCURS {LOGprintf }       ; [] |363| 
	.dwpsn	file "../esp8266.c",line 364,column 2,is_stmt,isa 1
;----------------------------------------------------------------------
; 364 | return 1;                                                              
;----------------------------------------------------------------------
        MOVS      A1, #1                ; [DPU_3_PIPE] |364| 
;* --------------------------------------------------------------------------*
||$C$L35||:    
	.dwpsn	file "../esp8266.c",line 365,column 1,is_stmt,isa 1
        ADD       SP, SP, #68           ; [DPU_3_PIPE] 
	.dwcfi	cfa_offset, 4
$C$DW$252	.dwtag  DW_TAG_TI_branch
	.dwattr $C$DW$252, DW_AT_low_pc(0x00)
	.dwattr $C$DW$252, DW_AT_TI_return
        POP       {PC}                  ; [DPU_3_PIPE] 
	.dwcfi	cfa_offset, 0
        ; BRANCH OCCURS                  ; [] 
	.dwattr $C$DW$240, DW_AT_TI_end_file("../esp8266.c")
	.dwattr $C$DW$240, DW_AT_TI_end_line(0x16d)
	.dwattr $C$DW$240, DW_AT_TI_end_column(0x01)
	.dwendentry
	.dwendtag $C$DW$240

	.sect	".text:esp8266_getTime"
	.clink
	.thumbfunc esp8266_getTime
	.thumb
	.global	esp8266_getTime

$C$DW$253	.dwtag  DW_TAG_subprogram, DW_AT_name("esp8266_getTime")
	.dwattr $C$DW$253, DW_AT_low_pc(esp8266_getTime)
	.dwattr $C$DW$253, DW_AT_high_pc(0x00)
	.dwattr $C$DW$253, DW_AT_TI_symbol_name("esp8266_getTime")
	.dwattr $C$DW$253, DW_AT_external
	.dwattr $C$DW$253, DW_AT_type(*$C$DW$T$30)
	.dwattr $C$DW$253, DW_AT_TI_begin_file("../esp8266.c")
	.dwattr $C$DW$253, DW_AT_TI_begin_line(0x16f)
	.dwattr $C$DW$253, DW_AT_TI_begin_column(0x09)
	.dwattr $C$DW$253, DW_AT_decl_file("../esp8266.c")
	.dwattr $C$DW$253, DW_AT_decl_line(0x16f)
	.dwattr $C$DW$253, DW_AT_decl_column(0x09)
	.dwattr $C$DW$253, DW_AT_TI_max_frame_size(0x78)
	.dwpsn	file "../esp8266.c",line 368,column 1,is_stmt,address esp8266_getTime,isa 1

	.dwfde $C$DW$CIE, esp8266_getTime
$C$DW$254	.dwtag  DW_TAG_formal_parameter, DW_AT_name("resp")
	.dwattr $C$DW$254, DW_AT_TI_symbol_name("resp")
	.dwattr $C$DW$254, DW_AT_type(*$C$DW$T$42)
	.dwattr $C$DW$254, DW_AT_location[DW_OP_reg0]
;----------------------------------------------------------------------
; 367 | uint8_t esp8266_getTime(char* resp)                                    
;----------------------------------------------------------------------

;*****************************************************************************
;* FUNCTION NAME: esp8266_getTime                                            *
;*                                                                           *
;*   Regs Modified     : A1,A2,A3,A4,V9,SP,LR,SR,D0,D0_hi,D1,D1_hi,D2,D2_hi, *
;*                           D3,D3_hi,D4,D4_hi,D5,D5_hi,D6,D6_hi,D7,D7_hi,   *
;*                           FPEXC,FPSCR                                     *
;*   Regs Used         : A1,A2,A3,A4,V9,SP,LR,SR,D0,D0_hi,D1,D1_hi,D2,D2_hi, *
;*                           D3,D3_hi,D4,D4_hi,D5,D5_hi,D6,D6_hi,D7,D7_hi,   *
;*                           FPEXC,FPSCR                                     *
;*   Local Frame Size  : 0 Args + 116 Auto + 4 Save = 120 byte               *
;*****************************************************************************
esp8266_getTime:
;* --------------------------------------------------------------------------*
	.dwcfi	cfa_offset, 0
        PUSH      {LR}                  ; [DPU_3_PIPE] 
	.dwcfi	cfa_offset, 4
	.dwcfi	save_reg_to_mem, 14, -4
        SUB       SP, SP, #116          ; [DPU_3_PIPE] 
	.dwcfi	cfa_offset, 120
$C$DW$255	.dwtag  DW_TAG_variable, DW_AT_name("resp")
	.dwattr $C$DW$255, DW_AT_TI_symbol_name("resp")
	.dwattr $C$DW$255, DW_AT_type(*$C$DW$T$42)
	.dwattr $C$DW$255, DW_AT_location[DW_OP_breg13 0]
$C$DW$256	.dwtag  DW_TAG_variable, DW_AT_name("response")
	.dwattr $C$DW$256, DW_AT_TI_symbol_name("response")
	.dwattr $C$DW$256, DW_AT_type(*$C$DW$T$10)
	.dwattr $C$DW$256, DW_AT_location[DW_OP_breg13 4]
$C$DW$257	.dwtag  DW_TAG_variable, DW_AT_name("ate")
	.dwattr $C$DW$257, DW_AT_TI_symbol_name("ate")
	.dwattr $C$DW$257, DW_AT_type(*$C$DW$T$156)
	.dwattr $C$DW$257, DW_AT_location[DW_OP_breg13 8]
$C$DW$258	.dwtag  DW_TAG_variable, DW_AT_name("ateReply")
	.dwattr $C$DW$258, DW_AT_TI_symbol_name("ateReply")
	.dwattr $C$DW$258, DW_AT_type(*$C$DW$T$138)
	.dwattr $C$DW$258, DW_AT_location[DW_OP_breg13 16]
$C$DW$259	.dwtag  DW_TAG_variable, DW_AT_name("cipStart")
	.dwattr $C$DW$259, DW_AT_TI_symbol_name("cipStart")
	.dwattr $C$DW$259, DW_AT_type(*$C$DW$T$160)
	.dwattr $C$DW$259, DW_AT_location[DW_OP_breg13 20]
$C$DW$260	.dwtag  DW_TAG_variable, DW_AT_name("cipStartReply")
	.dwattr $C$DW$260, DW_AT_TI_symbol_name("cipStartReply")
	.dwattr $C$DW$260, DW_AT_type(*$C$DW$T$157)
	.dwattr $C$DW$260, DW_AT_location[DW_OP_breg13 56]
$C$DW$261	.dwtag  DW_TAG_variable, DW_AT_name("cipSend")
	.dwattr $C$DW$261, DW_AT_TI_symbol_name("cipSend")
	.dwattr $C$DW$261, DW_AT_type(*$C$DW$T$159)
	.dwattr $C$DW$261, DW_AT_location[DW_OP_breg13 64]
$C$DW$262	.dwtag  DW_TAG_variable, DW_AT_name("cipSendReply")
	.dwattr $C$DW$262, DW_AT_TI_symbol_name("cipSendReply")
	.dwattr $C$DW$262, DW_AT_type(*$C$DW$T$140)
	.dwattr $C$DW$262, DW_AT_location[DW_OP_breg13 80]
$C$DW$263	.dwtag  DW_TAG_variable, DW_AT_name("getRequestNoReply")
	.dwattr $C$DW$263, DW_AT_TI_symbol_name("getRequestNoReply")
	.dwattr $C$DW$263, DW_AT_type(*$C$DW$T$137)
	.dwattr $C$DW$263, DW_AT_location[DW_OP_breg13 84]
$C$DW$264	.dwtag  DW_TAG_variable, DW_AT_name("getRequest")
	.dwattr $C$DW$264, DW_AT_TI_symbol_name("getRequest")
	.dwattr $C$DW$264, DW_AT_type(*$C$DW$T$161)
	.dwattr $C$DW$264, DW_AT_location[DW_OP_breg13 100]
$C$DW$265	.dwtag  DW_TAG_variable, DW_AT_name("getRequestReply")
	.dwattr $C$DW$265, DW_AT_TI_symbol_name("getRequestReply")
	.dwattr $C$DW$265, DW_AT_type(*$C$DW$T$162)
	.dwattr $C$DW$265, DW_AT_location[DW_OP_breg13 112]
;----------------------------------------------------------------------
; 369 | int response;                                                          
;----------------------------------------------------------------------
        STR       A1, [SP, #0]          ; [DPU_3_PIPE] |368| 
	.dwpsn	file "../esp8266.c",line 370,column 7,is_stmt,isa 1
;----------------------------------------------------------------------
; 370 | char ate[] = "ATE0";                                                   
;----------------------------------------------------------------------
        LDR       A2, $C$CON17          ; [DPU_3_PIPE] |370| 
        LDR       A3, [A2, #0]          ; [DPU_3_PIPE] |370| 
        ADD       A1, SP, #8            ; [DPU_3_PIPE] |370| 
        STR       A3, [A1, #0]          ; [DPU_3_PIPE] |370| 
        LDRB      A2, [A2, #4]          ; [DPU_3_PIPE] |370| 
        STRB      A2, [A1, #4]          ; [DPU_3_PIPE] |370| 
	.dwpsn	file "../esp8266.c",line 371,column 7,is_stmt,isa 1
;----------------------------------------------------------------------
; 371 | char ateReply[] = "OK";                                                
;----------------------------------------------------------------------
        LDR       A2, $C$CON18          ; [DPU_3_PIPE] |371| 
        LDRH      A3, [A2, #0]          ; [DPU_3_PIPE] |371| 
        ADD       A1, SP, #16           ; [DPU_3_PIPE] |371| 
        STRH      A3, [A1, #0]          ; [DPU_3_PIPE] |371| 
        LDRB      A2, [A2, #2]          ; [DPU_3_PIPE] |371| 
        STRB      A2, [A1, #2]          ; [DPU_3_PIPE] |371| 
	.dwpsn	file "../esp8266.c",line 372,column 7,is_stmt,isa 1
;----------------------------------------------------------------------
; 372 | char cipStart[] = "AT+CIPSTART=\"TCP\",\"google.com\",80";             
;----------------------------------------------------------------------
        LDR       A2, $C$CON19          ; [DPU_3_PIPE] |372| 
        MOVS      A3, #34               ; [DPU_3_PIPE] |372| 
        ADD       A1, SP, #20           ; [DPU_3_PIPE] |372| 
$C$DW$266	.dwtag  DW_TAG_TI_branch
	.dwattr $C$DW$266, DW_AT_low_pc(0x00)
	.dwattr $C$DW$266, DW_AT_name("memcpy")
	.dwattr $C$DW$266, DW_AT_TI_call
        BL        memcpy                ; [DPU_3_PIPE] |372| 
        ; CALL OCCURS {memcpy }          ; [] |372| 
	.dwpsn	file "../esp8266.c",line 373,column 7,is_stmt,isa 1
;----------------------------------------------------------------------
; 373 | char cipStartReply[] = "CONNECT";                                      
;----------------------------------------------------------------------
        LDR       A2, $C$CON20          ; [DPU_3_PIPE] |373| 
        LDR       A3, [A2, #0]          ; [DPU_3_PIPE] |373| 
        ADD       A1, SP, #56           ; [DPU_3_PIPE] |373| 
        STR       A3, [A1, #0]          ; [DPU_3_PIPE] |373| 
        LDR       A2, [A2, #4]          ; [DPU_3_PIPE] |373| 
        STR       A2, [A1, #4]          ; [DPU_3_PIPE] |373| 
	.dwpsn	file "../esp8266.c",line 374,column 7,is_stmt,isa 1
;----------------------------------------------------------------------
; 374 | char cipSend[] = "AT+CIPSEND=29";                                      
;----------------------------------------------------------------------
        LDR       A2, $C$CON21          ; [DPU_3_PIPE] |374| 
        MOVS      A3, #14               ; [DPU_3_PIPE] |374| 
        ADD       A1, SP, #64           ; [DPU_3_PIPE] |374| 
$C$DW$267	.dwtag  DW_TAG_TI_branch
	.dwattr $C$DW$267, DW_AT_low_pc(0x00)
	.dwattr $C$DW$267, DW_AT_name("memcpy")
	.dwattr $C$DW$267, DW_AT_TI_call
        BL        memcpy                ; [DPU_3_PIPE] |374| 
        ; CALL OCCURS {memcpy }          ; [] |374| 
	.dwpsn	file "../esp8266.c",line 375,column 7,is_stmt,isa 1
;----------------------------------------------------------------------
; 375 | char cipSendReply[] = ">";                                             
;----------------------------------------------------------------------
        LDR       A1, $C$CON22          ; [DPU_3_PIPE] |375| 
        LDRH      A1, [A1, #0]          ; [DPU_3_PIPE] |375| 
        STRH      A1, [SP, #80]         ; [DPU_3_PIPE] |375| 
	.dwpsn	file "../esp8266.c",line 376,column 7,is_stmt,isa 1
;----------------------------------------------------------------------
; 376 | char getRequestNoReply[] = "GET / HTTP/1.1";                           
;----------------------------------------------------------------------
        LDR       A2, $C$CON23          ; [DPU_3_PIPE] |376| 
        MOVS      A3, #15               ; [DPU_3_PIPE] |376| 
        ADD       A1, SP, #84           ; [DPU_3_PIPE] |376| 
$C$DW$268	.dwtag  DW_TAG_TI_branch
	.dwattr $C$DW$268, DW_AT_low_pc(0x00)
	.dwattr $C$DW$268, DW_AT_name("memcpy")
	.dwattr $C$DW$268, DW_AT_TI_call
        BL        memcpy                ; [DPU_3_PIPE] |376| 
        ; CALL OCCURS {memcpy }          ; [] |376| 
	.dwpsn	file "../esp8266.c",line 377,column 7,is_stmt,isa 1
;----------------------------------------------------------------------
; 377 | char getRequest[] ="Host:test";                                        
;----------------------------------------------------------------------
        LDR       A2, $C$CON24          ; [DPU_3_PIPE] |377| 
        LDR       A3, [A2, #0]          ; [DPU_3_PIPE] |377| 
        ADD       A1, SP, #100          ; [DPU_3_PIPE] |377| 
        STR       A3, [A1, #0]          ; [DPU_3_PIPE] |377| 
        LDR       A3, [A2, #4]          ; [DPU_3_PIPE] |377| 
        STR       A3, [A1, #4]          ; [DPU_3_PIPE] |377| 
        LDRH      A2, [A2, #8]          ; [DPU_3_PIPE] |377| 
        STRH      A2, [A1, #8]          ; [DPU_3_PIPE] |377| 
	.dwpsn	file "../esp8266.c",line 378,column 7,is_stmt,isa 1
;----------------------------------------------------------------------
; 378 | char getRequestReply[] ="GMT";                                         
;----------------------------------------------------------------------
        LDR       A1, $C$CON25          ; [DPU_3_PIPE] |378| 
        LDR       A1, [A1, #0]          ; [DPU_3_PIPE] |378| 
        STR       A1, [SP, #112]        ; [DPU_3_PIPE] |378| 
	.dwpsn	file "../esp8266.c",line 380,column 2,is_stmt,isa 1
;----------------------------------------------------------------------
; 380 | response = esp8266_send(ate, ateReply);                                
;----------------------------------------------------------------------
        ADD       A1, SP, #8            ; [DPU_3_PIPE] |380| 
        ADD       A2, SP, #16           ; [DPU_3_PIPE] |380| 
$C$DW$269	.dwtag  DW_TAG_TI_branch
	.dwattr $C$DW$269, DW_AT_low_pc(0x00)
	.dwattr $C$DW$269, DW_AT_name("esp8266_send")
	.dwattr $C$DW$269, DW_AT_TI_call
        BL        esp8266_send          ; [DPU_3_PIPE] |380| 
        ; CALL OCCURS {esp8266_send }    ; [] |380| 
        STR       A1, [SP, #4]          ; [DPU_3_PIPE] |380| 
	.dwpsn	file "../esp8266.c",line 381,column 2,is_stmt,isa 1
;----------------------------------------------------------------------
; 381 | if(!response)                                                          
;----------------------------------------------------------------------
        LDR       A1, [SP, #4]          ; [DPU_3_PIPE] |381| 
        CBNZ      A1, ||$C$L36||        ; [] 
        ; BRANCHCC OCCURS {||$C$L36||}   ; [] |381| 
;* --------------------------------------------------------------------------*
	.dwpsn	file "../esp8266.c",line 382,column 3,is_stmt,isa 1
;----------------------------------------------------------------------
; 382 | return 0;                                                              
;----------------------------------------------------------------------
        MOVS      A1, #0                ; [DPU_3_PIPE] |382| 
        B         ||$C$L39||            ; [DPU_3_PIPE] |382| 
        ; BRANCH OCCURS {||$C$L39||}     ; [] |382| 
;* --------------------------------------------------------------------------*
||$C$L36||:    
	.dwpsn	file "../esp8266.c",line 383,column 2,is_stmt,isa 1
;----------------------------------------------------------------------
; 383 | response = esp8266_send(cipStart, cipStartReply);                      
;----------------------------------------------------------------------
        ADD       A1, SP, #20           ; [DPU_3_PIPE] |383| 
        ADD       A2, SP, #56           ; [DPU_3_PIPE] |383| 
$C$DW$270	.dwtag  DW_TAG_TI_branch
	.dwattr $C$DW$270, DW_AT_low_pc(0x00)
	.dwattr $C$DW$270, DW_AT_name("esp8266_send")
	.dwattr $C$DW$270, DW_AT_TI_call
        BL        esp8266_send          ; [DPU_3_PIPE] |383| 
        ; CALL OCCURS {esp8266_send }    ; [] |383| 
        STR       A1, [SP, #4]          ; [DPU_3_PIPE] |383| 
	.dwpsn	file "../esp8266.c",line 384,column 2,is_stmt,isa 1
;----------------------------------------------------------------------
; 384 | if(!response)                                                          
;----------------------------------------------------------------------
        LDR       A1, [SP, #4]          ; [DPU_3_PIPE] |384| 
        CBNZ      A1, ||$C$L37||        ; [] 
        ; BRANCHCC OCCURS {||$C$L37||}   ; [] |384| 
;* --------------------------------------------------------------------------*
	.dwpsn	file "../esp8266.c",line 385,column 4,is_stmt,isa 1
;----------------------------------------------------------------------
; 385 | return 0;                                                              
;----------------------------------------------------------------------
        MOVS      A1, #0                ; [DPU_3_PIPE] |385| 
        B         ||$C$L39||            ; [DPU_3_PIPE] |385| 
        ; BRANCH OCCURS {||$C$L39||}     ; [] |385| 
;* --------------------------------------------------------------------------*
||$C$L37||:    
	.dwpsn	file "../esp8266.c",line 386,column 2,is_stmt,isa 1
;----------------------------------------------------------------------
; 386 | response = esp8266_send(cipSend, cipSendReply);                        
;----------------------------------------------------------------------
        ADD       A1, SP, #64           ; [DPU_3_PIPE] |386| 
        ADD       A2, SP, #80           ; [DPU_3_PIPE] |386| 
$C$DW$271	.dwtag  DW_TAG_TI_branch
	.dwattr $C$DW$271, DW_AT_low_pc(0x00)
	.dwattr $C$DW$271, DW_AT_name("esp8266_send")
	.dwattr $C$DW$271, DW_AT_TI_call
        BL        esp8266_send          ; [DPU_3_PIPE] |386| 
        ; CALL OCCURS {esp8266_send }    ; [] |386| 
        STR       A1, [SP, #4]          ; [DPU_3_PIPE] |386| 
	.dwpsn	file "../esp8266.c",line 387,column 2,is_stmt,isa 1
;----------------------------------------------------------------------
; 387 | if(!response)                                                          
;----------------------------------------------------------------------
        LDR       A1, [SP, #4]          ; [DPU_3_PIPE] |387| 
        CBNZ      A1, ||$C$L38||        ; [] 
        ; BRANCHCC OCCURS {||$C$L38||}   ; [] |387| 
;* --------------------------------------------------------------------------*
	.dwpsn	file "../esp8266.c",line 388,column 4,is_stmt,isa 1
;----------------------------------------------------------------------
; 388 | return 0;                                                              
;----------------------------------------------------------------------
        MOVS      A1, #0                ; [DPU_3_PIPE] |388| 
        B         ||$C$L39||            ; [DPU_3_PIPE] |388| 
        ; BRANCH OCCURS {||$C$L39||}     ; [] |388| 
;* --------------------------------------------------------------------------*
||$C$L38||:    
	.dwpsn	file "../esp8266.c",line 389,column 2,is_stmt,isa 1
;----------------------------------------------------------------------
; 389 | uart_send(getRequestNoReply);                                          
;----------------------------------------------------------------------
        ADD       A1, SP, #84           ; [DPU_3_PIPE] |389| 
$C$DW$272	.dwtag  DW_TAG_TI_branch
	.dwattr $C$DW$272, DW_AT_low_pc(0x00)
	.dwattr $C$DW$272, DW_AT_name("uart_send")
	.dwattr $C$DW$272, DW_AT_TI_call
        BL        uart_send             ; [DPU_3_PIPE] |389| 
        ; CALL OCCURS {uart_send }       ; [] |389| 
	.dwpsn	file "../esp8266.c",line 390,column 2,is_stmt,isa 1
;----------------------------------------------------------------------
; 390 | uart_send(getRequest);                                                 
;----------------------------------------------------------------------
        ADD       A1, SP, #100          ; [DPU_3_PIPE] |390| 
$C$DW$273	.dwtag  DW_TAG_TI_branch
	.dwattr $C$DW$273, DW_AT_low_pc(0x00)
	.dwattr $C$DW$273, DW_AT_name("uart_send")
	.dwattr $C$DW$273, DW_AT_TI_call
        BL        uart_send             ; [DPU_3_PIPE] |390| 
        ; CALL OCCURS {uart_send }       ; [] |390| 
	.dwpsn	file "../esp8266.c",line 391,column 2,is_stmt,isa 1
;----------------------------------------------------------------------
; 391 | response = esp8266_sendAndReturnResponse("", getRequestReply,resp);    
;----------------------------------------------------------------------
        LDR       A3, [SP, #0]          ; [DPU_3_PIPE] |391| 
        ADR       A1, $C$SL31           ; [DPU_3_PIPE] |391| 
        ADD       A2, SP, #112          ; [DPU_3_PIPE] |391| 
$C$DW$274	.dwtag  DW_TAG_TI_branch
	.dwattr $C$DW$274, DW_AT_low_pc(0x00)
	.dwattr $C$DW$274, DW_AT_name("esp8266_sendAndReturnResponse")
	.dwattr $C$DW$274, DW_AT_TI_call
        BL        esp8266_sendAndReturnResponse ; [DPU_3_PIPE] |391| 
        ; CALL OCCURS {esp8266_sendAndReturnResponse }  ; [] |391| 
        STR       A1, [SP, #4]          ; [DPU_3_PIPE] |391| 
	.dwpsn	file "../esp8266.c",line 392,column 2,is_stmt,isa 1
;----------------------------------------------------------------------
; 392 | return response;                                                       
;----------------------------------------------------------------------
        LDRB      A1, [SP, #4]          ; [DPU_3_PIPE] |392| 
;* --------------------------------------------------------------------------*
||$C$L39||:    
	.dwpsn	file "../esp8266.c",line 393,column 1,is_stmt,isa 1
        ADD       SP, SP, #116          ; [DPU_3_PIPE] 
	.dwcfi	cfa_offset, 4
$C$DW$275	.dwtag  DW_TAG_TI_branch
	.dwattr $C$DW$275, DW_AT_low_pc(0x00)
	.dwattr $C$DW$275, DW_AT_TI_return
        POP       {PC}                  ; [DPU_3_PIPE] 
	.dwcfi	cfa_offset, 0
        ; BRANCH OCCURS                  ; [] 
	.dwattr $C$DW$253, DW_AT_TI_end_file("../esp8266.c")
	.dwattr $C$DW$253, DW_AT_TI_end_line(0x189)
	.dwattr $C$DW$253, DW_AT_TI_end_column(0x01)
	.dwendentry
	.dwendtag $C$DW$253

;******************************************************************************
;* CONSTANT TABLE                                                             *
;******************************************************************************
	.sect	".text:uart_send"
	.align	4
||$C$CON1||:	.bits	1073811456,32
;******************************************************************************
;* CONSTANT TABLE                                                             *
;******************************************************************************
	.sect	".text:esp8266_send"
	.align	4
||$C$CON2||:	.bits	dummy$1,32
	.align	4
||$C$CON3||:	.bits	1073811456,32
	.align	4
||$C$CON4||:	.bits	10000000,32
;******************************************************************************
;* CONSTANT TABLE                                                             *
;******************************************************************************
	.sect	".text:esp8266_sendAndReturnResponse"
	.align	4
||$C$CON5||:	.bits	dummy$2,32
	.align	4
||$C$CON6||:	.bits	1073811456,32
	.align	4
||$C$CON7||:	.bits	10000000,32
;******************************************************************************
;* CONSTANT TABLE                                                             *
;******************************************************************************
	.sect	".text:setResetPinState"
	.align	4
||$C$CON8||:	.bits	1073889280,32
;******************************************************************************
;* STRINGS                                                                    *
;******************************************************************************
	.sect	".text:esp8266_reset"
	.align	4
||$C$SL1||:	.string	"AT+CWJAP=",34,"dlink",34,",",34,"aspire1000",34,0
;******************************************************************************
;* STRINGS                                                                    *
;******************************************************************************
	.sect	".text:send_esp8266"
	.align	4
||$C$SL2||:	.string	"GET /update?key=VW5223XR8EZEL6A3&field1=",0
	.align	4
||$C$SL3||:	.string	"&field2=",0
	.align	4
||$C$SL4||:	.string	"&field3=",0
	.align	4
||$C$SL5||:	.string	"&field4=",0
	.align	4
||$C$SL6||:	.string	"&field5=",0
	.align	4
||$C$SL7||:	.string	"&field6=",0
	.align	4
||$C$SL8||:	.string	"&field7=",0
	.align	4
||$C$SL9||:	.string	"Cmnd size exceedes allowed length (%d)",10,0
	.align	4
||$C$SL10||:	.string	"AT+CIPSEND=",0
	.align	4
||$C$SL11||:	.string	"AT+CIPSTART=",34,"TCP",34,",",34,"184.106.153.149",34,",80",0
	.align	4
||$C$SL12||:	.string	">",0
	.align	4
||$C$SL13||:	.string	"Failed to send: %s",10,0
	.align	4
||$C$SL14||:	.string	"CLOSED",0
	.align	4
||$C$SL15||:	.string	"Failed to send cmnd",10,0
	.align	4
||$C$SL16||:	.string	"%s",0
;******************************************************************************
;* CONSTANT TABLE                                                             *
;******************************************************************************
	.sect	".text:setESP8266ResetPin"
	.align	4
||$C$CON9||:	.bits	-268433404,32
	.align	4
||$C$CON10||:	.bits	1073889280,32
;******************************************************************************
;* STRINGS                                                                    *
;******************************************************************************
	.sect	".text:init_esp8266"
	.align	4
||$C$SL17||:	.string	"AT+CWMODE=1",0
	.align	4
||$C$SL18||:	.string	"AT+CWJAP=",34,"dlink",34,",",34,"aspire1000",34,0
	.align	4
||$C$SL19||:	.string	"OK",0
;******************************************************************************
;* CONSTANT TABLE                                                             *
;******************************************************************************
	.sect	".text:init_esp8266"
	.align	4
||$C$CON11||:	.bits	-268429307,32
	.align	4
||$C$CON12||:	.bits	-268433404,32
	.align	4
||$C$CON13||:	.bits	266241,32
	.align	4
||$C$CON14||:	.bits	267265,32
	.align	4
||$C$CON15||:	.bits	1073889280,32
	.align	4
||$C$CON16||:	.bits	1073811456,32
;******************************************************************************
;* STRINGS                                                                    *
;******************************************************************************
	.sect	".text:parseIPD"
	.align	4
||$C$SL20||:	.string	",",0
	.align	4
||$C$SL21||:	.string	":",0
;******************************************************************************
;* STRINGS                                                                    *
;******************************************************************************
	.sect	".text:esp8266_executeTalkBack"
	.align	4
||$C$SL22||:	.string	"ATE0",0
	.align	4
||$C$SL23||:	.string	"OK",0
	.align	4
||$C$SL24||:	.string	"AT+CIPSTART=",34,"TCP",34,",",34,"184.106.153.149",34,",80",0
	.align	4
||$C$SL25||:	.string	"CONNECT",0
	.align	4
||$C$SL26||:	.string	"AT+CIPSEND=89",0
	.align	4
||$C$SL27||:	.string	">",0
	.align	4
||$C$SL28||:	.string	"GET https://api.thingspeak.com/talkbacks/5758/commands/exec"
	.string	"ute?api_key=6U22JMXEG9258HA5",0
	.align	4
||$C$SL29||:	.string	"CLOSED",0
	.align	4
||$C$SL30||:	.string	"RCV:%s",10,0
;******************************************************************************
;* STRINGS                                                                    *
;******************************************************************************
	.sect	".text:esp8266_getTime"
	.align	4
||$C$SL31||:	.string	0
;******************************************************************************
;* CONSTANT TABLE                                                             *
;******************************************************************************
	.sect	".text:esp8266_getTime"
	.align	4
||$C$CON17||:	.bits	||$P$T0$3||,32
	.align	4
||$C$CON18||:	.bits	||$P$T1$4||,32
	.align	4
||$C$CON19||:	.bits	||$P$T2$5||,32
	.align	4
||$C$CON20||:	.bits	||$P$T3$6||,32
	.align	4
||$C$CON21||:	.bits	||$P$T4$7||,32
	.align	4
||$C$CON22||:	.bits	||$P$T5$8||,32
	.align	4
||$C$CON23||:	.bits	||$P$T6$9||,32
	.align	4
||$C$CON24||:	.bits	||$P$T7$10||,32
	.align	4
||$C$CON25||:	.bits	||$P$T8$11||,32
;*****************************************************************************
;* UNDEFINED EXTERNAL REFERENCES                                             *
;*****************************************************************************
	.global	strlen
	.global	strcpy
	.global	strcat
	.global	strncat
	.global	strstr
	.global	strtok
	.global	memset
	.global	atoi
	.global	isdigit
	.global	GPIOPinWrite
	.global	GPIOPinConfigure
	.global	GPIOPinTypeGPIOOutput
	.global	GPIOPinTypeUART
	.global	SysCtlPeripheralEnable
	.global	SysCtlDelay
	.global	SysCtlClockGet
	.global	UARTConfigSetExpClk
	.global	UARTCharsAvail
	.global	UARTCharGetNonBlocking
	.global	UARTCharGet
	.global	UARTCharPut
	.global	uitoa
	.global	LOGprintf
	.global	memcpy

;******************************************************************************
;* BUILD ATTRIBUTES                                                           *
;******************************************************************************
	.battr "aeabi", Tag_File, 1, Tag_ABI_PCS_wchar_t(2)
	.battr "aeabi", Tag_File, 1, Tag_ABI_FP_rounding(0)
	.battr "aeabi", Tag_File, 1, Tag_ABI_FP_denormal(0)
	.battr "aeabi", Tag_File, 1, Tag_ABI_FP_exceptions(0)
	.battr "aeabi", Tag_File, 1, Tag_ABI_FP_number_model(1)
	.battr "aeabi", Tag_File, 1, Tag_ABI_enum_size(0)
	.battr "aeabi", Tag_File, 1, Tag_ABI_optimization_goals(5)
	.battr "aeabi", Tag_File, 1, Tag_ABI_FP_optimization_goals(0)
	.battr "TI", Tag_File, 1, Tag_Bitfield_layout(2)
	.battr "TI", Tag_File, 1, Tag_FP_interface(1)

;******************************************************************************
;* TYPE INFORMATION                                                           *
;******************************************************************************

$C$DW$T$19	.dwtag  DW_TAG_structure_type
	.dwattr $C$DW$T$19, DW_AT_byte_size(0x08)
$C$DW$276	.dwtag  DW_TAG_member
	.dwattr $C$DW$276, DW_AT_type(*$C$DW$T$10)
	.dwattr $C$DW$276, DW_AT_name("quot")
	.dwattr $C$DW$276, DW_AT_TI_symbol_name("quot")
	.dwattr $C$DW$276, DW_AT_data_member_location[DW_OP_plus_uconst 0x0]
	.dwattr $C$DW$276, DW_AT_accessibility(DW_ACCESS_public)
	.dwattr $C$DW$276, DW_AT_decl_file("C:/ti/ccsv6/tools/compiler/ti-cgt-arm_5.2.6/include/stdlib.h")
	.dwattr $C$DW$276, DW_AT_decl_line(0x59)
	.dwattr $C$DW$276, DW_AT_decl_column(0x16)
$C$DW$277	.dwtag  DW_TAG_member
	.dwattr $C$DW$277, DW_AT_type(*$C$DW$T$10)
	.dwattr $C$DW$277, DW_AT_name("rem")
	.dwattr $C$DW$277, DW_AT_TI_symbol_name("rem")
	.dwattr $C$DW$277, DW_AT_data_member_location[DW_OP_plus_uconst 0x4]
	.dwattr $C$DW$277, DW_AT_accessibility(DW_ACCESS_public)
	.dwattr $C$DW$277, DW_AT_decl_file("C:/ti/ccsv6/tools/compiler/ti-cgt-arm_5.2.6/include/stdlib.h")
	.dwattr $C$DW$277, DW_AT_decl_line(0x59)
	.dwattr $C$DW$277, DW_AT_decl_column(0x1c)
	.dwendtag $C$DW$T$19

	.dwattr $C$DW$T$19, DW_AT_decl_file("C:/ti/ccsv6/tools/compiler/ti-cgt-arm_5.2.6/include/stdlib.h")
	.dwattr $C$DW$T$19, DW_AT_decl_line(0x59)
	.dwattr $C$DW$T$19, DW_AT_decl_column(0x10)
$C$DW$T$23	.dwtag  DW_TAG_typedef, DW_AT_name("div_t")
	.dwattr $C$DW$T$23, DW_AT_type(*$C$DW$T$19)
	.dwattr $C$DW$T$23, DW_AT_language(DW_LANG_C)
	.dwattr $C$DW$T$23, DW_AT_decl_file("C:/ti/ccsv6/tools/compiler/ti-cgt-arm_5.2.6/include/stdlib.h")
	.dwattr $C$DW$T$23, DW_AT_decl_line(0x59)
	.dwattr $C$DW$T$23, DW_AT_decl_column(0x23)

$C$DW$T$20	.dwtag  DW_TAG_structure_type
	.dwattr $C$DW$T$20, DW_AT_byte_size(0x08)
$C$DW$278	.dwtag  DW_TAG_member
	.dwattr $C$DW$278, DW_AT_type(*$C$DW$T$10)
	.dwattr $C$DW$278, DW_AT_name("quot")
	.dwattr $C$DW$278, DW_AT_TI_symbol_name("quot")
	.dwattr $C$DW$278, DW_AT_data_member_location[DW_OP_plus_uconst 0x0]
	.dwattr $C$DW$278, DW_AT_accessibility(DW_ACCESS_public)
	.dwattr $C$DW$278, DW_AT_decl_file("C:/ti/ccsv6/tools/compiler/ti-cgt-arm_5.2.6/include/stdlib.h")
	.dwattr $C$DW$278, DW_AT_decl_line(0x5b)
	.dwattr $C$DW$278, DW_AT_decl_column(0x16)
$C$DW$279	.dwtag  DW_TAG_member
	.dwattr $C$DW$279, DW_AT_type(*$C$DW$T$10)
	.dwattr $C$DW$279, DW_AT_name("rem")
	.dwattr $C$DW$279, DW_AT_TI_symbol_name("rem")
	.dwattr $C$DW$279, DW_AT_data_member_location[DW_OP_plus_uconst 0x4]
	.dwattr $C$DW$279, DW_AT_accessibility(DW_ACCESS_public)
	.dwattr $C$DW$279, DW_AT_decl_file("C:/ti/ccsv6/tools/compiler/ti-cgt-arm_5.2.6/include/stdlib.h")
	.dwattr $C$DW$279, DW_AT_decl_line(0x5b)
	.dwattr $C$DW$279, DW_AT_decl_column(0x1c)
	.dwendtag $C$DW$T$20

	.dwattr $C$DW$T$20, DW_AT_decl_file("C:/ti/ccsv6/tools/compiler/ti-cgt-arm_5.2.6/include/stdlib.h")
	.dwattr $C$DW$T$20, DW_AT_decl_line(0x5b)
	.dwattr $C$DW$T$20, DW_AT_decl_column(0x10)
$C$DW$T$24	.dwtag  DW_TAG_typedef, DW_AT_name("ldiv_t")
	.dwattr $C$DW$T$24, DW_AT_type(*$C$DW$T$20)
	.dwattr $C$DW$T$24, DW_AT_language(DW_LANG_C)
	.dwattr $C$DW$T$24, DW_AT_decl_file("C:/ti/ccsv6/tools/compiler/ti-cgt-arm_5.2.6/include/stdlib.h")
	.dwattr $C$DW$T$24, DW_AT_decl_line(0x5b)
	.dwattr $C$DW$T$24, DW_AT_decl_column(0x23)

$C$DW$T$21	.dwtag  DW_TAG_structure_type
	.dwattr $C$DW$T$21, DW_AT_byte_size(0x10)
$C$DW$280	.dwtag  DW_TAG_member
	.dwattr $C$DW$280, DW_AT_type(*$C$DW$T$14)
	.dwattr $C$DW$280, DW_AT_name("quot")
	.dwattr $C$DW$280, DW_AT_TI_symbol_name("quot")
	.dwattr $C$DW$280, DW_AT_data_member_location[DW_OP_plus_uconst 0x0]
	.dwattr $C$DW$280, DW_AT_accessibility(DW_ACCESS_public)
	.dwattr $C$DW$280, DW_AT_decl_file("C:/ti/ccsv6/tools/compiler/ti-cgt-arm_5.2.6/include/stdlib.h")
	.dwattr $C$DW$280, DW_AT_decl_line(0x5e)
	.dwattr $C$DW$280, DW_AT_decl_column(0x1c)
$C$DW$281	.dwtag  DW_TAG_member
	.dwattr $C$DW$281, DW_AT_type(*$C$DW$T$14)
	.dwattr $C$DW$281, DW_AT_name("rem")
	.dwattr $C$DW$281, DW_AT_TI_symbol_name("rem")
	.dwattr $C$DW$281, DW_AT_data_member_location[DW_OP_plus_uconst 0x8]
	.dwattr $C$DW$281, DW_AT_accessibility(DW_ACCESS_public)
	.dwattr $C$DW$281, DW_AT_decl_file("C:/ti/ccsv6/tools/compiler/ti-cgt-arm_5.2.6/include/stdlib.h")
	.dwattr $C$DW$281, DW_AT_decl_line(0x5e)
	.dwattr $C$DW$281, DW_AT_decl_column(0x22)
	.dwendtag $C$DW$T$21

	.dwattr $C$DW$T$21, DW_AT_decl_file("C:/ti/ccsv6/tools/compiler/ti-cgt-arm_5.2.6/include/stdlib.h")
	.dwattr $C$DW$T$21, DW_AT_decl_line(0x5e)
	.dwattr $C$DW$T$21, DW_AT_decl_column(0x10)
$C$DW$T$25	.dwtag  DW_TAG_typedef, DW_AT_name("lldiv_t")
	.dwattr $C$DW$T$25, DW_AT_type(*$C$DW$T$21)
	.dwattr $C$DW$T$25, DW_AT_language(DW_LANG_C)
	.dwattr $C$DW$T$25, DW_AT_decl_file("C:/ti/ccsv6/tools/compiler/ti-cgt-arm_5.2.6/include/stdlib.h")
	.dwattr $C$DW$T$25, DW_AT_decl_line(0x5e)
	.dwattr $C$DW$T$25, DW_AT_decl_column(0x29)
$C$DW$T$2	.dwtag  DW_TAG_unspecified_type
	.dwattr $C$DW$T$2, DW_AT_name("void")
$C$DW$T$3	.dwtag  DW_TAG_pointer_type
	.dwattr $C$DW$T$3, DW_AT_type(*$C$DW$T$2)
	.dwattr $C$DW$T$3, DW_AT_address_class(0x20)

$C$DW$T$55	.dwtag  DW_TAG_subroutine_type
	.dwattr $C$DW$T$55, DW_AT_language(DW_LANG_C)
$C$DW$T$56	.dwtag  DW_TAG_pointer_type
	.dwattr $C$DW$T$56, DW_AT_type(*$C$DW$T$55)
	.dwattr $C$DW$T$56, DW_AT_address_class(0x20)
$C$DW$T$57	.dwtag  DW_TAG_typedef, DW_AT_name("__TI_atexit_fn")
	.dwattr $C$DW$T$57, DW_AT_type(*$C$DW$T$56)
	.dwattr $C$DW$T$57, DW_AT_language(DW_LANG_C)
	.dwattr $C$DW$T$57, DW_AT_decl_file("C:/ti/ccsv6/tools/compiler/ti-cgt-arm_5.2.6/include/stdlib.h")
	.dwattr $C$DW$T$57, DW_AT_decl_line(0xb3)
	.dwattr $C$DW$T$57, DW_AT_decl_column(0x14)
$C$DW$T$58	.dwtag  DW_TAG_const_type
	.dwattr $C$DW$T$58, DW_AT_type(*$C$DW$T$2)
$C$DW$T$59	.dwtag  DW_TAG_pointer_type
	.dwattr $C$DW$T$59, DW_AT_type(*$C$DW$T$58)
	.dwattr $C$DW$T$59, DW_AT_address_class(0x20)
$C$DW$T$4	.dwtag  DW_TAG_base_type
	.dwattr $C$DW$T$4, DW_AT_encoding(DW_ATE_boolean)
	.dwattr $C$DW$T$4, DW_AT_name("bool")
	.dwattr $C$DW$T$4, DW_AT_byte_size(0x01)
$C$DW$T$5	.dwtag  DW_TAG_base_type
	.dwattr $C$DW$T$5, DW_AT_encoding(DW_ATE_signed_char)
	.dwattr $C$DW$T$5, DW_AT_name("signed char")
	.dwattr $C$DW$T$5, DW_AT_byte_size(0x01)
$C$DW$T$60	.dwtag  DW_TAG_typedef, DW_AT_name("int8_t")
	.dwattr $C$DW$T$60, DW_AT_type(*$C$DW$T$5)
	.dwattr $C$DW$T$60, DW_AT_language(DW_LANG_C)
	.dwattr $C$DW$T$60, DW_AT_decl_file("C:/ti/ccsv6/tools/compiler/ti-cgt-arm_5.2.6/include/stdint.h")
	.dwattr $C$DW$T$60, DW_AT_decl_line(0x2a)
	.dwattr $C$DW$T$60, DW_AT_decl_column(0x1d)
$C$DW$T$61	.dwtag  DW_TAG_typedef, DW_AT_name("int_least8_t")
	.dwattr $C$DW$T$61, DW_AT_type(*$C$DW$T$60)
	.dwattr $C$DW$T$61, DW_AT_language(DW_LANG_C)
	.dwattr $C$DW$T$61, DW_AT_decl_file("C:/ti/ccsv6/tools/compiler/ti-cgt-arm_5.2.6/include/stdint.h")
	.dwattr $C$DW$T$61, DW_AT_decl_line(0x37)
	.dwattr $C$DW$T$61, DW_AT_decl_column(0x17)
$C$DW$T$6	.dwtag  DW_TAG_base_type
	.dwattr $C$DW$T$6, DW_AT_encoding(DW_ATE_unsigned_char)
	.dwattr $C$DW$T$6, DW_AT_name("unsigned char")
	.dwattr $C$DW$T$6, DW_AT_byte_size(0x01)
$C$DW$T$30	.dwtag  DW_TAG_typedef, DW_AT_name("uint8_t")
	.dwattr $C$DW$T$30, DW_AT_type(*$C$DW$T$6)
	.dwattr $C$DW$T$30, DW_AT_language(DW_LANG_C)
	.dwattr $C$DW$T$30, DW_AT_decl_file("C:/ti/ccsv6/tools/compiler/ti-cgt-arm_5.2.6/include/stdint.h")
	.dwattr $C$DW$T$30, DW_AT_decl_line(0x2b)
	.dwattr $C$DW$T$30, DW_AT_decl_column(0x1c)
$C$DW$T$69	.dwtag  DW_TAG_typedef, DW_AT_name("uint_least8_t")
	.dwattr $C$DW$T$69, DW_AT_type(*$C$DW$T$30)
	.dwattr $C$DW$T$69, DW_AT_language(DW_LANG_C)
	.dwattr $C$DW$T$69, DW_AT_decl_file("C:/ti/ccsv6/tools/compiler/ti-cgt-arm_5.2.6/include/stdint.h")
	.dwattr $C$DW$T$69, DW_AT_decl_line(0x38)
	.dwattr $C$DW$T$69, DW_AT_decl_column(0x16)
$C$DW$T$7	.dwtag  DW_TAG_base_type
	.dwattr $C$DW$T$7, DW_AT_encoding(DW_ATE_signed_char)
	.dwattr $C$DW$T$7, DW_AT_name("wchar_t")
	.dwattr $C$DW$T$7, DW_AT_byte_size(0x02)
$C$DW$T$8	.dwtag  DW_TAG_base_type
	.dwattr $C$DW$T$8, DW_AT_encoding(DW_ATE_signed)
	.dwattr $C$DW$T$8, DW_AT_name("short")
	.dwattr $C$DW$T$8, DW_AT_byte_size(0x02)
$C$DW$T$70	.dwtag  DW_TAG_typedef, DW_AT_name("int16_t")
	.dwattr $C$DW$T$70, DW_AT_type(*$C$DW$T$8)
	.dwattr $C$DW$T$70, DW_AT_language(DW_LANG_C)
	.dwattr $C$DW$T$70, DW_AT_decl_file("C:/ti/ccsv6/tools/compiler/ti-cgt-arm_5.2.6/include/stdint.h")
	.dwattr $C$DW$T$70, DW_AT_decl_line(0x2c)
	.dwattr $C$DW$T$70, DW_AT_decl_column(0x1d)
$C$DW$T$71	.dwtag  DW_TAG_typedef, DW_AT_name("int_least16_t")
	.dwattr $C$DW$T$71, DW_AT_type(*$C$DW$T$70)
	.dwattr $C$DW$T$71, DW_AT_language(DW_LANG_C)
	.dwattr $C$DW$T$71, DW_AT_decl_file("C:/ti/ccsv6/tools/compiler/ti-cgt-arm_5.2.6/include/stdint.h")
	.dwattr $C$DW$T$71, DW_AT_decl_line(0x3a)
	.dwattr $C$DW$T$71, DW_AT_decl_column(0x17)
$C$DW$T$9	.dwtag  DW_TAG_base_type
	.dwattr $C$DW$T$9, DW_AT_encoding(DW_ATE_unsigned)
	.dwattr $C$DW$T$9, DW_AT_name("unsigned short")
	.dwattr $C$DW$T$9, DW_AT_byte_size(0x02)
$C$DW$T$72	.dwtag  DW_TAG_typedef, DW_AT_name("_Wchart")
	.dwattr $C$DW$T$72, DW_AT_type(*$C$DW$T$9)
	.dwattr $C$DW$T$72, DW_AT_language(DW_LANG_C)
	.dwattr $C$DW$T$72, DW_AT_decl_file("C:/ti/ccsv6/tools/compiler/ti-cgt-arm_5.2.6/include/yvals.h")
	.dwattr $C$DW$T$72, DW_AT_decl_line(0x1e5)
	.dwattr $C$DW$T$72, DW_AT_decl_column(0x21)
$C$DW$T$73	.dwtag  DW_TAG_typedef, DW_AT_name("_Wintt")
	.dwattr $C$DW$T$73, DW_AT_type(*$C$DW$T$9)
	.dwattr $C$DW$T$73, DW_AT_language(DW_LANG_C)
	.dwattr $C$DW$T$73, DW_AT_decl_file("C:/ti/ccsv6/tools/compiler/ti-cgt-arm_5.2.6/include/yvals.h")
	.dwattr $C$DW$T$73, DW_AT_decl_line(0x1e6)
	.dwattr $C$DW$T$73, DW_AT_decl_column(0x21)
$C$DW$T$74	.dwtag  DW_TAG_typedef, DW_AT_name("uint16_t")
	.dwattr $C$DW$T$74, DW_AT_type(*$C$DW$T$9)
	.dwattr $C$DW$T$74, DW_AT_language(DW_LANG_C)
	.dwattr $C$DW$T$74, DW_AT_decl_file("C:/ti/ccsv6/tools/compiler/ti-cgt-arm_5.2.6/include/stdint.h")
	.dwattr $C$DW$T$74, DW_AT_decl_line(0x2d)
	.dwattr $C$DW$T$74, DW_AT_decl_column(0x1c)
$C$DW$T$75	.dwtag  DW_TAG_typedef, DW_AT_name("uint_least16_t")
	.dwattr $C$DW$T$75, DW_AT_type(*$C$DW$T$74)
	.dwattr $C$DW$T$75, DW_AT_language(DW_LANG_C)
	.dwattr $C$DW$T$75, DW_AT_decl_file("C:/ti/ccsv6/tools/compiler/ti-cgt-arm_5.2.6/include/stdint.h")
	.dwattr $C$DW$T$75, DW_AT_decl_line(0x3b)
	.dwattr $C$DW$T$75, DW_AT_decl_column(0x16)
$C$DW$T$76	.dwtag  DW_TAG_typedef, DW_AT_name("wchar_t")
	.dwattr $C$DW$T$76, DW_AT_type(*$C$DW$T$9)
	.dwattr $C$DW$T$76, DW_AT_language(DW_LANG_C)
	.dwattr $C$DW$T$76, DW_AT_decl_file("C:/ti/ccsv6/tools/compiler/ti-cgt-arm_5.2.6/include/stdlib.h")
	.dwattr $C$DW$T$76, DW_AT_decl_line(0x75)
	.dwattr $C$DW$T$76, DW_AT_decl_column(0x1a)
$C$DW$T$10	.dwtag  DW_TAG_base_type
	.dwattr $C$DW$T$10, DW_AT_encoding(DW_ATE_signed)
	.dwattr $C$DW$T$10, DW_AT_name("int")
	.dwattr $C$DW$T$10, DW_AT_byte_size(0x04)
$C$DW$T$77	.dwtag  DW_TAG_typedef, DW_AT_name("_Ptrdifft")
	.dwattr $C$DW$T$77, DW_AT_type(*$C$DW$T$10)
	.dwattr $C$DW$T$77, DW_AT_language(DW_LANG_C)
	.dwattr $C$DW$T$77, DW_AT_decl_file("C:/ti/ccsv6/tools/compiler/ti-cgt-arm_5.2.6/include/yvals.h")
	.dwattr $C$DW$T$77, DW_AT_decl_line(0xa9)
	.dwattr $C$DW$T$77, DW_AT_decl_column(0x1e)

$C$DW$T$84	.dwtag  DW_TAG_subroutine_type
	.dwattr $C$DW$T$84, DW_AT_type(*$C$DW$T$10)
	.dwattr $C$DW$T$84, DW_AT_language(DW_LANG_C)
$C$DW$282	.dwtag  DW_TAG_formal_parameter
	.dwattr $C$DW$282, DW_AT_type(*$C$DW$T$59)
$C$DW$283	.dwtag  DW_TAG_formal_parameter
	.dwattr $C$DW$283, DW_AT_type(*$C$DW$T$59)
	.dwendtag $C$DW$T$84

$C$DW$T$85	.dwtag  DW_TAG_pointer_type
	.dwattr $C$DW$T$85, DW_AT_type(*$C$DW$T$84)
	.dwattr $C$DW$T$85, DW_AT_address_class(0x20)
$C$DW$T$86	.dwtag  DW_TAG_typedef, DW_AT_name("__TI_compar_fn")
	.dwattr $C$DW$T$86, DW_AT_type(*$C$DW$T$85)
	.dwattr $C$DW$T$86, DW_AT_language(DW_LANG_C)
	.dwattr $C$DW$T$86, DW_AT_decl_file("C:/ti/ccsv6/tools/compiler/ti-cgt-arm_5.2.6/include/stdlib.h")
	.dwattr $C$DW$T$86, DW_AT_decl_line(0xb6)
	.dwattr $C$DW$T$86, DW_AT_decl_column(0x13)
$C$DW$T$87	.dwtag  DW_TAG_typedef, DW_AT_name("int32_t")
	.dwattr $C$DW$T$87, DW_AT_type(*$C$DW$T$10)
	.dwattr $C$DW$T$87, DW_AT_language(DW_LANG_C)
	.dwattr $C$DW$T$87, DW_AT_decl_file("C:/ti/ccsv6/tools/compiler/ti-cgt-arm_5.2.6/include/stdint.h")
	.dwattr $C$DW$T$87, DW_AT_decl_line(0x2e)
	.dwattr $C$DW$T$87, DW_AT_decl_column(0x1d)
$C$DW$T$90	.dwtag  DW_TAG_typedef, DW_AT_name("int_fast16_t")
	.dwattr $C$DW$T$90, DW_AT_type(*$C$DW$T$87)
	.dwattr $C$DW$T$90, DW_AT_language(DW_LANG_C)
	.dwattr $C$DW$T$90, DW_AT_decl_file("C:/ti/ccsv6/tools/compiler/ti-cgt-arm_5.2.6/include/stdint.h")
	.dwattr $C$DW$T$90, DW_AT_decl_line(0x47)
	.dwattr $C$DW$T$90, DW_AT_decl_column(0x17)
$C$DW$T$91	.dwtag  DW_TAG_typedef, DW_AT_name("int_fast32_t")
	.dwattr $C$DW$T$91, DW_AT_type(*$C$DW$T$87)
	.dwattr $C$DW$T$91, DW_AT_language(DW_LANG_C)
	.dwattr $C$DW$T$91, DW_AT_decl_file("C:/ti/ccsv6/tools/compiler/ti-cgt-arm_5.2.6/include/stdint.h")
	.dwattr $C$DW$T$91, DW_AT_decl_line(0x4a)
	.dwattr $C$DW$T$91, DW_AT_decl_column(0x17)
$C$DW$T$92	.dwtag  DW_TAG_typedef, DW_AT_name("int_fast8_t")
	.dwattr $C$DW$T$92, DW_AT_type(*$C$DW$T$87)
	.dwattr $C$DW$T$92, DW_AT_language(DW_LANG_C)
	.dwattr $C$DW$T$92, DW_AT_decl_file("C:/ti/ccsv6/tools/compiler/ti-cgt-arm_5.2.6/include/stdint.h")
	.dwattr $C$DW$T$92, DW_AT_decl_line(0x45)
	.dwattr $C$DW$T$92, DW_AT_decl_column(0x17)
$C$DW$T$93	.dwtag  DW_TAG_typedef, DW_AT_name("int_least32_t")
	.dwattr $C$DW$T$93, DW_AT_type(*$C$DW$T$87)
	.dwattr $C$DW$T$93, DW_AT_language(DW_LANG_C)
	.dwattr $C$DW$T$93, DW_AT_decl_file("C:/ti/ccsv6/tools/compiler/ti-cgt-arm_5.2.6/include/stdint.h")
	.dwattr $C$DW$T$93, DW_AT_decl_line(0x3c)
	.dwattr $C$DW$T$93, DW_AT_decl_column(0x17)
$C$DW$T$94	.dwtag  DW_TAG_typedef, DW_AT_name("intptr_t")
	.dwattr $C$DW$T$94, DW_AT_type(*$C$DW$T$10)
	.dwattr $C$DW$T$94, DW_AT_language(DW_LANG_C)
	.dwattr $C$DW$T$94, DW_AT_decl_file("C:/ti/ccsv6/tools/compiler/ti-cgt-arm_5.2.6/include/stdint.h")
	.dwattr $C$DW$T$94, DW_AT_decl_line(0x52)
	.dwattr $C$DW$T$94, DW_AT_decl_column(0x1a)
$C$DW$T$11	.dwtag  DW_TAG_base_type
	.dwattr $C$DW$T$11, DW_AT_encoding(DW_ATE_unsigned)
	.dwattr $C$DW$T$11, DW_AT_name("unsigned int")
	.dwattr $C$DW$T$11, DW_AT_byte_size(0x04)
$C$DW$T$95	.dwtag  DW_TAG_typedef, DW_AT_name("_Sizet")
	.dwattr $C$DW$T$95, DW_AT_type(*$C$DW$T$11)
	.dwattr $C$DW$T$95, DW_AT_language(DW_LANG_C)
	.dwattr $C$DW$T$95, DW_AT_decl_file("C:/ti/ccsv6/tools/compiler/ti-cgt-arm_5.2.6/include/yvals.h")
	.dwattr $C$DW$T$95, DW_AT_decl_line(0xab)
	.dwattr $C$DW$T$95, DW_AT_decl_column(0x1a)
$C$DW$T$26	.dwtag  DW_TAG_typedef, DW_AT_name("size_t")
	.dwattr $C$DW$T$26, DW_AT_type(*$C$DW$T$11)
	.dwattr $C$DW$T$26, DW_AT_language(DW_LANG_C)
	.dwattr $C$DW$T$26, DW_AT_decl_file("C:/ti/ccsv6/tools/compiler/ti-cgt-arm_5.2.6/include/string.h")
	.dwattr $C$DW$T$26, DW_AT_decl_line(0x3d)
	.dwattr $C$DW$T$26, DW_AT_decl_column(0x19)
$C$DW$T$29	.dwtag  DW_TAG_typedef, DW_AT_name("uint32_t")
	.dwattr $C$DW$T$29, DW_AT_type(*$C$DW$T$11)
	.dwattr $C$DW$T$29, DW_AT_language(DW_LANG_C)
	.dwattr $C$DW$T$29, DW_AT_decl_file("C:/ti/ccsv6/tools/compiler/ti-cgt-arm_5.2.6/include/stdint.h")
	.dwattr $C$DW$T$29, DW_AT_decl_line(0x2f)
	.dwattr $C$DW$T$29, DW_AT_decl_column(0x1c)
$C$DW$T$101	.dwtag  DW_TAG_typedef, DW_AT_name("uint_fast16_t")
	.dwattr $C$DW$T$101, DW_AT_type(*$C$DW$T$29)
	.dwattr $C$DW$T$101, DW_AT_language(DW_LANG_C)
	.dwattr $C$DW$T$101, DW_AT_decl_file("C:/ti/ccsv6/tools/compiler/ti-cgt-arm_5.2.6/include/stdint.h")
	.dwattr $C$DW$T$101, DW_AT_decl_line(0x48)
	.dwattr $C$DW$T$101, DW_AT_decl_column(0x16)
$C$DW$T$102	.dwtag  DW_TAG_typedef, DW_AT_name("uint_fast32_t")
	.dwattr $C$DW$T$102, DW_AT_type(*$C$DW$T$29)
	.dwattr $C$DW$T$102, DW_AT_language(DW_LANG_C)
	.dwattr $C$DW$T$102, DW_AT_decl_file("C:/ti/ccsv6/tools/compiler/ti-cgt-arm_5.2.6/include/stdint.h")
	.dwattr $C$DW$T$102, DW_AT_decl_line(0x4b)
	.dwattr $C$DW$T$102, DW_AT_decl_column(0x16)
$C$DW$T$103	.dwtag  DW_TAG_typedef, DW_AT_name("uint_fast8_t")
	.dwattr $C$DW$T$103, DW_AT_type(*$C$DW$T$29)
	.dwattr $C$DW$T$103, DW_AT_language(DW_LANG_C)
	.dwattr $C$DW$T$103, DW_AT_decl_file("C:/ti/ccsv6/tools/compiler/ti-cgt-arm_5.2.6/include/stdint.h")
	.dwattr $C$DW$T$103, DW_AT_decl_line(0x46)
	.dwattr $C$DW$T$103, DW_AT_decl_column(0x16)
$C$DW$T$104	.dwtag  DW_TAG_typedef, DW_AT_name("uint_least32_t")
	.dwattr $C$DW$T$104, DW_AT_type(*$C$DW$T$29)
	.dwattr $C$DW$T$104, DW_AT_language(DW_LANG_C)
	.dwattr $C$DW$T$104, DW_AT_decl_file("C:/ti/ccsv6/tools/compiler/ti-cgt-arm_5.2.6/include/stdint.h")
	.dwattr $C$DW$T$104, DW_AT_decl_line(0x3d)
	.dwattr $C$DW$T$104, DW_AT_decl_column(0x16)
$C$DW$T$105	.dwtag  DW_TAG_typedef, DW_AT_name("uintptr_t")
	.dwattr $C$DW$T$105, DW_AT_type(*$C$DW$T$11)
	.dwattr $C$DW$T$105, DW_AT_language(DW_LANG_C)
	.dwattr $C$DW$T$105, DW_AT_decl_file("C:/ti/ccsv6/tools/compiler/ti-cgt-arm_5.2.6/include/stdint.h")
	.dwattr $C$DW$T$105, DW_AT_decl_line(0x53)
	.dwattr $C$DW$T$105, DW_AT_decl_column(0x1a)
$C$DW$T$12	.dwtag  DW_TAG_base_type
	.dwattr $C$DW$T$12, DW_AT_encoding(DW_ATE_signed)
	.dwattr $C$DW$T$12, DW_AT_name("long")
	.dwattr $C$DW$T$12, DW_AT_byte_size(0x04)
$C$DW$T$106	.dwtag  DW_TAG_typedef, DW_AT_name("_Int32t")
	.dwattr $C$DW$T$106, DW_AT_type(*$C$DW$T$12)
	.dwattr $C$DW$T$106, DW_AT_language(DW_LANG_C)
	.dwattr $C$DW$T$106, DW_AT_decl_file("C:/ti/ccsv6/tools/compiler/ti-cgt-arm_5.2.6/include/yvals.h")
	.dwattr $C$DW$T$106, DW_AT_decl_line(0xa6)
	.dwattr $C$DW$T$106, DW_AT_decl_column(0x0e)
$C$DW$T$13	.dwtag  DW_TAG_base_type
	.dwattr $C$DW$T$13, DW_AT_encoding(DW_ATE_unsigned)
	.dwattr $C$DW$T$13, DW_AT_name("unsigned long")
	.dwattr $C$DW$T$13, DW_AT_byte_size(0x04)
$C$DW$T$107	.dwtag  DW_TAG_typedef, DW_AT_name("_Uint32t")
	.dwattr $C$DW$T$107, DW_AT_type(*$C$DW$T$13)
	.dwattr $C$DW$T$107, DW_AT_language(DW_LANG_C)
	.dwattr $C$DW$T$107, DW_AT_decl_file("C:/ti/ccsv6/tools/compiler/ti-cgt-arm_5.2.6/include/yvals.h")
	.dwattr $C$DW$T$107, DW_AT_decl_line(0xa7)
	.dwattr $C$DW$T$107, DW_AT_decl_column(0x17)
$C$DW$T$14	.dwtag  DW_TAG_base_type
	.dwattr $C$DW$T$14, DW_AT_encoding(DW_ATE_signed)
	.dwattr $C$DW$T$14, DW_AT_name("long long")
	.dwattr $C$DW$T$14, DW_AT_byte_size(0x08)
$C$DW$T$108	.dwtag  DW_TAG_typedef, DW_AT_name("_Longlong")
	.dwattr $C$DW$T$108, DW_AT_type(*$C$DW$T$14)
	.dwattr $C$DW$T$108, DW_AT_language(DW_LANG_C)
	.dwattr $C$DW$T$108, DW_AT_decl_file("C:/ti/ccsv6/tools/compiler/ti-cgt-arm_5.2.6/include/yvals.h")
	.dwattr $C$DW$T$108, DW_AT_decl_line(0x1b5)
	.dwattr $C$DW$T$108, DW_AT_decl_column(0x13)
$C$DW$T$109	.dwtag  DW_TAG_typedef, DW_AT_name("int64_t")
	.dwattr $C$DW$T$109, DW_AT_type(*$C$DW$T$14)
	.dwattr $C$DW$T$109, DW_AT_language(DW_LANG_C)
	.dwattr $C$DW$T$109, DW_AT_decl_file("C:/ti/ccsv6/tools/compiler/ti-cgt-arm_5.2.6/include/stdint.h")
	.dwattr $C$DW$T$109, DW_AT_decl_line(0x32)
	.dwattr $C$DW$T$109, DW_AT_decl_column(0x21)
$C$DW$T$110	.dwtag  DW_TAG_typedef, DW_AT_name("int_fast64_t")
	.dwattr $C$DW$T$110, DW_AT_type(*$C$DW$T$109)
	.dwattr $C$DW$T$110, DW_AT_language(DW_LANG_C)
	.dwattr $C$DW$T$110, DW_AT_decl_file("C:/ti/ccsv6/tools/compiler/ti-cgt-arm_5.2.6/include/stdint.h")
	.dwattr $C$DW$T$110, DW_AT_decl_line(0x4e)
	.dwattr $C$DW$T$110, DW_AT_decl_column(0x17)
$C$DW$T$111	.dwtag  DW_TAG_typedef, DW_AT_name("int_least64_t")
	.dwattr $C$DW$T$111, DW_AT_type(*$C$DW$T$109)
	.dwattr $C$DW$T$111, DW_AT_language(DW_LANG_C)
	.dwattr $C$DW$T$111, DW_AT_decl_file("C:/ti/ccsv6/tools/compiler/ti-cgt-arm_5.2.6/include/stdint.h")
	.dwattr $C$DW$T$111, DW_AT_decl_line(0x40)
	.dwattr $C$DW$T$111, DW_AT_decl_column(0x17)
$C$DW$T$112	.dwtag  DW_TAG_typedef, DW_AT_name("intmax_t")
	.dwattr $C$DW$T$112, DW_AT_type(*$C$DW$T$14)
	.dwattr $C$DW$T$112, DW_AT_language(DW_LANG_C)
	.dwattr $C$DW$T$112, DW_AT_decl_file("C:/ti/ccsv6/tools/compiler/ti-cgt-arm_5.2.6/include/stdint.h")
	.dwattr $C$DW$T$112, DW_AT_decl_line(0x56)
	.dwattr $C$DW$T$112, DW_AT_decl_column(0x20)
$C$DW$T$15	.dwtag  DW_TAG_base_type
	.dwattr $C$DW$T$15, DW_AT_encoding(DW_ATE_unsigned)
	.dwattr $C$DW$T$15, DW_AT_name("unsigned long long")
	.dwattr $C$DW$T$15, DW_AT_byte_size(0x08)
$C$DW$T$113	.dwtag  DW_TAG_typedef, DW_AT_name("_ULonglong")
	.dwattr $C$DW$T$113, DW_AT_type(*$C$DW$T$15)
	.dwattr $C$DW$T$113, DW_AT_language(DW_LANG_C)
	.dwattr $C$DW$T$113, DW_AT_decl_file("C:/ti/ccsv6/tools/compiler/ti-cgt-arm_5.2.6/include/yvals.h")
	.dwattr $C$DW$T$113, DW_AT_decl_line(0x1b6)
	.dwattr $C$DW$T$113, DW_AT_decl_column(0x14)
$C$DW$T$114	.dwtag  DW_TAG_typedef, DW_AT_name("uint64_t")
	.dwattr $C$DW$T$114, DW_AT_type(*$C$DW$T$15)
	.dwattr $C$DW$T$114, DW_AT_language(DW_LANG_C)
	.dwattr $C$DW$T$114, DW_AT_decl_file("C:/ti/ccsv6/tools/compiler/ti-cgt-arm_5.2.6/include/stdint.h")
	.dwattr $C$DW$T$114, DW_AT_decl_line(0x33)
	.dwattr $C$DW$T$114, DW_AT_decl_column(0x20)
$C$DW$T$115	.dwtag  DW_TAG_typedef, DW_AT_name("uint_fast64_t")
	.dwattr $C$DW$T$115, DW_AT_type(*$C$DW$T$114)
	.dwattr $C$DW$T$115, DW_AT_language(DW_LANG_C)
	.dwattr $C$DW$T$115, DW_AT_decl_file("C:/ti/ccsv6/tools/compiler/ti-cgt-arm_5.2.6/include/stdint.h")
	.dwattr $C$DW$T$115, DW_AT_decl_line(0x4f)
	.dwattr $C$DW$T$115, DW_AT_decl_column(0x16)
$C$DW$T$116	.dwtag  DW_TAG_typedef, DW_AT_name("uint_least64_t")
	.dwattr $C$DW$T$116, DW_AT_type(*$C$DW$T$114)
	.dwattr $C$DW$T$116, DW_AT_language(DW_LANG_C)
	.dwattr $C$DW$T$116, DW_AT_decl_file("C:/ti/ccsv6/tools/compiler/ti-cgt-arm_5.2.6/include/stdint.h")
	.dwattr $C$DW$T$116, DW_AT_decl_line(0x41)
	.dwattr $C$DW$T$116, DW_AT_decl_column(0x16)
$C$DW$T$117	.dwtag  DW_TAG_typedef, DW_AT_name("uintmax_t")
	.dwattr $C$DW$T$117, DW_AT_type(*$C$DW$T$15)
	.dwattr $C$DW$T$117, DW_AT_language(DW_LANG_C)
	.dwattr $C$DW$T$117, DW_AT_decl_file("C:/ti/ccsv6/tools/compiler/ti-cgt-arm_5.2.6/include/stdint.h")
	.dwattr $C$DW$T$117, DW_AT_decl_line(0x57)
	.dwattr $C$DW$T$117, DW_AT_decl_column(0x20)
$C$DW$T$16	.dwtag  DW_TAG_base_type
	.dwattr $C$DW$T$16, DW_AT_encoding(DW_ATE_float)
	.dwattr $C$DW$T$16, DW_AT_name("float")
	.dwattr $C$DW$T$16, DW_AT_byte_size(0x04)
$C$DW$T$17	.dwtag  DW_TAG_base_type
	.dwattr $C$DW$T$17, DW_AT_encoding(DW_ATE_float)
	.dwattr $C$DW$T$17, DW_AT_name("double")
	.dwattr $C$DW$T$17, DW_AT_byte_size(0x08)
$C$DW$T$18	.dwtag  DW_TAG_base_type
	.dwattr $C$DW$T$18, DW_AT_encoding(DW_ATE_float)
	.dwattr $C$DW$T$18, DW_AT_name("long double")
	.dwattr $C$DW$T$18, DW_AT_byte_size(0x08)
$C$DW$T$118	.dwtag  DW_TAG_typedef, DW_AT_name("_Sysch_t")
	.dwattr $C$DW$T$118, DW_AT_type(*$C$DW$T$6)
	.dwattr $C$DW$T$118, DW_AT_language(DW_LANG_C)
	.dwattr $C$DW$T$118, DW_AT_decl_file("C:/ti/ccsv6/tools/compiler/ti-cgt-arm_5.2.6/include/yvals.h")
	.dwattr $C$DW$T$118, DW_AT_decl_line(0x218)
	.dwattr $C$DW$T$118, DW_AT_decl_column(0x0e)
$C$DW$T$42	.dwtag  DW_TAG_pointer_type
	.dwattr $C$DW$T$42, DW_AT_type(*$C$DW$T$6)
	.dwattr $C$DW$T$42, DW_AT_address_class(0x20)
$C$DW$T$134	.dwtag  DW_TAG_typedef, DW_AT_name("__builtin_va_list")
	.dwattr $C$DW$T$134, DW_AT_type(*$C$DW$T$42)
	.dwattr $C$DW$T$134, DW_AT_language(DW_LANG_C)
	.dwattr $C$DW$T$134, DW_AT_decl_file("../esp8266.c")
	.dwattr $C$DW$T$134, DW_AT_decl_line(0x189)
	.dwattr $C$DW$T$134, DW_AT_decl_column(0x01)
$C$DW$T$45	.dwtag  DW_TAG_const_type
	.dwattr $C$DW$T$45, DW_AT_type(*$C$DW$T$6)
$C$DW$T$46	.dwtag  DW_TAG_pointer_type
	.dwattr $C$DW$T$46, DW_AT_type(*$C$DW$T$45)
	.dwattr $C$DW$T$46, DW_AT_address_class(0x20)

$C$DW$T$119	.dwtag  DW_TAG_array_type
	.dwattr $C$DW$T$119, DW_AT_type(*$C$DW$T$45)
	.dwattr $C$DW$T$119, DW_AT_language(DW_LANG_C)
	.dwattr $C$DW$T$119, DW_AT_byte_size(0x05)
$C$DW$284	.dwtag  DW_TAG_subrange_type
	.dwattr $C$DW$284, DW_AT_upper_bound(0x04)
	.dwendtag $C$DW$T$119


$C$DW$T$120	.dwtag  DW_TAG_array_type
	.dwattr $C$DW$T$120, DW_AT_type(*$C$DW$T$45)
	.dwattr $C$DW$T$120, DW_AT_language(DW_LANG_C)
	.dwattr $C$DW$T$120, DW_AT_byte_size(0x03)
$C$DW$285	.dwtag  DW_TAG_subrange_type
	.dwattr $C$DW$285, DW_AT_upper_bound(0x02)
	.dwendtag $C$DW$T$120


$C$DW$T$121	.dwtag  DW_TAG_array_type
	.dwattr $C$DW$T$121, DW_AT_type(*$C$DW$T$45)
	.dwattr $C$DW$T$121, DW_AT_language(DW_LANG_C)
	.dwattr $C$DW$T$121, DW_AT_byte_size(0x22)
$C$DW$286	.dwtag  DW_TAG_subrange_type
	.dwattr $C$DW$286, DW_AT_upper_bound(0x21)
	.dwendtag $C$DW$T$121


$C$DW$T$122	.dwtag  DW_TAG_array_type
	.dwattr $C$DW$T$122, DW_AT_type(*$C$DW$T$45)
	.dwattr $C$DW$T$122, DW_AT_language(DW_LANG_C)
	.dwattr $C$DW$T$122, DW_AT_byte_size(0x08)
$C$DW$287	.dwtag  DW_TAG_subrange_type
	.dwattr $C$DW$287, DW_AT_upper_bound(0x07)
	.dwendtag $C$DW$T$122


$C$DW$T$123	.dwtag  DW_TAG_array_type
	.dwattr $C$DW$T$123, DW_AT_type(*$C$DW$T$45)
	.dwattr $C$DW$T$123, DW_AT_language(DW_LANG_C)
	.dwattr $C$DW$T$123, DW_AT_byte_size(0x0e)
$C$DW$288	.dwtag  DW_TAG_subrange_type
	.dwattr $C$DW$288, DW_AT_upper_bound(0x0d)
	.dwendtag $C$DW$T$123


$C$DW$T$124	.dwtag  DW_TAG_array_type
	.dwattr $C$DW$T$124, DW_AT_type(*$C$DW$T$45)
	.dwattr $C$DW$T$124, DW_AT_language(DW_LANG_C)
	.dwattr $C$DW$T$124, DW_AT_byte_size(0x02)
$C$DW$289	.dwtag  DW_TAG_subrange_type
	.dwattr $C$DW$289, DW_AT_upper_bound(0x01)
	.dwendtag $C$DW$T$124


$C$DW$T$125	.dwtag  DW_TAG_array_type
	.dwattr $C$DW$T$125, DW_AT_type(*$C$DW$T$45)
	.dwattr $C$DW$T$125, DW_AT_language(DW_LANG_C)
	.dwattr $C$DW$T$125, DW_AT_byte_size(0x0f)
$C$DW$290	.dwtag  DW_TAG_subrange_type
	.dwattr $C$DW$290, DW_AT_upper_bound(0x0e)
	.dwendtag $C$DW$T$125


$C$DW$T$126	.dwtag  DW_TAG_array_type
	.dwattr $C$DW$T$126, DW_AT_type(*$C$DW$T$45)
	.dwattr $C$DW$T$126, DW_AT_language(DW_LANG_C)
	.dwattr $C$DW$T$126, DW_AT_byte_size(0x0a)
$C$DW$291	.dwtag  DW_TAG_subrange_type
	.dwattr $C$DW$291, DW_AT_upper_bound(0x09)
	.dwendtag $C$DW$T$126


$C$DW$T$127	.dwtag  DW_TAG_array_type
	.dwattr $C$DW$T$127, DW_AT_type(*$C$DW$T$45)
	.dwattr $C$DW$T$127, DW_AT_language(DW_LANG_C)
	.dwattr $C$DW$T$127, DW_AT_byte_size(0x04)
$C$DW$292	.dwtag  DW_TAG_subrange_type
	.dwattr $C$DW$292, DW_AT_upper_bound(0x03)
	.dwendtag $C$DW$T$127


$C$DW$T$135	.dwtag  DW_TAG_array_type
	.dwattr $C$DW$T$135, DW_AT_type(*$C$DW$T$6)
	.dwattr $C$DW$T$135, DW_AT_language(DW_LANG_C)
	.dwattr $C$DW$T$135, DW_AT_byte_size(0x3c)
$C$DW$293	.dwtag  DW_TAG_subrange_type
	.dwattr $C$DW$293, DW_AT_upper_bound(0x3b)
	.dwendtag $C$DW$T$135


$C$DW$T$136	.dwtag  DW_TAG_array_type
	.dwattr $C$DW$T$136, DW_AT_type(*$C$DW$T$6)
	.dwattr $C$DW$T$136, DW_AT_language(DW_LANG_C)
	.dwattr $C$DW$T$136, DW_AT_byte_size(0x6a)
$C$DW$294	.dwtag  DW_TAG_subrange_type
	.dwattr $C$DW$294, DW_AT_upper_bound(0x69)
	.dwendtag $C$DW$T$136


$C$DW$T$137	.dwtag  DW_TAG_array_type
	.dwattr $C$DW$T$137, DW_AT_type(*$C$DW$T$6)
	.dwattr $C$DW$T$137, DW_AT_language(DW_LANG_C)
	.dwattr $C$DW$T$137, DW_AT_byte_size(0x0f)
$C$DW$295	.dwtag  DW_TAG_subrange_type
	.dwattr $C$DW$295, DW_AT_upper_bound(0x0e)
	.dwendtag $C$DW$T$137


$C$DW$T$138	.dwtag  DW_TAG_array_type
	.dwattr $C$DW$T$138, DW_AT_type(*$C$DW$T$6)
	.dwattr $C$DW$T$138, DW_AT_language(DW_LANG_C)
	.dwattr $C$DW$T$138, DW_AT_byte_size(0x03)
$C$DW$296	.dwtag  DW_TAG_subrange_type
	.dwattr $C$DW$296, DW_AT_upper_bound(0x02)
	.dwendtag $C$DW$T$138


$C$DW$T$140	.dwtag  DW_TAG_array_type
	.dwattr $C$DW$T$140, DW_AT_type(*$C$DW$T$6)
	.dwattr $C$DW$T$140, DW_AT_language(DW_LANG_C)
	.dwattr $C$DW$T$140, DW_AT_byte_size(0x02)
$C$DW$297	.dwtag  DW_TAG_subrange_type
	.dwattr $C$DW$297, DW_AT_upper_bound(0x01)
	.dwendtag $C$DW$T$140


$C$DW$T$142	.dwtag  DW_TAG_array_type
	.dwattr $C$DW$T$142, DW_AT_type(*$C$DW$T$6)
	.dwattr $C$DW$T$142, DW_AT_language(DW_LANG_C)
	.dwattr $C$DW$T$142, DW_AT_byte_size(0x06)
$C$DW$298	.dwtag  DW_TAG_subrange_type
	.dwattr $C$DW$298, DW_AT_upper_bound(0x05)
	.dwendtag $C$DW$T$142


$C$DW$T$156	.dwtag  DW_TAG_array_type
	.dwattr $C$DW$T$156, DW_AT_type(*$C$DW$T$6)
	.dwattr $C$DW$T$156, DW_AT_language(DW_LANG_C)
	.dwattr $C$DW$T$156, DW_AT_byte_size(0x05)
$C$DW$299	.dwtag  DW_TAG_subrange_type
	.dwattr $C$DW$299, DW_AT_upper_bound(0x04)
	.dwendtag $C$DW$T$156


$C$DW$T$157	.dwtag  DW_TAG_array_type
	.dwattr $C$DW$T$157, DW_AT_type(*$C$DW$T$6)
	.dwattr $C$DW$T$157, DW_AT_language(DW_LANG_C)
	.dwattr $C$DW$T$157, DW_AT_byte_size(0x08)
$C$DW$300	.dwtag  DW_TAG_subrange_type
	.dwattr $C$DW$300, DW_AT_upper_bound(0x07)
	.dwendtag $C$DW$T$157


$C$DW$T$159	.dwtag  DW_TAG_array_type
	.dwattr $C$DW$T$159, DW_AT_type(*$C$DW$T$6)
	.dwattr $C$DW$T$159, DW_AT_language(DW_LANG_C)
	.dwattr $C$DW$T$159, DW_AT_byte_size(0x0e)
$C$DW$301	.dwtag  DW_TAG_subrange_type
	.dwattr $C$DW$301, DW_AT_upper_bound(0x0d)
	.dwendtag $C$DW$T$159


$C$DW$T$160	.dwtag  DW_TAG_array_type
	.dwattr $C$DW$T$160, DW_AT_type(*$C$DW$T$6)
	.dwattr $C$DW$T$160, DW_AT_language(DW_LANG_C)
	.dwattr $C$DW$T$160, DW_AT_byte_size(0x22)
$C$DW$302	.dwtag  DW_TAG_subrange_type
	.dwattr $C$DW$302, DW_AT_upper_bound(0x21)
	.dwendtag $C$DW$T$160


$C$DW$T$161	.dwtag  DW_TAG_array_type
	.dwattr $C$DW$T$161, DW_AT_type(*$C$DW$T$6)
	.dwattr $C$DW$T$161, DW_AT_language(DW_LANG_C)
	.dwattr $C$DW$T$161, DW_AT_byte_size(0x0a)
$C$DW$303	.dwtag  DW_TAG_subrange_type
	.dwattr $C$DW$303, DW_AT_upper_bound(0x09)
	.dwendtag $C$DW$T$161


$C$DW$T$162	.dwtag  DW_TAG_array_type
	.dwattr $C$DW$T$162, DW_AT_type(*$C$DW$T$6)
	.dwattr $C$DW$T$162, DW_AT_language(DW_LANG_C)
	.dwattr $C$DW$T$162, DW_AT_byte_size(0x04)
$C$DW$304	.dwtag  DW_TAG_subrange_type
	.dwattr $C$DW$304, DW_AT_upper_bound(0x03)
	.dwendtag $C$DW$T$162

$C$DW$T$163	.dwtag  DW_TAG_base_type
	.dwattr $C$DW$T$163, DW_AT_encoding(DW_ATE_unsigned_char)
	.dwattr $C$DW$T$163, DW_AT_name("unsigned char")
	.dwattr $C$DW$T$163, DW_AT_byte_size(0x01)

$C$DW$T$22	.dwtag  DW_TAG_structure_type
	.dwattr $C$DW$T$22, DW_AT_name("__va_list")
	.dwattr $C$DW$T$22, DW_AT_byte_size(0x04)
$C$DW$305	.dwtag  DW_TAG_member
	.dwattr $C$DW$305, DW_AT_type(*$C$DW$T$3)
	.dwattr $C$DW$305, DW_AT_name("__ap")
	.dwattr $C$DW$305, DW_AT_TI_symbol_name("__ap")
	.dwattr $C$DW$305, DW_AT_data_member_location[DW_OP_plus_uconst 0x0]
	.dwattr $C$DW$305, DW_AT_accessibility(DW_ACCESS_public)
	.dwattr $C$DW$305, DW_AT_decl_file("C:/ti/ccsv6/tools/compiler/ti-cgt-arm_5.2.6/include/stdarg.h")
	.dwattr $C$DW$305, DW_AT_decl_line(0x36)
	.dwattr $C$DW$305, DW_AT_decl_column(0x0c)
	.dwendtag $C$DW$T$22

	.dwattr $C$DW$T$22, DW_AT_decl_file("C:/ti/ccsv6/tools/compiler/ti-cgt-arm_5.2.6/include/stdarg.h")
	.dwattr $C$DW$T$22, DW_AT_decl_line(0x35)
	.dwattr $C$DW$T$22, DW_AT_decl_column(0x10)
$C$DW$T$166	.dwtag  DW_TAG_typedef, DW_AT_name("va_list")
	.dwattr $C$DW$T$166, DW_AT_type(*$C$DW$T$22)
	.dwattr $C$DW$T$166, DW_AT_language(DW_LANG_C)
	.dwattr $C$DW$T$166, DW_AT_decl_file("C:/ti/ccsv6/tools/compiler/ti-cgt-arm_5.2.6/include/stdarg.h")
	.dwattr $C$DW$T$166, DW_AT_decl_line(0x37)
	.dwattr $C$DW$T$166, DW_AT_decl_column(0x03)
$C$DW$T$167	.dwtag  DW_TAG_typedef, DW_AT_name("_Va_list")
	.dwattr $C$DW$T$167, DW_AT_type(*$C$DW$T$166)
	.dwattr $C$DW$T$167, DW_AT_language(DW_LANG_C)
	.dwattr $C$DW$T$167, DW_AT_decl_file("C:/ti/ccsv6/tools/compiler/ti-cgt-arm_5.2.6/include/yvals.h")
	.dwattr $C$DW$T$167, DW_AT_decl_line(0x1f6)
	.dwattr $C$DW$T$167, DW_AT_decl_column(0x17)
	.dwattr $C$DW$CU, DW_AT_language(DW_LANG_C)

;***************************************************************
;* DWARF CIE ENTRIES                                           *
;***************************************************************

$C$DW$CIE	.dwcie 14
	.dwcfi	cfa_register, 13
	.dwcfi	cfa_offset, 0
	.dwcfi	undefined, 0
	.dwcfi	undefined, 1
	.dwcfi	undefined, 2
	.dwcfi	undefined, 3
	.dwcfi	same_value, 4
	.dwcfi	same_value, 5
	.dwcfi	same_value, 6
	.dwcfi	same_value, 7
	.dwcfi	same_value, 8
	.dwcfi	same_value, 9
	.dwcfi	same_value, 10
	.dwcfi	same_value, 11
	.dwcfi	undefined, 12
	.dwcfi	undefined, 13
	.dwcfi	undefined, 14
	.dwcfi	undefined, 14
	.dwcfi	undefined, 7
	.dwcfi	undefined, 64
	.dwcfi	undefined, 65
	.dwcfi	undefined, 66
	.dwcfi	undefined, 67
	.dwcfi	undefined, 68
	.dwcfi	undefined, 69
	.dwcfi	undefined, 70
	.dwcfi	undefined, 71
	.dwcfi	undefined, 72
	.dwcfi	undefined, 73
	.dwcfi	undefined, 74
	.dwcfi	undefined, 75
	.dwcfi	undefined, 76
	.dwcfi	undefined, 77
	.dwcfi	undefined, 78
	.dwcfi	undefined, 79
	.dwcfi	same_value, 80
	.dwcfi	same_value, 81
	.dwcfi	same_value, 82
	.dwcfi	same_value, 83
	.dwcfi	same_value, 84
	.dwcfi	same_value, 85
	.dwcfi	same_value, 86
	.dwcfi	same_value, 87
	.dwcfi	same_value, 88
	.dwcfi	same_value, 89
	.dwcfi	same_value, 90
	.dwcfi	same_value, 91
	.dwcfi	same_value, 92
	.dwcfi	same_value, 93
	.dwcfi	same_value, 94
	.dwcfi	same_value, 95
	.dwendentry
	.dwendtag $C$DW$CU

