;******************************************************************************
;* TI ARM C/C++ Codegen                                             PC v5.2.5 *
;* Date/Time created: Mon Nov 16 12:40:36 2015                                *
;******************************************************************************
	.compiler_opts --abi=eabi --arm_vmrs_si_workaround=off --code_state=16 --diag_wrap=off --disable_dual_state --embedded_constants=on --endian=little --float_support=FPv4SPD16 --hll_source=on --object_format=elf --silicon_version=7M4 --symdebug:dwarf --symdebug:dwarf_version=3 --unaligned_access=on 
	.thumb

$C$DW$CU	.dwtag  DW_TAG_compile_unit
	.dwattr $C$DW$CU, DW_AT_name("../esp8266.c")
	.dwattr $C$DW$CU, DW_AT_producer("TI TI ARM C/C++ Codegen PC v5.2.5 Copyright (c) 1996-2015 Texas Instruments Incorporated")
	.dwattr $C$DW$CU, DW_AT_TI_version(0x01)
	.dwattr $C$DW$CU, DW_AT_comp_dir("E:\Dev\Ti\Code\GIT\LaunchpadRoomControl\LaunchpadRoomControl\timers\Debug")

$C$DW$1	.dwtag  DW_TAG_subprogram, DW_AT_name("__builtin_strlen")
	.dwattr $C$DW$1, DW_AT_TI_symbol_name("__builtin_strlen")
	.dwattr $C$DW$1, DW_AT_type(*$C$DW$T$11)
	.dwattr $C$DW$1, DW_AT_declaration
	.dwattr $C$DW$1, DW_AT_external
$C$DW$2	.dwtag  DW_TAG_formal_parameter
	.dwattr $C$DW$2, DW_AT_type(*$C$DW$T$37)
	.dwendtag $C$DW$1


$C$DW$3	.dwtag  DW_TAG_subprogram, DW_AT_name("strlen")
	.dwattr $C$DW$3, DW_AT_TI_symbol_name("strlen")
	.dwattr $C$DW$3, DW_AT_type(*$C$DW$T$68)
	.dwattr $C$DW$3, DW_AT_declaration
	.dwattr $C$DW$3, DW_AT_external
	.dwattr $C$DW$3, DW_AT_decl_file("C:/ti/ccsv6/tools/compiler/ti-cgt-arm_5.2.5/include/string.h")
	.dwattr $C$DW$3, DW_AT_decl_line(0x4f)
	.dwattr $C$DW$3, DW_AT_decl_column(0x14)
$C$DW$4	.dwtag  DW_TAG_formal_parameter
	.dwattr $C$DW$4, DW_AT_type(*$C$DW$T$37)
	.dwendtag $C$DW$3


$C$DW$5	.dwtag  DW_TAG_subprogram, DW_AT_name("strcpy")
	.dwattr $C$DW$5, DW_AT_TI_symbol_name("strcpy")
	.dwattr $C$DW$5, DW_AT_type(*$C$DW$T$33)
	.dwattr $C$DW$5, DW_AT_declaration
	.dwattr $C$DW$5, DW_AT_external
	.dwattr $C$DW$5, DW_AT_decl_file("C:/ti/ccsv6/tools/compiler/ti-cgt-arm_5.2.5/include/string.h")
	.dwattr $C$DW$5, DW_AT_decl_line(0x51)
	.dwattr $C$DW$5, DW_AT_decl_column(0x12)
$C$DW$6	.dwtag  DW_TAG_formal_parameter
	.dwattr $C$DW$6, DW_AT_type(*$C$DW$T$33)
$C$DW$7	.dwtag  DW_TAG_formal_parameter
	.dwattr $C$DW$7, DW_AT_type(*$C$DW$T$37)
	.dwendtag $C$DW$5


$C$DW$8	.dwtag  DW_TAG_subprogram, DW_AT_name("strcat")
	.dwattr $C$DW$8, DW_AT_TI_symbol_name("strcat")
	.dwattr $C$DW$8, DW_AT_type(*$C$DW$T$33)
	.dwattr $C$DW$8, DW_AT_declaration
	.dwattr $C$DW$8, DW_AT_external
	.dwattr $C$DW$8, DW_AT_decl_file("C:/ti/ccsv6/tools/compiler/ti-cgt-arm_5.2.5/include/string.h")
	.dwattr $C$DW$8, DW_AT_decl_line(0x53)
	.dwattr $C$DW$8, DW_AT_decl_column(0x12)
$C$DW$9	.dwtag  DW_TAG_formal_parameter
	.dwattr $C$DW$9, DW_AT_type(*$C$DW$T$33)
$C$DW$10	.dwtag  DW_TAG_formal_parameter
	.dwattr $C$DW$10, DW_AT_type(*$C$DW$T$37)
	.dwendtag $C$DW$8


$C$DW$11	.dwtag  DW_TAG_subprogram, DW_AT_name("strncat")
	.dwattr $C$DW$11, DW_AT_TI_symbol_name("strncat")
	.dwattr $C$DW$11, DW_AT_type(*$C$DW$T$33)
	.dwattr $C$DW$11, DW_AT_declaration
	.dwattr $C$DW$11, DW_AT_external
	.dwattr $C$DW$11, DW_AT_decl_file("C:/ti/ccsv6/tools/compiler/ti-cgt-arm_5.2.5/include/string.h")
	.dwattr $C$DW$11, DW_AT_decl_line(0x54)
	.dwattr $C$DW$11, DW_AT_decl_column(0x12)
$C$DW$12	.dwtag  DW_TAG_formal_parameter
	.dwattr $C$DW$12, DW_AT_type(*$C$DW$T$33)
$C$DW$13	.dwtag  DW_TAG_formal_parameter
	.dwattr $C$DW$13, DW_AT_type(*$C$DW$T$37)
$C$DW$14	.dwtag  DW_TAG_formal_parameter
	.dwattr $C$DW$14, DW_AT_type(*$C$DW$T$68)
	.dwendtag $C$DW$11


$C$DW$15	.dwtag  DW_TAG_subprogram, DW_AT_name("strstr")
	.dwattr $C$DW$15, DW_AT_TI_symbol_name("strstr")
	.dwattr $C$DW$15, DW_AT_type(*$C$DW$T$33)
	.dwattr $C$DW$15, DW_AT_declaration
	.dwattr $C$DW$15, DW_AT_external
	.dwattr $C$DW$15, DW_AT_decl_file("C:/ti/ccsv6/tools/compiler/ti-cgt-arm_5.2.5/include/string.h")
	.dwattr $C$DW$15, DW_AT_decl_line(0x60)
	.dwattr $C$DW$15, DW_AT_decl_column(0x16)
$C$DW$16	.dwtag  DW_TAG_formal_parameter
	.dwattr $C$DW$16, DW_AT_type(*$C$DW$T$37)
$C$DW$17	.dwtag  DW_TAG_formal_parameter
	.dwattr $C$DW$17, DW_AT_type(*$C$DW$T$37)
	.dwendtag $C$DW$15


$C$DW$18	.dwtag  DW_TAG_subprogram, DW_AT_name("GPIOPinConfigure")
	.dwattr $C$DW$18, DW_AT_TI_symbol_name("GPIOPinConfigure")
	.dwattr $C$DW$18, DW_AT_declaration
	.dwattr $C$DW$18, DW_AT_external
	.dwattr $C$DW$18, DW_AT_decl_file("E:/Dev/Ti/TivaWare/driverlib/gpio.h")
	.dwattr $C$DW$18, DW_AT_decl_line(0x9f)
	.dwattr $C$DW$18, DW_AT_decl_column(0x0d)
$C$DW$19	.dwtag  DW_TAG_formal_parameter
	.dwattr $C$DW$19, DW_AT_type(*$C$DW$T$22)
	.dwendtag $C$DW$18


$C$DW$20	.dwtag  DW_TAG_subprogram, DW_AT_name("GPIOPinTypeUART")
	.dwattr $C$DW$20, DW_AT_TI_symbol_name("GPIOPinTypeUART")
	.dwattr $C$DW$20, DW_AT_declaration
	.dwattr $C$DW$20, DW_AT_external
	.dwattr $C$DW$20, DW_AT_decl_file("E:/Dev/Ti/TivaWare/driverlib/gpio.h")
	.dwattr $C$DW$20, DW_AT_decl_line(0xb1)
	.dwattr $C$DW$20, DW_AT_decl_column(0x0d)
$C$DW$21	.dwtag  DW_TAG_formal_parameter
	.dwattr $C$DW$21, DW_AT_type(*$C$DW$T$22)
$C$DW$22	.dwtag  DW_TAG_formal_parameter
	.dwattr $C$DW$22, DW_AT_type(*$C$DW$T$25)
	.dwendtag $C$DW$20


$C$DW$23	.dwtag  DW_TAG_subprogram, DW_AT_name("SysCtlPeripheralEnable")
	.dwattr $C$DW$23, DW_AT_TI_symbol_name("SysCtlPeripheralEnable")
	.dwattr $C$DW$23, DW_AT_declaration
	.dwattr $C$DW$23, DW_AT_external
	.dwattr $C$DW$23, DW_AT_decl_file("E:/Dev/Ti/TivaWare/driverlib/sysctl.h")
	.dwattr $C$DW$23, DW_AT_decl_line(0x24e)
	.dwattr $C$DW$23, DW_AT_decl_column(0x0d)
$C$DW$24	.dwtag  DW_TAG_formal_parameter
	.dwattr $C$DW$24, DW_AT_type(*$C$DW$T$22)
	.dwendtag $C$DW$23


$C$DW$25	.dwtag  DW_TAG_subprogram, DW_AT_name("SysCtlDelay")
	.dwattr $C$DW$25, DW_AT_TI_symbol_name("SysCtlDelay")
	.dwattr $C$DW$25, DW_AT_declaration
	.dwattr $C$DW$25, DW_AT_external
	.dwattr $C$DW$25, DW_AT_decl_file("E:/Dev/Ti/TivaWare/driverlib/sysctl.h")
	.dwattr $C$DW$25, DW_AT_decl_line(0x268)
	.dwattr $C$DW$25, DW_AT_decl_column(0x0d)
$C$DW$26	.dwtag  DW_TAG_formal_parameter
	.dwattr $C$DW$26, DW_AT_type(*$C$DW$T$22)
	.dwendtag $C$DW$25


$C$DW$27	.dwtag  DW_TAG_subprogram, DW_AT_name("SysCtlClockGet")
	.dwattr $C$DW$27, DW_AT_TI_symbol_name("SysCtlClockGet")
	.dwattr $C$DW$27, DW_AT_type(*$C$DW$T$22)
	.dwattr $C$DW$27, DW_AT_declaration
	.dwattr $C$DW$27, DW_AT_external
	.dwattr $C$DW$27, DW_AT_decl_file("E:/Dev/Ti/TivaWare/driverlib/sysctl.h")
	.dwattr $C$DW$27, DW_AT_decl_line(0x26c)
	.dwattr $C$DW$27, DW_AT_decl_column(0x11)

$C$DW$28	.dwtag  DW_TAG_subprogram, DW_AT_name("UARTConfigSetExpClk")
	.dwattr $C$DW$28, DW_AT_TI_symbol_name("UARTConfigSetExpClk")
	.dwattr $C$DW$28, DW_AT_declaration
	.dwattr $C$DW$28, DW_AT_external
	.dwattr $C$DW$28, DW_AT_decl_file("E:/Dev/Ti/TivaWare/driverlib/uart.h")
	.dwattr $C$DW$28, DW_AT_decl_line(0xc8)
	.dwattr $C$DW$28, DW_AT_decl_column(0x0d)
$C$DW$29	.dwtag  DW_TAG_formal_parameter
	.dwattr $C$DW$29, DW_AT_type(*$C$DW$T$22)
$C$DW$30	.dwtag  DW_TAG_formal_parameter
	.dwattr $C$DW$30, DW_AT_type(*$C$DW$T$22)
$C$DW$31	.dwtag  DW_TAG_formal_parameter
	.dwattr $C$DW$31, DW_AT_type(*$C$DW$T$22)
$C$DW$32	.dwtag  DW_TAG_formal_parameter
	.dwattr $C$DW$32, DW_AT_type(*$C$DW$T$22)
	.dwendtag $C$DW$28


$C$DW$33	.dwtag  DW_TAG_subprogram, DW_AT_name("UARTCharsAvail")
	.dwattr $C$DW$33, DW_AT_TI_symbol_name("UARTCharsAvail")
	.dwattr $C$DW$33, DW_AT_type(*$C$DW$T$119)
	.dwattr $C$DW$33, DW_AT_declaration
	.dwattr $C$DW$33, DW_AT_external
	.dwattr $C$DW$33, DW_AT_decl_file("E:/Dev/Ti/TivaWare/driverlib/uart.h")
	.dwattr $C$DW$33, DW_AT_decl_line(0xd2)
	.dwattr $C$DW$33, DW_AT_decl_column(0x0d)
$C$DW$34	.dwtag  DW_TAG_formal_parameter
	.dwattr $C$DW$34, DW_AT_type(*$C$DW$T$22)
	.dwendtag $C$DW$33


$C$DW$35	.dwtag  DW_TAG_subprogram, DW_AT_name("UARTCharGetNonBlocking")
	.dwattr $C$DW$35, DW_AT_TI_symbol_name("UARTCharGetNonBlocking")
	.dwattr $C$DW$35, DW_AT_type(*$C$DW$T$58)
	.dwattr $C$DW$35, DW_AT_declaration
	.dwattr $C$DW$35, DW_AT_external
	.dwattr $C$DW$35, DW_AT_decl_file("E:/Dev/Ti/TivaWare/driverlib/uart.h")
	.dwattr $C$DW$35, DW_AT_decl_line(0xd4)
	.dwattr $C$DW$35, DW_AT_decl_column(0x10)
$C$DW$36	.dwtag  DW_TAG_formal_parameter
	.dwattr $C$DW$36, DW_AT_type(*$C$DW$T$22)
	.dwendtag $C$DW$35


$C$DW$37	.dwtag  DW_TAG_subprogram, DW_AT_name("UARTCharGet")
	.dwattr $C$DW$37, DW_AT_TI_symbol_name("UARTCharGet")
	.dwattr $C$DW$37, DW_AT_type(*$C$DW$T$58)
	.dwattr $C$DW$37, DW_AT_declaration
	.dwattr $C$DW$37, DW_AT_external
	.dwattr $C$DW$37, DW_AT_decl_file("E:/Dev/Ti/TivaWare/driverlib/uart.h")
	.dwattr $C$DW$37, DW_AT_decl_line(0xd5)
	.dwattr $C$DW$37, DW_AT_decl_column(0x10)
$C$DW$38	.dwtag  DW_TAG_formal_parameter
	.dwattr $C$DW$38, DW_AT_type(*$C$DW$T$22)
	.dwendtag $C$DW$37


$C$DW$39	.dwtag  DW_TAG_subprogram, DW_AT_name("UARTCharPut")
	.dwattr $C$DW$39, DW_AT_TI_symbol_name("UARTCharPut")
	.dwattr $C$DW$39, DW_AT_declaration
	.dwattr $C$DW$39, DW_AT_external
	.dwattr $C$DW$39, DW_AT_decl_file("E:/Dev/Ti/TivaWare/driverlib/uart.h")
	.dwattr $C$DW$39, DW_AT_decl_line(0xd7)
	.dwattr $C$DW$39, DW_AT_decl_column(0x0d)
$C$DW$40	.dwtag  DW_TAG_formal_parameter
	.dwattr $C$DW$40, DW_AT_type(*$C$DW$T$22)
$C$DW$41	.dwtag  DW_TAG_formal_parameter
	.dwattr $C$DW$41, DW_AT_type(*$C$DW$T$6)
	.dwendtag $C$DW$39


$C$DW$42	.dwtag  DW_TAG_subprogram, DW_AT_name("uitoa")
	.dwattr $C$DW$42, DW_AT_TI_symbol_name("uitoa")
	.dwattr $C$DW$42, DW_AT_declaration
	.dwattr $C$DW$42, DW_AT_external
	.dwattr $C$DW$42, DW_AT_decl_file("..\utils.h")
	.dwattr $C$DW$42, DW_AT_decl_line(0x0c)
	.dwattr $C$DW$42, DW_AT_decl_column(0x06)
$C$DW$43	.dwtag  DW_TAG_formal_parameter
	.dwattr $C$DW$43, DW_AT_type(*$C$DW$T$22)
$C$DW$44	.dwtag  DW_TAG_formal_parameter
	.dwattr $C$DW$44, DW_AT_type(*$C$DW$T$33)
$C$DW$45	.dwtag  DW_TAG_formal_parameter
	.dwattr $C$DW$45, DW_AT_type(*$C$DW$T$10)
	.dwendtag $C$DW$42


$C$DW$46	.dwtag  DW_TAG_subprogram, DW_AT_name("LOGprintf")
	.dwattr $C$DW$46, DW_AT_TI_symbol_name("LOGprintf")
	.dwattr $C$DW$46, DW_AT_declaration
	.dwattr $C$DW$46, DW_AT_external
	.dwattr $C$DW$46, DW_AT_decl_file("..\utils.h")
	.dwattr $C$DW$46, DW_AT_decl_line(0x11)
	.dwattr $C$DW$46, DW_AT_decl_column(0x06)
$C$DW$47	.dwtag  DW_TAG_formal_parameter
	.dwattr $C$DW$47, DW_AT_type(*$C$DW$T$37)
$C$DW$48	.dwtag  DW_TAG_unspecified_parameters
	.dwendtag $C$DW$46

	.common	dummy$1,1,1

$C$DW$49	.dwtag  DW_TAG_subprogram, DW_AT_name("memset")
	.dwattr $C$DW$49, DW_AT_TI_symbol_name("memset")
	.dwattr $C$DW$49, DW_AT_type(*$C$DW$T$3)
	.dwattr $C$DW$49, DW_AT_declaration
	.dwattr $C$DW$49, DW_AT_external
;	C:\ti\ccsv6\tools\compiler\ti-cgt-arm_5.2.5\bin\armacpia.exe -@C:\\Users\\DCOSAS~1.SAG\\AppData\\Local\\Temp\\1019612 
	.sect	".text:uart_send"
	.clink
	.thumbfunc uart_send
	.thumb
	.global	uart_send

$C$DW$50	.dwtag  DW_TAG_subprogram, DW_AT_name("uart_send")
	.dwattr $C$DW$50, DW_AT_low_pc(uart_send)
	.dwattr $C$DW$50, DW_AT_high_pc(0x00)
	.dwattr $C$DW$50, DW_AT_TI_symbol_name("uart_send")
	.dwattr $C$DW$50, DW_AT_external
	.dwattr $C$DW$50, DW_AT_TI_begin_file("../esp8266.c")
	.dwattr $C$DW$50, DW_AT_TI_begin_line(0x3b)
	.dwattr $C$DW$50, DW_AT_TI_begin_column(0x06)
	.dwattr $C$DW$50, DW_AT_decl_file("../esp8266.c")
	.dwattr $C$DW$50, DW_AT_decl_line(0x3b)
	.dwattr $C$DW$50, DW_AT_decl_column(0x06)
	.dwattr $C$DW$50, DW_AT_TI_max_frame_size(0x08)
	.dwpsn	file "../esp8266.c",line 60,column 1,is_stmt,address uart_send,isa 1

	.dwfde $C$DW$CIE, uart_send
$C$DW$51	.dwtag  DW_TAG_formal_parameter, DW_AT_name("str")
	.dwattr $C$DW$51, DW_AT_TI_symbol_name("str")
	.dwattr $C$DW$51, DW_AT_type(*$C$DW$T$33)
	.dwattr $C$DW$51, DW_AT_location[DW_OP_reg0]
;----------------------------------------------------------------------
;  59 | void uart_send(char* str)                                              
;----------------------------------------------------------------------

;*****************************************************************************
;* FUNCTION NAME: uart_send                                                  *
;*                                                                           *
;*   Regs Modified     : A1,A2,A3,A4,V9,SP,LR,SR,D0,D0_hi,D1,D1_hi,D2,D2_hi, *
;*                           D3,D3_hi,D4,D4_hi,D5,D5_hi,D6,D6_hi,D7,D7_hi,   *
;*                           FPEXC,FPSCR                                     *
;*   Regs Used         : A1,A2,A3,A4,V9,SP,LR,SR,D0,D0_hi,D1,D1_hi,D2,D2_hi, *
;*                           D3,D3_hi,D4,D4_hi,D5,D5_hi,D6,D6_hi,D7,D7_hi,   *
;*                           FPEXC,FPSCR                                     *
;*   Local Frame Size  : 0 Args + 4 Auto + 4 Save = 8 byte                   *
;*****************************************************************************
uart_send:
;* --------------------------------------------------------------------------*
	.dwcfi	cfa_offset, 0
        PUSH      {A4, LR}              ; [DPU_3_PIPE] 
	.dwcfi	cfa_offset, 8
	.dwcfi	save_reg_to_mem, 14, -4
	.dwcfi	save_reg_to_mem, 3, -8
$C$DW$52	.dwtag  DW_TAG_variable, DW_AT_name("str")
	.dwattr $C$DW$52, DW_AT_TI_symbol_name("str")
	.dwattr $C$DW$52, DW_AT_type(*$C$DW$T$33)
	.dwattr $C$DW$52, DW_AT_location[DW_OP_breg13 0]
        STR       A1, [SP, #0]          ; [DPU_3_PIPE] |60| 
	.dwpsn	file "../esp8266.c",line 61,column 2,is_stmt,isa 1
;----------------------------------------------------------------------
;  61 | while(*str)                                                            
;----------------------------------------------------------------------
        B         ||$C$L2||             ; [DPU_3_PIPE] |61| 
        ; BRANCH OCCURS {||$C$L2||}      ; [] |61| 
;* --------------------------------------------------------------------------*
||$C$L1||:    
	.dwpsn	file "../esp8266.c",line 63,column 3,is_stmt,isa 1
;----------------------------------------------------------------------
;  63 | UARTCharPut(UART5_BASE, *str++);                                       
;----------------------------------------------------------------------
        LDR       A1, [SP, #0]          ; [DPU_3_PIPE] |63| 
        LDRB      A2, [A1], #1          ; [DPU_3_PIPE] |63| 
        STR       A1, [SP, #0]          ; [DPU_3_PIPE] |63| 
        LDR       A1, $C$CON1           ; [DPU_3_PIPE] |63| 
$C$DW$53	.dwtag  DW_TAG_TI_branch
	.dwattr $C$DW$53, DW_AT_low_pc(0x00)
	.dwattr $C$DW$53, DW_AT_name("UARTCharPut")
	.dwattr $C$DW$53, DW_AT_TI_call
        BL        UARTCharPut           ; [DPU_3_PIPE] |63| 
        ; CALL OCCURS {UARTCharPut }     ; [] |63| 
;* --------------------------------------------------------------------------*
;*   BEGIN LOOP ||$C$L2||
;* --------------------------------------------------------------------------*
||$C$L2||:    
	.dwpsn	file "../esp8266.c",line 61,column 2,is_stmt,isa 1
        LDR       A1, [SP, #0]          ; [DPU_3_PIPE] |61| 
        LDRB      A1, [A1, #0]          ; [DPU_3_PIPE] |61| 
        CMP       A1, #0                ; [DPU_3_PIPE] |61| 
        BNE       ||$C$L1||             ; [DPU_3_PIPE] |61| 
        ; BRANCHCC OCCURS {||$C$L1||}    ; [] |61| 
;* --------------------------------------------------------------------------*
	.dwpsn	file "../esp8266.c",line 65,column 2,is_stmt,isa 1
;----------------------------------------------------------------------
;  65 | UARTCharPut(UART5_BASE, 13);                                           
;----------------------------------------------------------------------
        LDR       A1, $C$CON1           ; [DPU_3_PIPE] |65| 
        MOVS      A2, #13               ; [DPU_3_PIPE] |65| 
$C$DW$54	.dwtag  DW_TAG_TI_branch
	.dwattr $C$DW$54, DW_AT_low_pc(0x00)
	.dwattr $C$DW$54, DW_AT_name("UARTCharPut")
	.dwattr $C$DW$54, DW_AT_TI_call
        BL        UARTCharPut           ; [DPU_3_PIPE] |65| 
        ; CALL OCCURS {UARTCharPut }     ; [] |65| 
	.dwpsn	file "../esp8266.c",line 66,column 2,is_stmt,isa 1
;----------------------------------------------------------------------
;  66 | UARTCharPut(UART5_BASE, 10);                                           
;----------------------------------------------------------------------
        LDR       A1, $C$CON1           ; [DPU_3_PIPE] |66| 
        MOVS      A2, #10               ; [DPU_3_PIPE] |66| 
$C$DW$55	.dwtag  DW_TAG_TI_branch
	.dwattr $C$DW$55, DW_AT_low_pc(0x00)
	.dwattr $C$DW$55, DW_AT_name("UARTCharPut")
	.dwattr $C$DW$55, DW_AT_TI_call
        BL        UARTCharPut           ; [DPU_3_PIPE] |66| 
        ; CALL OCCURS {UARTCharPut }     ; [] |66| 
	.dwpsn	file "../esp8266.c",line 67,column 1,is_stmt,isa 1
$C$DW$56	.dwtag  DW_TAG_TI_branch
	.dwattr $C$DW$56, DW_AT_low_pc(0x00)
	.dwattr $C$DW$56, DW_AT_TI_return
        POP       {A4, PC}              ; [DPU_3_PIPE] 
	.dwcfi	cfa_offset, 0
        ; BRANCH OCCURS                  ; [] 
	.dwattr $C$DW$50, DW_AT_TI_end_file("../esp8266.c")
	.dwattr $C$DW$50, DW_AT_TI_end_line(0x43)
	.dwattr $C$DW$50, DW_AT_TI_end_column(0x01)
	.dwendentry
	.dwendtag $C$DW$50

	.sect	".text:esp8266_send"
	.clink
	.thumbfunc esp8266_send
	.thumb
	.global	esp8266_send

$C$DW$57	.dwtag  DW_TAG_subprogram, DW_AT_name("esp8266_send")
	.dwattr $C$DW$57, DW_AT_low_pc(esp8266_send)
	.dwattr $C$DW$57, DW_AT_high_pc(0x00)
	.dwattr $C$DW$57, DW_AT_TI_symbol_name("esp8266_send")
	.dwattr $C$DW$57, DW_AT_external
	.dwattr $C$DW$57, DW_AT_type(*$C$DW$T$25)
	.dwattr $C$DW$57, DW_AT_TI_begin_file("../esp8266.c")
	.dwattr $C$DW$57, DW_AT_TI_begin_line(0x45)
	.dwattr $C$DW$57, DW_AT_TI_begin_column(0x09)
	.dwattr $C$DW$57, DW_AT_decl_file("../esp8266.c")
	.dwattr $C$DW$57, DW_AT_decl_line(0x45)
	.dwattr $C$DW$57, DW_AT_decl_column(0x09)
	.dwattr $C$DW$57, DW_AT_TI_max_frame_size(0x50)
	.dwpsn	file "../esp8266.c",line 70,column 1,is_stmt,address esp8266_send,isa 1

	.dwfde $C$DW$CIE, esp8266_send
$C$DW$58	.dwtag  DW_TAG_variable, DW_AT_name("dummy")
	.dwattr $C$DW$58, DW_AT_TI_symbol_name("dummy$1")
	.dwattr $C$DW$58, DW_AT_type(*$C$DW$T$6)
	.dwattr $C$DW$58, DW_AT_location[DW_OP_addr dummy$1]
$C$DW$59	.dwtag  DW_TAG_formal_parameter, DW_AT_name("str")
	.dwattr $C$DW$59, DW_AT_TI_symbol_name("str")
	.dwattr $C$DW$59, DW_AT_type(*$C$DW$T$33)
	.dwattr $C$DW$59, DW_AT_location[DW_OP_reg0]
$C$DW$60	.dwtag  DW_TAG_formal_parameter, DW_AT_name("confirmation")
	.dwattr $C$DW$60, DW_AT_TI_symbol_name("confirmation")
	.dwattr $C$DW$60, DW_AT_type(*$C$DW$T$33)
	.dwattr $C$DW$60, DW_AT_location[DW_OP_reg1]
;----------------------------------------------------------------------
;  69 | uint8_t esp8266_send(char* str, char* confirmation)                    
;----------------------------------------------------------------------

;*****************************************************************************
;* FUNCTION NAME: esp8266_send                                               *
;*                                                                           *
;*   Regs Modified     : A1,A2,A3,A4,V9,SP,LR,SR,D0,D0_hi,D1,D1_hi,D2,D2_hi, *
;*                           D3,D3_hi,D4,D4_hi,D5,D5_hi,D6,D6_hi,D7,D7_hi,   *
;*                           FPEXC,FPSCR                                     *
;*   Regs Used         : A1,A2,A3,A4,V9,SP,LR,SR,D0,D0_hi,D1,D1_hi,D2,D2_hi, *
;*                           D3,D3_hi,D4,D4_hi,D5,D5_hi,D6,D6_hi,D7,D7_hi,   *
;*                           FPEXC,FPSCR                                     *
;*   Local Frame Size  : 0 Args + 76 Auto + 4 Save = 80 byte                 *
;*****************************************************************************
esp8266_send:
;* --------------------------------------------------------------------------*
	.dwcfi	cfa_offset, 0
        PUSH      {LR}                  ; [DPU_3_PIPE] 
	.dwcfi	cfa_offset, 4
	.dwcfi	save_reg_to_mem, 14, -4
        SUB       SP, SP, #76           ; [DPU_3_PIPE] 
	.dwcfi	cfa_offset, 80
$C$DW$61	.dwtag  DW_TAG_variable, DW_AT_name("str")
	.dwattr $C$DW$61, DW_AT_TI_symbol_name("str")
	.dwattr $C$DW$61, DW_AT_type(*$C$DW$T$33)
	.dwattr $C$DW$61, DW_AT_location[DW_OP_breg13 0]
$C$DW$62	.dwtag  DW_TAG_variable, DW_AT_name("confirmation")
	.dwattr $C$DW$62, DW_AT_TI_symbol_name("confirmation")
	.dwattr $C$DW$62, DW_AT_type(*$C$DW$T$33)
	.dwattr $C$DW$62, DW_AT_location[DW_OP_breg13 4]
$C$DW$63	.dwtag  DW_TAG_variable, DW_AT_name("timeout")
	.dwattr $C$DW$63, DW_AT_TI_symbol_name("timeout")
	.dwattr $C$DW$63, DW_AT_type(*$C$DW$T$22)
	.dwattr $C$DW$63, DW_AT_location[DW_OP_breg13 8]
$C$DW$64	.dwtag  DW_TAG_variable, DW_AT_name("result")
	.dwattr $C$DW$64, DW_AT_TI_symbol_name("result")
	.dwattr $C$DW$64, DW_AT_type(*$C$DW$T$25)
	.dwattr $C$DW$64, DW_AT_location[DW_OP_breg13 12]
$C$DW$65	.dwtag  DW_TAG_variable, DW_AT_name("uart_data")
	.dwattr $C$DW$65, DW_AT_TI_symbol_name("uart_data")
	.dwattr $C$DW$65, DW_AT_type(*$C$DW$T$98)
	.dwattr $C$DW$65, DW_AT_location[DW_OP_breg13 13]
$C$DW$66	.dwtag  DW_TAG_variable, DW_AT_name("uart_data_counter")
	.dwattr $C$DW$66, DW_AT_TI_symbol_name("uart_data_counter")
	.dwattr $C$DW$66, DW_AT_type(*$C$DW$T$6)
	.dwattr $C$DW$66, DW_AT_location[DW_OP_breg13 73]
        STR       A2, [SP, #4]          ; [DPU_3_PIPE] |70| 
        STR       A1, [SP, #0]          ; [DPU_3_PIPE] |70| 
	.dwpsn	file "../esp8266.c",line 71,column 19,is_stmt,isa 1
;----------------------------------------------------------------------
;  71 | uint32_t timeout = 0;                                                  
;----------------------------------------------------------------------
        MOVS      A1, #0                ; [DPU_3_PIPE] |71| 
        STR       A1, [SP, #8]          ; [DPU_3_PIPE] |71| 
	.dwpsn	file "../esp8266.c",line 72,column 17,is_stmt,isa 1
;----------------------------------------------------------------------
;  72 | uint8_t result = 0;                                                    
;  73 | char uart_data[UART5_BUFFER_SIZE], uart_data_counter;                  
;  74 | static char dummy;                                                     
;  75 | //memset ((void*)uart_data,'\0',255);                                  
;----------------------------------------------------------------------
        MOVS      A1, #0                ; [DPU_3_PIPE] |72| 
        STRB      A1, [SP, #12]         ; [DPU_3_PIPE] |72| 
	.dwpsn	file "../esp8266.c",line 76,column 6,is_stmt,isa 1
;----------------------------------------------------------------------
;  76 | for(uart_data_counter = 0; uart_data_counter < UART5_BUFFER_SIZE; uart_
;     | data_counter++)                                                        
;----------------------------------------------------------------------
        MOVS      A1, #0                ; [DPU_3_PIPE] |76| 
        STRB      A1, [SP, #73]         ; [DPU_3_PIPE] |76| 
	.dwpsn	file "../esp8266.c",line 76,column 29,is_stmt,isa 1
        LDRB      A1, [SP, #73]         ; [DPU_3_PIPE] |76| 
        CMP       A1, #60               ; [DPU_3_PIPE] |76| 
        BGE       ||$C$L5||             ; [DPU_3_PIPE] |76| 
        ; BRANCHCC OCCURS {||$C$L5||}    ; [] |76| 
;* --------------------------------------------------------------------------*
;*   BEGIN LOOP ||$C$L3||
;*
;*   Loop source line                : 76
;*   Loop closing brace source line  : 79
;*   Known Minimum Trip Count        : 1
;*   Known Maximum Trip Count        : 4294967295
;*   Known Max Trip Count Factor     : 1
;* --------------------------------------------------------------------------*
||$C$L3||:    
	.dwpsn	file "../esp8266.c",line 78,column 3,is_stmt,isa 1
;----------------------------------------------------------------------
;  78 | uart_data[uart_data_counter] = 0;                                      
;----------------------------------------------------------------------
        LDRB      A1, [SP, #73]         ; [DPU_3_PIPE] |78| 
        MOVS      A2, #0                ; [DPU_3_PIPE] |78| 
        ADD       A1, A1, SP            ; [DPU_3_PIPE] |78| 
        STRB      A2, [A1, #13]         ; [DPU_3_PIPE] |78| 
	.dwpsn	file "../esp8266.c",line 76,column 68,is_stmt,isa 1
        LDRB      A1, [SP, #73]         ; [DPU_3_PIPE] |76| 
        ADDS      A1, A1, #1            ; [DPU_3_PIPE] |76| 
        STRB      A1, [SP, #73]         ; [DPU_3_PIPE] |76| 
	.dwpsn	file "../esp8266.c",line 76,column 29,is_stmt,isa 1
        LDRB      A1, [SP, #73]         ; [DPU_3_PIPE] |76| 
        CMP       A1, #60               ; [DPU_3_PIPE] |76| 
        BLT       ||$C$L3||             ; [DPU_3_PIPE] |76| 
        ; BRANCHCC OCCURS {||$C$L3||}    ; [] |76| 
;* --------------------------------------------------------------------------*
	.dwpsn	file "../esp8266.c",line 80,column 2,is_stmt,isa 1
;----------------------------------------------------------------------
;  80 | while(UARTCharsAvail(UART5_BASE))                                      
;----------------------------------------------------------------------
        B         ||$C$L5||             ; [DPU_3_PIPE] |80| 
        ; BRANCH OCCURS {||$C$L5||}      ; [] |80| 
;* --------------------------------------------------------------------------*
||$C$L4||:    
	.dwpsn	file "../esp8266.c",line 82,column 3,is_stmt,isa 1
;----------------------------------------------------------------------
;  82 | dummy = UARTCharGet(UART5_BASE);                                       
;----------------------------------------------------------------------
        LDR       A1, $C$CON3           ; [DPU_3_PIPE] |82| 
$C$DW$67	.dwtag  DW_TAG_TI_branch
	.dwattr $C$DW$67, DW_AT_low_pc(0x00)
	.dwattr $C$DW$67, DW_AT_name("UARTCharGet")
	.dwattr $C$DW$67, DW_AT_TI_call
        BL        UARTCharGet           ; [DPU_3_PIPE] |82| 
        ; CALL OCCURS {UARTCharGet }     ; [] |82| 
        LDR       A2, $C$CON2           ; [DPU_3_PIPE] |82| 
        STRB      A1, [A2, #0]          ; [DPU_3_PIPE] |82| 
;* --------------------------------------------------------------------------*
;*   BEGIN LOOP ||$C$L5||
;* --------------------------------------------------------------------------*
||$C$L5||:    
	.dwpsn	file "../esp8266.c",line 80,column 2,is_stmt,isa 1
        LDR       A1, $C$CON3           ; [DPU_3_PIPE] |80| 
$C$DW$68	.dwtag  DW_TAG_TI_branch
	.dwattr $C$DW$68, DW_AT_low_pc(0x00)
	.dwattr $C$DW$68, DW_AT_name("UARTCharsAvail")
	.dwattr $C$DW$68, DW_AT_TI_call
        BL        UARTCharsAvail        ; [DPU_3_PIPE] |80| 
        ; CALL OCCURS {UARTCharsAvail }  ; [] |80| 
        CMP       A1, #0                ; [DPU_3_PIPE] |80| 
        BNE       ||$C$L4||             ; [DPU_3_PIPE] |80| 
        ; BRANCHCC OCCURS {||$C$L4||}    ; [] |80| 
;* --------------------------------------------------------------------------*
	.dwpsn	file "../esp8266.c",line 84,column 2,is_stmt,isa 1
;----------------------------------------------------------------------
;  84 | uart_data_counter = 0;                                                 
;----------------------------------------------------------------------
        MOVS      A1, #0                ; [DPU_3_PIPE] |84| 
        STRB      A1, [SP, #73]         ; [DPU_3_PIPE] |84| 
	.dwpsn	file "../esp8266.c",line 85,column 2,is_stmt,isa 1
;----------------------------------------------------------------------
;  85 | uart_send(str);                                                        
;----------------------------------------------------------------------
        LDR       A1, [SP, #0]          ; [DPU_3_PIPE] |85| 
$C$DW$69	.dwtag  DW_TAG_TI_branch
	.dwattr $C$DW$69, DW_AT_low_pc(0x00)
	.dwattr $C$DW$69, DW_AT_name("uart_send")
	.dwattr $C$DW$69, DW_AT_TI_call
        BL        uart_send             ; [DPU_3_PIPE] |85| 
        ; CALL OCCURS {uart_send }       ; [] |85| 
	.dwpsn	file "../esp8266.c",line 87,column 2,is_stmt,isa 1
;----------------------------------------------------------------------
;  87 | while(!result)                                                         
;----------------------------------------------------------------------
        B         ||$C$L9||             ; [DPU_3_PIPE] |87| 
        ; BRANCH OCCURS {||$C$L9||}      ; [] |87| 
;* --------------------------------------------------------------------------*
||$C$L6||:    
	.dwpsn	file "../esp8266.c",line 89,column 3,is_stmt,isa 1
;----------------------------------------------------------------------
;  89 | dummy = UARTCharGetNonBlocking(UART5_BASE);                            
;----------------------------------------------------------------------
        LDR       A1, $C$CON3           ; [DPU_3_PIPE] |89| 
$C$DW$70	.dwtag  DW_TAG_TI_branch
	.dwattr $C$DW$70, DW_AT_low_pc(0x00)
	.dwattr $C$DW$70, DW_AT_name("UARTCharGetNonBlocking")
	.dwattr $C$DW$70, DW_AT_TI_call
        BL        UARTCharGetNonBlocking ; [DPU_3_PIPE] |89| 
        ; CALL OCCURS {UARTCharGetNonBlocking }  ; [] |89| 
        LDR       A2, $C$CON2           ; [DPU_3_PIPE] |89| 
        STRB      A1, [A2, #0]          ; [DPU_3_PIPE] |89| 
	.dwpsn	file "../esp8266.c",line 90,column 3,is_stmt,isa 1
;----------------------------------------------------------------------
;  90 | if((dummy>'!') && (dummy < '}'))                                       
;----------------------------------------------------------------------
        LDR       A1, $C$CON2           ; [DPU_3_PIPE] |90| 
        LDRB      A1, [A1, #0]          ; [DPU_3_PIPE] |90| 
        CMP       A1, #33               ; [DPU_3_PIPE] |90| 
        BLE       ||$C$L8||             ; [DPU_3_PIPE] |90| 
        ; BRANCHCC OCCURS {||$C$L8||}    ; [] |90| 
;* --------------------------------------------------------------------------*
        LDR       A1, $C$CON2           ; [DPU_3_PIPE] |90| 
        LDRB      A1, [A1, #0]          ; [DPU_3_PIPE] |90| 
        CMP       A1, #125              ; [DPU_3_PIPE] |90| 
        BGE       ||$C$L8||             ; [DPU_3_PIPE] |90| 
        ; BRANCHCC OCCURS {||$C$L8||}    ; [] |90| 
;* --------------------------------------------------------------------------*
	.dwpsn	file "../esp8266.c",line 92,column 4,is_stmt,isa 1
;----------------------------------------------------------------------
;  92 | uart_data[uart_data_counter++] = dummy;                                
;----------------------------------------------------------------------
        LDRB      A1, [SP, #73]         ; [DPU_3_PIPE] |92| 
        LDR       A2, $C$CON2           ; [DPU_3_PIPE] |92| 
        ADDS      A3, A1, #1            ; [DPU_3_PIPE] |92| 
        LDRB      A2, [A2, #0]          ; [DPU_3_PIPE] |92| 
        STRB      A3, [SP, #73]         ; [DPU_3_PIPE] |92| 
        ADD       A1, A1, SP            ; [DPU_3_PIPE] |92| 
        STRB      A2, [A1, #13]         ; [DPU_3_PIPE] |92| 
	.dwpsn	file "../esp8266.c",line 93,column 4,is_stmt,isa 1
;----------------------------------------------------------------------
;  93 | if(uart_data_counter == UART5_BUFFER_SIZE)                             
;----------------------------------------------------------------------
        LDRB      A1, [SP, #73]         ; [DPU_3_PIPE] |93| 
        CMP       A1, #60               ; [DPU_3_PIPE] |93| 
        BNE       ||$C$L7||             ; [DPU_3_PIPE] |93| 
        ; BRANCHCC OCCURS {||$C$L7||}    ; [] |93| 
;* --------------------------------------------------------------------------*
	.dwpsn	file "../esp8266.c",line 94,column 7,is_stmt,isa 1
;----------------------------------------------------------------------
;  94 | uart_data_counter = 0;                                                 
;----------------------------------------------------------------------
        MOVS      A1, #0                ; [DPU_3_PIPE] |94| 
        STRB      A1, [SP, #73]         ; [DPU_3_PIPE] |94| 
;* --------------------------------------------------------------------------*
||$C$L7||:    
	.dwpsn	file "../esp8266.c",line 95,column 4,is_stmt,isa 1
;----------------------------------------------------------------------
;  95 | if(strstr((const char*)uart_data, confirmation))                       
;----------------------------------------------------------------------
        LDR       A2, [SP, #4]          ; [DPU_3_PIPE] |95| 
        ADD       A1, SP, #13           ; [DPU_3_PIPE] |95| 
$C$DW$71	.dwtag  DW_TAG_TI_branch
	.dwattr $C$DW$71, DW_AT_low_pc(0x00)
	.dwattr $C$DW$71, DW_AT_name("strstr")
	.dwattr $C$DW$71, DW_AT_TI_call
        BL        strstr                ; [DPU_3_PIPE] |95| 
        ; CALL OCCURS {strstr }          ; [] |95| 
        CBZ       A1, ||$C$L8||         ; [] 
        ; BRANCHCC OCCURS {||$C$L8||}    ; [] |95| 
;* --------------------------------------------------------------------------*
	.dwpsn	file "../esp8266.c",line 97,column 5,is_stmt,isa 1
;----------------------------------------------------------------------
;  97 | return 1;                                                              
;----------------------------------------------------------------------
        MOVS      A1, #1                ; [DPU_3_PIPE] |97| 
        B         ||$C$L10||            ; [DPU_3_PIPE] |97| 
        ; BRANCH OCCURS {||$C$L10||}     ; [] |97| 
;* --------------------------------------------------------------------------*
||$C$L8||:    
	.dwpsn	file "../esp8266.c",line 101,column 3,is_stmt,isa 1
;----------------------------------------------------------------------
; 101 | timeout++;                                                             
;----------------------------------------------------------------------
        LDR       A1, [SP, #8]          ; [DPU_3_PIPE] |101| 
        ADDS      A1, A1, #1            ; [DPU_3_PIPE] |101| 
        STR       A1, [SP, #8]          ; [DPU_3_PIPE] |101| 
	.dwpsn	file "../esp8266.c",line 102,column 3,is_stmt,isa 1
;----------------------------------------------------------------------
; 102 | if(timeout>10000000)                                                   
;----------------------------------------------------------------------
        LDR       A2, $C$CON4           ; [DPU_3_PIPE] |102| 
        LDR       A1, [SP, #8]          ; [DPU_3_PIPE] |102| 
        CMP       A2, A1                ; [DPU_3_PIPE] |102| 
        BCS       ||$C$L9||             ; [DPU_3_PIPE] |102| 
        ; BRANCHCC OCCURS {||$C$L9||}    ; [] |102| 
;* --------------------------------------------------------------------------*
	.dwpsn	file "../esp8266.c",line 104,column 4,is_stmt,isa 1
;----------------------------------------------------------------------
; 104 | return 0;                                                              
;----------------------------------------------------------------------
        MOVS      A1, #0                ; [DPU_3_PIPE] |104| 
        B         ||$C$L10||            ; [DPU_3_PIPE] |104| 
        ; BRANCH OCCURS {||$C$L10||}     ; [] |104| 
;* --------------------------------------------------------------------------*
;*   BEGIN LOOP ||$C$L9||
;* --------------------------------------------------------------------------*
||$C$L9||:    
	.dwpsn	file "../esp8266.c",line 87,column 8,is_stmt,isa 1
        LDRB      A1, [SP, #12]         ; [DPU_3_PIPE] |87| 
        CMP       A1, #0                ; [DPU_3_PIPE] |87| 
        BEQ       ||$C$L6||             ; [DPU_3_PIPE] |87| 
        ; BRANCHCC OCCURS {||$C$L6||}    ; [] |87| 
;* --------------------------------------------------------------------------*
	.dwpsn	file "../esp8266.c",line 107,column 2,is_stmt,isa 1
;----------------------------------------------------------------------
; 107 | return result;                                                         
;----------------------------------------------------------------------
        LDRB      A1, [SP, #12]         ; [DPU_3_PIPE] |107| 
;* --------------------------------------------------------------------------*
||$C$L10||:    
	.dwpsn	file "../esp8266.c",line 108,column 1,is_stmt,isa 1
        ADD       SP, SP, #76           ; [DPU_3_PIPE] 
	.dwcfi	cfa_offset, 4
$C$DW$72	.dwtag  DW_TAG_TI_branch
	.dwattr $C$DW$72, DW_AT_low_pc(0x00)
	.dwattr $C$DW$72, DW_AT_TI_return
        POP       {PC}                  ; [DPU_3_PIPE] 
	.dwcfi	cfa_offset, 0
        ; BRANCH OCCURS                  ; [] 
	.dwattr $C$DW$57, DW_AT_TI_end_file("../esp8266.c")
	.dwattr $C$DW$57, DW_AT_TI_end_line(0x6c)
	.dwattr $C$DW$57, DW_AT_TI_end_column(0x01)
	.dwendentry
	.dwendtag $C$DW$57

	.sect	".text:esp8266_reset"
	.clink
	.thumbfunc esp8266_reset
	.thumb
	.global	esp8266_reset

$C$DW$73	.dwtag  DW_TAG_subprogram, DW_AT_name("esp8266_reset")
	.dwattr $C$DW$73, DW_AT_low_pc(esp8266_reset)
	.dwattr $C$DW$73, DW_AT_high_pc(0x00)
	.dwattr $C$DW$73, DW_AT_TI_symbol_name("esp8266_reset")
	.dwattr $C$DW$73, DW_AT_external
	.dwattr $C$DW$73, DW_AT_TI_begin_file("../esp8266.c")
	.dwattr $C$DW$73, DW_AT_TI_begin_line(0x6e)
	.dwattr $C$DW$73, DW_AT_TI_begin_column(0x06)
	.dwattr $C$DW$73, DW_AT_decl_file("../esp8266.c")
	.dwattr $C$DW$73, DW_AT_decl_line(0x6e)
	.dwattr $C$DW$73, DW_AT_decl_column(0x06)
	.dwattr $C$DW$73, DW_AT_TI_max_frame_size(0x08)
	.dwpsn	file "../esp8266.c",line 111,column 1,is_stmt,address esp8266_reset,isa 1

	.dwfde $C$DW$CIE, esp8266_reset
;----------------------------------------------------------------------
; 110 | void esp8266_reset()                                                   
;----------------------------------------------------------------------

;*****************************************************************************
;* FUNCTION NAME: esp8266_reset                                              *
;*                                                                           *
;*   Regs Modified     : A1,A2,A3,A4,V9,SP,LR,SR,D0,D0_hi,D1,D1_hi,D2,D2_hi, *
;*                           D3,D3_hi,D4,D4_hi,D5,D5_hi,D6,D6_hi,D7,D7_hi,   *
;*                           FPEXC,FPSCR                                     *
;*   Regs Used         : A1,A2,A3,A4,V9,SP,LR,SR,D0,D0_hi,D1,D1_hi,D2,D2_hi, *
;*                           D3,D3_hi,D4,D4_hi,D5,D5_hi,D6,D6_hi,D7,D7_hi,   *
;*                           FPEXC,FPSCR                                     *
;*   Local Frame Size  : 0 Args + 0 Auto + 4 Save = 4 byte                   *
;*****************************************************************************
esp8266_reset:
;* --------------------------------------------------------------------------*
	.dwcfi	cfa_offset, 0
        PUSH      {A4, LR}              ; [DPU_3_PIPE] 
	.dwcfi	cfa_offset, 8
	.dwcfi	save_reg_to_mem, 14, -4
	.dwcfi	save_reg_to_mem, 3, -8
	.dwpsn	file "../esp8266.c",line 112,column 2,is_stmt,isa 1
;----------------------------------------------------------------------
; 112 | uart_send(RESET_ESP8266);                                              
;----------------------------------------------------------------------
        ADR       A1, $C$SL1            ; [DPU_3_PIPE] |112| 
$C$DW$74	.dwtag  DW_TAG_TI_branch
	.dwattr $C$DW$74, DW_AT_low_pc(0x00)
	.dwattr $C$DW$74, DW_AT_name("uart_send")
	.dwattr $C$DW$74, DW_AT_TI_call
        BL        uart_send             ; [DPU_3_PIPE] |112| 
        ; CALL OCCURS {uart_send }       ; [] |112| 
	.dwpsn	file "../esp8266.c",line 113,column 2,is_stmt,isa 1
;----------------------------------------------------------------------
; 113 | SysCtlDelay(SysCtlClockGet());                                         
;----------------------------------------------------------------------
$C$DW$75	.dwtag  DW_TAG_TI_branch
	.dwattr $C$DW$75, DW_AT_low_pc(0x00)
	.dwattr $C$DW$75, DW_AT_name("SysCtlClockGet")
	.dwattr $C$DW$75, DW_AT_TI_call
        BL        SysCtlClockGet        ; [DPU_3_PIPE] |113| 
        ; CALL OCCURS {SysCtlClockGet }  ; [] |113| 
$C$DW$76	.dwtag  DW_TAG_TI_branch
	.dwattr $C$DW$76, DW_AT_low_pc(0x00)
	.dwattr $C$DW$76, DW_AT_name("SysCtlDelay")
	.dwattr $C$DW$76, DW_AT_TI_call
        BL        SysCtlDelay           ; [DPU_3_PIPE] |113| 
        ; CALL OCCURS {SysCtlDelay }     ; [] |113| 
	.dwpsn	file "../esp8266.c",line 114,column 2,is_stmt,isa 1
;----------------------------------------------------------------------
; 114 | SysCtlDelay(SysCtlClockGet());                                         
;----------------------------------------------------------------------
$C$DW$77	.dwtag  DW_TAG_TI_branch
	.dwattr $C$DW$77, DW_AT_low_pc(0x00)
	.dwattr $C$DW$77, DW_AT_name("SysCtlClockGet")
	.dwattr $C$DW$77, DW_AT_TI_call
        BL        SysCtlClockGet        ; [DPU_3_PIPE] |114| 
        ; CALL OCCURS {SysCtlClockGet }  ; [] |114| 
$C$DW$78	.dwtag  DW_TAG_TI_branch
	.dwattr $C$DW$78, DW_AT_low_pc(0x00)
	.dwattr $C$DW$78, DW_AT_name("SysCtlDelay")
	.dwattr $C$DW$78, DW_AT_TI_call
        BL        SysCtlDelay           ; [DPU_3_PIPE] |114| 
        ; CALL OCCURS {SysCtlDelay }     ; [] |114| 
	.dwpsn	file "../esp8266.c",line 115,column 2,is_stmt,isa 1
;----------------------------------------------------------------------
; 115 | uart_send(CONNECT_TO_AP);                                              
;----------------------------------------------------------------------
        ADR       A1, $C$SL2            ; [DPU_3_PIPE] |115| 
$C$DW$79	.dwtag  DW_TAG_TI_branch
	.dwattr $C$DW$79, DW_AT_low_pc(0x00)
	.dwattr $C$DW$79, DW_AT_name("uart_send")
	.dwattr $C$DW$79, DW_AT_TI_call
        BL        uart_send             ; [DPU_3_PIPE] |115| 
        ; CALL OCCURS {uart_send }       ; [] |115| 
	.dwpsn	file "../esp8266.c",line 116,column 1,is_stmt,isa 1
$C$DW$80	.dwtag  DW_TAG_TI_branch
	.dwattr $C$DW$80, DW_AT_low_pc(0x00)
	.dwattr $C$DW$80, DW_AT_TI_return
        POP       {A4, PC}              ; [DPU_3_PIPE] 
	.dwcfi	cfa_offset, 0
        ; BRANCH OCCURS                  ; [] 
	.dwattr $C$DW$73, DW_AT_TI_end_file("../esp8266.c")
	.dwattr $C$DW$73, DW_AT_TI_end_line(0x74)
	.dwattr $C$DW$73, DW_AT_TI_end_column(0x01)
	.dwendentry
	.dwendtag $C$DW$73

	.sect	".text:send_esp8266"
	.clink
	.thumbfunc send_esp8266
	.thumb
	.global	send_esp8266

$C$DW$81	.dwtag  DW_TAG_subprogram, DW_AT_name("send_esp8266")
	.dwattr $C$DW$81, DW_AT_low_pc(send_esp8266)
	.dwattr $C$DW$81, DW_AT_high_pc(0x00)
	.dwattr $C$DW$81, DW_AT_TI_symbol_name("send_esp8266")
	.dwattr $C$DW$81, DW_AT_external
	.dwattr $C$DW$81, DW_AT_type(*$C$DW$T$25)
	.dwattr $C$DW$81, DW_AT_TI_begin_file("../esp8266.c")
	.dwattr $C$DW$81, DW_AT_TI_begin_line(0x76)
	.dwattr $C$DW$81, DW_AT_TI_begin_column(0x09)
	.dwattr $C$DW$81, DW_AT_decl_file("../esp8266.c")
	.dwattr $C$DW$81, DW_AT_decl_line(0x76)
	.dwattr $C$DW$81, DW_AT_decl_column(0x09)
	.dwattr $C$DW$81, DW_AT_TI_max_frame_size(0xa8)
	.dwpsn	file "../esp8266.c",line 125,column 1,is_stmt,address send_esp8266,isa 1

	.dwfde $C$DW$CIE, send_esp8266
$C$DW$82	.dwtag  DW_TAG_formal_parameter, DW_AT_name("humidity_data")
	.dwattr $C$DW$82, DW_AT_TI_symbol_name("humidity_data")
	.dwattr $C$DW$82, DW_AT_type(*$C$DW$T$22)
	.dwattr $C$DW$82, DW_AT_location[DW_OP_reg0]
$C$DW$83	.dwtag  DW_TAG_formal_parameter, DW_AT_name("temperature_data_1")
	.dwattr $C$DW$83, DW_AT_TI_symbol_name("temperature_data_1")
	.dwattr $C$DW$83, DW_AT_type(*$C$DW$T$22)
	.dwattr $C$DW$83, DW_AT_location[DW_OP_reg1]
$C$DW$84	.dwtag  DW_TAG_formal_parameter, DW_AT_name("temperature_data_2")
	.dwattr $C$DW$84, DW_AT_TI_symbol_name("temperature_data_2")
	.dwattr $C$DW$84, DW_AT_type(*$C$DW$T$22)
	.dwattr $C$DW$84, DW_AT_location[DW_OP_reg2]
$C$DW$85	.dwtag  DW_TAG_formal_parameter, DW_AT_name("temperature_data_3")
	.dwattr $C$DW$85, DW_AT_TI_symbol_name("temperature_data_3")
	.dwattr $C$DW$85, DW_AT_type(*$C$DW$T$22)
	.dwattr $C$DW$85, DW_AT_location[DW_OP_reg3]
$C$DW$86	.dwtag  DW_TAG_formal_parameter, DW_AT_name("co2level")
	.dwattr $C$DW$86, DW_AT_TI_symbol_name("co2level")
	.dwattr $C$DW$86, DW_AT_type(*$C$DW$T$22)
	.dwattr $C$DW$86, DW_AT_location[DW_OP_breg13 168]
$C$DW$87	.dwtag  DW_TAG_formal_parameter, DW_AT_name("water_relay")
	.dwattr $C$DW$87, DW_AT_TI_symbol_name("water_relay")
	.dwattr $C$DW$87, DW_AT_type(*$C$DW$T$22)
	.dwattr $C$DW$87, DW_AT_location[DW_OP_breg13 172]
$C$DW$88	.dwtag  DW_TAG_formal_parameter, DW_AT_name("fan_relay")
	.dwattr $C$DW$88, DW_AT_TI_symbol_name("fan_relay")
	.dwattr $C$DW$88, DW_AT_type(*$C$DW$T$22)
	.dwattr $C$DW$88, DW_AT_location[DW_OP_breg13 176]
;----------------------------------------------------------------------
; 118 | uint8_t send_esp8266(   uint32_t humidity_data,//field1                
; 119 | uint32_t temperature_data_1, //field2                                  
; 120 | uint32_t temperature_data_2,  //field3                                 
; 121 | uint32_t temperature_data_3, //field4                                  
; 122 | uint32_t co2level,  //field5                                           
; 123 | uint32_t water_relay, //field6                                         
; 124 | uint32_t fan_relay)//field7                                            
;----------------------------------------------------------------------

;*****************************************************************************
;* FUNCTION NAME: send_esp8266                                               *
;*                                                                           *
;*   Regs Modified     : A1,A2,A3,A4,V4,V9,SP,LR,SR,D0,D0_hi,D1,D1_hi,D2,    *
;*                           D2_hi,D3,D3_hi,D4,D4_hi,D5,D5_hi,D6,D6_hi,D7,   *
;*                           D7_hi,FPEXC,FPSCR                               *
;*   Regs Used         : A1,A2,A3,A4,V4,V9,SP,LR,SR,D0,D0_hi,D1,D1_hi,D2,    *
;*                           D2_hi,D3,D3_hi,D4,D4_hi,D5,D5_hi,D6,D6_hi,D7,   *
;*                           D7_hi,FPEXC,FPSCR                               *
;*   Local Frame Size  : 0 Args + 160 Auto + 8 Save = 168 byte               *
;*****************************************************************************
send_esp8266:
;* --------------------------------------------------------------------------*
	.dwcfi	cfa_offset, 0
        PUSH      {V4, LR}              ; [DPU_3_PIPE] 
	.dwcfi	cfa_offset, 8
	.dwcfi	save_reg_to_mem, 14, -4
	.dwcfi	save_reg_to_mem, 7, -8
        ADD       V4, SP, #8            ; [DPU_3_PIPE] 
        SUB       SP, SP, #160          ; [DPU_3_PIPE] 
	.dwcfi	cfa_offset, 168
$C$DW$89	.dwtag  DW_TAG_variable, DW_AT_name("humidity_data")
	.dwattr $C$DW$89, DW_AT_TI_symbol_name("humidity_data")
	.dwattr $C$DW$89, DW_AT_type(*$C$DW$T$22)
	.dwattr $C$DW$89, DW_AT_location[DW_OP_breg13 0]
$C$DW$90	.dwtag  DW_TAG_variable, DW_AT_name("temperature_data_1")
	.dwattr $C$DW$90, DW_AT_TI_symbol_name("temperature_data_1")
	.dwattr $C$DW$90, DW_AT_type(*$C$DW$T$22)
	.dwattr $C$DW$90, DW_AT_location[DW_OP_breg13 4]
$C$DW$91	.dwtag  DW_TAG_variable, DW_AT_name("temperature_data_2")
	.dwattr $C$DW$91, DW_AT_TI_symbol_name("temperature_data_2")
	.dwattr $C$DW$91, DW_AT_type(*$C$DW$T$22)
	.dwattr $C$DW$91, DW_AT_location[DW_OP_breg13 8]
$C$DW$92	.dwtag  DW_TAG_variable, DW_AT_name("temperature_data_3")
	.dwattr $C$DW$92, DW_AT_TI_symbol_name("temperature_data_3")
	.dwattr $C$DW$92, DW_AT_type(*$C$DW$T$22)
	.dwattr $C$DW$92, DW_AT_location[DW_OP_breg13 12]
$C$DW$93	.dwtag  DW_TAG_variable, DW_AT_name("cmnd")
	.dwattr $C$DW$93, DW_AT_TI_symbol_name("cmnd")
	.dwattr $C$DW$93, DW_AT_type(*$C$DW$T$99)
	.dwattr $C$DW$93, DW_AT_location[DW_OP_breg13 16]
$C$DW$94	.dwtag  DW_TAG_variable, DW_AT_name("cmnd_len_array")
	.dwattr $C$DW$94, DW_AT_TI_symbol_name("cmnd_len_array")
	.dwattr $C$DW$94, DW_AT_type(*$C$DW$T$100)
	.dwattr $C$DW$94, DW_AT_location[DW_OP_breg13 124]
$C$DW$95	.dwtag  DW_TAG_variable, DW_AT_name("cmnd_len_array_temp")
	.dwattr $C$DW$95, DW_AT_TI_symbol_name("cmnd_len_array_temp")
	.dwattr $C$DW$95, DW_AT_type(*$C$DW$T$101)
	.dwattr $C$DW$95, DW_AT_location[DW_OP_breg13 140]
$C$DW$96	.dwtag  DW_TAG_variable, DW_AT_name("buffer")
	.dwattr $C$DW$96, DW_AT_TI_symbol_name("buffer")
	.dwattr $C$DW$96, DW_AT_type(*$C$DW$T$103)
	.dwattr $C$DW$96, DW_AT_location[DW_OP_breg13 144]
$C$DW$97	.dwtag  DW_TAG_variable, DW_AT_name("buffer_long")
	.dwattr $C$DW$97, DW_AT_TI_symbol_name("buffer_long")
	.dwattr $C$DW$97, DW_AT_type(*$C$DW$T$105)
	.dwattr $C$DW$97, DW_AT_location[DW_OP_breg13 148]
$C$DW$98	.dwtag  DW_TAG_variable, DW_AT_name("result")
	.dwattr $C$DW$98, DW_AT_TI_symbol_name("result")
	.dwattr $C$DW$98, DW_AT_type(*$C$DW$T$25)
	.dwattr $C$DW$98, DW_AT_location[DW_OP_breg13 156]
$C$DW$99	.dwtag  DW_TAG_variable, DW_AT_name("cmnd_len")
	.dwattr $C$DW$99, DW_AT_TI_symbol_name("cmnd_len")
	.dwattr $C$DW$99, DW_AT_type(*$C$DW$T$55)
	.dwattr $C$DW$99, DW_AT_location[DW_OP_breg13 158]
;----------------------------------------------------------------------
; 126 | char cmnd[106];                                                        
; 127 | char cmnd_len_array[14];                                               
;----------------------------------------------------------------------
        STR       A4, [SP, #12]         ; [DPU_3_PIPE] |125| 
        STR       A3, [SP, #8]          ; [DPU_3_PIPE] |125| 
        STR       A2, [SP, #4]          ; [DPU_3_PIPE] |125| 
        STR       A1, [SP, #0]          ; [DPU_3_PIPE] |125| 
	.dwpsn	file "../esp8266.c",line 128,column 29,is_stmt,isa 1
;----------------------------------------------------------------------
; 128 | char cmnd_len_array_temp[3]={0,0,0};                                   
;----------------------------------------------------------------------
        MOVS      A2, #0                ; [DPU_3_PIPE] |128| 
        MOVS      A3, #3                ; [DPU_3_PIPE] |128| 
        ADD       A1, SP, #140          ; [DPU_3_PIPE] |128| 
$C$DW$100	.dwtag  DW_TAG_TI_branch
	.dwattr $C$DW$100, DW_AT_low_pc(0x00)
	.dwattr $C$DW$100, DW_AT_name("memset")
	.dwattr $C$DW$100, DW_AT_TI_call
        BL        memset                ; [DPU_3_PIPE] |128| 
        ; CALL OCCURS {memset }          ; [] |128| 
	.dwpsn	file "../esp8266.c",line 129,column 16,is_stmt,isa 1
;----------------------------------------------------------------------
; 129 | char buffer[2]={0,0};                                                  
;----------------------------------------------------------------------
        MOVS      A2, #0                ; [DPU_3_PIPE] |129| 
        MOVS      A3, #2                ; [DPU_3_PIPE] |129| 
        ADD       A1, SP, #144          ; [DPU_3_PIPE] |129| 
$C$DW$101	.dwtag  DW_TAG_TI_branch
	.dwattr $C$DW$101, DW_AT_low_pc(0x00)
	.dwattr $C$DW$101, DW_AT_name("memset")
	.dwattr $C$DW$101, DW_AT_TI_call
        BL        memset                ; [DPU_3_PIPE] |129| 
        ; CALL OCCURS {memset }          ; [] |129| 
	.dwpsn	file "../esp8266.c",line 130,column 22,is_stmt,isa 1
;----------------------------------------------------------------------
; 130 | char buffer_long[6] = {0,0,0,0,0};                                     
;----------------------------------------------------------------------
        MOVS      A2, #0                ; [DPU_3_PIPE] |130| 
        MOVS      A3, #6                ; [DPU_3_PIPE] |130| 
        ADD       A1, SP, #148          ; [DPU_3_PIPE] |130| 
$C$DW$102	.dwtag  DW_TAG_TI_branch
	.dwattr $C$DW$102, DW_AT_low_pc(0x00)
	.dwattr $C$DW$102, DW_AT_name("memset")
	.dwattr $C$DW$102, DW_AT_TI_call
        BL        memset                ; [DPU_3_PIPE] |130| 
        ; CALL OCCURS {memset }          ; [] |130| 
	.dwpsn	file "../esp8266.c",line 131,column 16,is_stmt,isa 1
;----------------------------------------------------------------------
; 131 | uint8_t result=1;                                                      
; 132 | uint16_t cmnd_len;                                                     
; 133 | //      memset(cmnd,0,106);                                            
; 134 | //      memset(buffer_long, '0',5);                                    
;----------------------------------------------------------------------
        MOVS      A1, #1                ; [DPU_3_PIPE] |131| 
        STRB      A1, [SP, #156]        ; [DPU_3_PIPE] |131| 
	.dwpsn	file "../esp8266.c",line 136,column 2,is_stmt,isa 1
;----------------------------------------------------------------------
; 136 | strcpy(cmnd,SEND_DATA);                                                
; 137 | //strcpy(cmnd,SEND_DATA_TEST);                                         
; 138 | //field1 humidity                                                      
;----------------------------------------------------------------------
        ADR       A2, $C$SL3            ; [DPU_3_PIPE] |136| 
        ADD       A1, SP, #16           ; [DPU_3_PIPE] |136| 
$C$DW$103	.dwtag  DW_TAG_TI_branch
	.dwattr $C$DW$103, DW_AT_low_pc(0x00)
	.dwattr $C$DW$103, DW_AT_name("strcpy")
	.dwattr $C$DW$103, DW_AT_TI_call
        BL        strcpy                ; [DPU_3_PIPE] |136| 
        ; CALL OCCURS {strcpy }          ; [] |136| 
	.dwpsn	file "../esp8266.c",line 139,column 2,is_stmt,isa 1
;----------------------------------------------------------------------
; 139 | buffer[0] = (char)(humidity_data / 10)+'0';//decimal                   
;----------------------------------------------------------------------
        LDR       A2, [SP, #0]          ; [DPU_3_PIPE] |139| 
        MOVS      A1, #10               ; [DPU_3_PIPE] |139| 
        UDIV      A1, A2, A1            ; [DPU_3_PIPE] |139| 
        UXTB      A1, A1                ; [DPU_3_PIPE] |139| 
        ADDS      A1, A1, #48           ; [DPU_3_PIPE] |139| 
        STRB      A1, [SP, #144]        ; [DPU_3_PIPE] |139| 
	.dwpsn	file "../esp8266.c",line 140,column 2,is_stmt,isa 1
;----------------------------------------------------------------------
; 140 | buffer[1] = (char)(humidity_data % 10)+'0';//unit                      
;----------------------------------------------------------------------
        LDR       A1, [SP, #0]          ; [DPU_3_PIPE] |140| 
        MOVS      A3, #10               ; [DPU_3_PIPE] |140| 
        UDIV      A2, A1, A3            ; [DPU_3_PIPE] |140| 
        MULS      A2, A2, A3            ; [DPU_3_PIPE] |140| 
        SUBS      A1, A1, A2            ; [DPU_3_PIPE] |140| 
        UXTB      A1, A1                ; [DPU_3_PIPE] |140| 
        ADDS      A1, A1, #48           ; [DPU_3_PIPE] |140| 
        STRB      A1, [SP, #145]        ; [DPU_3_PIPE] |140| 
	.dwpsn	file "../esp8266.c",line 141,column 2,is_stmt,isa 1
;----------------------------------------------------------------------
; 141 | strncat(cmnd, buffer,2);                                               
; 142 | //field2 temperature 1                                                 
;----------------------------------------------------------------------
        MOVS      A3, #2                ; [DPU_3_PIPE] |141| 
        ADD       A1, SP, #16           ; [DPU_3_PIPE] |141| 
        ADD       A2, SP, #144          ; [DPU_3_PIPE] |141| 
$C$DW$104	.dwtag  DW_TAG_TI_branch
	.dwattr $C$DW$104, DW_AT_low_pc(0x00)
	.dwattr $C$DW$104, DW_AT_name("strncat")
	.dwattr $C$DW$104, DW_AT_TI_call
        BL        strncat               ; [DPU_3_PIPE] |141| 
        ; CALL OCCURS {strncat }         ; [] |141| 
	.dwpsn	file "../esp8266.c",line 143,column 2,is_stmt,isa 1
;----------------------------------------------------------------------
; 143 | strcat(cmnd,SEND_DATA_FIELD2);                                         
;----------------------------------------------------------------------
        ADR       A2, $C$SL4            ; [DPU_3_PIPE] |143| 
        ADD       A1, SP, #16           ; [DPU_3_PIPE] |143| 
$C$DW$105	.dwtag  DW_TAG_TI_branch
	.dwattr $C$DW$105, DW_AT_low_pc(0x00)
	.dwattr $C$DW$105, DW_AT_name("strcat")
	.dwattr $C$DW$105, DW_AT_TI_call
        BL        strcat                ; [DPU_3_PIPE] |143| 
        ; CALL OCCURS {strcat }          ; [] |143| 
	.dwpsn	file "../esp8266.c",line 144,column 2,is_stmt,isa 1
;----------------------------------------------------------------------
; 144 | buffer[0] = (char)(temperature_data_1 / 10)+'0';//decimal              
;----------------------------------------------------------------------
        LDR       A2, [SP, #4]          ; [DPU_3_PIPE] |144| 
        MOVS      A1, #10               ; [DPU_3_PIPE] |144| 
        UDIV      A1, A2, A1            ; [DPU_3_PIPE] |144| 
        UXTB      A1, A1                ; [DPU_3_PIPE] |144| 
        ADDS      A1, A1, #48           ; [DPU_3_PIPE] |144| 
        STRB      A1, [SP, #144]        ; [DPU_3_PIPE] |144| 
	.dwpsn	file "../esp8266.c",line 145,column 2,is_stmt,isa 1
;----------------------------------------------------------------------
; 145 | buffer[1] = (char)(temperature_data_1 % 10)+'0';//unit                 
;----------------------------------------------------------------------
        LDR       A1, [SP, #4]          ; [DPU_3_PIPE] |145| 
        MOVS      A3, #10               ; [DPU_3_PIPE] |145| 
        UDIV      A2, A1, A3            ; [DPU_3_PIPE] |145| 
        MULS      A2, A2, A3            ; [DPU_3_PIPE] |145| 
        SUBS      A1, A1, A2            ; [DPU_3_PIPE] |145| 
        UXTB      A1, A1                ; [DPU_3_PIPE] |145| 
        ADDS      A1, A1, #48           ; [DPU_3_PIPE] |145| 
        STRB      A1, [SP, #145]        ; [DPU_3_PIPE] |145| 
	.dwpsn	file "../esp8266.c",line 146,column 2,is_stmt,isa 1
;----------------------------------------------------------------------
; 146 | strncat(cmnd, buffer,2);                                               
; 147 | //field3 temperature 2                                                 
;----------------------------------------------------------------------
        MOVS      A3, #2                ; [DPU_3_PIPE] |146| 
        ADD       A1, SP, #16           ; [DPU_3_PIPE] |146| 
        ADD       A2, SP, #144          ; [DPU_3_PIPE] |146| 
$C$DW$106	.dwtag  DW_TAG_TI_branch
	.dwattr $C$DW$106, DW_AT_low_pc(0x00)
	.dwattr $C$DW$106, DW_AT_name("strncat")
	.dwattr $C$DW$106, DW_AT_TI_call
        BL        strncat               ; [DPU_3_PIPE] |146| 
        ; CALL OCCURS {strncat }         ; [] |146| 
	.dwpsn	file "../esp8266.c",line 148,column 2,is_stmt,isa 1
;----------------------------------------------------------------------
; 148 | strcat(cmnd,SEND_DATA_FIELD3);                                         
;----------------------------------------------------------------------
        ADR       A2, $C$SL5            ; [DPU_3_PIPE] |148| 
        ADD       A1, SP, #16           ; [DPU_3_PIPE] |148| 
$C$DW$107	.dwtag  DW_TAG_TI_branch
	.dwattr $C$DW$107, DW_AT_low_pc(0x00)
	.dwattr $C$DW$107, DW_AT_name("strcat")
	.dwattr $C$DW$107, DW_AT_TI_call
        BL        strcat                ; [DPU_3_PIPE] |148| 
        ; CALL OCCURS {strcat }          ; [] |148| 
	.dwpsn	file "../esp8266.c",line 149,column 2,is_stmt,isa 1
;----------------------------------------------------------------------
; 149 | buffer[0] = (char)(temperature_data_2 / 10)+'0';//decimal              
;----------------------------------------------------------------------
        LDR       A2, [SP, #8]          ; [DPU_3_PIPE] |149| 
        MOVS      A1, #10               ; [DPU_3_PIPE] |149| 
        UDIV      A1, A2, A1            ; [DPU_3_PIPE] |149| 
        UXTB      A1, A1                ; [DPU_3_PIPE] |149| 
        ADDS      A1, A1, #48           ; [DPU_3_PIPE] |149| 
        STRB      A1, [SP, #144]        ; [DPU_3_PIPE] |149| 
	.dwpsn	file "../esp8266.c",line 150,column 2,is_stmt,isa 1
;----------------------------------------------------------------------
; 150 | buffer[1] = (char)(temperature_data_2 % 10)+'0';//unit                 
;----------------------------------------------------------------------
        LDR       A1, [SP, #8]          ; [DPU_3_PIPE] |150| 
        MOVS      A3, #10               ; [DPU_3_PIPE] |150| 
        UDIV      A2, A1, A3            ; [DPU_3_PIPE] |150| 
        MULS      A2, A2, A3            ; [DPU_3_PIPE] |150| 
        SUBS      A1, A1, A2            ; [DPU_3_PIPE] |150| 
        UXTB      A1, A1                ; [DPU_3_PIPE] |150| 
        ADDS      A1, A1, #48           ; [DPU_3_PIPE] |150| 
        STRB      A1, [SP, #145]        ; [DPU_3_PIPE] |150| 
	.dwpsn	file "../esp8266.c",line 151,column 2,is_stmt,isa 1
;----------------------------------------------------------------------
; 151 | strncat(cmnd, buffer,2);                                               
; 152 | //field4 temperature 3                                                 
;----------------------------------------------------------------------
        MOVS      A3, #2                ; [DPU_3_PIPE] |151| 
        ADD       A1, SP, #16           ; [DPU_3_PIPE] |151| 
        ADD       A2, SP, #144          ; [DPU_3_PIPE] |151| 
$C$DW$108	.dwtag  DW_TAG_TI_branch
	.dwattr $C$DW$108, DW_AT_low_pc(0x00)
	.dwattr $C$DW$108, DW_AT_name("strncat")
	.dwattr $C$DW$108, DW_AT_TI_call
        BL        strncat               ; [DPU_3_PIPE] |151| 
        ; CALL OCCURS {strncat }         ; [] |151| 
	.dwpsn	file "../esp8266.c",line 153,column 2,is_stmt,isa 1
;----------------------------------------------------------------------
; 153 | strcat(cmnd,SEND_DATA_FIELD4);                                         
;----------------------------------------------------------------------
        ADR       A2, $C$SL6            ; [DPU_3_PIPE] |153| 
        ADD       A1, SP, #16           ; [DPU_3_PIPE] |153| 
$C$DW$109	.dwtag  DW_TAG_TI_branch
	.dwattr $C$DW$109, DW_AT_low_pc(0x00)
	.dwattr $C$DW$109, DW_AT_name("strcat")
	.dwattr $C$DW$109, DW_AT_TI_call
        BL        strcat                ; [DPU_3_PIPE] |153| 
        ; CALL OCCURS {strcat }          ; [] |153| 
	.dwpsn	file "../esp8266.c",line 154,column 2,is_stmt,isa 1
;----------------------------------------------------------------------
; 154 | buffer[0] = (char)(temperature_data_3 / 10)+'0';//decimal              
;----------------------------------------------------------------------
        LDR       A2, [SP, #12]         ; [DPU_3_PIPE] |154| 
        MOVS      A1, #10               ; [DPU_3_PIPE] |154| 
        UDIV      A1, A2, A1            ; [DPU_3_PIPE] |154| 
        UXTB      A1, A1                ; [DPU_3_PIPE] |154| 
        ADDS      A1, A1, #48           ; [DPU_3_PIPE] |154| 
        STRB      A1, [SP, #144]        ; [DPU_3_PIPE] |154| 
	.dwpsn	file "../esp8266.c",line 155,column 2,is_stmt,isa 1
;----------------------------------------------------------------------
; 155 | buffer[1] = (char)(temperature_data_3 % 10)+'0';//unit                 
;----------------------------------------------------------------------
        LDR       A1, [SP, #12]         ; [DPU_3_PIPE] |155| 
        MOVS      A3, #10               ; [DPU_3_PIPE] |155| 
        UDIV      A2, A1, A3            ; [DPU_3_PIPE] |155| 
        MULS      A2, A2, A3            ; [DPU_3_PIPE] |155| 
        SUBS      A1, A1, A2            ; [DPU_3_PIPE] |155| 
        UXTB      A1, A1                ; [DPU_3_PIPE] |155| 
        ADDS      A1, A1, #48           ; [DPU_3_PIPE] |155| 
        STRB      A1, [SP, #145]        ; [DPU_3_PIPE] |155| 
	.dwpsn	file "../esp8266.c",line 156,column 2,is_stmt,isa 1
;----------------------------------------------------------------------
; 156 | strncat(cmnd, buffer,2);                                               
; 157 | //field5 CO2 level                                                     
;----------------------------------------------------------------------
        MOVS      A3, #2                ; [DPU_3_PIPE] |156| 
        ADD       A1, SP, #16           ; [DPU_3_PIPE] |156| 
        ADD       A2, SP, #144          ; [DPU_3_PIPE] |156| 
$C$DW$110	.dwtag  DW_TAG_TI_branch
	.dwattr $C$DW$110, DW_AT_low_pc(0x00)
	.dwattr $C$DW$110, DW_AT_name("strncat")
	.dwattr $C$DW$110, DW_AT_TI_call
        BL        strncat               ; [DPU_3_PIPE] |156| 
        ; CALL OCCURS {strncat }         ; [] |156| 
;* --------------------------------------------------------------------------*
	.dwpsn	file "../esp8266.c",line 158,column 2,is_stmt,isa 1
;----------------------------------------------------------------------
; 158 | strcat(cmnd,SEND_DATA_FIELD5);                                         
;----------------------------------------------------------------------
        ADD       A1, SP, #16           ; [DPU_3_PIPE] |158| 
        ADR       A2, $C$SL7            ; [DPU_3_PIPE] |158| 
$C$DW$111	.dwtag  DW_TAG_TI_branch
	.dwattr $C$DW$111, DW_AT_low_pc(0x00)
	.dwattr $C$DW$111, DW_AT_name("strcat")
	.dwattr $C$DW$111, DW_AT_TI_call
        BL        strcat                ; [DPU_3_PIPE] |158| 
        ; CALL OCCURS {strcat }          ; [] |158| 
	.dwpsn	file "../esp8266.c",line 159,column 2,is_stmt,isa 1
;----------------------------------------------------------------------
; 159 | uitoa(co2level, buffer_long, 5);                                       
;----------------------------------------------------------------------
        LDR       A1, [V4, #0]          ; [DPU_3_PIPE] |159| 
        ADD       A2, SP, #148          ; [DPU_3_PIPE] |159| 
        MOVS      A3, #5                ; [DPU_3_PIPE] |159| 
$C$DW$112	.dwtag  DW_TAG_TI_branch
	.dwattr $C$DW$112, DW_AT_low_pc(0x00)
	.dwattr $C$DW$112, DW_AT_name("uitoa")
	.dwattr $C$DW$112, DW_AT_TI_call
        BL        uitoa                 ; [DPU_3_PIPE] |159| 
        ; CALL OCCURS {uitoa }           ; [] |159| 
	.dwpsn	file "../esp8266.c",line 160,column 2,is_stmt,isa 1
;----------------------------------------------------------------------
; 160 | strncat(cmnd, buffer_long,5);                                          
; 161 | //field6 Water relay                                                   
;----------------------------------------------------------------------
        ADD       A1, SP, #16           ; [DPU_3_PIPE] |160| 
        ADD       A2, SP, #148          ; [DPU_3_PIPE] |160| 
        MOVS      A3, #5                ; [DPU_3_PIPE] |160| 
$C$DW$113	.dwtag  DW_TAG_TI_branch
	.dwattr $C$DW$113, DW_AT_low_pc(0x00)
	.dwattr $C$DW$113, DW_AT_name("strncat")
	.dwattr $C$DW$113, DW_AT_TI_call
        BL        strncat               ; [DPU_3_PIPE] |160| 
        ; CALL OCCURS {strncat }         ; [] |160| 
	.dwpsn	file "../esp8266.c",line 162,column 2,is_stmt,isa 1
;----------------------------------------------------------------------
; 162 | strcat(cmnd,SEND_DATA_FIELD6);                                         
;----------------------------------------------------------------------
        ADD       A1, SP, #16           ; [DPU_3_PIPE] |162| 
        ADR       A2, $C$SL8            ; [DPU_3_PIPE] |162| 
$C$DW$114	.dwtag  DW_TAG_TI_branch
	.dwattr $C$DW$114, DW_AT_low_pc(0x00)
	.dwattr $C$DW$114, DW_AT_name("strcat")
	.dwattr $C$DW$114, DW_AT_TI_call
        BL        strcat                ; [DPU_3_PIPE] |162| 
        ; CALL OCCURS {strcat }          ; [] |162| 
	.dwpsn	file "../esp8266.c",line 163,column 2,is_stmt,isa 1
;----------------------------------------------------------------------
; 163 | buffer[0] = (char)(water_relay)+'0';//decimal                          
;----------------------------------------------------------------------
        LDRB      A1, [V4, #4]          ; [DPU_3_PIPE] |163| 
        ADDS      A1, A1, #48           ; [DPU_3_PIPE] |163| 
        STRB      A1, [SP, #144]        ; [DPU_3_PIPE] |163| 
	.dwpsn	file "../esp8266.c",line 164,column 2,is_stmt,isa 1
;----------------------------------------------------------------------
; 164 | buffer[1] = '0';//unit                                                 
;----------------------------------------------------------------------
        MOVS      A1, #48               ; [DPU_3_PIPE] |164| 
        STRB      A1, [SP, #145]        ; [DPU_3_PIPE] |164| 
	.dwpsn	file "../esp8266.c",line 165,column 2,is_stmt,isa 1
;----------------------------------------------------------------------
; 165 | strncat(cmnd, buffer,2);                                               
; 166 | //field7 Fan relay                                                     
;----------------------------------------------------------------------
        ADD       A2, SP, #144          ; [DPU_3_PIPE] |165| 
        MOVS      A3, #2                ; [DPU_3_PIPE] |165| 
        ADD       A1, SP, #16           ; [DPU_3_PIPE] |165| 
$C$DW$115	.dwtag  DW_TAG_TI_branch
	.dwattr $C$DW$115, DW_AT_low_pc(0x00)
	.dwattr $C$DW$115, DW_AT_name("strncat")
	.dwattr $C$DW$115, DW_AT_TI_call
        BL        strncat               ; [DPU_3_PIPE] |165| 
        ; CALL OCCURS {strncat }         ; [] |165| 
	.dwpsn	file "../esp8266.c",line 167,column 2,is_stmt,isa 1
;----------------------------------------------------------------------
; 167 | strcat(cmnd,SEND_DATA_FIELD7);                                         
;----------------------------------------------------------------------
        ADD       A1, SP, #16           ; [DPU_3_PIPE] |167| 
        ADR       A2, $C$SL9            ; [DPU_3_PIPE] |167| 
$C$DW$116	.dwtag  DW_TAG_TI_branch
	.dwattr $C$DW$116, DW_AT_low_pc(0x00)
	.dwattr $C$DW$116, DW_AT_name("strcat")
	.dwattr $C$DW$116, DW_AT_TI_call
        BL        strcat                ; [DPU_3_PIPE] |167| 
        ; CALL OCCURS {strcat }          ; [] |167| 
	.dwpsn	file "../esp8266.c",line 168,column 2,is_stmt,isa 1
;----------------------------------------------------------------------
; 168 | buffer[0] = (char)(fan_relay)+'0';//decimal                            
;----------------------------------------------------------------------
        LDRB      A1, [V4, #8]          ; [DPU_3_PIPE] |168| 
        ADDS      A1, A1, #48           ; [DPU_3_PIPE] |168| 
        STRB      A1, [SP, #144]        ; [DPU_3_PIPE] |168| 
	.dwpsn	file "../esp8266.c",line 169,column 2,is_stmt,isa 1
;----------------------------------------------------------------------
; 169 | buffer[1] = '0';//unit                                                 
;----------------------------------------------------------------------
        MOVS      A1, #48               ; [DPU_3_PIPE] |169| 
        STRB      A1, [SP, #145]        ; [DPU_3_PIPE] |169| 
	.dwpsn	file "../esp8266.c",line 170,column 2,is_stmt,isa 1
;----------------------------------------------------------------------
; 170 | strncat(cmnd, buffer,2);                                               
;----------------------------------------------------------------------
        ADD       A2, SP, #144          ; [DPU_3_PIPE] |170| 
        MOVS      A3, #2                ; [DPU_3_PIPE] |170| 
        ADD       A1, SP, #16           ; [DPU_3_PIPE] |170| 
$C$DW$117	.dwtag  DW_TAG_TI_branch
	.dwattr $C$DW$117, DW_AT_low_pc(0x00)
	.dwattr $C$DW$117, DW_AT_name("strncat")
	.dwattr $C$DW$117, DW_AT_TI_call
        BL        strncat               ; [DPU_3_PIPE] |170| 
        ; CALL OCCURS {strncat }         ; [] |170| 
	.dwpsn	file "../esp8266.c",line 172,column 2,is_stmt,isa 1
;----------------------------------------------------------------------
; 172 | cmnd_len = strlen(cmnd);                                               
;----------------------------------------------------------------------
        ADD       A1, SP, #16           ; [DPU_3_PIPE] |172| 
$C$DW$118	.dwtag  DW_TAG_TI_branch
	.dwattr $C$DW$118, DW_AT_low_pc(0x00)
	.dwattr $C$DW$118, DW_AT_name("strlen")
	.dwattr $C$DW$118, DW_AT_TI_call
        BL        strlen                ; [DPU_3_PIPE] |172| 
        ; CALL OCCURS {strlen }          ; [] |172| 
        STRH      A1, [SP, #158]        ; [DPU_3_PIPE] |172| 
	.dwpsn	file "../esp8266.c",line 173,column 2,is_stmt,isa 1
;----------------------------------------------------------------------
; 173 | if(cmnd_len>106)                                                       
; 175 | #ifdef DEBUG                                                           
;----------------------------------------------------------------------
        LDRH      A1, [SP, #158]        ; [DPU_3_PIPE] |173| 
        CMP       A1, #106              ; [DPU_3_PIPE] |173| 
        BLE       ||$C$L11||            ; [DPU_3_PIPE] |173| 
        ; BRANCHCC OCCURS {||$C$L11||}   ; [] |173| 
;* --------------------------------------------------------------------------*
	.dwpsn	file "../esp8266.c",line 176,column 3,is_stmt,isa 1
;----------------------------------------------------------------------
; 176 | LOGprintf("Cmnd size exceedes allowed length (%d)\n", cmnd_len);       
; 177 | #endif                                                                 
;----------------------------------------------------------------------
        LDRH      A2, [SP, #158]        ; [DPU_3_PIPE] |176| 
        ADR       A1, $C$SL10           ; [DPU_3_PIPE] |176| 
$C$DW$119	.dwtag  DW_TAG_TI_branch
	.dwattr $C$DW$119, DW_AT_low_pc(0x00)
	.dwattr $C$DW$119, DW_AT_name("LOGprintf")
	.dwattr $C$DW$119, DW_AT_TI_call
        BL        LOGprintf             ; [DPU_3_PIPE] |176| 
        ; CALL OCCURS {LOGprintf }       ; [] |176| 
	.dwpsn	file "../esp8266.c",line 178,column 3,is_stmt,isa 1
;----------------------------------------------------------------------
; 178 | return 0;//too much data                                               
;----------------------------------------------------------------------
        MOVS      A1, #0                ; [DPU_3_PIPE] |178| 
        B         ||$C$L14||            ; [DPU_3_PIPE] |178| 
        ; BRANCH OCCURS {||$C$L14||}     ; [] |178| 
;* --------------------------------------------------------------------------*
||$C$L11||:    
	.dwpsn	file "../esp8266.c",line 180,column 2,is_stmt,isa 1
;----------------------------------------------------------------------
; 180 | cmnd_len += 2;                                                         
;----------------------------------------------------------------------
        LDRH      A1, [SP, #158]        ; [DPU_3_PIPE] |180| 
        ADDS      A1, A1, #2            ; [DPU_3_PIPE] |180| 
        STRH      A1, [SP, #158]        ; [DPU_3_PIPE] |180| 
	.dwpsn	file "../esp8266.c",line 181,column 2,is_stmt,isa 1
;----------------------------------------------------------------------
; 181 | uitoa(cmnd_len, cmnd_len_array_temp, 3);                               
;----------------------------------------------------------------------
        LDRH      A1, [SP, #158]        ; [DPU_3_PIPE] |181| 
        ADD       A2, SP, #140          ; [DPU_3_PIPE] |181| 
        MOVS      A3, #3                ; [DPU_3_PIPE] |181| 
$C$DW$120	.dwtag  DW_TAG_TI_branch
	.dwattr $C$DW$120, DW_AT_low_pc(0x00)
	.dwattr $C$DW$120, DW_AT_name("uitoa")
	.dwattr $C$DW$120, DW_AT_TI_call
        BL        uitoa                 ; [DPU_3_PIPE] |181| 
        ; CALL OCCURS {uitoa }           ; [] |181| 
	.dwpsn	file "../esp8266.c",line 182,column 2,is_stmt,isa 1
;----------------------------------------------------------------------
; 182 | strcpy(cmnd_len_array, SEND_AT_CIPSEND);                               
;----------------------------------------------------------------------
        ADD       A1, SP, #124          ; [DPU_3_PIPE] |182| 
        ADR       A2, $C$SL11           ; [DPU_3_PIPE] |182| 
$C$DW$121	.dwtag  DW_TAG_TI_branch
	.dwattr $C$DW$121, DW_AT_low_pc(0x00)
	.dwattr $C$DW$121, DW_AT_name("strcpy")
	.dwattr $C$DW$121, DW_AT_TI_call
        BL        strcpy                ; [DPU_3_PIPE] |182| 
        ; CALL OCCURS {strcpy }          ; [] |182| 
	.dwpsn	file "../esp8266.c",line 183,column 2,is_stmt,isa 1
;----------------------------------------------------------------------
; 183 | strcat(cmnd_len_array, cmnd_len_array_temp);                           
;----------------------------------------------------------------------
        ADD       A1, SP, #124          ; [DPU_3_PIPE] |183| 
        ADD       A2, SP, #140          ; [DPU_3_PIPE] |183| 
$C$DW$122	.dwtag  DW_TAG_TI_branch
	.dwattr $C$DW$122, DW_AT_low_pc(0x00)
	.dwattr $C$DW$122, DW_AT_name("strcat")
	.dwattr $C$DW$122, DW_AT_TI_call
        BL        strcat                ; [DPU_3_PIPE] |183| 
        ; CALL OCCURS {strcat }          ; [] |183| 
	.dwpsn	file "../esp8266.c",line 185,column 2,is_stmt,isa 1
;----------------------------------------------------------------------
; 185 | uart_send(CONNECT_TO_THINGSPEAK);                                      
;----------------------------------------------------------------------
        ADR       A1, $C$SL12           ; [DPU_3_PIPE] |185| 
$C$DW$123	.dwtag  DW_TAG_TI_branch
	.dwattr $C$DW$123, DW_AT_low_pc(0x00)
	.dwattr $C$DW$123, DW_AT_name("uart_send")
	.dwattr $C$DW$123, DW_AT_TI_call
        BL        uart_send             ; [DPU_3_PIPE] |185| 
        ; CALL OCCURS {uart_send }       ; [] |185| 
	.dwpsn	file "../esp8266.c",line 186,column 2,is_stmt,isa 1
;----------------------------------------------------------------------
; 186 | SysCtlDelay(SysCtlClockGet());                                         
;----------------------------------------------------------------------
$C$DW$124	.dwtag  DW_TAG_TI_branch
	.dwattr $C$DW$124, DW_AT_low_pc(0x00)
	.dwattr $C$DW$124, DW_AT_name("SysCtlClockGet")
	.dwattr $C$DW$124, DW_AT_TI_call
        BL        SysCtlClockGet        ; [DPU_3_PIPE] |186| 
        ; CALL OCCURS {SysCtlClockGet }  ; [] |186| 
$C$DW$125	.dwtag  DW_TAG_TI_branch
	.dwattr $C$DW$125, DW_AT_low_pc(0x00)
	.dwattr $C$DW$125, DW_AT_name("SysCtlDelay")
	.dwattr $C$DW$125, DW_AT_TI_call
        BL        SysCtlDelay           ; [DPU_3_PIPE] |186| 
        ; CALL OCCURS {SysCtlDelay }     ; [] |186| 
	.dwpsn	file "../esp8266.c",line 187,column 2,is_stmt,isa 1
;----------------------------------------------------------------------
; 187 | SysCtlDelay(SysCtlClockGet());                                         
;----------------------------------------------------------------------
$C$DW$126	.dwtag  DW_TAG_TI_branch
	.dwattr $C$DW$126, DW_AT_low_pc(0x00)
	.dwattr $C$DW$126, DW_AT_name("SysCtlClockGet")
	.dwattr $C$DW$126, DW_AT_TI_call
        BL        SysCtlClockGet        ; [DPU_3_PIPE] |187| 
        ; CALL OCCURS {SysCtlClockGet }  ; [] |187| 
$C$DW$127	.dwtag  DW_TAG_TI_branch
	.dwattr $C$DW$127, DW_AT_low_pc(0x00)
	.dwattr $C$DW$127, DW_AT_name("SysCtlDelay")
	.dwattr $C$DW$127, DW_AT_TI_call
        BL        SysCtlDelay           ; [DPU_3_PIPE] |187| 
        ; CALL OCCURS {SysCtlDelay }     ; [] |187| 
	.dwpsn	file "../esp8266.c",line 188,column 2,is_stmt,isa 1
;----------------------------------------------------------------------
; 188 | SysCtlDelay(SysCtlClockGet());                                         
;----------------------------------------------------------------------
$C$DW$128	.dwtag  DW_TAG_TI_branch
	.dwattr $C$DW$128, DW_AT_low_pc(0x00)
	.dwattr $C$DW$128, DW_AT_name("SysCtlClockGet")
	.dwattr $C$DW$128, DW_AT_TI_call
        BL        SysCtlClockGet        ; [DPU_3_PIPE] |188| 
        ; CALL OCCURS {SysCtlClockGet }  ; [] |188| 
$C$DW$129	.dwtag  DW_TAG_TI_branch
	.dwattr $C$DW$129, DW_AT_low_pc(0x00)
	.dwattr $C$DW$129, DW_AT_name("SysCtlDelay")
	.dwattr $C$DW$129, DW_AT_TI_call
        BL        SysCtlDelay           ; [DPU_3_PIPE] |188| 
        ; CALL OCCURS {SysCtlDelay }     ; [] |188| 
	.dwpsn	file "../esp8266.c",line 199,column 2,is_stmt,isa 1
;----------------------------------------------------------------------
; 199 | result = esp8266_send(cmnd_len_array, CMD_LENGTH_CONFIRMATION);        
;----------------------------------------------------------------------
        ADD       A1, SP, #124          ; [DPU_3_PIPE] |199| 
        ADR       A2, $C$SL13           ; [DPU_3_PIPE] |199| 
$C$DW$130	.dwtag  DW_TAG_TI_branch
	.dwattr $C$DW$130, DW_AT_low_pc(0x00)
	.dwattr $C$DW$130, DW_AT_name("esp8266_send")
	.dwattr $C$DW$130, DW_AT_TI_call
        BL        esp8266_send          ; [DPU_3_PIPE] |199| 
        ; CALL OCCURS {esp8266_send }    ; [] |199| 
;* --------------------------------------------------------------------------*
        STRB      A1, [SP, #156]        ; [DPU_3_PIPE] |199| 
	.dwpsn	file "../esp8266.c",line 200,column 2,is_stmt,isa 1
;----------------------------------------------------------------------
; 200 | if(!result)                                                            
; 202 | #ifdef DEBUG                                                           
;----------------------------------------------------------------------
        LDRB      A1, [SP, #156]        ; [DPU_3_PIPE] |200| 
        CBNZ      A1, ||$C$L12||        ; [] 
        ; BRANCHCC OCCURS {||$C$L12||}   ; [] |200| 
;* --------------------------------------------------------------------------*
	.dwpsn	file "../esp8266.c",line 203,column 3,is_stmt,isa 1
;----------------------------------------------------------------------
; 203 | LOGprintf("Failed to send: %s\n", cmnd_len_array);                     
; 204 | #endif                                                                 
;----------------------------------------------------------------------
        ADR       A1, $C$SL14           ; [DPU_3_PIPE] |203| 
        ADD       A2, SP, #124          ; [DPU_3_PIPE] |203| 
$C$DW$131	.dwtag  DW_TAG_TI_branch
	.dwattr $C$DW$131, DW_AT_low_pc(0x00)
	.dwattr $C$DW$131, DW_AT_name("LOGprintf")
	.dwattr $C$DW$131, DW_AT_TI_call
        BL        LOGprintf             ; [DPU_3_PIPE] |203| 
        ; CALL OCCURS {LOGprintf }       ; [] |203| 
	.dwpsn	file "../esp8266.c",line 205,column 6,is_stmt,isa 1
;----------------------------------------------------------------------
; 205 | esp8266_reset();                                                       
;----------------------------------------------------------------------
$C$DW$132	.dwtag  DW_TAG_TI_branch
	.dwattr $C$DW$132, DW_AT_low_pc(0x00)
	.dwattr $C$DW$132, DW_AT_name("esp8266_reset")
	.dwattr $C$DW$132, DW_AT_TI_call
        BL        esp8266_reset         ; [DPU_3_PIPE] |205| 
        ; CALL OCCURS {esp8266_reset }   ; [] |205| 
	.dwpsn	file "../esp8266.c",line 206,column 5,is_stmt,isa 1
;----------------------------------------------------------------------
; 206 | return 0;                                                              
;----------------------------------------------------------------------
        MOVS      A1, #0                ; [DPU_3_PIPE] |206| 
        B         ||$C$L14||            ; [DPU_3_PIPE] |206| 
        ; BRANCH OCCURS {||$C$L14||}     ; [] |206| 
;* --------------------------------------------------------------------------*
||$C$L12||:    
	.dwpsn	file "../esp8266.c",line 208,column 2,is_stmt,isa 1
;----------------------------------------------------------------------
; 208 | result = esp8266_send(cmnd, CMD_CONFIRMATION);                         
;----------------------------------------------------------------------
        ADD       A1, SP, #16           ; [DPU_3_PIPE] |208| 
        ADR       A2, $C$SL15           ; [DPU_3_PIPE] |208| 
$C$DW$133	.dwtag  DW_TAG_TI_branch
	.dwattr $C$DW$133, DW_AT_low_pc(0x00)
	.dwattr $C$DW$133, DW_AT_name("esp8266_send")
	.dwattr $C$DW$133, DW_AT_TI_call
        BL        esp8266_send          ; [DPU_3_PIPE] |208| 
        ; CALL OCCURS {esp8266_send }    ; [] |208| 
        STRB      A1, [SP, #156]        ; [DPU_3_PIPE] |208| 
	.dwpsn	file "../esp8266.c",line 209,column 2,is_stmt,isa 1
;----------------------------------------------------------------------
; 209 | if(!result)                                                            
; 211 | #ifdef DEBUG                                                           
;----------------------------------------------------------------------
        LDRB      A1, [SP, #156]        ; [DPU_3_PIPE] |209| 
        CBNZ      A1, ||$C$L13||        ; [] 
        ; BRANCHCC OCCURS {||$C$L13||}   ; [] |209| 
;* --------------------------------------------------------------------------*
	.dwpsn	file "../esp8266.c",line 212,column 3,is_stmt,isa 1
;----------------------------------------------------------------------
; 212 | LOGprintf("Failed to send cmnd\n");                                    
;----------------------------------------------------------------------
        ADR       A1, $C$SL16           ; [DPU_3_PIPE] |212| 
$C$DW$134	.dwtag  DW_TAG_TI_branch
	.dwattr $C$DW$134, DW_AT_low_pc(0x00)
	.dwattr $C$DW$134, DW_AT_name("LOGprintf")
	.dwattr $C$DW$134, DW_AT_TI_call
        BL        LOGprintf             ; [DPU_3_PIPE] |212| 
        ; CALL OCCURS {LOGprintf }       ; [] |212| 
	.dwpsn	file "../esp8266.c",line 213,column 3,is_stmt,isa 1
;----------------------------------------------------------------------
; 213 | LOGprintf("%s", cmnd);                                                 
; 214 | #endif                                                                 
;----------------------------------------------------------------------
        ADR       A1, $C$SL17           ; [DPU_3_PIPE] |213| 
        ADD       A2, SP, #16           ; [DPU_3_PIPE] |213| 
$C$DW$135	.dwtag  DW_TAG_TI_branch
	.dwattr $C$DW$135, DW_AT_low_pc(0x00)
	.dwattr $C$DW$135, DW_AT_name("LOGprintf")
	.dwattr $C$DW$135, DW_AT_TI_call
        BL        LOGprintf             ; [DPU_3_PIPE] |213| 
        ; CALL OCCURS {LOGprintf }       ; [] |213| 
	.dwpsn	file "../esp8266.c",line 215,column 6,is_stmt,isa 1
;----------------------------------------------------------------------
; 215 | esp8266_reset();                                                       
;----------------------------------------------------------------------
$C$DW$136	.dwtag  DW_TAG_TI_branch
	.dwattr $C$DW$136, DW_AT_low_pc(0x00)
	.dwattr $C$DW$136, DW_AT_name("esp8266_reset")
	.dwattr $C$DW$136, DW_AT_TI_call
        BL        esp8266_reset         ; [DPU_3_PIPE] |215| 
        ; CALL OCCURS {esp8266_reset }   ; [] |215| 
	.dwpsn	file "../esp8266.c",line 216,column 5,is_stmt,isa 1
;----------------------------------------------------------------------
; 216 | return 0;                                                              
;----------------------------------------------------------------------
        MOVS      A1, #0                ; [DPU_3_PIPE] |216| 
        B         ||$C$L14||            ; [DPU_3_PIPE] |216| 
        ; BRANCH OCCURS {||$C$L14||}     ; [] |216| 
;* --------------------------------------------------------------------------*
||$C$L13||:    
	.dwpsn	file "../esp8266.c",line 218,column 2,is_stmt,isa 1
;----------------------------------------------------------------------
; 218 | return 1;                                                              
;----------------------------------------------------------------------
        MOVS      A1, #1                ; [DPU_3_PIPE] |218| 
;* --------------------------------------------------------------------------*
||$C$L14||:    
	.dwpsn	file "../esp8266.c",line 219,column 1,is_stmt,isa 1
        ADD       SP, SP, #160          ; [DPU_3_PIPE] 
	.dwcfi	cfa_offset, 8
$C$DW$137	.dwtag  DW_TAG_TI_branch
	.dwattr $C$DW$137, DW_AT_low_pc(0x00)
	.dwattr $C$DW$137, DW_AT_TI_return
        POP       {V4, PC}              ; [DPU_3_PIPE] 
	.dwcfi	cfa_offset, 0
        ; BRANCH OCCURS                  ; [] 
	.dwattr $C$DW$81, DW_AT_TI_end_file("../esp8266.c")
	.dwattr $C$DW$81, DW_AT_TI_end_line(0xdb)
	.dwattr $C$DW$81, DW_AT_TI_end_column(0x01)
	.dwendentry
	.dwendtag $C$DW$81

	.sect	".text:init_esp8266"
	.clink
	.thumbfunc init_esp8266
	.thumb
	.global	init_esp8266

$C$DW$138	.dwtag  DW_TAG_subprogram, DW_AT_name("init_esp8266")
	.dwattr $C$DW$138, DW_AT_low_pc(init_esp8266)
	.dwattr $C$DW$138, DW_AT_high_pc(0x00)
	.dwattr $C$DW$138, DW_AT_TI_symbol_name("init_esp8266")
	.dwattr $C$DW$138, DW_AT_external
	.dwattr $C$DW$138, DW_AT_type(*$C$DW$T$25)
	.dwattr $C$DW$138, DW_AT_TI_begin_file("../esp8266.c")
	.dwattr $C$DW$138, DW_AT_TI_begin_line(0xdd)
	.dwattr $C$DW$138, DW_AT_TI_begin_column(0x09)
	.dwattr $C$DW$138, DW_AT_decl_file("../esp8266.c")
	.dwattr $C$DW$138, DW_AT_decl_line(0xdd)
	.dwattr $C$DW$138, DW_AT_decl_column(0x09)
	.dwattr $C$DW$138, DW_AT_TI_max_frame_size(0x08)
	.dwpsn	file "../esp8266.c",line 222,column 1,is_stmt,address init_esp8266,isa 1

	.dwfde $C$DW$CIE, init_esp8266
;----------------------------------------------------------------------
; 221 | uint8_t init_esp8266()                                                 
;----------------------------------------------------------------------

;*****************************************************************************
;* FUNCTION NAME: init_esp8266                                               *
;*                                                                           *
;*   Regs Modified     : A1,A2,A3,A4,V9,SP,LR,SR,D0,D0_hi,D1,D1_hi,D2,D2_hi, *
;*                           D3,D3_hi,D4,D4_hi,D5,D5_hi,D6,D6_hi,D7,D7_hi,   *
;*                           FPEXC,FPSCR                                     *
;*   Regs Used         : A1,A2,A3,A4,V9,SP,LR,SR,D0,D0_hi,D1,D1_hi,D2,D2_hi, *
;*                           D3,D3_hi,D4,D4_hi,D5,D5_hi,D6,D6_hi,D7,D7_hi,   *
;*                           FPEXC,FPSCR                                     *
;*   Local Frame Size  : 0 Args + 4 Auto + 4 Save = 8 byte                   *
;*****************************************************************************
init_esp8266:
;* --------------------------------------------------------------------------*
	.dwcfi	cfa_offset, 0
        PUSH      {A4, LR}              ; [DPU_3_PIPE] 
	.dwcfi	cfa_offset, 8
	.dwcfi	save_reg_to_mem, 14, -4
	.dwcfi	save_reg_to_mem, 3, -8
$C$DW$139	.dwtag  DW_TAG_variable, DW_AT_name("result")
	.dwattr $C$DW$139, DW_AT_TI_symbol_name("result")
	.dwattr $C$DW$139, DW_AT_type(*$C$DW$T$10)
	.dwattr $C$DW$139, DW_AT_location[DW_OP_breg13 0]
	.dwpsn	file "../esp8266.c",line 223,column 12,is_stmt,isa 1
;----------------------------------------------------------------------
; 223 | int result=1;                                                          
;----------------------------------------------------------------------
        MOVS      A1, #1                ; [DPU_3_PIPE] |223| 
        STR       A1, [SP, #0]          ; [DPU_3_PIPE] |223| 
	.dwpsn	file "../esp8266.c",line 224,column 5,is_stmt,isa 1
;----------------------------------------------------------------------
; 224 | SysCtlPeripheralEnable(SYSCTL_PERIPH_UART5);                           
;----------------------------------------------------------------------
        LDR       A1, $C$CON5           ; [DPU_3_PIPE] |224| 
$C$DW$140	.dwtag  DW_TAG_TI_branch
	.dwattr $C$DW$140, DW_AT_low_pc(0x00)
	.dwattr $C$DW$140, DW_AT_name("SysCtlPeripheralEnable")
	.dwattr $C$DW$140, DW_AT_TI_call
        BL        SysCtlPeripheralEnable ; [DPU_3_PIPE] |224| 
        ; CALL OCCURS {SysCtlPeripheralEnable }  ; [] |224| 
	.dwpsn	file "../esp8266.c",line 225,column 5,is_stmt,isa 1
;----------------------------------------------------------------------
; 225 | SysCtlPeripheralEnable(SYSCTL_PERIPH_GPIOE);                           
;----------------------------------------------------------------------
        LDR       A1, $C$CON6           ; [DPU_3_PIPE] |225| 
$C$DW$141	.dwtag  DW_TAG_TI_branch
	.dwattr $C$DW$141, DW_AT_low_pc(0x00)
	.dwattr $C$DW$141, DW_AT_name("SysCtlPeripheralEnable")
	.dwattr $C$DW$141, DW_AT_TI_call
        BL        SysCtlPeripheralEnable ; [DPU_3_PIPE] |225| 
        ; CALL OCCURS {SysCtlPeripheralEnable }  ; [] |225| 
	.dwpsn	file "../esp8266.c",line 226,column 5,is_stmt,isa 1
;----------------------------------------------------------------------
; 226 | GPIOPinConfigure(GPIO_PE4_U5RX);                                       
;----------------------------------------------------------------------
        LDR       A1, $C$CON7           ; [DPU_3_PIPE] |226| 
$C$DW$142	.dwtag  DW_TAG_TI_branch
	.dwattr $C$DW$142, DW_AT_low_pc(0x00)
	.dwattr $C$DW$142, DW_AT_name("GPIOPinConfigure")
	.dwattr $C$DW$142, DW_AT_TI_call
        BL        GPIOPinConfigure      ; [DPU_3_PIPE] |226| 
        ; CALL OCCURS {GPIOPinConfigure }  ; [] |226| 
	.dwpsn	file "../esp8266.c",line 227,column 5,is_stmt,isa 1
;----------------------------------------------------------------------
; 227 | GPIOPinConfigure(GPIO_PE5_U5TX);                                       
;----------------------------------------------------------------------
        LDR       A1, $C$CON8           ; [DPU_3_PIPE] |227| 
$C$DW$143	.dwtag  DW_TAG_TI_branch
	.dwattr $C$DW$143, DW_AT_low_pc(0x00)
	.dwattr $C$DW$143, DW_AT_name("GPIOPinConfigure")
	.dwattr $C$DW$143, DW_AT_TI_call
        BL        GPIOPinConfigure      ; [DPU_3_PIPE] |227| 
        ; CALL OCCURS {GPIOPinConfigure }  ; [] |227| 
	.dwpsn	file "../esp8266.c",line 228,column 5,is_stmt,isa 1
;----------------------------------------------------------------------
; 228 | GPIOPinTypeUART(GPIO_PORTE_BASE, GPIO_PIN_4 | GPIO_PIN_5);             
;----------------------------------------------------------------------
        LDR       A1, $C$CON9           ; [DPU_3_PIPE] |228| 
        MOVS      A2, #48               ; [DPU_3_PIPE] |228| 
$C$DW$144	.dwtag  DW_TAG_TI_branch
	.dwattr $C$DW$144, DW_AT_low_pc(0x00)
	.dwattr $C$DW$144, DW_AT_name("GPIOPinTypeUART")
	.dwattr $C$DW$144, DW_AT_TI_call
        BL        GPIOPinTypeUART       ; [DPU_3_PIPE] |228| 
        ; CALL OCCURS {GPIOPinTypeUART }  ; [] |228| 
	.dwpsn	file "../esp8266.c",line 229,column 5,is_stmt,isa 1
;----------------------------------------------------------------------
; 229 | UARTConfigSetExpClk(UART5_BASE, SysCtlClockGet(), 9600,                
; 230 |                         (UART_CONFIG_WLEN_8 | UART_CONFIG_STOP_ONE |   
; 231 |                          UART_CONFIG_PAR_NONE));                       
; 233 | // IntEnable(INT_UART5);                                               
; 234 | //    UARTIntEnable(UART5_BASE, UART_INT_OE | UART_INT_BE | UART_INT_PE
;     |  |                                                                     
; 235 |        //           UART_INT_FE | UART_INT_RT /*|   UART_INT_TX*/ | UAR
;     | T_INT_RX);                                                             
;----------------------------------------------------------------------
$C$DW$145	.dwtag  DW_TAG_TI_branch
	.dwattr $C$DW$145, DW_AT_low_pc(0x00)
	.dwattr $C$DW$145, DW_AT_name("SysCtlClockGet")
	.dwattr $C$DW$145, DW_AT_TI_call
        BL        SysCtlClockGet        ; [DPU_3_PIPE] |229| 
        ; CALL OCCURS {SysCtlClockGet }  ; [] |229| 
        MOV       A2, A1                ; [DPU_3_PIPE] |229| 
        LDR       A1, $C$CON10          ; [DPU_3_PIPE] |229| 
        MOV       A3, #9600             ; [DPU_3_PIPE] |229| 
        MOVS      A4, #96               ; [DPU_3_PIPE] |229| 
$C$DW$146	.dwtag  DW_TAG_TI_branch
	.dwattr $C$DW$146, DW_AT_low_pc(0x00)
	.dwattr $C$DW$146, DW_AT_name("UARTConfigSetExpClk")
	.dwattr $C$DW$146, DW_AT_TI_call
        BL        UARTConfigSetExpClk   ; [DPU_3_PIPE] |229| 
        ; CALL OCCURS {UARTConfigSetExpClk }  ; [] |229| 
	.dwpsn	file "../esp8266.c",line 237,column 5,is_stmt,isa 1
;----------------------------------------------------------------------
; 237 | uart_send(CLIENT_MODE_CMD);                                            
;----------------------------------------------------------------------
        ADR       A1, $C$SL18           ; [DPU_3_PIPE] |237| 
$C$DW$147	.dwtag  DW_TAG_TI_branch
	.dwattr $C$DW$147, DW_AT_low_pc(0x00)
	.dwattr $C$DW$147, DW_AT_name("uart_send")
	.dwattr $C$DW$147, DW_AT_TI_call
        BL        uart_send             ; [DPU_3_PIPE] |237| 
        ; CALL OCCURS {uart_send }       ; [] |237| 
	.dwpsn	file "../esp8266.c",line 238,column 2,is_stmt,isa 1
;----------------------------------------------------------------------
; 238 | SysCtlDelay(SysCtlClockGet()/3);                                       
; 239 | //uart_send(CONNECT_TO_AP);                                            
;----------------------------------------------------------------------
$C$DW$148	.dwtag  DW_TAG_TI_branch
	.dwattr $C$DW$148, DW_AT_low_pc(0x00)
	.dwattr $C$DW$148, DW_AT_name("SysCtlClockGet")
	.dwattr $C$DW$148, DW_AT_TI_call
        BL        SysCtlClockGet        ; [DPU_3_PIPE] |238| 
        ; CALL OCCURS {SysCtlClockGet }  ; [] |238| 
        MOVS      A2, #3                ; [DPU_3_PIPE] |238| 
        UDIV      A1, A1, A2            ; [DPU_3_PIPE] |238| 
$C$DW$149	.dwtag  DW_TAG_TI_branch
	.dwattr $C$DW$149, DW_AT_low_pc(0x00)
	.dwattr $C$DW$149, DW_AT_name("SysCtlDelay")
	.dwattr $C$DW$149, DW_AT_TI_call
        BL        SysCtlDelay           ; [DPU_3_PIPE] |238| 
        ; CALL OCCURS {SysCtlDelay }     ; [] |238| 
	.dwpsn	file "../esp8266.c",line 240,column 2,is_stmt,isa 1
;----------------------------------------------------------------------
; 240 | esp8266_send(CONNECT_TO_AP, CONNECT_TO_AP_CONFIRMATION);               
; 241 | //SysCtlDelay(SysCtlClockGet()/3);                                     
;----------------------------------------------------------------------
        ADR       A1, $C$SL19           ; [DPU_3_PIPE] |240| 
        ADR       A2, $C$SL20           ; [DPU_3_PIPE] |240| 
$C$DW$150	.dwtag  DW_TAG_TI_branch
	.dwattr $C$DW$150, DW_AT_low_pc(0x00)
	.dwattr $C$DW$150, DW_AT_name("esp8266_send")
	.dwattr $C$DW$150, DW_AT_TI_call
        BL        esp8266_send          ; [DPU_3_PIPE] |240| 
        ; CALL OCCURS {esp8266_send }    ; [] |240| 
;* --------------------------------------------------------------------------*
	.dwpsn	file "../esp8266.c",line 242,column 2,is_stmt,isa 1
;----------------------------------------------------------------------
; 242 | return result;                                                         
;----------------------------------------------------------------------
        LDRB      A1, [SP, #0]          ; [DPU_3_PIPE] |242| 
	.dwpsn	file "../esp8266.c",line 243,column 1,is_stmt,isa 1
$C$DW$151	.dwtag  DW_TAG_TI_branch
	.dwattr $C$DW$151, DW_AT_low_pc(0x00)
	.dwattr $C$DW$151, DW_AT_TI_return
        POP       {A4, PC}              ; [DPU_3_PIPE] 
	.dwcfi	cfa_offset, 0
        ; BRANCH OCCURS                  ; [] 
	.dwattr $C$DW$138, DW_AT_TI_end_file("../esp8266.c")
	.dwattr $C$DW$138, DW_AT_TI_end_line(0xf3)
	.dwattr $C$DW$138, DW_AT_TI_end_column(0x01)
	.dwendentry
	.dwendtag $C$DW$138

;******************************************************************************
;* CONSTANT TABLE                                                             *
;******************************************************************************
	.sect	".text:uart_send"
	.align	4
||$C$CON1||:	.bits	1073811456,32
;******************************************************************************
;* CONSTANT TABLE                                                             *
;******************************************************************************
	.sect	".text:esp8266_send"
	.align	4
||$C$CON2||:	.bits	dummy$1,32
	.align	4
||$C$CON3||:	.bits	1073811456,32
	.align	4
||$C$CON4||:	.bits	10000000,32
;******************************************************************************
;* STRINGS                                                                    *
;******************************************************************************
	.sect	".text:esp8266_reset"
	.align	4
||$C$SL1||:	.string	"AT+RST",0
	.align	4
||$C$SL2||:	.string	"AT+CWJAP=",34,"dlink",34,",",34,"aspire1000",34,0
;******************************************************************************
;* STRINGS                                                                    *
;******************************************************************************
	.sect	".text:send_esp8266"
	.align	4
||$C$SL3||:	.string	"GET /update?key=VW5223XR8EZEL6A3&field1=",0
	.align	4
||$C$SL4||:	.string	"&field2=",0
	.align	4
||$C$SL5||:	.string	"&field3=",0
	.align	4
||$C$SL6||:	.string	"&field4=",0
	.align	4
||$C$SL7||:	.string	"&field5=",0
	.align	4
||$C$SL8||:	.string	"&field6=",0
	.align	4
||$C$SL9||:	.string	"&field7=",0
	.align	4
||$C$SL10||:	.string	"Cmnd size exceedes allowed length (%d)",10,0
	.align	4
||$C$SL11||:	.string	"AT+CIPSEND=",0
	.align	4
||$C$SL12||:	.string	"AT+CIPSTART=",34,"TCP",34,",",34,"184.106.153.149",34,",80",0
	.align	4
||$C$SL13||:	.string	">",0
	.align	4
||$C$SL14||:	.string	"Failed to send: %s",10,0
	.align	4
||$C$SL15||:	.string	"IPD",0
	.align	4
||$C$SL16||:	.string	"Failed to send cmnd",10,0
	.align	4
||$C$SL17||:	.string	"%s",0
;******************************************************************************
;* STRINGS                                                                    *
;******************************************************************************
	.sect	".text:init_esp8266"
	.align	4
||$C$SL18||:	.string	"AT+CWMODE=1",0
	.align	4
||$C$SL19||:	.string	"AT+CWJAP=",34,"dlink",34,",",34,"aspire1000",34,0
	.align	4
||$C$SL20||:	.string	"OK",0
;******************************************************************************
;* CONSTANT TABLE                                                             *
;******************************************************************************
	.sect	".text:init_esp8266"
	.align	4
||$C$CON5||:	.bits	-268429307,32
	.align	4
||$C$CON6||:	.bits	-268433404,32
	.align	4
||$C$CON7||:	.bits	266241,32
	.align	4
||$C$CON8||:	.bits	267265,32
	.align	4
||$C$CON9||:	.bits	1073889280,32
	.align	4
||$C$CON10||:	.bits	1073811456,32
;*****************************************************************************
;* UNDEFINED EXTERNAL REFERENCES                                             *
;*****************************************************************************
	.global	strlen
	.global	strcpy
	.global	strcat
	.global	strncat
	.global	strstr
	.global	GPIOPinConfigure
	.global	GPIOPinTypeUART
	.global	SysCtlPeripheralEnable
	.global	SysCtlDelay
	.global	SysCtlClockGet
	.global	UARTConfigSetExpClk
	.global	UARTCharsAvail
	.global	UARTCharGetNonBlocking
	.global	UARTCharGet
	.global	UARTCharPut
	.global	uitoa
	.global	LOGprintf
	.global	memset

;******************************************************************************
;* BUILD ATTRIBUTES                                                           *
;******************************************************************************
	.battr "aeabi", Tag_File, 1, Tag_ABI_PCS_wchar_t(2)
	.battr "aeabi", Tag_File, 1, Tag_ABI_FP_rounding(0)
	.battr "aeabi", Tag_File, 1, Tag_ABI_FP_denormal(0)
	.battr "aeabi", Tag_File, 1, Tag_ABI_FP_exceptions(0)
	.battr "aeabi", Tag_File, 1, Tag_ABI_FP_number_model(1)
	.battr "aeabi", Tag_File, 1, Tag_ABI_enum_size(0)
	.battr "aeabi", Tag_File, 1, Tag_ABI_optimization_goals(5)
	.battr "aeabi", Tag_File, 1, Tag_ABI_FP_optimization_goals(0)
	.battr "TI", Tag_File, 1, Tag_Bitfield_layout(2)
	.battr "TI", Tag_File, 1, Tag_FP_interface(1)

;******************************************************************************
;* TYPE INFORMATION                                                           *
;******************************************************************************
$C$DW$T$2	.dwtag  DW_TAG_unspecified_type
	.dwattr $C$DW$T$2, DW_AT_name("void")
$C$DW$T$3	.dwtag  DW_TAG_pointer_type
	.dwattr $C$DW$T$3, DW_AT_type(*$C$DW$T$2)
	.dwattr $C$DW$T$3, DW_AT_address_class(0x20)
$C$DW$T$4	.dwtag  DW_TAG_base_type
	.dwattr $C$DW$T$4, DW_AT_encoding(DW_ATE_boolean)
	.dwattr $C$DW$T$4, DW_AT_name("bool")
	.dwattr $C$DW$T$4, DW_AT_byte_size(0x01)
$C$DW$T$5	.dwtag  DW_TAG_base_type
	.dwattr $C$DW$T$5, DW_AT_encoding(DW_ATE_signed_char)
	.dwattr $C$DW$T$5, DW_AT_name("signed char")
	.dwattr $C$DW$T$5, DW_AT_byte_size(0x01)
$C$DW$T$44	.dwtag  DW_TAG_typedef, DW_AT_name("int8_t")
	.dwattr $C$DW$T$44, DW_AT_type(*$C$DW$T$5)
	.dwattr $C$DW$T$44, DW_AT_language(DW_LANG_C)
	.dwattr $C$DW$T$44, DW_AT_decl_file("C:/ti/ccsv6/tools/compiler/ti-cgt-arm_5.2.5/include/stdint.h")
	.dwattr $C$DW$T$44, DW_AT_decl_line(0x2a)
	.dwattr $C$DW$T$44, DW_AT_decl_column(0x1d)
$C$DW$T$45	.dwtag  DW_TAG_typedef, DW_AT_name("int_least8_t")
	.dwattr $C$DW$T$45, DW_AT_type(*$C$DW$T$44)
	.dwattr $C$DW$T$45, DW_AT_language(DW_LANG_C)
	.dwattr $C$DW$T$45, DW_AT_decl_file("C:/ti/ccsv6/tools/compiler/ti-cgt-arm_5.2.5/include/stdint.h")
	.dwattr $C$DW$T$45, DW_AT_decl_line(0x37)
	.dwattr $C$DW$T$45, DW_AT_decl_column(0x17)
$C$DW$T$6	.dwtag  DW_TAG_base_type
	.dwattr $C$DW$T$6, DW_AT_encoding(DW_ATE_unsigned_char)
	.dwattr $C$DW$T$6, DW_AT_name("unsigned char")
	.dwattr $C$DW$T$6, DW_AT_byte_size(0x01)
$C$DW$T$25	.dwtag  DW_TAG_typedef, DW_AT_name("uint8_t")
	.dwattr $C$DW$T$25, DW_AT_type(*$C$DW$T$6)
	.dwattr $C$DW$T$25, DW_AT_language(DW_LANG_C)
	.dwattr $C$DW$T$25, DW_AT_decl_file("C:/ti/ccsv6/tools/compiler/ti-cgt-arm_5.2.5/include/stdint.h")
	.dwattr $C$DW$T$25, DW_AT_decl_line(0x2b)
	.dwattr $C$DW$T$25, DW_AT_decl_column(0x1c)
$C$DW$T$50	.dwtag  DW_TAG_typedef, DW_AT_name("uint_least8_t")
	.dwattr $C$DW$T$50, DW_AT_type(*$C$DW$T$25)
	.dwattr $C$DW$T$50, DW_AT_language(DW_LANG_C)
	.dwattr $C$DW$T$50, DW_AT_decl_file("C:/ti/ccsv6/tools/compiler/ti-cgt-arm_5.2.5/include/stdint.h")
	.dwattr $C$DW$T$50, DW_AT_decl_line(0x38)
	.dwattr $C$DW$T$50, DW_AT_decl_column(0x16)
$C$DW$T$7	.dwtag  DW_TAG_base_type
	.dwattr $C$DW$T$7, DW_AT_encoding(DW_ATE_signed_char)
	.dwattr $C$DW$T$7, DW_AT_name("wchar_t")
	.dwattr $C$DW$T$7, DW_AT_byte_size(0x02)
$C$DW$T$8	.dwtag  DW_TAG_base_type
	.dwattr $C$DW$T$8, DW_AT_encoding(DW_ATE_signed)
	.dwattr $C$DW$T$8, DW_AT_name("short")
	.dwattr $C$DW$T$8, DW_AT_byte_size(0x02)
$C$DW$T$51	.dwtag  DW_TAG_typedef, DW_AT_name("int16_t")
	.dwattr $C$DW$T$51, DW_AT_type(*$C$DW$T$8)
	.dwattr $C$DW$T$51, DW_AT_language(DW_LANG_C)
	.dwattr $C$DW$T$51, DW_AT_decl_file("C:/ti/ccsv6/tools/compiler/ti-cgt-arm_5.2.5/include/stdint.h")
	.dwattr $C$DW$T$51, DW_AT_decl_line(0x2c)
	.dwattr $C$DW$T$51, DW_AT_decl_column(0x1d)
$C$DW$T$52	.dwtag  DW_TAG_typedef, DW_AT_name("int_least16_t")
	.dwattr $C$DW$T$52, DW_AT_type(*$C$DW$T$51)
	.dwattr $C$DW$T$52, DW_AT_language(DW_LANG_C)
	.dwattr $C$DW$T$52, DW_AT_decl_file("C:/ti/ccsv6/tools/compiler/ti-cgt-arm_5.2.5/include/stdint.h")
	.dwattr $C$DW$T$52, DW_AT_decl_line(0x3a)
	.dwattr $C$DW$T$52, DW_AT_decl_column(0x17)
$C$DW$T$9	.dwtag  DW_TAG_base_type
	.dwattr $C$DW$T$9, DW_AT_encoding(DW_ATE_unsigned)
	.dwattr $C$DW$T$9, DW_AT_name("unsigned short")
	.dwattr $C$DW$T$9, DW_AT_byte_size(0x02)
$C$DW$T$53	.dwtag  DW_TAG_typedef, DW_AT_name("_Wchart")
	.dwattr $C$DW$T$53, DW_AT_type(*$C$DW$T$9)
	.dwattr $C$DW$T$53, DW_AT_language(DW_LANG_C)
	.dwattr $C$DW$T$53, DW_AT_decl_file("C:/ti/ccsv6/tools/compiler/ti-cgt-arm_5.2.5/include/yvals.h")
	.dwattr $C$DW$T$53, DW_AT_decl_line(0x1e5)
	.dwattr $C$DW$T$53, DW_AT_decl_column(0x21)
$C$DW$T$54	.dwtag  DW_TAG_typedef, DW_AT_name("_Wintt")
	.dwattr $C$DW$T$54, DW_AT_type(*$C$DW$T$9)
	.dwattr $C$DW$T$54, DW_AT_language(DW_LANG_C)
	.dwattr $C$DW$T$54, DW_AT_decl_file("C:/ti/ccsv6/tools/compiler/ti-cgt-arm_5.2.5/include/yvals.h")
	.dwattr $C$DW$T$54, DW_AT_decl_line(0x1e6)
	.dwattr $C$DW$T$54, DW_AT_decl_column(0x21)
$C$DW$T$55	.dwtag  DW_TAG_typedef, DW_AT_name("uint16_t")
	.dwattr $C$DW$T$55, DW_AT_type(*$C$DW$T$9)
	.dwattr $C$DW$T$55, DW_AT_language(DW_LANG_C)
	.dwattr $C$DW$T$55, DW_AT_decl_file("C:/ti/ccsv6/tools/compiler/ti-cgt-arm_5.2.5/include/stdint.h")
	.dwattr $C$DW$T$55, DW_AT_decl_line(0x2d)
	.dwattr $C$DW$T$55, DW_AT_decl_column(0x1c)
$C$DW$T$56	.dwtag  DW_TAG_typedef, DW_AT_name("uint_least16_t")
	.dwattr $C$DW$T$56, DW_AT_type(*$C$DW$T$55)
	.dwattr $C$DW$T$56, DW_AT_language(DW_LANG_C)
	.dwattr $C$DW$T$56, DW_AT_decl_file("C:/ti/ccsv6/tools/compiler/ti-cgt-arm_5.2.5/include/stdint.h")
	.dwattr $C$DW$T$56, DW_AT_decl_line(0x3b)
	.dwattr $C$DW$T$56, DW_AT_decl_column(0x16)
$C$DW$T$10	.dwtag  DW_TAG_base_type
	.dwattr $C$DW$T$10, DW_AT_encoding(DW_ATE_signed)
	.dwattr $C$DW$T$10, DW_AT_name("int")
	.dwattr $C$DW$T$10, DW_AT_byte_size(0x04)
$C$DW$T$57	.dwtag  DW_TAG_typedef, DW_AT_name("_Ptrdifft")
	.dwattr $C$DW$T$57, DW_AT_type(*$C$DW$T$10)
	.dwattr $C$DW$T$57, DW_AT_language(DW_LANG_C)
	.dwattr $C$DW$T$57, DW_AT_decl_file("C:/ti/ccsv6/tools/compiler/ti-cgt-arm_5.2.5/include/yvals.h")
	.dwattr $C$DW$T$57, DW_AT_decl_line(0xa9)
	.dwattr $C$DW$T$57, DW_AT_decl_column(0x1e)
$C$DW$T$58	.dwtag  DW_TAG_typedef, DW_AT_name("int32_t")
	.dwattr $C$DW$T$58, DW_AT_type(*$C$DW$T$10)
	.dwattr $C$DW$T$58, DW_AT_language(DW_LANG_C)
	.dwattr $C$DW$T$58, DW_AT_decl_file("C:/ti/ccsv6/tools/compiler/ti-cgt-arm_5.2.5/include/stdint.h")
	.dwattr $C$DW$T$58, DW_AT_decl_line(0x2e)
	.dwattr $C$DW$T$58, DW_AT_decl_column(0x1d)
$C$DW$T$61	.dwtag  DW_TAG_typedef, DW_AT_name("int_fast16_t")
	.dwattr $C$DW$T$61, DW_AT_type(*$C$DW$T$58)
	.dwattr $C$DW$T$61, DW_AT_language(DW_LANG_C)
	.dwattr $C$DW$T$61, DW_AT_decl_file("C:/ti/ccsv6/tools/compiler/ti-cgt-arm_5.2.5/include/stdint.h")
	.dwattr $C$DW$T$61, DW_AT_decl_line(0x47)
	.dwattr $C$DW$T$61, DW_AT_decl_column(0x17)
$C$DW$T$62	.dwtag  DW_TAG_typedef, DW_AT_name("int_fast32_t")
	.dwattr $C$DW$T$62, DW_AT_type(*$C$DW$T$58)
	.dwattr $C$DW$T$62, DW_AT_language(DW_LANG_C)
	.dwattr $C$DW$T$62, DW_AT_decl_file("C:/ti/ccsv6/tools/compiler/ti-cgt-arm_5.2.5/include/stdint.h")
	.dwattr $C$DW$T$62, DW_AT_decl_line(0x4a)
	.dwattr $C$DW$T$62, DW_AT_decl_column(0x17)
$C$DW$T$63	.dwtag  DW_TAG_typedef, DW_AT_name("int_fast8_t")
	.dwattr $C$DW$T$63, DW_AT_type(*$C$DW$T$58)
	.dwattr $C$DW$T$63, DW_AT_language(DW_LANG_C)
	.dwattr $C$DW$T$63, DW_AT_decl_file("C:/ti/ccsv6/tools/compiler/ti-cgt-arm_5.2.5/include/stdint.h")
	.dwattr $C$DW$T$63, DW_AT_decl_line(0x45)
	.dwattr $C$DW$T$63, DW_AT_decl_column(0x17)
$C$DW$T$64	.dwtag  DW_TAG_typedef, DW_AT_name("int_least32_t")
	.dwattr $C$DW$T$64, DW_AT_type(*$C$DW$T$58)
	.dwattr $C$DW$T$64, DW_AT_language(DW_LANG_C)
	.dwattr $C$DW$T$64, DW_AT_decl_file("C:/ti/ccsv6/tools/compiler/ti-cgt-arm_5.2.5/include/stdint.h")
	.dwattr $C$DW$T$64, DW_AT_decl_line(0x3c)
	.dwattr $C$DW$T$64, DW_AT_decl_column(0x17)
$C$DW$T$65	.dwtag  DW_TAG_typedef, DW_AT_name("intptr_t")
	.dwattr $C$DW$T$65, DW_AT_type(*$C$DW$T$10)
	.dwattr $C$DW$T$65, DW_AT_language(DW_LANG_C)
	.dwattr $C$DW$T$65, DW_AT_decl_file("C:/ti/ccsv6/tools/compiler/ti-cgt-arm_5.2.5/include/stdint.h")
	.dwattr $C$DW$T$65, DW_AT_decl_line(0x52)
	.dwattr $C$DW$T$65, DW_AT_decl_column(0x1a)
$C$DW$T$11	.dwtag  DW_TAG_base_type
	.dwattr $C$DW$T$11, DW_AT_encoding(DW_ATE_unsigned)
	.dwattr $C$DW$T$11, DW_AT_name("unsigned int")
	.dwattr $C$DW$T$11, DW_AT_byte_size(0x04)
$C$DW$T$66	.dwtag  DW_TAG_typedef, DW_AT_name("_Sizet")
	.dwattr $C$DW$T$66, DW_AT_type(*$C$DW$T$11)
	.dwattr $C$DW$T$66, DW_AT_language(DW_LANG_C)
	.dwattr $C$DW$T$66, DW_AT_decl_file("C:/ti/ccsv6/tools/compiler/ti-cgt-arm_5.2.5/include/yvals.h")
	.dwattr $C$DW$T$66, DW_AT_decl_line(0xab)
	.dwattr $C$DW$T$66, DW_AT_decl_column(0x1a)
$C$DW$T$68	.dwtag  DW_TAG_typedef, DW_AT_name("size_t")
	.dwattr $C$DW$T$68, DW_AT_type(*$C$DW$T$11)
	.dwattr $C$DW$T$68, DW_AT_language(DW_LANG_C)
	.dwattr $C$DW$T$68, DW_AT_decl_file("C:/ti/ccsv6/tools/compiler/ti-cgt-arm_5.2.5/include/string.h")
	.dwattr $C$DW$T$68, DW_AT_decl_line(0x3d)
	.dwattr $C$DW$T$68, DW_AT_decl_column(0x19)
$C$DW$T$22	.dwtag  DW_TAG_typedef, DW_AT_name("uint32_t")
	.dwattr $C$DW$T$22, DW_AT_type(*$C$DW$T$11)
	.dwattr $C$DW$T$22, DW_AT_language(DW_LANG_C)
	.dwattr $C$DW$T$22, DW_AT_decl_file("C:/ti/ccsv6/tools/compiler/ti-cgt-arm_5.2.5/include/stdint.h")
	.dwattr $C$DW$T$22, DW_AT_decl_line(0x2f)
	.dwattr $C$DW$T$22, DW_AT_decl_column(0x1c)
$C$DW$T$73	.dwtag  DW_TAG_typedef, DW_AT_name("uint_fast16_t")
	.dwattr $C$DW$T$73, DW_AT_type(*$C$DW$T$22)
	.dwattr $C$DW$T$73, DW_AT_language(DW_LANG_C)
	.dwattr $C$DW$T$73, DW_AT_decl_file("C:/ti/ccsv6/tools/compiler/ti-cgt-arm_5.2.5/include/stdint.h")
	.dwattr $C$DW$T$73, DW_AT_decl_line(0x48)
	.dwattr $C$DW$T$73, DW_AT_decl_column(0x16)
$C$DW$T$74	.dwtag  DW_TAG_typedef, DW_AT_name("uint_fast32_t")
	.dwattr $C$DW$T$74, DW_AT_type(*$C$DW$T$22)
	.dwattr $C$DW$T$74, DW_AT_language(DW_LANG_C)
	.dwattr $C$DW$T$74, DW_AT_decl_file("C:/ti/ccsv6/tools/compiler/ti-cgt-arm_5.2.5/include/stdint.h")
	.dwattr $C$DW$T$74, DW_AT_decl_line(0x4b)
	.dwattr $C$DW$T$74, DW_AT_decl_column(0x16)
$C$DW$T$75	.dwtag  DW_TAG_typedef, DW_AT_name("uint_fast8_t")
	.dwattr $C$DW$T$75, DW_AT_type(*$C$DW$T$22)
	.dwattr $C$DW$T$75, DW_AT_language(DW_LANG_C)
	.dwattr $C$DW$T$75, DW_AT_decl_file("C:/ti/ccsv6/tools/compiler/ti-cgt-arm_5.2.5/include/stdint.h")
	.dwattr $C$DW$T$75, DW_AT_decl_line(0x46)
	.dwattr $C$DW$T$75, DW_AT_decl_column(0x16)
$C$DW$T$76	.dwtag  DW_TAG_typedef, DW_AT_name("uint_least32_t")
	.dwattr $C$DW$T$76, DW_AT_type(*$C$DW$T$22)
	.dwattr $C$DW$T$76, DW_AT_language(DW_LANG_C)
	.dwattr $C$DW$T$76, DW_AT_decl_file("C:/ti/ccsv6/tools/compiler/ti-cgt-arm_5.2.5/include/stdint.h")
	.dwattr $C$DW$T$76, DW_AT_decl_line(0x3d)
	.dwattr $C$DW$T$76, DW_AT_decl_column(0x16)
$C$DW$T$77	.dwtag  DW_TAG_typedef, DW_AT_name("uintptr_t")
	.dwattr $C$DW$T$77, DW_AT_type(*$C$DW$T$11)
	.dwattr $C$DW$T$77, DW_AT_language(DW_LANG_C)
	.dwattr $C$DW$T$77, DW_AT_decl_file("C:/ti/ccsv6/tools/compiler/ti-cgt-arm_5.2.5/include/stdint.h")
	.dwattr $C$DW$T$77, DW_AT_decl_line(0x53)
	.dwattr $C$DW$T$77, DW_AT_decl_column(0x1a)
$C$DW$T$12	.dwtag  DW_TAG_base_type
	.dwattr $C$DW$T$12, DW_AT_encoding(DW_ATE_signed)
	.dwattr $C$DW$T$12, DW_AT_name("long")
	.dwattr $C$DW$T$12, DW_AT_byte_size(0x04)
$C$DW$T$78	.dwtag  DW_TAG_typedef, DW_AT_name("_Int32t")
	.dwattr $C$DW$T$78, DW_AT_type(*$C$DW$T$12)
	.dwattr $C$DW$T$78, DW_AT_language(DW_LANG_C)
	.dwattr $C$DW$T$78, DW_AT_decl_file("C:/ti/ccsv6/tools/compiler/ti-cgt-arm_5.2.5/include/yvals.h")
	.dwattr $C$DW$T$78, DW_AT_decl_line(0xa6)
	.dwattr $C$DW$T$78, DW_AT_decl_column(0x0e)
$C$DW$T$13	.dwtag  DW_TAG_base_type
	.dwattr $C$DW$T$13, DW_AT_encoding(DW_ATE_unsigned)
	.dwattr $C$DW$T$13, DW_AT_name("unsigned long")
	.dwattr $C$DW$T$13, DW_AT_byte_size(0x04)
$C$DW$T$79	.dwtag  DW_TAG_typedef, DW_AT_name("_Uint32t")
	.dwattr $C$DW$T$79, DW_AT_type(*$C$DW$T$13)
	.dwattr $C$DW$T$79, DW_AT_language(DW_LANG_C)
	.dwattr $C$DW$T$79, DW_AT_decl_file("C:/ti/ccsv6/tools/compiler/ti-cgt-arm_5.2.5/include/yvals.h")
	.dwattr $C$DW$T$79, DW_AT_decl_line(0xa7)
	.dwattr $C$DW$T$79, DW_AT_decl_column(0x17)
$C$DW$T$14	.dwtag  DW_TAG_base_type
	.dwattr $C$DW$T$14, DW_AT_encoding(DW_ATE_signed)
	.dwattr $C$DW$T$14, DW_AT_name("long long")
	.dwattr $C$DW$T$14, DW_AT_byte_size(0x08)
$C$DW$T$80	.dwtag  DW_TAG_typedef, DW_AT_name("_Longlong")
	.dwattr $C$DW$T$80, DW_AT_type(*$C$DW$T$14)
	.dwattr $C$DW$T$80, DW_AT_language(DW_LANG_C)
	.dwattr $C$DW$T$80, DW_AT_decl_file("C:/ti/ccsv6/tools/compiler/ti-cgt-arm_5.2.5/include/yvals.h")
	.dwattr $C$DW$T$80, DW_AT_decl_line(0x1b5)
	.dwattr $C$DW$T$80, DW_AT_decl_column(0x13)
$C$DW$T$81	.dwtag  DW_TAG_typedef, DW_AT_name("int64_t")
	.dwattr $C$DW$T$81, DW_AT_type(*$C$DW$T$14)
	.dwattr $C$DW$T$81, DW_AT_language(DW_LANG_C)
	.dwattr $C$DW$T$81, DW_AT_decl_file("C:/ti/ccsv6/tools/compiler/ti-cgt-arm_5.2.5/include/stdint.h")
	.dwattr $C$DW$T$81, DW_AT_decl_line(0x32)
	.dwattr $C$DW$T$81, DW_AT_decl_column(0x21)
$C$DW$T$82	.dwtag  DW_TAG_typedef, DW_AT_name("int_fast64_t")
	.dwattr $C$DW$T$82, DW_AT_type(*$C$DW$T$81)
	.dwattr $C$DW$T$82, DW_AT_language(DW_LANG_C)
	.dwattr $C$DW$T$82, DW_AT_decl_file("C:/ti/ccsv6/tools/compiler/ti-cgt-arm_5.2.5/include/stdint.h")
	.dwattr $C$DW$T$82, DW_AT_decl_line(0x4e)
	.dwattr $C$DW$T$82, DW_AT_decl_column(0x17)
$C$DW$T$83	.dwtag  DW_TAG_typedef, DW_AT_name("int_least64_t")
	.dwattr $C$DW$T$83, DW_AT_type(*$C$DW$T$81)
	.dwattr $C$DW$T$83, DW_AT_language(DW_LANG_C)
	.dwattr $C$DW$T$83, DW_AT_decl_file("C:/ti/ccsv6/tools/compiler/ti-cgt-arm_5.2.5/include/stdint.h")
	.dwattr $C$DW$T$83, DW_AT_decl_line(0x40)
	.dwattr $C$DW$T$83, DW_AT_decl_column(0x17)
$C$DW$T$84	.dwtag  DW_TAG_typedef, DW_AT_name("intmax_t")
	.dwattr $C$DW$T$84, DW_AT_type(*$C$DW$T$14)
	.dwattr $C$DW$T$84, DW_AT_language(DW_LANG_C)
	.dwattr $C$DW$T$84, DW_AT_decl_file("C:/ti/ccsv6/tools/compiler/ti-cgt-arm_5.2.5/include/stdint.h")
	.dwattr $C$DW$T$84, DW_AT_decl_line(0x56)
	.dwattr $C$DW$T$84, DW_AT_decl_column(0x20)
$C$DW$T$15	.dwtag  DW_TAG_base_type
	.dwattr $C$DW$T$15, DW_AT_encoding(DW_ATE_unsigned)
	.dwattr $C$DW$T$15, DW_AT_name("unsigned long long")
	.dwattr $C$DW$T$15, DW_AT_byte_size(0x08)
$C$DW$T$85	.dwtag  DW_TAG_typedef, DW_AT_name("_ULonglong")
	.dwattr $C$DW$T$85, DW_AT_type(*$C$DW$T$15)
	.dwattr $C$DW$T$85, DW_AT_language(DW_LANG_C)
	.dwattr $C$DW$T$85, DW_AT_decl_file("C:/ti/ccsv6/tools/compiler/ti-cgt-arm_5.2.5/include/yvals.h")
	.dwattr $C$DW$T$85, DW_AT_decl_line(0x1b6)
	.dwattr $C$DW$T$85, DW_AT_decl_column(0x14)
$C$DW$T$86	.dwtag  DW_TAG_typedef, DW_AT_name("uint64_t")
	.dwattr $C$DW$T$86, DW_AT_type(*$C$DW$T$15)
	.dwattr $C$DW$T$86, DW_AT_language(DW_LANG_C)
	.dwattr $C$DW$T$86, DW_AT_decl_file("C:/ti/ccsv6/tools/compiler/ti-cgt-arm_5.2.5/include/stdint.h")
	.dwattr $C$DW$T$86, DW_AT_decl_line(0x33)
	.dwattr $C$DW$T$86, DW_AT_decl_column(0x20)
$C$DW$T$87	.dwtag  DW_TAG_typedef, DW_AT_name("uint_fast64_t")
	.dwattr $C$DW$T$87, DW_AT_type(*$C$DW$T$86)
	.dwattr $C$DW$T$87, DW_AT_language(DW_LANG_C)
	.dwattr $C$DW$T$87, DW_AT_decl_file("C:/ti/ccsv6/tools/compiler/ti-cgt-arm_5.2.5/include/stdint.h")
	.dwattr $C$DW$T$87, DW_AT_decl_line(0x4f)
	.dwattr $C$DW$T$87, DW_AT_decl_column(0x16)
$C$DW$T$88	.dwtag  DW_TAG_typedef, DW_AT_name("uint_least64_t")
	.dwattr $C$DW$T$88, DW_AT_type(*$C$DW$T$86)
	.dwattr $C$DW$T$88, DW_AT_language(DW_LANG_C)
	.dwattr $C$DW$T$88, DW_AT_decl_file("C:/ti/ccsv6/tools/compiler/ti-cgt-arm_5.2.5/include/stdint.h")
	.dwattr $C$DW$T$88, DW_AT_decl_line(0x41)
	.dwattr $C$DW$T$88, DW_AT_decl_column(0x16)
$C$DW$T$89	.dwtag  DW_TAG_typedef, DW_AT_name("uintmax_t")
	.dwattr $C$DW$T$89, DW_AT_type(*$C$DW$T$15)
	.dwattr $C$DW$T$89, DW_AT_language(DW_LANG_C)
	.dwattr $C$DW$T$89, DW_AT_decl_file("C:/ti/ccsv6/tools/compiler/ti-cgt-arm_5.2.5/include/stdint.h")
	.dwattr $C$DW$T$89, DW_AT_decl_line(0x57)
	.dwattr $C$DW$T$89, DW_AT_decl_column(0x20)
$C$DW$T$16	.dwtag  DW_TAG_base_type
	.dwattr $C$DW$T$16, DW_AT_encoding(DW_ATE_float)
	.dwattr $C$DW$T$16, DW_AT_name("float")
	.dwattr $C$DW$T$16, DW_AT_byte_size(0x04)
$C$DW$T$17	.dwtag  DW_TAG_base_type
	.dwattr $C$DW$T$17, DW_AT_encoding(DW_ATE_float)
	.dwattr $C$DW$T$17, DW_AT_name("double")
	.dwattr $C$DW$T$17, DW_AT_byte_size(0x08)
$C$DW$T$18	.dwtag  DW_TAG_base_type
	.dwattr $C$DW$T$18, DW_AT_encoding(DW_ATE_float)
	.dwattr $C$DW$T$18, DW_AT_name("long double")
	.dwattr $C$DW$T$18, DW_AT_byte_size(0x08)
$C$DW$T$90	.dwtag  DW_TAG_typedef, DW_AT_name("_Sysch_t")
	.dwattr $C$DW$T$90, DW_AT_type(*$C$DW$T$6)
	.dwattr $C$DW$T$90, DW_AT_language(DW_LANG_C)
	.dwattr $C$DW$T$90, DW_AT_decl_file("C:/ti/ccsv6/tools/compiler/ti-cgt-arm_5.2.5/include/yvals.h")
	.dwattr $C$DW$T$90, DW_AT_decl_line(0x218)
	.dwattr $C$DW$T$90, DW_AT_decl_column(0x0e)
$C$DW$T$33	.dwtag  DW_TAG_pointer_type
	.dwattr $C$DW$T$33, DW_AT_type(*$C$DW$T$6)
	.dwattr $C$DW$T$33, DW_AT_address_class(0x20)
$C$DW$T$97	.dwtag  DW_TAG_typedef, DW_AT_name("__builtin_va_list")
	.dwattr $C$DW$T$97, DW_AT_type(*$C$DW$T$33)
	.dwattr $C$DW$T$97, DW_AT_language(DW_LANG_C)
	.dwattr $C$DW$T$97, DW_AT_decl_file("../esp8266.c")
	.dwattr $C$DW$T$97, DW_AT_decl_line(0xf3)
	.dwattr $C$DW$T$97, DW_AT_decl_column(0x01)
$C$DW$T$36	.dwtag  DW_TAG_const_type
	.dwattr $C$DW$T$36, DW_AT_type(*$C$DW$T$6)
$C$DW$T$37	.dwtag  DW_TAG_pointer_type
	.dwattr $C$DW$T$37, DW_AT_type(*$C$DW$T$36)
	.dwattr $C$DW$T$37, DW_AT_address_class(0x20)

$C$DW$T$98	.dwtag  DW_TAG_array_type
	.dwattr $C$DW$T$98, DW_AT_type(*$C$DW$T$6)
	.dwattr $C$DW$T$98, DW_AT_language(DW_LANG_C)
	.dwattr $C$DW$T$98, DW_AT_byte_size(0x3c)
$C$DW$152	.dwtag  DW_TAG_subrange_type
	.dwattr $C$DW$152, DW_AT_upper_bound(0x3b)
	.dwendtag $C$DW$T$98


$C$DW$T$99	.dwtag  DW_TAG_array_type
	.dwattr $C$DW$T$99, DW_AT_type(*$C$DW$T$6)
	.dwattr $C$DW$T$99, DW_AT_language(DW_LANG_C)
	.dwattr $C$DW$T$99, DW_AT_byte_size(0x6a)
$C$DW$153	.dwtag  DW_TAG_subrange_type
	.dwattr $C$DW$153, DW_AT_upper_bound(0x69)
	.dwendtag $C$DW$T$99


$C$DW$T$100	.dwtag  DW_TAG_array_type
	.dwattr $C$DW$T$100, DW_AT_type(*$C$DW$T$6)
	.dwattr $C$DW$T$100, DW_AT_language(DW_LANG_C)
	.dwattr $C$DW$T$100, DW_AT_byte_size(0x0e)
$C$DW$154	.dwtag  DW_TAG_subrange_type
	.dwattr $C$DW$154, DW_AT_upper_bound(0x0d)
	.dwendtag $C$DW$T$100


$C$DW$T$101	.dwtag  DW_TAG_array_type
	.dwattr $C$DW$T$101, DW_AT_type(*$C$DW$T$6)
	.dwattr $C$DW$T$101, DW_AT_language(DW_LANG_C)
	.dwattr $C$DW$T$101, DW_AT_byte_size(0x03)
$C$DW$155	.dwtag  DW_TAG_subrange_type
	.dwattr $C$DW$155, DW_AT_upper_bound(0x02)
	.dwendtag $C$DW$T$101


$C$DW$T$103	.dwtag  DW_TAG_array_type
	.dwattr $C$DW$T$103, DW_AT_type(*$C$DW$T$6)
	.dwattr $C$DW$T$103, DW_AT_language(DW_LANG_C)
	.dwattr $C$DW$T$103, DW_AT_byte_size(0x02)
$C$DW$156	.dwtag  DW_TAG_subrange_type
	.dwattr $C$DW$156, DW_AT_upper_bound(0x01)
	.dwendtag $C$DW$T$103


$C$DW$T$105	.dwtag  DW_TAG_array_type
	.dwattr $C$DW$T$105, DW_AT_type(*$C$DW$T$6)
	.dwattr $C$DW$T$105, DW_AT_language(DW_LANG_C)
	.dwattr $C$DW$T$105, DW_AT_byte_size(0x06)
$C$DW$157	.dwtag  DW_TAG_subrange_type
	.dwattr $C$DW$157, DW_AT_upper_bound(0x05)
	.dwendtag $C$DW$T$105

$C$DW$T$119	.dwtag  DW_TAG_base_type
	.dwattr $C$DW$T$119, DW_AT_encoding(DW_ATE_unsigned_char)
	.dwattr $C$DW$T$119, DW_AT_name("unsigned char")
	.dwattr $C$DW$T$119, DW_AT_byte_size(0x01)

$C$DW$T$19	.dwtag  DW_TAG_structure_type
	.dwattr $C$DW$T$19, DW_AT_name("__va_list")
	.dwattr $C$DW$T$19, DW_AT_byte_size(0x04)
$C$DW$158	.dwtag  DW_TAG_member
	.dwattr $C$DW$158, DW_AT_type(*$C$DW$T$3)
	.dwattr $C$DW$158, DW_AT_name("__ap")
	.dwattr $C$DW$158, DW_AT_TI_symbol_name("__ap")
	.dwattr $C$DW$158, DW_AT_data_member_location[DW_OP_plus_uconst 0x0]
	.dwattr $C$DW$158, DW_AT_accessibility(DW_ACCESS_public)
	.dwattr $C$DW$158, DW_AT_decl_file("C:/ti/ccsv6/tools/compiler/ti-cgt-arm_5.2.5/include/stdarg.h")
	.dwattr $C$DW$158, DW_AT_decl_line(0x36)
	.dwattr $C$DW$158, DW_AT_decl_column(0x0c)
	.dwendtag $C$DW$T$19

	.dwattr $C$DW$T$19, DW_AT_decl_file("C:/ti/ccsv6/tools/compiler/ti-cgt-arm_5.2.5/include/stdarg.h")
	.dwattr $C$DW$T$19, DW_AT_decl_line(0x35)
	.dwattr $C$DW$T$19, DW_AT_decl_column(0x10)
$C$DW$T$122	.dwtag  DW_TAG_typedef, DW_AT_name("va_list")
	.dwattr $C$DW$T$122, DW_AT_type(*$C$DW$T$19)
	.dwattr $C$DW$T$122, DW_AT_language(DW_LANG_C)
	.dwattr $C$DW$T$122, DW_AT_decl_file("C:/ti/ccsv6/tools/compiler/ti-cgt-arm_5.2.5/include/stdarg.h")
	.dwattr $C$DW$T$122, DW_AT_decl_line(0x37)
	.dwattr $C$DW$T$122, DW_AT_decl_column(0x03)
$C$DW$T$123	.dwtag  DW_TAG_typedef, DW_AT_name("_Va_list")
	.dwattr $C$DW$T$123, DW_AT_type(*$C$DW$T$122)
	.dwattr $C$DW$T$123, DW_AT_language(DW_LANG_C)
	.dwattr $C$DW$T$123, DW_AT_decl_file("C:/ti/ccsv6/tools/compiler/ti-cgt-arm_5.2.5/include/yvals.h")
	.dwattr $C$DW$T$123, DW_AT_decl_line(0x1f6)
	.dwattr $C$DW$T$123, DW_AT_decl_column(0x17)
	.dwattr $C$DW$CU, DW_AT_language(DW_LANG_C)

;***************************************************************
;* DWARF CIE ENTRIES                                           *
;***************************************************************

$C$DW$CIE	.dwcie 14
	.dwcfi	cfa_register, 13
	.dwcfi	cfa_offset, 0
	.dwcfi	undefined, 0
	.dwcfi	undefined, 1
	.dwcfi	undefined, 2
	.dwcfi	undefined, 3
	.dwcfi	same_value, 4
	.dwcfi	same_value, 5
	.dwcfi	same_value, 6
	.dwcfi	same_value, 7
	.dwcfi	same_value, 8
	.dwcfi	same_value, 9
	.dwcfi	same_value, 10
	.dwcfi	same_value, 11
	.dwcfi	undefined, 12
	.dwcfi	undefined, 13
	.dwcfi	undefined, 14
	.dwcfi	undefined, 14
	.dwcfi	undefined, 7
	.dwcfi	undefined, 64
	.dwcfi	undefined, 65
	.dwcfi	undefined, 66
	.dwcfi	undefined, 67
	.dwcfi	undefined, 68
	.dwcfi	undefined, 69
	.dwcfi	undefined, 70
	.dwcfi	undefined, 71
	.dwcfi	undefined, 72
	.dwcfi	undefined, 73
	.dwcfi	undefined, 74
	.dwcfi	undefined, 75
	.dwcfi	undefined, 76
	.dwcfi	undefined, 77
	.dwcfi	undefined, 78
	.dwcfi	undefined, 79
	.dwcfi	same_value, 80
	.dwcfi	same_value, 81
	.dwcfi	same_value, 82
	.dwcfi	same_value, 83
	.dwcfi	same_value, 84
	.dwcfi	same_value, 85
	.dwcfi	same_value, 86
	.dwcfi	same_value, 87
	.dwcfi	same_value, 88
	.dwcfi	same_value, 89
	.dwcfi	same_value, 90
	.dwcfi	same_value, 91
	.dwcfi	same_value, 92
	.dwcfi	same_value, 93
	.dwcfi	same_value, 94
	.dwcfi	same_value, 95
	.dwendentry
	.dwendtag $C$DW$CU

