TI ARM Assembler PC v5.2.6 Thu Apr 28 12:50:03 2016

Tools Copyright (c) 1996-2015 Texas Instruments Incorporated
esp8266.asm                                                          PAGE    1

       1                    ;******************************************************************************
       2                    ;* TI ARM C/C++ Codegen                                             PC v5.2.6 *
       3                    ;* Date/Time created: Thu Apr 28 12:50:02 2016                                *
       4                    ;******************************************************************************
       5                            .compiler_opts --abi=eabi --arm_vmrs_si_workaround=off --code_state=16 --diag_wrap=off --disab
       6 00000000                   .thumb
       7                    
       8                    $C$DW$CU        .dwtag  DW_TAG_compile_unit
       9                            .dwattr $C$DW$CU, DW_AT_name("../esp8266.c")
      10                            .dwattr $C$DW$CU, DW_AT_producer("TI TI ARM C/C++ Codegen PC v5.2.6 Copyright (c) 1996-2015 Te
      11                            .dwattr $C$DW$CU, DW_AT_TI_version(0x01)
      12                            .dwattr $C$DW$CU, DW_AT_comp_dir("D:\Deian\Dev\TI\workspace6\LaunchpadRoomControl\timers\Debug
      13                    
      14                    $C$DW$1 .dwtag  DW_TAG_subprogram, DW_AT_name("__builtin_strlen")
      15                            .dwattr $C$DW$1, DW_AT_TI_symbol_name("__builtin_strlen")
      16                            .dwattr $C$DW$1, DW_AT_type(*$C$DW$T$11)
      17                            .dwattr $C$DW$1, DW_AT_declaration
      18                            .dwattr $C$DW$1, DW_AT_external
      19                    $C$DW$2 .dwtag  DW_TAG_formal_parameter
      20                            .dwattr $C$DW$2, DW_AT_type(*$C$DW$T$46)
      21                            .dwendtag $C$DW$1
      22                    
      23                    
      24                    $C$DW$3 .dwtag  DW_TAG_subprogram, DW_AT_name("strlen")
      25                            .dwattr $C$DW$3, DW_AT_TI_symbol_name("strlen")
      26                            .dwattr $C$DW$3, DW_AT_type(*$C$DW$T$26)
      27                            .dwattr $C$DW$3, DW_AT_declaration
      28                            .dwattr $C$DW$3, DW_AT_external
      29                            .dwattr $C$DW$3, DW_AT_decl_file("C:/ti/ccsv6/tools/compiler/ti-cgt-arm_5.2.6/include/string.h
      30                            .dwattr $C$DW$3, DW_AT_decl_line(0x4f)
      31                            .dwattr $C$DW$3, DW_AT_decl_column(0x14)
      32                    $C$DW$4 .dwtag  DW_TAG_formal_parameter
      33                            .dwattr $C$DW$4, DW_AT_type(*$C$DW$T$46)
      34                            .dwendtag $C$DW$3
      35                    
      36                    
      37                    $C$DW$5 .dwtag  DW_TAG_subprogram, DW_AT_name("strcpy")
      38                            .dwattr $C$DW$5, DW_AT_TI_symbol_name("strcpy")
      39                            .dwattr $C$DW$5, DW_AT_type(*$C$DW$T$42)
      40                            .dwattr $C$DW$5, DW_AT_declaration
      41                            .dwattr $C$DW$5, DW_AT_external
      42                            .dwattr $C$DW$5, DW_AT_decl_file("C:/ti/ccsv6/tools/compiler/ti-cgt-arm_5.2.6/include/string.h
      43                            .dwattr $C$DW$5, DW_AT_decl_line(0x51)
      44                            .dwattr $C$DW$5, DW_AT_decl_column(0x12)
      45                    $C$DW$6 .dwtag  DW_TAG_formal_parameter
      46                            .dwattr $C$DW$6, DW_AT_type(*$C$DW$T$42)
      47                    $C$DW$7 .dwtag  DW_TAG_formal_parameter
      48                            .dwattr $C$DW$7, DW_AT_type(*$C$DW$T$46)
      49                            .dwendtag $C$DW$5
      50                    
      51                    
      52                    $C$DW$8 .dwtag  DW_TAG_subprogram, DW_AT_name("strcat")
      53                            .dwattr $C$DW$8, DW_AT_TI_symbol_name("strcat")
      54                            .dwattr $C$DW$8, DW_AT_type(*$C$DW$T$42)
      55                            .dwattr $C$DW$8, DW_AT_declaration
TI ARM Assembler PC v5.2.6 Thu Apr 28 12:50:03 2016

Tools Copyright (c) 1996-2015 Texas Instruments Incorporated
esp8266.asm                                                          PAGE    2

      56                            .dwattr $C$DW$8, DW_AT_external
      57                            .dwattr $C$DW$8, DW_AT_decl_file("C:/ti/ccsv6/tools/compiler/ti-cgt-arm_5.2.6/include/string.h
      58                            .dwattr $C$DW$8, DW_AT_decl_line(0x53)
      59                            .dwattr $C$DW$8, DW_AT_decl_column(0x12)
      60                    $C$DW$9 .dwtag  DW_TAG_formal_parameter
      61                            .dwattr $C$DW$9, DW_AT_type(*$C$DW$T$42)
      62                    $C$DW$10        .dwtag  DW_TAG_formal_parameter
      63                            .dwattr $C$DW$10, DW_AT_type(*$C$DW$T$46)
      64                            .dwendtag $C$DW$8
      65                    
      66                    
      67                    $C$DW$11        .dwtag  DW_TAG_subprogram, DW_AT_name("strncat")
      68                            .dwattr $C$DW$11, DW_AT_TI_symbol_name("strncat")
      69                            .dwattr $C$DW$11, DW_AT_type(*$C$DW$T$42)
      70                            .dwattr $C$DW$11, DW_AT_declaration
      71                            .dwattr $C$DW$11, DW_AT_external
      72                            .dwattr $C$DW$11, DW_AT_decl_file("C:/ti/ccsv6/tools/compiler/ti-cgt-arm_5.2.6/include/string.
      73                            .dwattr $C$DW$11, DW_AT_decl_line(0x54)
      74                            .dwattr $C$DW$11, DW_AT_decl_column(0x12)
      75                    $C$DW$12        .dwtag  DW_TAG_formal_parameter
      76                            .dwattr $C$DW$12, DW_AT_type(*$C$DW$T$42)
      77                    $C$DW$13        .dwtag  DW_TAG_formal_parameter
      78                            .dwattr $C$DW$13, DW_AT_type(*$C$DW$T$46)
      79                    $C$DW$14        .dwtag  DW_TAG_formal_parameter
      80                            .dwattr $C$DW$14, DW_AT_type(*$C$DW$T$26)
      81                            .dwendtag $C$DW$11
      82                    
      83                    
      84                    $C$DW$15        .dwtag  DW_TAG_subprogram, DW_AT_name("strstr")
      85                            .dwattr $C$DW$15, DW_AT_TI_symbol_name("strstr")
      86                            .dwattr $C$DW$15, DW_AT_type(*$C$DW$T$42)
      87                            .dwattr $C$DW$15, DW_AT_declaration
      88                            .dwattr $C$DW$15, DW_AT_external
      89                            .dwattr $C$DW$15, DW_AT_decl_file("C:/ti/ccsv6/tools/compiler/ti-cgt-arm_5.2.6/include/string.
      90                            .dwattr $C$DW$15, DW_AT_decl_line(0x60)
      91                            .dwattr $C$DW$15, DW_AT_decl_column(0x16)
      92                    $C$DW$16        .dwtag  DW_TAG_formal_parameter
      93                            .dwattr $C$DW$16, DW_AT_type(*$C$DW$T$46)
      94                    $C$DW$17        .dwtag  DW_TAG_formal_parameter
      95                            .dwattr $C$DW$17, DW_AT_type(*$C$DW$T$46)
      96                            .dwendtag $C$DW$15
      97                    
      98                    
      99                    $C$DW$18        .dwtag  DW_TAG_subprogram, DW_AT_name("strtok")
     100                            .dwattr $C$DW$18, DW_AT_TI_symbol_name("strtok")
     101                            .dwattr $C$DW$18, DW_AT_type(*$C$DW$T$42)
     102                            .dwattr $C$DW$18, DW_AT_declaration
     103                            .dwattr $C$DW$18, DW_AT_external
     104                            .dwattr $C$DW$18, DW_AT_decl_file("C:/ti/ccsv6/tools/compiler/ti-cgt-arm_5.2.6/include/string.
     105                            .dwattr $C$DW$18, DW_AT_decl_line(0x61)
     106                            .dwattr $C$DW$18, DW_AT_decl_column(0x16)
     107                    $C$DW$19        .dwtag  DW_TAG_formal_parameter
     108                            .dwattr $C$DW$19, DW_AT_type(*$C$DW$T$42)
     109                    $C$DW$20        .dwtag  DW_TAG_formal_parameter
     110                            .dwattr $C$DW$20, DW_AT_type(*$C$DW$T$46)
TI ARM Assembler PC v5.2.6 Thu Apr 28 12:50:03 2016

Tools Copyright (c) 1996-2015 Texas Instruments Incorporated
esp8266.asm                                                          PAGE    3

     111                            .dwendtag $C$DW$18
     112                    
     113                    
     114                    $C$DW$21        .dwtag  DW_TAG_subprogram, DW_AT_name("memset")
     115                            .dwattr $C$DW$21, DW_AT_TI_symbol_name("memset")
     116                            .dwattr $C$DW$21, DW_AT_type(*$C$DW$T$3)
     117                            .dwattr $C$DW$21, DW_AT_declaration
     118                            .dwattr $C$DW$21, DW_AT_external
     119                            .dwattr $C$DW$21, DW_AT_decl_file("C:/ti/ccsv6/tools/compiler/ti-cgt-arm_5.2.6/include/string.
     120                            .dwattr $C$DW$21, DW_AT_decl_line(0x6f)
     121                            .dwattr $C$DW$21, DW_AT_decl_column(0x16)
     122                    $C$DW$22        .dwtag  DW_TAG_formal_parameter
     123                            .dwattr $C$DW$22, DW_AT_type(*$C$DW$T$3)
     124                    $C$DW$23        .dwtag  DW_TAG_formal_parameter
     125                            .dwattr $C$DW$23, DW_AT_type(*$C$DW$T$10)
     126                    $C$DW$24        .dwtag  DW_TAG_formal_parameter
     127                            .dwattr $C$DW$24, DW_AT_type(*$C$DW$T$26)
     128                            .dwendtag $C$DW$21
     129                    
     130                    
     131                    $C$DW$25        .dwtag  DW_TAG_subprogram, DW_AT_name("atoi")
     132                            .dwattr $C$DW$25, DW_AT_TI_symbol_name("atoi")
     133                            .dwattr $C$DW$25, DW_AT_type(*$C$DW$T$10)
     134                            .dwattr $C$DW$25, DW_AT_declaration
     135                            .dwattr $C$DW$25, DW_AT_external
     136                            .dwattr $C$DW$25, DW_AT_decl_file("C:/ti/ccsv6/tools/compiler/ti-cgt-arm_5.2.6/include/stdlib.
     137                            .dwattr $C$DW$25, DW_AT_decl_line(0x90)
     138                            .dwattr $C$DW$25, DW_AT_decl_column(0x1c)
     139                    $C$DW$26        .dwtag  DW_TAG_formal_parameter
     140                            .dwattr $C$DW$26, DW_AT_type(*$C$DW$T$46)
     141                            .dwendtag $C$DW$25
     142                    
     143                    
     144                    $C$DW$27        .dwtag  DW_TAG_subprogram, DW_AT_name("isdigit")
     145                            .dwattr $C$DW$27, DW_AT_TI_symbol_name("isdigit")
     146                            .dwattr $C$DW$27, DW_AT_type(*$C$DW$T$10)
     147                            .dwattr $C$DW$27, DW_AT_declaration
     148                            .dwattr $C$DW$27, DW_AT_external
     149                            .dwattr $C$DW$27, DW_AT_decl_file("C:\ti\ccsv6\tools\compiler\ti-cgt-arm_5.2.6\include\_isfunc
     150                            .dwattr $C$DW$27, DW_AT_decl_line(0x2e)
     151                            .dwattr $C$DW$27, DW_AT_decl_column(0x0c)
     152                    $C$DW$28        .dwtag  DW_TAG_formal_parameter
     153                            .dwattr $C$DW$28, DW_AT_type(*$C$DW$T$10)
     154                            .dwendtag $C$DW$27
     155                    
     156                    
     157                    $C$DW$29        .dwtag  DW_TAG_subprogram, DW_AT_name("GPIOPinWrite")
     158                            .dwattr $C$DW$29, DW_AT_TI_symbol_name("GPIOPinWrite")
     159                            .dwattr $C$DW$29, DW_AT_declaration
     160                            .dwattr $C$DW$29, DW_AT_external
     161                            .dwattr $C$DW$29, DW_AT_decl_file("C:/ti/TivaWare/driverlib/gpio.h")
     162                            .dwattr $C$DW$29, DW_AT_decl_line(0x9e)
     163                            .dwattr $C$DW$29, DW_AT_decl_column(0x0d)
     164                    $C$DW$30        .dwtag  DW_TAG_formal_parameter
     165                            .dwattr $C$DW$30, DW_AT_type(*$C$DW$T$29)
TI ARM Assembler PC v5.2.6 Thu Apr 28 12:50:03 2016

Tools Copyright (c) 1996-2015 Texas Instruments Incorporated
esp8266.asm                                                          PAGE    4

     166                    $C$DW$31        .dwtag  DW_TAG_formal_parameter
     167                            .dwattr $C$DW$31, DW_AT_type(*$C$DW$T$30)
     168                    $C$DW$32        .dwtag  DW_TAG_formal_parameter
     169                            .dwattr $C$DW$32, DW_AT_type(*$C$DW$T$30)
     170                            .dwendtag $C$DW$29
     171                    
     172                    
     173                    $C$DW$33        .dwtag  DW_TAG_subprogram, DW_AT_name("GPIOPinConfigure")
     174                            .dwattr $C$DW$33, DW_AT_TI_symbol_name("GPIOPinConfigure")
     175                            .dwattr $C$DW$33, DW_AT_declaration
     176                            .dwattr $C$DW$33, DW_AT_external
     177                            .dwattr $C$DW$33, DW_AT_decl_file("C:/ti/TivaWare/driverlib/gpio.h")
     178                            .dwattr $C$DW$33, DW_AT_decl_line(0x9f)
     179                            .dwattr $C$DW$33, DW_AT_decl_column(0x0d)
     180                    $C$DW$34        .dwtag  DW_TAG_formal_parameter
     181                            .dwattr $C$DW$34, DW_AT_type(*$C$DW$T$29)
     182                            .dwendtag $C$DW$33
     183                    
     184                    
     185                    $C$DW$35        .dwtag  DW_TAG_subprogram, DW_AT_name("GPIOPinTypeGPIOOutput")
     186                            .dwattr $C$DW$35, DW_AT_TI_symbol_name("GPIOPinTypeGPIOOutput")
     187                            .dwattr $C$DW$35, DW_AT_declaration
     188                            .dwattr $C$DW$35, DW_AT_external
     189                            .dwattr $C$DW$35, DW_AT_decl_file("C:/ti/TivaWare/driverlib/gpio.h")
     190                            .dwattr $C$DW$35, DW_AT_decl_line(0xa9)
     191                            .dwattr $C$DW$35, DW_AT_decl_column(0x0d)
     192                    $C$DW$36        .dwtag  DW_TAG_formal_parameter
     193                            .dwattr $C$DW$36, DW_AT_type(*$C$DW$T$29)
     194                    $C$DW$37        .dwtag  DW_TAG_formal_parameter
     195                            .dwattr $C$DW$37, DW_AT_type(*$C$DW$T$30)
     196                            .dwendtag $C$DW$35
     197                    
     198                    
     199                    $C$DW$38        .dwtag  DW_TAG_subprogram, DW_AT_name("GPIOPinTypeUART")
     200                            .dwattr $C$DW$38, DW_AT_TI_symbol_name("GPIOPinTypeUART")
     201                            .dwattr $C$DW$38, DW_AT_declaration
     202                            .dwattr $C$DW$38, DW_AT_external
     203                            .dwattr $C$DW$38, DW_AT_decl_file("C:/ti/TivaWare/driverlib/gpio.h")
     204                            .dwattr $C$DW$38, DW_AT_decl_line(0xb5)
     205                            .dwattr $C$DW$38, DW_AT_decl_column(0x0d)
     206                    $C$DW$39        .dwtag  DW_TAG_formal_parameter
     207                            .dwattr $C$DW$39, DW_AT_type(*$C$DW$T$29)
     208                    $C$DW$40        .dwtag  DW_TAG_formal_parameter
     209                            .dwattr $C$DW$40, DW_AT_type(*$C$DW$T$30)
     210                            .dwendtag $C$DW$38
     211                    
     212                    
     213                    $C$DW$41        .dwtag  DW_TAG_subprogram, DW_AT_name("SysCtlPeripheralEnable")
     214                            .dwattr $C$DW$41, DW_AT_TI_symbol_name("SysCtlPeripheralEnable")
     215                            .dwattr $C$DW$41, DW_AT_declaration
     216                            .dwattr $C$DW$41, DW_AT_external
     217                            .dwattr $C$DW$41, DW_AT_decl_file("C:/ti/TivaWare/driverlib/sysctl.h")
     218                            .dwattr $C$DW$41, DW_AT_decl_line(0x24e)
     219                            .dwattr $C$DW$41, DW_AT_decl_column(0x0d)
     220                    $C$DW$42        .dwtag  DW_TAG_formal_parameter
TI ARM Assembler PC v5.2.6 Thu Apr 28 12:50:03 2016

Tools Copyright (c) 1996-2015 Texas Instruments Incorporated
esp8266.asm                                                          PAGE    5

     221                            .dwattr $C$DW$42, DW_AT_type(*$C$DW$T$29)
     222                            .dwendtag $C$DW$41
     223                    
     224                    
     225                    $C$DW$43        .dwtag  DW_TAG_subprogram, DW_AT_name("SysCtlDelay")
     226                            .dwattr $C$DW$43, DW_AT_TI_symbol_name("SysCtlDelay")
     227                            .dwattr $C$DW$43, DW_AT_declaration
     228                            .dwattr $C$DW$43, DW_AT_external
     229                            .dwattr $C$DW$43, DW_AT_decl_file("C:/ti/TivaWare/driverlib/sysctl.h")
     230                            .dwattr $C$DW$43, DW_AT_decl_line(0x268)
     231                            .dwattr $C$DW$43, DW_AT_decl_column(0x0d)
     232                    $C$DW$44        .dwtag  DW_TAG_formal_parameter
     233                            .dwattr $C$DW$44, DW_AT_type(*$C$DW$T$29)
     234                            .dwendtag $C$DW$43
     235                    
     236                    
     237                    $C$DW$45        .dwtag  DW_TAG_subprogram, DW_AT_name("SysCtlClockGet")
     238                            .dwattr $C$DW$45, DW_AT_TI_symbol_name("SysCtlClockGet")
     239                            .dwattr $C$DW$45, DW_AT_type(*$C$DW$T$29)
     240                            .dwattr $C$DW$45, DW_AT_declaration
     241                            .dwattr $C$DW$45, DW_AT_external
     242                            .dwattr $C$DW$45, DW_AT_decl_file("C:/ti/TivaWare/driverlib/sysctl.h")
     243                            .dwattr $C$DW$45, DW_AT_decl_line(0x26c)
     244                            .dwattr $C$DW$45, DW_AT_decl_column(0x11)
     245                    
     246                    $C$DW$46        .dwtag  DW_TAG_subprogram, DW_AT_name("UARTConfigSetExpClk")
     247                            .dwattr $C$DW$46, DW_AT_TI_symbol_name("UARTConfigSetExpClk")
     248                            .dwattr $C$DW$46, DW_AT_declaration
     249                            .dwattr $C$DW$46, DW_AT_external
     250                            .dwattr $C$DW$46, DW_AT_decl_file("C:/ti/TivaWare/driverlib/uart.h")
     251                            .dwattr $C$DW$46, DW_AT_decl_line(0xc8)
     252                            .dwattr $C$DW$46, DW_AT_decl_column(0x0d)
     253                    $C$DW$47        .dwtag  DW_TAG_formal_parameter
     254                            .dwattr $C$DW$47, DW_AT_type(*$C$DW$T$29)
     255                    $C$DW$48        .dwtag  DW_TAG_formal_parameter
     256                            .dwattr $C$DW$48, DW_AT_type(*$C$DW$T$29)
     257                    $C$DW$49        .dwtag  DW_TAG_formal_parameter
     258                            .dwattr $C$DW$49, DW_AT_type(*$C$DW$T$29)
     259                    $C$DW$50        .dwtag  DW_TAG_formal_parameter
     260                            .dwattr $C$DW$50, DW_AT_type(*$C$DW$T$29)
     261                            .dwendtag $C$DW$46
     262                    
     263                    
     264                    $C$DW$51        .dwtag  DW_TAG_subprogram, DW_AT_name("UARTCharsAvail")
     265                            .dwattr $C$DW$51, DW_AT_TI_symbol_name("UARTCharsAvail")
     266                            .dwattr $C$DW$51, DW_AT_type(*$C$DW$T$163)
     267                            .dwattr $C$DW$51, DW_AT_declaration
     268                            .dwattr $C$DW$51, DW_AT_external
     269                            .dwattr $C$DW$51, DW_AT_decl_file("C:/ti/TivaWare/driverlib/uart.h")
     270                            .dwattr $C$DW$51, DW_AT_decl_line(0xd2)
     271                            .dwattr $C$DW$51, DW_AT_decl_column(0x0d)
     272                    $C$DW$52        .dwtag  DW_TAG_formal_parameter
     273                            .dwattr $C$DW$52, DW_AT_type(*$C$DW$T$29)
     274                            .dwendtag $C$DW$51
     275                    
TI ARM Assembler PC v5.2.6 Thu Apr 28 12:50:03 2016

Tools Copyright (c) 1996-2015 Texas Instruments Incorporated
esp8266.asm                                                          PAGE    6

     276                    
     277                    $C$DW$53        .dwtag  DW_TAG_subprogram, DW_AT_name("UARTCharGetNonBlocking")
     278                            .dwattr $C$DW$53, DW_AT_TI_symbol_name("UARTCharGetNonBlocking")
     279                            .dwattr $C$DW$53, DW_AT_type(*$C$DW$T$87)
     280                            .dwattr $C$DW$53, DW_AT_declaration
     281                            .dwattr $C$DW$53, DW_AT_external
     282                            .dwattr $C$DW$53, DW_AT_decl_file("C:/ti/TivaWare/driverlib/uart.h")
     283                            .dwattr $C$DW$53, DW_AT_decl_line(0xd4)
     284                            .dwattr $C$DW$53, DW_AT_decl_column(0x10)
     285                    $C$DW$54        .dwtag  DW_TAG_formal_parameter
     286                            .dwattr $C$DW$54, DW_AT_type(*$C$DW$T$29)
     287                            .dwendtag $C$DW$53
     288                    
     289                    
     290                    $C$DW$55        .dwtag  DW_TAG_subprogram, DW_AT_name("UARTCharGet")
     291                            .dwattr $C$DW$55, DW_AT_TI_symbol_name("UARTCharGet")
     292                            .dwattr $C$DW$55, DW_AT_type(*$C$DW$T$87)
     293                            .dwattr $C$DW$55, DW_AT_declaration
     294                            .dwattr $C$DW$55, DW_AT_external
     295                            .dwattr $C$DW$55, DW_AT_decl_file("C:/ti/TivaWare/driverlib/uart.h")
     296                            .dwattr $C$DW$55, DW_AT_decl_line(0xd5)
     297                            .dwattr $C$DW$55, DW_AT_decl_column(0x10)
     298                    $C$DW$56        .dwtag  DW_TAG_formal_parameter
     299                            .dwattr $C$DW$56, DW_AT_type(*$C$DW$T$29)
     300                            .dwendtag $C$DW$55
     301                    
     302                    
     303                    $C$DW$57        .dwtag  DW_TAG_subprogram, DW_AT_name("UARTCharPut")
     304                            .dwattr $C$DW$57, DW_AT_TI_symbol_name("UARTCharPut")
     305                            .dwattr $C$DW$57, DW_AT_declaration
     306                            .dwattr $C$DW$57, DW_AT_external
     307                            .dwattr $C$DW$57, DW_AT_decl_file("C:/ti/TivaWare/driverlib/uart.h")
     308                            .dwattr $C$DW$57, DW_AT_decl_line(0xd7)
     309                            .dwattr $C$DW$57, DW_AT_decl_column(0x0d)
     310                    $C$DW$58        .dwtag  DW_TAG_formal_parameter
     311                            .dwattr $C$DW$58, DW_AT_type(*$C$DW$T$29)
     312                    $C$DW$59        .dwtag  DW_TAG_formal_parameter
     313                            .dwattr $C$DW$59, DW_AT_type(*$C$DW$T$6)
     314                            .dwendtag $C$DW$57
     315                    
     316                    
     317                    $C$DW$60        .dwtag  DW_TAG_subprogram, DW_AT_name("uitoa")
     318                            .dwattr $C$DW$60, DW_AT_TI_symbol_name("uitoa")
     319                            .dwattr $C$DW$60, DW_AT_declaration
     320                            .dwattr $C$DW$60, DW_AT_external
     321                            .dwattr $C$DW$60, DW_AT_decl_file("..\utils.h")
     322                            .dwattr $C$DW$60, DW_AT_decl_line(0x10)
     323                            .dwattr $C$DW$60, DW_AT_decl_column(0x06)
     324                    $C$DW$61        .dwtag  DW_TAG_formal_parameter
     325                            .dwattr $C$DW$61, DW_AT_type(*$C$DW$T$29)
     326                    $C$DW$62        .dwtag  DW_TAG_formal_parameter
     327                            .dwattr $C$DW$62, DW_AT_type(*$C$DW$T$42)
     328                    $C$DW$63        .dwtag  DW_TAG_formal_parameter
     329                            .dwattr $C$DW$63, DW_AT_type(*$C$DW$T$10)
     330                            .dwendtag $C$DW$60
TI ARM Assembler PC v5.2.6 Thu Apr 28 12:50:03 2016

Tools Copyright (c) 1996-2015 Texas Instruments Incorporated
esp8266.asm                                                          PAGE    7

     331                    
     332                    
     333                    $C$DW$64        .dwtag  DW_TAG_subprogram, DW_AT_name("LOGprintf")
     334                            .dwattr $C$DW$64, DW_AT_TI_symbol_name("LOGprintf")
     335                            .dwattr $C$DW$64, DW_AT_declaration
     336                            .dwattr $C$DW$64, DW_AT_external
     337                            .dwattr $C$DW$64, DW_AT_decl_file("..\utils.h")
     338                            .dwattr $C$DW$64, DW_AT_decl_line(0x15)
     339                            .dwattr $C$DW$64, DW_AT_decl_column(0x06)
     340                    $C$DW$65        .dwtag  DW_TAG_formal_parameter
     341                            .dwattr $C$DW$65, DW_AT_type(*$C$DW$T$46)
     342                    $C$DW$66        .dwtag  DW_TAG_unspecified_parameters
     343                            .dwendtag $C$DW$64
     344                    
     345                            .common dummy$1,1,1
     346                            .common dummy$2,1,1
     347 00000000                   .sect   ".const:.string"
     348                            .align  1
     349                            .elfsym ||$P$T0$3||,SYM_SIZE(8)
     350 00000000           ||$P$T0$3||:
     351 00000000 00000041          .bits   65,8                    ; $P$T0$3[0] @ 0
     352 00000000 00005441          .bits   84,8                    ; $P$T0$3[1] @ 8
     353 00000000 00455441          .bits   69,8                    ; $P$T0$3[2] @ 16
     354 00000000 30455441          .bits   48,8                    ; $P$T0$3[3] @ 24
     355 00000004 00000000          .bits   0,8                     ; $P$T0$3[4] @ 32
     356                    
     357                    $C$DW$67        .dwtag  DW_TAG_variable, DW_AT_name("$P$T0$3")
     358                            .dwattr $C$DW$67, DW_AT_TI_symbol_name("$P$T0$3")
     359                            .dwattr $C$DW$67, DW_AT_type(*$C$DW$T$119)
     360                            .dwattr $C$DW$67, DW_AT_location[DW_OP_addr ||$P$T0$3||]
     361                            .dwattr $C$DW$67, DW_AT_decl_file("../esp8266.c")
     362                            .dwattr $C$DW$67, DW_AT_decl_line(0x172)
     363                            .dwattr $C$DW$67, DW_AT_decl_column(0x07)
     364 00000005                   .sect   ".const:.string"
     365                            .align  1
     366                            .elfsym ||$P$T1$4||,SYM_SIZE(4)
     367 00000005           ||$P$T1$4||:
     368 00000004 00004F00          .bits   79,8                    ; $P$T1$4[0] @ 0
     369 00000004 004B4F00          .bits   75,8                    ; $P$T1$4[1] @ 8
     370 00000004 004B4F00          .bits   0,8                     ; $P$T1$4[2] @ 16
     371                    
     372                    $C$DW$68        .dwtag  DW_TAG_variable, DW_AT_name("$P$T1$4")
     373                            .dwattr $C$DW$68, DW_AT_TI_symbol_name("$P$T1$4")
     374                            .dwattr $C$DW$68, DW_AT_type(*$C$DW$T$120)
     375                            .dwattr $C$DW$68, DW_AT_location[DW_OP_addr ||$P$T1$4||]
     376                            .dwattr $C$DW$68, DW_AT_decl_file("../esp8266.c")
     377                            .dwattr $C$DW$68, DW_AT_decl_line(0x173)
     378                            .dwattr $C$DW$68, DW_AT_decl_column(0x07)
     379 00000000                   .sect   ".const:.string:$P$T2$5"
     380                            .clink
     381                            .align  1
     382                            .elfsym ||$P$T2$5||,SYM_SIZE(36)
     383 00000000           ||$P$T2$5||:
     384 00000000 00000041          .bits   65,8                    ; $P$T2$5[0] @ 0
     385 00000000 00005441          .bits   84,8                    ; $P$T2$5[1] @ 8
TI ARM Assembler PC v5.2.6 Thu Apr 28 12:50:03 2016

Tools Copyright (c) 1996-2015 Texas Instruments Incorporated
esp8266.asm                                                          PAGE    8

     386 00000000 002B5441          .bits   43,8                    ; $P$T2$5[2] @ 16
     387 00000000 432B5441          .bits   67,8                    ; $P$T2$5[3] @ 24
     388 00000004 00000049          .bits   73,8                    ; $P$T2$5[4] @ 32
     389 00000004 00005049          .bits   80,8                    ; $P$T2$5[5] @ 40
     390 00000004 00535049          .bits   83,8                    ; $P$T2$5[6] @ 48
     391 00000004 54535049          .bits   84,8                    ; $P$T2$5[7] @ 56
     392 00000008 00000041          .bits   65,8                    ; $P$T2$5[8] @ 64
     393 00000008 00005241          .bits   82,8                    ; $P$T2$5[9] @ 72
     394 00000008 00545241          .bits   84,8                    ; $P$T2$5[10] @ 80
     395 00000008 3D545241          .bits   61,8                    ; $P$T2$5[11] @ 88
     396 0000000c 00000022          .bits   34,8                    ; $P$T2$5[12] @ 96
     397 0000000c 00005422          .bits   84,8                    ; $P$T2$5[13] @ 104
     398 0000000c 00435422          .bits   67,8                    ; $P$T2$5[14] @ 112
     399 0000000c 50435422          .bits   80,8                    ; $P$T2$5[15] @ 120
     400 00000010 00000022          .bits   34,8                    ; $P$T2$5[16] @ 128
     401 00000010 00002C22          .bits   44,8                    ; $P$T2$5[17] @ 136
     402 00000010 00222C22          .bits   34,8                    ; $P$T2$5[18] @ 144
     403 00000010 67222C22          .bits   103,8                   ; $P$T2$5[19] @ 152
     404 00000014 0000006F          .bits   111,8                   ; $P$T2$5[20] @ 160
     405 00000014 00006F6F          .bits   111,8                   ; $P$T2$5[21] @ 168
     406 00000014 00676F6F          .bits   103,8                   ; $P$T2$5[22] @ 176
     407 00000014 6C676F6F          .bits   108,8                   ; $P$T2$5[23] @ 184
     408 00000018 00000065          .bits   101,8                   ; $P$T2$5[24] @ 192
     409 00000018 00002E65          .bits   46,8                    ; $P$T2$5[25] @ 200
     410 00000018 00632E65          .bits   99,8                    ; $P$T2$5[26] @ 208
     411 00000018 6F632E65          .bits   111,8                   ; $P$T2$5[27] @ 216
     412 0000001c 0000006D          .bits   109,8                   ; $P$T2$5[28] @ 224
     413 0000001c 0000226D          .bits   34,8                    ; $P$T2$5[29] @ 232
     414 0000001c 002C226D          .bits   44,8                    ; $P$T2$5[30] @ 240
     415 0000001c 382C226D          .bits   56,8                    ; $P$T2$5[31] @ 248
     416 00000020 00000030          .bits   48,8                    ; $P$T2$5[32] @ 256
     417 00000020 00000030          .bits   0,8                     ; $P$T2$5[33] @ 264
     418                    
     419                    $C$DW$69        .dwtag  DW_TAG_variable, DW_AT_name("$P$T2$5")
     420                            .dwattr $C$DW$69, DW_AT_TI_symbol_name("$P$T2$5")
     421                            .dwattr $C$DW$69, DW_AT_type(*$C$DW$T$121)
     422                            .dwattr $C$DW$69, DW_AT_location[DW_OP_addr ||$P$T2$5||]
     423                            .dwattr $C$DW$69, DW_AT_decl_file("../esp8266.c")
     424                            .dwattr $C$DW$69, DW_AT_decl_line(0x174)
     425                            .dwattr $C$DW$69, DW_AT_decl_column(0x07)
     426 00000008                   .sect   ".const:.string"
     427                            .align  1
     428                            .elfsym ||$P$T3$6||,SYM_SIZE(8)
     429 00000008           ||$P$T3$6||:
     430 00000008 00000043          .bits   67,8                    ; $P$T3$6[0] @ 0
     431 00000008 00004F43          .bits   79,8                    ; $P$T3$6[1] @ 8
     432 00000008 004E4F43          .bits   78,8                    ; $P$T3$6[2] @ 16
     433 00000008 4E4E4F43          .bits   78,8                    ; $P$T3$6[3] @ 24
     434 0000000c 00000045          .bits   69,8                    ; $P$T3$6[4] @ 32
     435 0000000c 00004345          .bits   67,8                    ; $P$T3$6[5] @ 40
     436 0000000c 00544345          .bits   84,8                    ; $P$T3$6[6] @ 48
     437 0000000c 00544345          .bits   0,8                     ; $P$T3$6[7] @ 56
     438                    
     439                    $C$DW$70        .dwtag  DW_TAG_variable, DW_AT_name("$P$T3$6")
     440                            .dwattr $C$DW$70, DW_AT_TI_symbol_name("$P$T3$6")
TI ARM Assembler PC v5.2.6 Thu Apr 28 12:50:03 2016

Tools Copyright (c) 1996-2015 Texas Instruments Incorporated
esp8266.asm                                                          PAGE    9

     441                            .dwattr $C$DW$70, DW_AT_type(*$C$DW$T$122)
     442                            .dwattr $C$DW$70, DW_AT_location[DW_OP_addr ||$P$T3$6||]
     443                            .dwattr $C$DW$70, DW_AT_decl_file("../esp8266.c")
     444                            .dwattr $C$DW$70, DW_AT_decl_line(0x175)
     445                            .dwattr $C$DW$70, DW_AT_decl_column(0x07)
     446 00000010                   .sect   ".const:.string"
     447                            .align  1
     448                            .elfsym ||$P$T4$7||,SYM_SIZE(16)
     449 00000010           ||$P$T4$7||:
     450 00000010 00000041          .bits   65,8                    ; $P$T4$7[0] @ 0
     451 00000010 00005441          .bits   84,8                    ; $P$T4$7[1] @ 8
     452 00000010 002B5441          .bits   43,8                    ; $P$T4$7[2] @ 16
     453 00000010 432B5441          .bits   67,8                    ; $P$T4$7[3] @ 24
     454 00000014 00000049          .bits   73,8                    ; $P$T4$7[4] @ 32
     455 00000014 00005049          .bits   80,8                    ; $P$T4$7[5] @ 40
     456 00000014 00535049          .bits   83,8                    ; $P$T4$7[6] @ 48
     457 00000014 45535049          .bits   69,8                    ; $P$T4$7[7] @ 56
     458 00000018 0000004E          .bits   78,8                    ; $P$T4$7[8] @ 64
     459 00000018 0000444E          .bits   68,8                    ; $P$T4$7[9] @ 72
     460 00000018 003D444E          .bits   61,8                    ; $P$T4$7[10] @ 80
     461 00000018 323D444E          .bits   50,8                    ; $P$T4$7[11] @ 88
     462 0000001c 00000039          .bits   57,8                    ; $P$T4$7[12] @ 96
     463 0000001c 00000039          .bits   0,8                     ; $P$T4$7[13] @ 104
     464                    
     465                    $C$DW$71        .dwtag  DW_TAG_variable, DW_AT_name("$P$T4$7")
     466                            .dwattr $C$DW$71, DW_AT_TI_symbol_name("$P$T4$7")
     467                            .dwattr $C$DW$71, DW_AT_type(*$C$DW$T$123)
     468                            .dwattr $C$DW$71, DW_AT_location[DW_OP_addr ||$P$T4$7||]
     469                            .dwattr $C$DW$71, DW_AT_decl_file("../esp8266.c")
     470                            .dwattr $C$DW$71, DW_AT_decl_line(0x176)
     471                            .dwattr $C$DW$71, DW_AT_decl_column(0x07)
     472 0000001e                   .sect   ".const:.string"
     473                            .align  1
     474                            .elfsym ||$P$T5$8||,SYM_SIZE(4)
     475 0000001e           ||$P$T5$8||:
     476 0000001c 003E0039          .bits   62,8                    ; $P$T5$8[0] @ 0
     477 0000001c 003E0039          .bits   0,8                     ; $P$T5$8[1] @ 8
     478                    
     479                    $C$DW$72        .dwtag  DW_TAG_variable, DW_AT_name("$P$T5$8")
     480                            .dwattr $C$DW$72, DW_AT_TI_symbol_name("$P$T5$8")
     481                            .dwattr $C$DW$72, DW_AT_type(*$C$DW$T$124)
     482                            .dwattr $C$DW$72, DW_AT_location[DW_OP_addr ||$P$T5$8||]
     483                            .dwattr $C$DW$72, DW_AT_decl_file("../esp8266.c")
     484                            .dwattr $C$DW$72, DW_AT_decl_line(0x177)
     485                            .dwattr $C$DW$72, DW_AT_decl_column(0x07)
     486 00000020                   .sect   ".const:.string"
     487                            .align  1
     488                            .elfsym ||$P$T6$9||,SYM_SIZE(16)
     489 00000020           ||$P$T6$9||:
     490 00000020 00000047          .bits   71,8                    ; $P$T6$9[0] @ 0
     491 00000020 00004547          .bits   69,8                    ; $P$T6$9[1] @ 8
     492 00000020 00544547          .bits   84,8                    ; $P$T6$9[2] @ 16
     493 00000020 20544547          .bits   32,8                    ; $P$T6$9[3] @ 24
     494 00000024 0000002F          .bits   47,8                    ; $P$T6$9[4] @ 32
     495 00000024 0000202F          .bits   32,8                    ; $P$T6$9[5] @ 40
TI ARM Assembler PC v5.2.6 Thu Apr 28 12:50:03 2016

Tools Copyright (c) 1996-2015 Texas Instruments Incorporated
esp8266.asm                                                          PAGE   10

     496 00000024 0048202F          .bits   72,8                    ; $P$T6$9[6] @ 48
     497 00000024 5448202F          .bits   84,8                    ; $P$T6$9[7] @ 56
     498 00000028 00000054          .bits   84,8                    ; $P$T6$9[8] @ 64
     499 00000028 00005054          .bits   80,8                    ; $P$T6$9[9] @ 72
     500 00000028 002F5054          .bits   47,8                    ; $P$T6$9[10] @ 80
     501 00000028 312F5054          .bits   49,8                    ; $P$T6$9[11] @ 88
     502 0000002c 0000002E          .bits   46,8                    ; $P$T6$9[12] @ 96
     503 0000002c 0000312E          .bits   49,8                    ; $P$T6$9[13] @ 104
     504 0000002c 0000312E          .bits   0,8                     ; $P$T6$9[14] @ 112
     505                    
     506                    $C$DW$73        .dwtag  DW_TAG_variable, DW_AT_name("$P$T6$9")
     507                            .dwattr $C$DW$73, DW_AT_TI_symbol_name("$P$T6$9")
     508                            .dwattr $C$DW$73, DW_AT_type(*$C$DW$T$125)
     509                            .dwattr $C$DW$73, DW_AT_location[DW_OP_addr ||$P$T6$9||]
     510                            .dwattr $C$DW$73, DW_AT_decl_file("../esp8266.c")
     511                            .dwattr $C$DW$73, DW_AT_decl_line(0x178)
     512                            .dwattr $C$DW$73, DW_AT_decl_column(0x07)
     513 0000002f                   .sect   ".const:.string"
     514                            .align  1
     515                            .elfsym ||$P$T7$10||,SYM_SIZE(12)
     516 0000002f           ||$P$T7$10||:
     517 0000002c 4800312E          .bits   72,8                    ; $P$T7$10[0] @ 0
     518 00000030 0000006F          .bits   111,8                   ; $P$T7$10[1] @ 8
     519 00000030 0000736F          .bits   115,8                   ; $P$T7$10[2] @ 16
     520 00000030 0074736F          .bits   116,8                   ; $P$T7$10[3] @ 24
     521 00000030 3A74736F          .bits   58,8                    ; $P$T7$10[4] @ 32
     522 00000034 00000074          .bits   116,8                   ; $P$T7$10[5] @ 40
     523 00000034 00006574          .bits   101,8                   ; $P$T7$10[6] @ 48
     524 00000034 00736574          .bits   115,8                   ; $P$T7$10[7] @ 56
     525 00000034 74736574          .bits   116,8                   ; $P$T7$10[8] @ 64
     526 00000038 00000000          .bits   0,8                     ; $P$T7$10[9] @ 72
     527                    
     528                    $C$DW$74        .dwtag  DW_TAG_variable, DW_AT_name("$P$T7$10")
     529                            .dwattr $C$DW$74, DW_AT_TI_symbol_name("$P$T7$10")
     530                            .dwattr $C$DW$74, DW_AT_type(*$C$DW$T$126)
     531                            .dwattr $C$DW$74, DW_AT_location[DW_OP_addr ||$P$T7$10||]
     532                            .dwattr $C$DW$74, DW_AT_decl_file("../esp8266.c")
     533                            .dwattr $C$DW$74, DW_AT_decl_line(0x179)
     534                            .dwattr $C$DW$74, DW_AT_decl_column(0x07)
     535 00000039                   .sect   ".const:.string"
     536                            .align  1
     537                            .elfsym ||$P$T8$11||,SYM_SIZE(4)
     538 00000039           ||$P$T8$11||:
     539 00000038 00004700          .bits   71,8                    ; $P$T8$11[0] @ 0
     540 00000038 004D4700          .bits   77,8                    ; $P$T8$11[1] @ 8
     541 00000038 544D4700          .bits   84,8                    ; $P$T8$11[2] @ 16
     542 0000003c 00000000          .bits   0,8                     ; $P$T8$11[3] @ 24
     543                    
     544                    $C$DW$75        .dwtag  DW_TAG_variable, DW_AT_name("$P$T8$11")
     545                            .dwattr $C$DW$75, DW_AT_TI_symbol_name("$P$T8$11")
     546                            .dwattr $C$DW$75, DW_AT_type(*$C$DW$T$127)
     547                            .dwattr $C$DW$75, DW_AT_location[DW_OP_addr ||$P$T8$11||]
     548                            .dwattr $C$DW$75, DW_AT_decl_file("../esp8266.c")
     549                            .dwattr $C$DW$75, DW_AT_decl_line(0x17a)
     550                            .dwattr $C$DW$75, DW_AT_decl_column(0x07)
TI ARM Assembler PC v5.2.6 Thu Apr 28 12:50:03 2016

Tools Copyright (c) 1996-2015 Texas Instruments Incorporated
esp8266.asm                                                          PAGE   11

     551                    ;       C:\ti\ccsv6\tools\compiler\ti-cgt-arm_5.2.6\bin\armacpia.exe -@C:\\Users\\dcosas\\AppData\\Loc
     552 00000000                   .sect   ".text:uart_send"
     553                            .clink
     554                            .thumbfunc uart_send
     555 00000000                   .thumb
     556                            .global uart_send
     557                    
     558                    $C$DW$76        .dwtag  DW_TAG_subprogram, DW_AT_name("uart_send")
     559                            .dwattr $C$DW$76, DW_AT_low_pc(uart_send)
     560                            .dwattr $C$DW$76, DW_AT_high_pc(0x00)
     561                            .dwattr $C$DW$76, DW_AT_TI_symbol_name("uart_send")
     562                            .dwattr $C$DW$76, DW_AT_external
     563                            .dwattr $C$DW$76, DW_AT_TI_begin_file("../esp8266.c")
     564                            .dwattr $C$DW$76, DW_AT_TI_begin_line(0x42)
     565                            .dwattr $C$DW$76, DW_AT_TI_begin_column(0x06)
     566                            .dwattr $C$DW$76, DW_AT_decl_file("../esp8266.c")
     567                            .dwattr $C$DW$76, DW_AT_decl_line(0x42)
     568                            .dwattr $C$DW$76, DW_AT_decl_column(0x06)
     569                            .dwattr $C$DW$76, DW_AT_TI_max_frame_size(0x08)
     570                            .dwpsn  file "../esp8266.c",line 67,column 1,is_stmt,address uart_send,isa 1
     571                    
     572                            .dwfde $C$DW$CIE, uart_send
     573                    $C$DW$77        .dwtag  DW_TAG_formal_parameter, DW_AT_name("str")
     574                            .dwattr $C$DW$77, DW_AT_TI_symbol_name("str")
     575                            .dwattr $C$DW$77, DW_AT_type(*$C$DW$T$42)
     576                            .dwattr $C$DW$77, DW_AT_location[DW_OP_reg0]
     577                    ;----------------------------------------------------------------------
     578                    ;  66 | void uart_send(char* str)                                              
     579                    ;----------------------------------------------------------------------
     580                    
     581                    ;*****************************************************************************
     582                    ;* FUNCTION NAME: uart_send                                                  *
     583                    ;*                                                                           *
     584                    ;*   Regs Modified     : A1,A2,A3,A4,V9,SP,LR,SR,D0,D0_hi,D1,D1_hi,D2,D2_hi, *
     585                    ;*                           D3,D3_hi,D4,D4_hi,D5,D5_hi,D6,D6_hi,D7,D7_hi,   *
     586                    ;*                           FPEXC,FPSCR                                     *
     587                    ;*   Regs Used         : A1,A2,A3,A4,V9,SP,LR,SR,D0,D0_hi,D1,D1_hi,D2,D2_hi, *
     588                    ;*                           D3,D3_hi,D4,D4_hi,D5,D5_hi,D6,D6_hi,D7,D7_hi,   *
     589                    ;*                           FPEXC,FPSCR                                     *
     590                    ;*   Local Frame Size  : 0 Args + 4 Auto + 4 Save = 8 byte                   *
     591                    ;*****************************************************************************
     592 00000000           uart_send:
     593                    ;* --------------------------------------------------------------------------*
     594                            .dwcfi  cfa_offset, 0
     595 00000000 B508              PUSH      {A4, LR}              ; [DPU_3_PIPE]  ; [ORIG 16-BIT INS]
     596                            .dwcfi  cfa_offset, 8
     597                            .dwcfi  save_reg_to_mem, 14, -4
     598                            .dwcfi  save_reg_to_mem, 3, -8
     599                    $C$DW$78        .dwtag  DW_TAG_variable, DW_AT_name("str")
     600                            .dwattr $C$DW$78, DW_AT_TI_symbol_name("str")
     601                            .dwattr $C$DW$78, DW_AT_type(*$C$DW$T$42)
     602                            .dwattr $C$DW$78, DW_AT_location[DW_OP_breg13 0]
     603 00000002 9000              STR       A1, [SP, #0]          ; [DPU_3_PIPE] |67|  ; [ORIG 16-BIT INS]
     604                            .dwpsn  file "../esp8266.c",line 68,column 2,is_stmt,isa 1
     605                    ;----------------------------------------------------------------------
TI ARM Assembler PC v5.2.6 Thu Apr 28 12:50:03 2016

Tools Copyright (c) 1996-2015 Texas Instruments Incorporated
esp8266.asm                                                          PAGE   12

     606                    ;  68 | while(*str)                                                            
     607                    ;----------------------------------------------------------------------
     608 00000004 E006              B         ||$C$L2||             ; [DPU_3_PIPE] |68|  ; [ORIG 16-BIT INS]
     609                            ; BRANCH OCCURS {||$C$L2||}      ; [] |68| 
     610                    ;* --------------------------------------------------------------------------*
     611 00000006           ||$C$L1||:    
     612                            .dwpsn  file "../esp8266.c",line 70,column 3,is_stmt,isa 1
     613                    ;----------------------------------------------------------------------
     614                    ;  70 | UARTCharPut(UART5_BASE, *str++);                                       
     615                    ;----------------------------------------------------------------------
     616 00000006 9800              LDR       A1, [SP, #0]          ; [DPU_3_PIPE] |70|  ; [ORIG 16-BIT INS]
     617 00000008 1B01F810          LDRB      A2, [A1], #1          ; [DPU_3_PIPE] |70|  ; [KEEP 32-BIT INS]
     618 0000000c 9000              STR       A1, [SP, #0]          ; [DPU_3_PIPE] |70|  ; [ORIG 16-BIT INS]
     619 0000000e 4808              LDR       A1, $C$CON1           ; [DPU_3_PIPE] |70|  ; [ORIG 16-BIT INS]
     620                    $C$DW$79        .dwtag  DW_TAG_TI_branch
     621                            .dwattr $C$DW$79, DW_AT_low_pc(0x00)
     622                            .dwattr $C$DW$79, DW_AT_name("UARTCharPut")
     623                            .dwattr $C$DW$79, DW_AT_TI_call
     624 00000010 FFFEF7FF!         BL        UARTCharPut           ; [DPU_3_PIPE] |70|  ; [KEEP 32-BIT INS]
     625                            ; CALL OCCURS {UARTCharPut }     ; [] |70| 
     626                    ;* --------------------------------------------------------------------------*
     627                    ;*   BEGIN LOOP ||$C$L2||
     628                    ;* --------------------------------------------------------------------------*
     629 00000014           ||$C$L2||:    
     630                            .dwpsn  file "../esp8266.c",line 68,column 2,is_stmt,isa 1
     631 00000014 9800              LDR       A1, [SP, #0]          ; [DPU_3_PIPE] |68|  ; [ORIG 16-BIT INS]
     632 00000016 7800              LDRB      A1, [A1, #0]          ; [DPU_3_PIPE] |68|  ; [ORIG 16-BIT INS]
     633 00000018 2800              CMP       A1, #0                ; [DPU_3_PIPE] |68|  ; [ORIG 16-BIT INS]
     634 0000001a D1F4              BNE       ||$C$L1||             ; [DPU_3_PIPE] |68|  ; [ORIG 16-BIT INS]
     635                            ; BRANCHCC OCCURS {||$C$L1||}    ; [] |68| 
     636                    ;* --------------------------------------------------------------------------*
     637                            .dwpsn  file "../esp8266.c",line 72,column 2,is_stmt,isa 1
     638                    ;----------------------------------------------------------------------
     639                    ;  72 | UARTCharPut(UART5_BASE, 13);                                           
     640                    ;----------------------------------------------------------------------
     641 0000001c 4804              LDR       A1, $C$CON1           ; [DPU_3_PIPE] |72|  ; [ORIG 16-BIT INS]
     642 0000001e 210D              MOVS      A2, #13               ; [DPU_3_PIPE] |72|  ; [ORIG 16-BIT INS]
     643                    $C$DW$80        .dwtag  DW_TAG_TI_branch
     644                            .dwattr $C$DW$80, DW_AT_low_pc(0x00)
     645                            .dwattr $C$DW$80, DW_AT_name("UARTCharPut")
     646                            .dwattr $C$DW$80, DW_AT_TI_call
     647 00000020 FFFEF7FF!         BL        UARTCharPut           ; [DPU_3_PIPE] |72|  ; [KEEP 32-BIT INS]
     648                            ; CALL OCCURS {UARTCharPut }     ; [] |72| 
     649                            .dwpsn  file "../esp8266.c",line 73,column 2,is_stmt,isa 1
     650                    ;----------------------------------------------------------------------
     651                    ;  73 | UARTCharPut(UART5_BASE, 10);                                           
     652                    ;----------------------------------------------------------------------
     653 00000024 4802              LDR       A1, $C$CON1           ; [DPU_3_PIPE] |73|  ; [ORIG 16-BIT INS]
     654 00000026 210A              MOVS      A2, #10               ; [DPU_3_PIPE] |73|  ; [ORIG 16-BIT INS]
     655                    $C$DW$81        .dwtag  DW_TAG_TI_branch
     656                            .dwattr $C$DW$81, DW_AT_low_pc(0x00)
     657                            .dwattr $C$DW$81, DW_AT_name("UARTCharPut")
     658                            .dwattr $C$DW$81, DW_AT_TI_call
     659 00000028 FFFEF7FF!         BL        UARTCharPut           ; [DPU_3_PIPE] |73|  ; [KEEP 32-BIT INS]
     660                            ; CALL OCCURS {UARTCharPut }     ; [] |73| 
TI ARM Assembler PC v5.2.6 Thu Apr 28 12:50:03 2016

Tools Copyright (c) 1996-2015 Texas Instruments Incorporated
esp8266.asm                                                          PAGE   13

     661                            .dwpsn  file "../esp8266.c",line 74,column 1,is_stmt,isa 1
     662                    $C$DW$82        .dwtag  DW_TAG_TI_branch
     663                            .dwattr $C$DW$82, DW_AT_low_pc(0x00)
     664                            .dwattr $C$DW$82, DW_AT_TI_return
     665 0000002c BD08              POP       {A4, PC}              ; [DPU_3_PIPE]  ; [ORIG 16-BIT INS]
     666                            .dwcfi  cfa_offset, 0
     667                            ; BRANCH OCCURS                  ; [] 
     668                            .dwattr $C$DW$76, DW_AT_TI_end_file("../esp8266.c")
     669                            .dwattr $C$DW$76, DW_AT_TI_end_line(0x4a)
     670                            .dwattr $C$DW$76, DW_AT_TI_end_column(0x01)
     671                            .dwendentry
     672                            .dwendtag $C$DW$76
     673                    
     674 00000000                   .sect   ".text:esp8266_send"
     675                            .clink
     676                            .thumbfunc esp8266_send
     677 00000000                   .thumb
     678                            .global esp8266_send
     679                    
     680                    $C$DW$83        .dwtag  DW_TAG_subprogram, DW_AT_name("esp8266_send")
     681                            .dwattr $C$DW$83, DW_AT_low_pc(esp8266_send)
     682                            .dwattr $C$DW$83, DW_AT_high_pc(0x00)
     683                            .dwattr $C$DW$83, DW_AT_TI_symbol_name("esp8266_send")
     684                            .dwattr $C$DW$83, DW_AT_external
     685                            .dwattr $C$DW$83, DW_AT_type(*$C$DW$T$30)
     686                            .dwattr $C$DW$83, DW_AT_TI_begin_file("../esp8266.c")
     687                            .dwattr $C$DW$83, DW_AT_TI_begin_line(0x4c)
     688                            .dwattr $C$DW$83, DW_AT_TI_begin_column(0x09)
     689                            .dwattr $C$DW$83, DW_AT_decl_file("../esp8266.c")
     690                            .dwattr $C$DW$83, DW_AT_decl_line(0x4c)
     691                            .dwattr $C$DW$83, DW_AT_decl_column(0x09)
     692                            .dwattr $C$DW$83, DW_AT_TI_max_frame_size(0x50)
     693                            .dwpsn  file "../esp8266.c",line 77,column 1,is_stmt,address esp8266_send,isa 1
     694                    
     695                            .dwfde $C$DW$CIE, esp8266_send
     696                    $C$DW$84        .dwtag  DW_TAG_variable, DW_AT_name("dummy")
     697                            .dwattr $C$DW$84, DW_AT_TI_symbol_name("dummy$1")
     698                            .dwattr $C$DW$84, DW_AT_type(*$C$DW$T$6)
     699                            .dwattr $C$DW$84, DW_AT_location[DW_OP_addr dummy$1]
     700                    $C$DW$85        .dwtag  DW_TAG_formal_parameter, DW_AT_name("str")
     701                            .dwattr $C$DW$85, DW_AT_TI_symbol_name("str")
     702                            .dwattr $C$DW$85, DW_AT_type(*$C$DW$T$42)
     703                            .dwattr $C$DW$85, DW_AT_location[DW_OP_reg0]
     704                    $C$DW$86        .dwtag  DW_TAG_formal_parameter, DW_AT_name("confirmation")
     705                            .dwattr $C$DW$86, DW_AT_TI_symbol_name("confirmation")
     706                            .dwattr $C$DW$86, DW_AT_type(*$C$DW$T$42)
     707                            .dwattr $C$DW$86, DW_AT_location[DW_OP_reg1]
     708                    ;----------------------------------------------------------------------
     709                    ;  76 | uint8_t esp8266_send(char* str, char* confirmation)                    
     710                    ;----------------------------------------------------------------------
     711                    
     712                    ;*****************************************************************************
     713                    ;* FUNCTION NAME: esp8266_send                                               *
     714                    ;*                                                                           *
     715                    ;*   Regs Modified     : A1,A2,A3,A4,V9,SP,LR,SR,D0,D0_hi,D1,D1_hi,D2,D2_hi, *
TI ARM Assembler PC v5.2.6 Thu Apr 28 12:50:03 2016

Tools Copyright (c) 1996-2015 Texas Instruments Incorporated
esp8266.asm                                                          PAGE   14

     716                    ;*                           D3,D3_hi,D4,D4_hi,D5,D5_hi,D6,D6_hi,D7,D7_hi,   *
     717                    ;*                           FPEXC,FPSCR                                     *
     718                    ;*   Regs Used         : A1,A2,A3,A4,V9,SP,LR,SR,D0,D0_hi,D1,D1_hi,D2,D2_hi, *
     719                    ;*                           D3,D3_hi,D4,D4_hi,D5,D5_hi,D6,D6_hi,D7,D7_hi,   *
     720                    ;*                           FPEXC,FPSCR                                     *
     721                    ;*   Local Frame Size  : 0 Args + 76 Auto + 4 Save = 80 byte                 *
     722                    ;*****************************************************************************
     723 00000000           esp8266_send:
     724                    ;* --------------------------------------------------------------------------*
     725                            .dwcfi  cfa_offset, 0
     726 00000000 B500              PUSH      {LR}                  ; [DPU_3_PIPE]  ; [ORIG 16-BIT INS]
     727                            .dwcfi  cfa_offset, 4
     728                            .dwcfi  save_reg_to_mem, 14, -4
     729 00000002 0D4CF1AD          SUB       SP, SP, #76           ; [DPU_3_PIPE]  ; [KEEP 32-BIT INS]
     730                            .dwcfi  cfa_offset, 80
     731                    $C$DW$87        .dwtag  DW_TAG_variable, DW_AT_name("str")
     732                            .dwattr $C$DW$87, DW_AT_TI_symbol_name("str")
     733                            .dwattr $C$DW$87, DW_AT_type(*$C$DW$T$42)
     734                            .dwattr $C$DW$87, DW_AT_location[DW_OP_breg13 0]
     735                    $C$DW$88        .dwtag  DW_TAG_variable, DW_AT_name("confirmation")
     736                            .dwattr $C$DW$88, DW_AT_TI_symbol_name("confirmation")
     737                            .dwattr $C$DW$88, DW_AT_type(*$C$DW$T$42)
     738                            .dwattr $C$DW$88, DW_AT_location[DW_OP_breg13 4]
     739                    $C$DW$89        .dwtag  DW_TAG_variable, DW_AT_name("timeout")
     740                            .dwattr $C$DW$89, DW_AT_TI_symbol_name("timeout")
     741                            .dwattr $C$DW$89, DW_AT_type(*$C$DW$T$29)
     742                            .dwattr $C$DW$89, DW_AT_location[DW_OP_breg13 8]
     743                    $C$DW$90        .dwtag  DW_TAG_variable, DW_AT_name("result")
     744                            .dwattr $C$DW$90, DW_AT_TI_symbol_name("result")
     745                            .dwattr $C$DW$90, DW_AT_type(*$C$DW$T$30)
     746                            .dwattr $C$DW$90, DW_AT_location[DW_OP_breg13 12]
     747                    $C$DW$91        .dwtag  DW_TAG_variable, DW_AT_name("uart_data")
     748                            .dwattr $C$DW$91, DW_AT_TI_symbol_name("uart_data")
     749                            .dwattr $C$DW$91, DW_AT_type(*$C$DW$T$135)
     750                            .dwattr $C$DW$91, DW_AT_location[DW_OP_breg13 13]
     751                    $C$DW$92        .dwtag  DW_TAG_variable, DW_AT_name("uart_data_counter")
     752                            .dwattr $C$DW$92, DW_AT_TI_symbol_name("uart_data_counter")
     753                            .dwattr $C$DW$92, DW_AT_type(*$C$DW$T$6)
     754                            .dwattr $C$DW$92, DW_AT_location[DW_OP_breg13 73]
     755 00000006 9101              STR       A2, [SP, #4]          ; [DPU_3_PIPE] |77|  ; [ORIG 16-BIT INS]
     756 00000008 9000              STR       A1, [SP, #0]          ; [DPU_3_PIPE] |77|  ; [ORIG 16-BIT INS]
     757                            .dwpsn  file "../esp8266.c",line 78,column 19,is_stmt,isa 1
     758                    ;----------------------------------------------------------------------
     759                    ;  78 | uint32_t timeout = 0;                                                  
     760                    ;----------------------------------------------------------------------
     761 0000000a 2000              MOVS      A1, #0                ; [DPU_3_PIPE] |78|  ; [ORIG 16-BIT INS]
     762 0000000c 9002              STR       A1, [SP, #8]          ; [DPU_3_PIPE] |78|  ; [ORIG 16-BIT INS]
     763                            .dwpsn  file "../esp8266.c",line 79,column 17,is_stmt,isa 1
     764                    ;----------------------------------------------------------------------
     765                    ;  79 | uint8_t result = 0;                                                    
     766                    ;  80 | char uart_data[UART5_BUFFER_SIZE], uart_data_counter;                  
     767                    ;  81 | static char dummy;                                                     
     768                    ;  82 | //memset ((void*)uart_data,'\0',255);                                  
     769                    ;----------------------------------------------------------------------
     770 0000000e 2000              MOVS      A1, #0                ; [DPU_3_PIPE] |79|  ; [ORIG 16-BIT INS]
TI ARM Assembler PC v5.2.6 Thu Apr 28 12:50:03 2016

Tools Copyright (c) 1996-2015 Texas Instruments Incorporated
esp8266.asm                                                          PAGE   15

     771 00000010 000CF88D          STRB      A1, [SP, #12]         ; [DPU_3_PIPE] |79|  ; [KEEP 32-BIT INS]
     772                            .dwpsn  file "../esp8266.c",line 83,column 6,is_stmt,isa 1
     773                    ;----------------------------------------------------------------------
     774                    ;  83 | for(uart_data_counter = 0; uart_data_counter < UART5_BUFFER_SIZE; uart_
     775                    ;     | data_counter++)                                                        
     776                    ;----------------------------------------------------------------------
     777 00000014 2000              MOVS      A1, #0                ; [DPU_3_PIPE] |83|  ; [ORIG 16-BIT INS]
     778 00000016 0049F88D          STRB      A1, [SP, #73]         ; [DPU_3_PIPE] |83|  ; [KEEP 32-BIT INS]
     779                            .dwpsn  file "../esp8266.c",line 83,column 29,is_stmt,isa 1
     780 0000001a 0049F89D          LDRB      A1, [SP, #73]         ; [DPU_3_PIPE] |83|  ; [KEEP 32-BIT INS]
     781 0000001e 283C              CMP       A1, #60               ; [DPU_3_PIPE] |83|  ; [ORIG 16-BIT INS]
     782 00000020 DA13              BGE       ||$C$L5||             ; [DPU_3_PIPE] |83|  ; [ORIG 16-BIT INS]
     783                            ; BRANCHCC OCCURS {||$C$L5||}    ; [] |83| 
     784                    ;* --------------------------------------------------------------------------*
     785                    ;*   BEGIN LOOP ||$C$L3||
     786                    ;*
     787                    ;*   Loop source line                : 83
     788                    ;*   Loop closing brace source line  : 86
     789                    ;*   Known Minimum Trip Count        : 1
     790                    ;*   Known Maximum Trip Count        : 4294967295
     791                    ;*   Known Max Trip Count Factor     : 1
     792                    ;* --------------------------------------------------------------------------*
     793 00000022           ||$C$L3||:    
     794                            .dwpsn  file "../esp8266.c",line 85,column 3,is_stmt,isa 1
     795                    ;----------------------------------------------------------------------
     796                    ;  85 | uart_data[uart_data_counter] = 0;                                      
     797                    ;----------------------------------------------------------------------
     798 00000022 0049F89D          LDRB      A1, [SP, #73]         ; [DPU_3_PIPE] |85|  ; [KEEP 32-BIT INS]
     799 00000026 2100              MOVS      A2, #0                ; [DPU_3_PIPE] |85|  ; [ORIG 16-BIT INS]
     800 00000028 4468              ADD       A1, A1, SP            ; [DPU_3_PIPE] |85|  ; [ORIG 16-BIT INS]
     801 0000002a 7341              STRB      A2, [A1, #13]         ; [DPU_3_PIPE] |85|  ; [ORIG 16-BIT INS]
     802                            .dwpsn  file "../esp8266.c",line 83,column 68,is_stmt,isa 1
     803 0000002c 0049F89D          LDRB      A1, [SP, #73]         ; [DPU_3_PIPE] |83|  ; [KEEP 32-BIT INS]
     804 00000030 1C40              ADDS      A1, A1, #1            ; [DPU_3_PIPE] |83|  ; [ORIG 16-BIT INS]
     805 00000032 0049F88D          STRB      A1, [SP, #73]         ; [DPU_3_PIPE] |83|  ; [KEEP 32-BIT INS]
     806                            .dwpsn  file "../esp8266.c",line 83,column 29,is_stmt,isa 1
     807 00000036 0049F89D          LDRB      A1, [SP, #73]         ; [DPU_3_PIPE] |83|  ; [KEEP 32-BIT INS]
     808 0000003a 283C              CMP       A1, #60               ; [DPU_3_PIPE] |83|  ; [ORIG 16-BIT INS]
     809 0000003c DBF1              BLT       ||$C$L3||             ; [DPU_3_PIPE] |83|  ; [ORIG 16-BIT INS]
     810                            ; BRANCHCC OCCURS {||$C$L3||}    ; [] |83| 
     811                    ;* --------------------------------------------------------------------------*
     812                            .dwpsn  file "../esp8266.c",line 87,column 2,is_stmt,isa 1
     813                    ;----------------------------------------------------------------------
     814                    ;  87 | while(UARTCharsAvail(UART5_BASE))                                      
     815                    ;----------------------------------------------------------------------
     816 0000003e E004              B         ||$C$L5||             ; [DPU_3_PIPE] |87|  ; [ORIG 16-BIT INS]
     817                            ; BRANCH OCCURS {||$C$L5||}      ; [] |87| 
     818                    ;* --------------------------------------------------------------------------*
     819 00000040           ||$C$L4||:    
     820                            .dwpsn  file "../esp8266.c",line 89,column 3,is_stmt,isa 1
     821                    ;----------------------------------------------------------------------
     822                    ;  89 | dummy = UARTCharGet(UART5_BASE);                                       
     823                    ;----------------------------------------------------------------------
     824 00000040 482A              LDR       A1, $C$CON3           ; [DPU_3_PIPE] |89|  ; [ORIG 16-BIT INS]
     825                    $C$DW$93        .dwtag  DW_TAG_TI_branch
TI ARM Assembler PC v5.2.6 Thu Apr 28 12:50:03 2016

Tools Copyright (c) 1996-2015 Texas Instruments Incorporated
esp8266.asm                                                          PAGE   16

     826                            .dwattr $C$DW$93, DW_AT_low_pc(0x00)
     827                            .dwattr $C$DW$93, DW_AT_name("UARTCharGet")
     828                            .dwattr $C$DW$93, DW_AT_TI_call
     829 00000042 FFFEF7FF!         BL        UARTCharGet           ; [DPU_3_PIPE] |89|  ; [KEEP 32-BIT INS]
     830                            ; CALL OCCURS {UARTCharGet }     ; [] |89| 
     831 00000046 4928              LDR       A2, $C$CON2           ; [DPU_3_PIPE] |89|  ; [ORIG 16-BIT INS]
     832 00000048 7008              STRB      A1, [A2, #0]          ; [DPU_3_PIPE] |89|  ; [ORIG 16-BIT INS]
     833                    ;* --------------------------------------------------------------------------*
     834                    ;*   BEGIN LOOP ||$C$L5||
     835                    ;* --------------------------------------------------------------------------*
     836 0000004a           ||$C$L5||:    
     837                            .dwpsn  file "../esp8266.c",line 87,column 2,is_stmt,isa 1
     838 0000004a 4828              LDR       A1, $C$CON3           ; [DPU_3_PIPE] |87|  ; [ORIG 16-BIT INS]
     839                    $C$DW$94        .dwtag  DW_TAG_TI_branch
     840                            .dwattr $C$DW$94, DW_AT_low_pc(0x00)
     841                            .dwattr $C$DW$94, DW_AT_name("UARTCharsAvail")
     842                            .dwattr $C$DW$94, DW_AT_TI_call
     843 0000004c FFFEF7FF!         BL        UARTCharsAvail        ; [DPU_3_PIPE] |87|  ; [KEEP 32-BIT INS]
     844                            ; CALL OCCURS {UARTCharsAvail }  ; [] |87| 
     845 00000050 2800              CMP       A1, #0                ; [DPU_3_PIPE] |87|  ; [ORIG 16-BIT INS]
     846 00000052 D1F5              BNE       ||$C$L4||             ; [DPU_3_PIPE] |87|  ; [ORIG 16-BIT INS]
     847                            ; BRANCHCC OCCURS {||$C$L4||}    ; [] |87| 
     848                    ;* --------------------------------------------------------------------------*
     849                            .dwpsn  file "../esp8266.c",line 91,column 2,is_stmt,isa 1
     850                    ;----------------------------------------------------------------------
     851                    ;  91 | uart_data_counter = 0;                                                 
     852                    ;----------------------------------------------------------------------
     853 00000054 2000              MOVS      A1, #0                ; [DPU_3_PIPE] |91|  ; [ORIG 16-BIT INS]
     854 00000056 0049F88D          STRB      A1, [SP, #73]         ; [DPU_3_PIPE] |91|  ; [KEEP 32-BIT INS]
     855                            .dwpsn  file "../esp8266.c",line 92,column 2,is_stmt,isa 1
     856                    ;----------------------------------------------------------------------
     857                    ;  92 | uart_send(str);                                                        
     858                    ;----------------------------------------------------------------------
     859 0000005a 9800              LDR       A1, [SP, #0]          ; [DPU_3_PIPE] |92|  ; [ORIG 16-BIT INS]
     860                    $C$DW$95        .dwtag  DW_TAG_TI_branch
     861                            .dwattr $C$DW$95, DW_AT_low_pc(0x00)
     862                            .dwattr $C$DW$95, DW_AT_name("uart_send")
     863                            .dwattr $C$DW$95, DW_AT_TI_call
     864 0000005c FFFEF7FF!         BL        uart_send             ; [DPU_3_PIPE] |92|  ; [KEEP 32-BIT INS]
     865                            ; CALL OCCURS {uart_send }       ; [] |92| 
     866                            .dwpsn  file "../esp8266.c",line 94,column 2,is_stmt,isa 1
     867                    ;----------------------------------------------------------------------
     868                    ;  94 | while(!result)                                                         
     869                    ;----------------------------------------------------------------------
     870 00000060 E03A              B         ||$C$L10||            ; [DPU_3_PIPE] |94|  ; [ORIG 16-BIT INS]
     871                            ; BRANCH OCCURS {||$C$L10||}     ; [] |94| 
     872                    ;* --------------------------------------------------------------------------*
     873 00000062           ||$C$L6||:    
     874                            .dwpsn  file "../esp8266.c",line 96,column 3,is_stmt,isa 1
     875                    ;----------------------------------------------------------------------
     876                    ;  96 | dummy = UARTCharGetNonBlocking(UART5_BASE);                            
     877                    ;----------------------------------------------------------------------
     878 00000062 4822              LDR       A1, $C$CON3           ; [DPU_3_PIPE] |96|  ; [ORIG 16-BIT INS]
     879                    $C$DW$96        .dwtag  DW_TAG_TI_branch
     880                            .dwattr $C$DW$96, DW_AT_low_pc(0x00)
TI ARM Assembler PC v5.2.6 Thu Apr 28 12:50:03 2016

Tools Copyright (c) 1996-2015 Texas Instruments Incorporated
esp8266.asm                                                          PAGE   17

     881                            .dwattr $C$DW$96, DW_AT_name("UARTCharGetNonBlocking")
     882                            .dwattr $C$DW$96, DW_AT_TI_call
     883 00000064 FFFEF7FF!         BL        UARTCharGetNonBlocking ; [DPU_3_PIPE] |96|  ; [KEEP 32-BIT INS]
     884                            ; CALL OCCURS {UARTCharGetNonBlocking }  ; [] |96| 
     885 00000068 491F              LDR       A2, $C$CON2           ; [DPU_3_PIPE] |96|  ; [ORIG 16-BIT INS]
     886 0000006a 7008              STRB      A1, [A2, #0]          ; [DPU_3_PIPE] |96|  ; [ORIG 16-BIT INS]
     887                            .dwpsn  file "../esp8266.c",line 97,column 3,is_stmt,isa 1
     888                    ;----------------------------------------------------------------------
     889                    ;  97 | if(dummy == 10)                                                        
     890                    ;  99 |         //LOGprintf("ESP:%s\n", uart_data);                            
     891                    ;----------------------------------------------------------------------
     892 0000006c 481E              LDR       A1, $C$CON2           ; [DPU_3_PIPE] |97|  ; [ORIG 16-BIT INS]
     893 0000006e 7800              LDRB      A1, [A1, #0]          ; [DPU_3_PIPE] |97|  ; [ORIG 16-BIT INS]
     894 00000070 280A              CMP       A1, #10               ; [DPU_3_PIPE] |97|  ; [ORIG 16-BIT INS]
     895 00000072 D108              BNE       ||$C$L7||             ; [DPU_3_PIPE] |97|  ; [ORIG 16-BIT INS]
     896                            ; BRANCHCC OCCURS {||$C$L7||}    ; [] |97| 
     897                    ;* --------------------------------------------------------------------------*
     898                            .dwpsn  file "../esp8266.c",line 100,column 4,is_stmt,isa 1
     899                    ;----------------------------------------------------------------------
     900                    ; 100 | memset(uart_data, 0, UART5_BUFFER_SIZE);                               
     901                    ;----------------------------------------------------------------------
     902 00000074 000DF10D          ADD       A1, SP, #13           ; [DPU_3_PIPE] |100|  ; [KEEP 32-BIT INS]
     903 00000078 2100              MOVS      A2, #0                ; [DPU_3_PIPE] |100|  ; [ORIG 16-BIT INS]
     904 0000007a 223C              MOVS      A3, #60               ; [DPU_3_PIPE] |100|  ; [ORIG 16-BIT INS]
     905                    $C$DW$97        .dwtag  DW_TAG_TI_branch
     906                            .dwattr $C$DW$97, DW_AT_low_pc(0x00)
     907                            .dwattr $C$DW$97, DW_AT_name("memset")
     908                            .dwattr $C$DW$97, DW_AT_TI_call
     909 0000007c FFFEF7FF!         BL        memset                ; [DPU_3_PIPE] |100|  ; [KEEP 32-BIT INS]
     910                            ; CALL OCCURS {memset }          ; [] |100| 
     911                            .dwpsn  file "../esp8266.c",line 101,column 4,is_stmt,isa 1
     912                    ;----------------------------------------------------------------------
     913                    ; 101 | uart_data_counter = 0;                                                 
     914                    ;----------------------------------------------------------------------
     915 00000080 2000              MOVS      A1, #0                ; [DPU_3_PIPE] |101|  ; [ORIG 16-BIT INS]
     916 00000082 0049F88D          STRB      A1, [SP, #73]         ; [DPU_3_PIPE] |101|  ; [KEEP 32-BIT INS]
     917                    ;* --------------------------------------------------------------------------*
     918 00000086           ||$C$L7||:    
     919                            .dwpsn  file "../esp8266.c",line 103,column 3,is_stmt,isa 1
     920                    ;----------------------------------------------------------------------
     921                    ; 103 | if((dummy>=0x20) && (dummy <= '~'))                                    
     922                    ;----------------------------------------------------------------------
     923 00000086 4818              LDR       A1, $C$CON2           ; [DPU_3_PIPE] |103|  ; [ORIG 16-BIT INS]
     924 00000088 7800              LDRB      A1, [A1, #0]          ; [DPU_3_PIPE] |103|  ; [ORIG 16-BIT INS]
     925 0000008a 2820              CMP       A1, #32               ; [DPU_3_PIPE] |103|  ; [ORIG 16-BIT INS]
     926 0000008c DB1B              BLT       ||$C$L9||             ; [DPU_3_PIPE] |103|  ; [ORIG 16-BIT INS]
     927                            ; BRANCHCC OCCURS {||$C$L9||}    ; [] |103| 
     928                    ;* --------------------------------------------------------------------------*
     929 0000008e 4816              LDR       A1, $C$CON2           ; [DPU_3_PIPE] |103|  ; [ORIG 16-BIT INS]
     930 00000090 7800              LDRB      A1, [A1, #0]          ; [DPU_3_PIPE] |103|  ; [ORIG 16-BIT INS]
     931 00000092 287E              CMP       A1, #126              ; [DPU_3_PIPE] |103|  ; [ORIG 16-BIT INS]
     932 00000094 DC17              BGT       ||$C$L9||             ; [DPU_3_PIPE] |103|  ; [ORIG 16-BIT INS]
     933                            ; BRANCHCC OCCURS {||$C$L9||}    ; [] |103| 
     934                    ;* --------------------------------------------------------------------------*
     935                            .dwpsn  file "../esp8266.c",line 105,column 4,is_stmt,isa 1
TI ARM Assembler PC v5.2.6 Thu Apr 28 12:50:03 2016

Tools Copyright (c) 1996-2015 Texas Instruments Incorporated
esp8266.asm                                                          PAGE   18

     936                    ;----------------------------------------------------------------------
     937                    ; 105 | uart_data[uart_data_counter++] = dummy;                                
     938                    ;----------------------------------------------------------------------
     939 00000096 0049F89D          LDRB      A1, [SP, #73]         ; [DPU_3_PIPE] |105|  ; [KEEP 32-BIT INS]
     940 0000009a 4913              LDR       A2, $C$CON2           ; [DPU_3_PIPE] |105|  ; [ORIG 16-BIT INS]
     941 0000009c 1C42              ADDS      A3, A1, #1            ; [DPU_3_PIPE] |105|  ; [ORIG 16-BIT INS]
     942 0000009e 7809              LDRB      A2, [A2, #0]          ; [DPU_3_PIPE] |105|  ; [ORIG 16-BIT INS]
     943 000000a0 2049F88D          STRB      A3, [SP, #73]         ; [DPU_3_PIPE] |105|  ; [KEEP 32-BIT INS]
     944 000000a4 4468              ADD       A1, A1, SP            ; [DPU_3_PIPE] |105|  ; [ORIG 16-BIT INS]
     945 000000a6 7341              STRB      A2, [A1, #13]         ; [DPU_3_PIPE] |105|  ; [ORIG 16-BIT INS]
     946                            .dwpsn  file "../esp8266.c",line 106,column 4,is_stmt,isa 1
     947                    ;----------------------------------------------------------------------
     948                    ; 106 | if(uart_data_counter == UART5_BUFFER_SIZE)                             
     949                    ;----------------------------------------------------------------------
     950 000000a8 0049F89D          LDRB      A1, [SP, #73]         ; [DPU_3_PIPE] |106|  ; [KEEP 32-BIT INS]
     951 000000ac 283C              CMP       A1, #60               ; [DPU_3_PIPE] |106|  ; [ORIG 16-BIT INS]
     952 000000ae D102              BNE       ||$C$L8||             ; [DPU_3_PIPE] |106|  ; [ORIG 16-BIT INS]
     953                            ; BRANCHCC OCCURS {||$C$L8||}    ; [] |106| 
     954                    ;* --------------------------------------------------------------------------*
     955                            .dwpsn  file "../esp8266.c",line 107,column 7,is_stmt,isa 1
     956                    ;----------------------------------------------------------------------
     957                    ; 107 | uart_data_counter = 0;                                                 
     958                    ;----------------------------------------------------------------------
     959 000000b0 2000              MOVS      A1, #0                ; [DPU_3_PIPE] |107|  ; [ORIG 16-BIT INS]
     960 000000b2 0049F88D          STRB      A1, [SP, #73]         ; [DPU_3_PIPE] |107|  ; [KEEP 32-BIT INS]
     961                    ;* --------------------------------------------------------------------------*
     962 000000b6           ||$C$L8||:    
     963                            .dwpsn  file "../esp8266.c",line 108,column 4,is_stmt,isa 1
     964                    ;----------------------------------------------------------------------
     965                    ; 108 | if(strstr((const char*)uart_data, confirmation))                       
     966                    ; 110 |         //LOGprintf("Data:%s\n", uart_data);                           
     967                    ;----------------------------------------------------------------------
     968 000000b6 9901              LDR       A2, [SP, #4]          ; [DPU_3_PIPE] |108|  ; [ORIG 16-BIT INS]
     969 000000b8 000DF10D          ADD       A1, SP, #13           ; [DPU_3_PIPE] |108|  ; [KEEP 32-BIT INS]
     970                    $C$DW$98        .dwtag  DW_TAG_TI_branch
     971                            .dwattr $C$DW$98, DW_AT_low_pc(0x00)
     972                            .dwattr $C$DW$98, DW_AT_name("strstr")
     973                            .dwattr $C$DW$98, DW_AT_TI_call
     974 000000bc FFFEF7FF!         BL        strstr                ; [DPU_3_PIPE] |108|  ; [KEEP 32-BIT INS]
     975                            ; CALL OCCURS {strstr }          ; [] |108| 
     976 000000c0 B108              CBZ       A1, ||$C$L9||         ; []  ; [ORIG 16-BIT INS]
     977                            ; BRANCHCC OCCURS {||$C$L9||}    ; [] |108| 
     978                    ;* --------------------------------------------------------------------------*
     979                            .dwpsn  file "../esp8266.c",line 111,column 5,is_stmt,isa 1
     980                    ;----------------------------------------------------------------------
     981                    ; 111 | return 1;                                                              
     982                    ;----------------------------------------------------------------------
     983 000000c2 2001              MOVS      A1, #1                ; [DPU_3_PIPE] |111|  ; [ORIG 16-BIT INS]
     984 000000c4 E00E              B         ||$C$L11||            ; [DPU_3_PIPE] |111|  ; [ORIG 16-BIT INS]
     985                            ; BRANCH OCCURS {||$C$L11||}     ; [] |111| 
     986                    ;* --------------------------------------------------------------------------*
     987 000000c6           ||$C$L9||:    
     988                            .dwpsn  file "../esp8266.c",line 115,column 3,is_stmt,isa 1
     989                    ;----------------------------------------------------------------------
     990                    ; 115 | timeout++;                                                             
TI ARM Assembler PC v5.2.6 Thu Apr 28 12:50:03 2016

Tools Copyright (c) 1996-2015 Texas Instruments Incorporated
esp8266.asm                                                          PAGE   19

     991                    ;----------------------------------------------------------------------
     992 000000c6 9802              LDR       A1, [SP, #8]          ; [DPU_3_PIPE] |115|  ; [ORIG 16-BIT INS]
     993 000000c8 1C40              ADDS      A1, A1, #1            ; [DPU_3_PIPE] |115|  ; [ORIG 16-BIT INS]
     994 000000ca 9002              STR       A1, [SP, #8]          ; [DPU_3_PIPE] |115|  ; [ORIG 16-BIT INS]
     995                            .dwpsn  file "../esp8266.c",line 116,column 3,is_stmt,isa 1
     996                    ;----------------------------------------------------------------------
     997                    ; 116 | if(timeout>10000000)                                                   
     998                    ; 118 |         //LOGprintf("Timeout:%s\n", uart_data);                        
     999                    ;----------------------------------------------------------------------
    1000 000000cc 4908              LDR       A2, $C$CON4           ; [DPU_3_PIPE] |116|  ; [ORIG 16-BIT INS]
    1001 000000ce 9802              LDR       A1, [SP, #8]          ; [DPU_3_PIPE] |116|  ; [ORIG 16-BIT INS]
    1002 000000d0 4281              CMP       A2, A1                ; [DPU_3_PIPE] |116|  ; [ORIG 16-BIT INS]
    1003 000000d2 D201              BCS       ||$C$L10||            ; [DPU_3_PIPE] |116|  ; [ORIG 16-BIT INS]
    1004                            ; BRANCHCC OCCURS {||$C$L10||}   ; [] |116| 
    1005                    ;* --------------------------------------------------------------------------*
    1006                            .dwpsn  file "../esp8266.c",line 119,column 4,is_stmt,isa 1
    1007                    ;----------------------------------------------------------------------
    1008                    ; 119 | return 0;                                                              
    1009                    ;----------------------------------------------------------------------
    1010 000000d4 2000              MOVS      A1, #0                ; [DPU_3_PIPE] |119|  ; [ORIG 16-BIT INS]
    1011 000000d6 E005              B         ||$C$L11||            ; [DPU_3_PIPE] |119|  ; [ORIG 16-BIT INS]
    1012                            ; BRANCH OCCURS {||$C$L11||}     ; [] |119| 
    1013                    ;* --------------------------------------------------------------------------*
    1014                    ;*   BEGIN LOOP ||$C$L10||
    1015                    ;* --------------------------------------------------------------------------*
    1016 000000d8           ||$C$L10||:    
    1017                            .dwpsn  file "../esp8266.c",line 94,column 8,is_stmt,isa 1
    1018 000000d8 000CF89D          LDRB      A1, [SP, #12]         ; [DPU_3_PIPE] |94|  ; [KEEP 32-BIT INS]
    1019 000000dc 2800              CMP       A1, #0                ; [DPU_3_PIPE] |94|  ; [ORIG 16-BIT INS]
    1020 000000de D0C0              BEQ       ||$C$L6||             ; [DPU_3_PIPE] |94|  ; [ORIG 16-BIT INS]
    1021                            ; BRANCHCC OCCURS {||$C$L6||}    ; [] |94| 
    1022                    ;* --------------------------------------------------------------------------*
    1023                            .dwpsn  file "../esp8266.c",line 122,column 2,is_stmt,isa 1
    1024                    ;----------------------------------------------------------------------
    1025                    ; 122 | return result;                                                         
    1026                    ;----------------------------------------------------------------------
    1027 000000e0 000CF89D          LDRB      A1, [SP, #12]         ; [DPU_3_PIPE] |122|  ; [KEEP 32-BIT INS]
    1028                    ;* --------------------------------------------------------------------------*
    1029 000000e4           ||$C$L11||:    
    1030                            .dwpsn  file "../esp8266.c",line 123,column 1,is_stmt,isa 1
    1031 000000e4 B013              ADD       SP, SP, #76           ; [DPU_3_PIPE]  ; [ORIG 16-BIT INS]
    1032                            .dwcfi  cfa_offset, 4
    1033                    $C$DW$99        .dwtag  DW_TAG_TI_branch
    1034                            .dwattr $C$DW$99, DW_AT_low_pc(0x00)
    1035                            .dwattr $C$DW$99, DW_AT_TI_return
    1036 000000e6 BD00              POP       {PC}                  ; [DPU_3_PIPE]  ; [ORIG 16-BIT INS]
    1037                            .dwcfi  cfa_offset, 0
    1038                            ; BRANCH OCCURS                  ; [] 
    1039                            .dwattr $C$DW$83, DW_AT_TI_end_file("../esp8266.c")
    1040                            .dwattr $C$DW$83, DW_AT_TI_end_line(0x7b)
    1041                            .dwattr $C$DW$83, DW_AT_TI_end_column(0x01)
    1042                            .dwendentry
    1043                            .dwendtag $C$DW$83
    1044                    
    1045 00000000                   .sect   ".text:esp8266_sendAndReturnResponse"
TI ARM Assembler PC v5.2.6 Thu Apr 28 12:50:03 2016

Tools Copyright (c) 1996-2015 Texas Instruments Incorporated
esp8266.asm                                                          PAGE   20

    1046                            .clink
    1047                            .thumbfunc esp8266_sendAndReturnResponse
    1048 00000000                   .thumb
    1049                            .global esp8266_sendAndReturnResponse
    1050                    
    1051                    $C$DW$100       .dwtag  DW_TAG_subprogram, DW_AT_name("esp8266_sendAndReturnResponse")
    1052                            .dwattr $C$DW$100, DW_AT_low_pc(esp8266_sendAndReturnResponse)
    1053                            .dwattr $C$DW$100, DW_AT_high_pc(0x00)
    1054                            .dwattr $C$DW$100, DW_AT_TI_symbol_name("esp8266_sendAndReturnResponse")
    1055                            .dwattr $C$DW$100, DW_AT_external
    1056                            .dwattr $C$DW$100, DW_AT_type(*$C$DW$T$30)
    1057                            .dwattr $C$DW$100, DW_AT_TI_begin_file("../esp8266.c")
    1058                            .dwattr $C$DW$100, DW_AT_TI_begin_line(0x7d)
    1059                            .dwattr $C$DW$100, DW_AT_TI_begin_column(0x09)
    1060                            .dwattr $C$DW$100, DW_AT_decl_file("../esp8266.c")
    1061                            .dwattr $C$DW$100, DW_AT_decl_line(0x7d)
    1062                            .dwattr $C$DW$100, DW_AT_decl_column(0x09)
    1063                            .dwattr $C$DW$100, DW_AT_TI_max_frame_size(0x58)
    1064                            .dwpsn  file "../esp8266.c",line 126,column 1,is_stmt,address esp8266_sendAndReturnResponse,is
    1065                    
    1066                            .dwfde $C$DW$CIE, esp8266_sendAndReturnResponse
    1067                    $C$DW$101       .dwtag  DW_TAG_variable, DW_AT_name("dummy")
    1068                            .dwattr $C$DW$101, DW_AT_TI_symbol_name("dummy$2")
    1069                            .dwattr $C$DW$101, DW_AT_type(*$C$DW$T$6)
    1070                            .dwattr $C$DW$101, DW_AT_location[DW_OP_addr dummy$2]
    1071                    $C$DW$102       .dwtag  DW_TAG_formal_parameter, DW_AT_name("str")
    1072                            .dwattr $C$DW$102, DW_AT_TI_symbol_name("str")
    1073                            .dwattr $C$DW$102, DW_AT_type(*$C$DW$T$42)
    1074                            .dwattr $C$DW$102, DW_AT_location[DW_OP_reg0]
    1075                    $C$DW$103       .dwtag  DW_TAG_formal_parameter, DW_AT_name("confirmation")
    1076                            .dwattr $C$DW$103, DW_AT_TI_symbol_name("confirmation")
    1077                            .dwattr $C$DW$103, DW_AT_type(*$C$DW$T$42)
    1078                            .dwattr $C$DW$103, DW_AT_location[DW_OP_reg1]
    1079                    $C$DW$104       .dwtag  DW_TAG_formal_parameter, DW_AT_name("response")
    1080                            .dwattr $C$DW$104, DW_AT_TI_symbol_name("response")
    1081                            .dwattr $C$DW$104, DW_AT_type(*$C$DW$T$42)
    1082                            .dwattr $C$DW$104, DW_AT_location[DW_OP_reg2]
    1083                    ;----------------------------------------------------------------------
    1084                    ; 125 | uint8_t esp8266_sendAndReturnResponse(char* str, char* confirmation, ch
    1085                    ;     | ar* response)                                                          
    1086                    ;----------------------------------------------------------------------
    1087                    
    1088                    ;*****************************************************************************
    1089                    ;* FUNCTION NAME: esp8266_sendAndReturnResponse                              *
    1090                    ;*                                                                           *
    1091                    ;*   Regs Modified     : A1,A2,A3,A4,V9,SP,LR,SR,D0,D0_hi,D1,D1_hi,D2,D2_hi, *
    1092                    ;*                           D3,D3_hi,D4,D4_hi,D5,D5_hi,D6,D6_hi,D7,D7_hi,   *
    1093                    ;*                           FPEXC,FPSCR                                     *
    1094                    ;*   Regs Used         : A1,A2,A3,A4,V9,SP,LR,SR,D0,D0_hi,D1,D1_hi,D2,D2_hi, *
    1095                    ;*                           D3,D3_hi,D4,D4_hi,D5,D5_hi,D6,D6_hi,D7,D7_hi,   *
    1096                    ;*                           FPEXC,FPSCR                                     *
    1097                    ;*   Local Frame Size  : 0 Args + 80 Auto + 4 Save = 84 byte                 *
    1098                    ;*****************************************************************************
    1099 00000000           esp8266_sendAndReturnResponse:
    1100                    ;* --------------------------------------------------------------------------*
TI ARM Assembler PC v5.2.6 Thu Apr 28 12:50:03 2016

Tools Copyright (c) 1996-2015 Texas Instruments Incorporated
esp8266.asm                                                          PAGE   21

    1101                            .dwcfi  cfa_offset, 0
    1102 00000000 B500              PUSH      {LR}                  ; [DPU_3_PIPE]  ; [ORIG 16-BIT INS]
    1103                            .dwcfi  cfa_offset, 4
    1104                            .dwcfi  save_reg_to_mem, 14, -4
    1105 00000002 0D54F1AD          SUB       SP, SP, #84           ; [DPU_3_PIPE]  ; [KEEP 32-BIT INS]
    1106                            .dwcfi  cfa_offset, 88
    1107                    $C$DW$105       .dwtag  DW_TAG_variable, DW_AT_name("str")
    1108                            .dwattr $C$DW$105, DW_AT_TI_symbol_name("str")
    1109                            .dwattr $C$DW$105, DW_AT_type(*$C$DW$T$42)
    1110                            .dwattr $C$DW$105, DW_AT_location[DW_OP_breg13 0]
    1111                    $C$DW$106       .dwtag  DW_TAG_variable, DW_AT_name("confirmation")
    1112                            .dwattr $C$DW$106, DW_AT_TI_symbol_name("confirmation")
    1113                            .dwattr $C$DW$106, DW_AT_type(*$C$DW$T$42)
    1114                            .dwattr $C$DW$106, DW_AT_location[DW_OP_breg13 4]
    1115                    $C$DW$107       .dwtag  DW_TAG_variable, DW_AT_name("response")
    1116                            .dwattr $C$DW$107, DW_AT_TI_symbol_name("response")
    1117                            .dwattr $C$DW$107, DW_AT_type(*$C$DW$T$42)
    1118                            .dwattr $C$DW$107, DW_AT_location[DW_OP_breg13 8]
    1119                    $C$DW$108       .dwtag  DW_TAG_variable, DW_AT_name("timeout")
    1120                            .dwattr $C$DW$108, DW_AT_TI_symbol_name("timeout")
    1121                            .dwattr $C$DW$108, DW_AT_type(*$C$DW$T$29)
    1122                            .dwattr $C$DW$108, DW_AT_location[DW_OP_breg13 12]
    1123                    $C$DW$109       .dwtag  DW_TAG_variable, DW_AT_name("result")
    1124                            .dwattr $C$DW$109, DW_AT_TI_symbol_name("result")
    1125                            .dwattr $C$DW$109, DW_AT_type(*$C$DW$T$30)
    1126                            .dwattr $C$DW$109, DW_AT_location[DW_OP_breg13 16]
    1127                    $C$DW$110       .dwtag  DW_TAG_variable, DW_AT_name("uart_data")
    1128                            .dwattr $C$DW$110, DW_AT_TI_symbol_name("uart_data")
    1129                            .dwattr $C$DW$110, DW_AT_type(*$C$DW$T$135)
    1130                            .dwattr $C$DW$110, DW_AT_location[DW_OP_breg13 17]
    1131                    $C$DW$111       .dwtag  DW_TAG_variable, DW_AT_name("uart_data_counter")
    1132                            .dwattr $C$DW$111, DW_AT_TI_symbol_name("uart_data_counter")
    1133                            .dwattr $C$DW$111, DW_AT_type(*$C$DW$T$6)
    1134                            .dwattr $C$DW$111, DW_AT_location[DW_OP_breg13 77]
    1135 00000006 9202              STR       A3, [SP, #8]          ; [DPU_3_PIPE] |126|  ; [ORIG 16-BIT INS]
    1136 00000008 9101              STR       A2, [SP, #4]          ; [DPU_3_PIPE] |126|  ; [ORIG 16-BIT INS]
    1137 0000000a 9000              STR       A1, [SP, #0]          ; [DPU_3_PIPE] |126|  ; [ORIG 16-BIT INS]
    1138                            .dwpsn  file "../esp8266.c",line 127,column 19,is_stmt,isa 1
    1139                    ;----------------------------------------------------------------------
    1140                    ; 127 | uint32_t timeout = 0;                                                  
    1141                    ;----------------------------------------------------------------------
    1142 0000000c 2000              MOVS      A1, #0                ; [DPU_3_PIPE] |127|  ; [ORIG 16-BIT INS]
    1143 0000000e 9003              STR       A1, [SP, #12]         ; [DPU_3_PIPE] |127|  ; [ORIG 16-BIT INS]
    1144                            .dwpsn  file "../esp8266.c",line 128,column 17,is_stmt,isa 1
    1145                    ;----------------------------------------------------------------------
    1146                    ; 128 | uint8_t result = 0;                                                    
    1147                    ; 129 | char uart_data[UART5_BUFFER_SIZE], uart_data_counter;                  
    1148                    ; 130 | static char dummy;                                                     
    1149                    ; 131 | //memset ((void*)uart_data,'\0',255);                                  
    1150                    ;----------------------------------------------------------------------
    1151 00000010 2000              MOVS      A1, #0                ; [DPU_3_PIPE] |128|  ; [ORIG 16-BIT INS]
    1152 00000012 0010F88D          STRB      A1, [SP, #16]         ; [DPU_3_PIPE] |128|  ; [KEEP 32-BIT INS]
    1153                            .dwpsn  file "../esp8266.c",line 132,column 6,is_stmt,isa 1
    1154                    ;----------------------------------------------------------------------
    1155                    ; 132 | for(uart_data_counter = 0; uart_data_counter < UART5_BUFFER_SIZE; uart_
TI ARM Assembler PC v5.2.6 Thu Apr 28 12:50:03 2016

Tools Copyright (c) 1996-2015 Texas Instruments Incorporated
esp8266.asm                                                          PAGE   22

    1156                    ;     | data_counter++)                                                        
    1157                    ;----------------------------------------------------------------------
    1158 00000016 2000              MOVS      A1, #0                ; [DPU_3_PIPE] |132|  ; [ORIG 16-BIT INS]
    1159 00000018 004DF88D          STRB      A1, [SP, #77]         ; [DPU_3_PIPE] |132|  ; [KEEP 32-BIT INS]
    1160                            .dwpsn  file "../esp8266.c",line 132,column 29,is_stmt,isa 1
    1161 0000001c 004DF89D          LDRB      A1, [SP, #77]         ; [DPU_3_PIPE] |132|  ; [KEEP 32-BIT INS]
    1162 00000020 283C              CMP       A1, #60               ; [DPU_3_PIPE] |132|  ; [ORIG 16-BIT INS]
    1163 00000022 DA13              BGE       ||$C$L14||            ; [DPU_3_PIPE] |132|  ; [ORIG 16-BIT INS]
    1164                            ; BRANCHCC OCCURS {||$C$L14||}   ; [] |132| 
    1165                    ;* --------------------------------------------------------------------------*
    1166                    ;*   BEGIN LOOP ||$C$L12||
    1167                    ;*
    1168                    ;*   Loop source line                : 132
    1169                    ;*   Loop closing brace source line  : 135
    1170                    ;*   Known Minimum Trip Count        : 1
    1171                    ;*   Known Maximum Trip Count        : 4294967295
    1172                    ;*   Known Max Trip Count Factor     : 1
    1173                    ;* --------------------------------------------------------------------------*
    1174 00000024           ||$C$L12||:    
    1175                            .dwpsn  file "../esp8266.c",line 134,column 3,is_stmt,isa 1
    1176                    ;----------------------------------------------------------------------
    1177                    ; 134 | uart_data[uart_data_counter] = 0;                                      
    1178                    ;----------------------------------------------------------------------
    1179 00000024 004DF89D          LDRB      A1, [SP, #77]         ; [DPU_3_PIPE] |134|  ; [KEEP 32-BIT INS]
    1180 00000028 2100              MOVS      A2, #0                ; [DPU_3_PIPE] |134|  ; [ORIG 16-BIT INS]
    1181 0000002a 4468              ADD       A1, A1, SP            ; [DPU_3_PIPE] |134|  ; [ORIG 16-BIT INS]
    1182 0000002c 7441              STRB      A2, [A1, #17]         ; [DPU_3_PIPE] |134|  ; [ORIG 16-BIT INS]
    1183                            .dwpsn  file "../esp8266.c",line 132,column 68,is_stmt,isa 1
    1184 0000002e 004DF89D          LDRB      A1, [SP, #77]         ; [DPU_3_PIPE] |132|  ; [KEEP 32-BIT INS]
    1185 00000032 1C40              ADDS      A1, A1, #1            ; [DPU_3_PIPE] |132|  ; [ORIG 16-BIT INS]
    1186 00000034 004DF88D          STRB      A1, [SP, #77]         ; [DPU_3_PIPE] |132|  ; [KEEP 32-BIT INS]
    1187                            .dwpsn  file "../esp8266.c",line 132,column 29,is_stmt,isa 1
    1188 00000038 004DF89D          LDRB      A1, [SP, #77]         ; [DPU_3_PIPE] |132|  ; [KEEP 32-BIT INS]
    1189 0000003c 283C              CMP       A1, #60               ; [DPU_3_PIPE] |132|  ; [ORIG 16-BIT INS]
    1190 0000003e DBF1              BLT       ||$C$L12||            ; [DPU_3_PIPE] |132|  ; [ORIG 16-BIT INS]
    1191                            ; BRANCHCC OCCURS {||$C$L12||}   ; [] |132| 
    1192                    ;* --------------------------------------------------------------------------*
    1193                            .dwpsn  file "../esp8266.c",line 136,column 2,is_stmt,isa 1
    1194                    ;----------------------------------------------------------------------
    1195                    ; 136 | while(UARTCharsAvail(UART5_BASE))                                      
    1196                    ;----------------------------------------------------------------------
    1197 00000040 E004              B         ||$C$L14||            ; [DPU_3_PIPE] |136|  ; [ORIG 16-BIT INS]
    1198                            ; BRANCH OCCURS {||$C$L14||}     ; [] |136| 
    1199                    ;* --------------------------------------------------------------------------*
    1200 00000042           ||$C$L13||:    
    1201                            .dwpsn  file "../esp8266.c",line 138,column 3,is_stmt,isa 1
    1202                    ;----------------------------------------------------------------------
    1203                    ; 138 | dummy = UARTCharGet(UART5_BASE);                                       
    1204                    ;----------------------------------------------------------------------
    1205 00000042 482D              LDR       A1, $C$CON6           ; [DPU_3_PIPE] |138|  ; [ORIG 16-BIT INS]
    1206                    $C$DW$112       .dwtag  DW_TAG_TI_branch
    1207                            .dwattr $C$DW$112, DW_AT_low_pc(0x00)
    1208                            .dwattr $C$DW$112, DW_AT_name("UARTCharGet")
    1209                            .dwattr $C$DW$112, DW_AT_TI_call
    1210 00000044 FFFEF7FF!         BL        UARTCharGet           ; [DPU_3_PIPE] |138|  ; [KEEP 32-BIT INS]
TI ARM Assembler PC v5.2.6 Thu Apr 28 12:50:03 2016

Tools Copyright (c) 1996-2015 Texas Instruments Incorporated
esp8266.asm                                                          PAGE   23

    1211                            ; CALL OCCURS {UARTCharGet }     ; [] |138| 
    1212 00000048 492A              LDR       A2, $C$CON5           ; [DPU_3_PIPE] |138|  ; [ORIG 16-BIT INS]
    1213 0000004a 7008              STRB      A1, [A2, #0]          ; [DPU_3_PIPE] |138|  ; [ORIG 16-BIT INS]
    1214                    ;* --------------------------------------------------------------------------*
    1215                    ;*   BEGIN LOOP ||$C$L14||
    1216                    ;* --------------------------------------------------------------------------*
    1217 0000004c           ||$C$L14||:    
    1218                            .dwpsn  file "../esp8266.c",line 136,column 2,is_stmt,isa 1
    1219 0000004c 482A              LDR       A1, $C$CON6           ; [DPU_3_PIPE] |136|  ; [ORIG 16-BIT INS]
    1220                    $C$DW$113       .dwtag  DW_TAG_TI_branch
    1221                            .dwattr $C$DW$113, DW_AT_low_pc(0x00)
    1222                            .dwattr $C$DW$113, DW_AT_name("UARTCharsAvail")
    1223                            .dwattr $C$DW$113, DW_AT_TI_call
    1224 0000004e FFFEF7FF!         BL        UARTCharsAvail        ; [DPU_3_PIPE] |136|  ; [KEEP 32-BIT INS]
    1225                            ; CALL OCCURS {UARTCharsAvail }  ; [] |136| 
    1226 00000052 2800              CMP       A1, #0                ; [DPU_3_PIPE] |136|  ; [ORIG 16-BIT INS]
    1227 00000054 D1F5              BNE       ||$C$L13||            ; [DPU_3_PIPE] |136|  ; [ORIG 16-BIT INS]
    1228                            ; BRANCHCC OCCURS {||$C$L13||}   ; [] |136| 
    1229                    ;* --------------------------------------------------------------------------*
    1230                            .dwpsn  file "../esp8266.c",line 140,column 2,is_stmt,isa 1
    1231                    ;----------------------------------------------------------------------
    1232                    ; 140 | uart_data_counter = 0;                                                 
    1233                    ;----------------------------------------------------------------------
    1234 00000056 2000              MOVS      A1, #0                ; [DPU_3_PIPE] |140|  ; [ORIG 16-BIT INS]
    1235 00000058 004DF88D          STRB      A1, [SP, #77]         ; [DPU_3_PIPE] |140|  ; [KEEP 32-BIT INS]
    1236                            .dwpsn  file "../esp8266.c",line 141,column 2,is_stmt,isa 1
    1237                    ;----------------------------------------------------------------------
    1238                    ; 141 | uart_send(str);                                                        
    1239                    ;----------------------------------------------------------------------
    1240 0000005c 9800              LDR       A1, [SP, #0]          ; [DPU_3_PIPE] |141|  ; [ORIG 16-BIT INS]
    1241                    $C$DW$114       .dwtag  DW_TAG_TI_branch
    1242                            .dwattr $C$DW$114, DW_AT_low_pc(0x00)
    1243                            .dwattr $C$DW$114, DW_AT_name("uart_send")
    1244                            .dwattr $C$DW$114, DW_AT_TI_call
    1245 0000005e FFFEF7FF!         BL        uart_send             ; [DPU_3_PIPE] |141|  ; [KEEP 32-BIT INS]
    1246                            ; CALL OCCURS {uart_send }       ; [] |141| 
    1247                            .dwpsn  file "../esp8266.c",line 143,column 2,is_stmt,isa 1
    1248                    ;----------------------------------------------------------------------
    1249                    ; 143 | while(!result)                                                         
    1250                    ;----------------------------------------------------------------------
    1251 00000062 E03F              B         ||$C$L19||            ; [DPU_3_PIPE] |143|  ; [ORIG 16-BIT INS]
    1252                            ; BRANCH OCCURS {||$C$L19||}     ; [] |143| 
    1253                    ;* --------------------------------------------------------------------------*
    1254 00000064           ||$C$L15||:    
    1255                            .dwpsn  file "../esp8266.c",line 145,column 3,is_stmt,isa 1
    1256                    ;----------------------------------------------------------------------
    1257                    ; 145 | dummy = UARTCharGetNonBlocking(UART5_BASE);                            
    1258                    ;----------------------------------------------------------------------
    1259 00000064 4824              LDR       A1, $C$CON6           ; [DPU_3_PIPE] |145|  ; [ORIG 16-BIT INS]
    1260                    $C$DW$115       .dwtag  DW_TAG_TI_branch
    1261                            .dwattr $C$DW$115, DW_AT_low_pc(0x00)
    1262                            .dwattr $C$DW$115, DW_AT_name("UARTCharGetNonBlocking")
    1263                            .dwattr $C$DW$115, DW_AT_TI_call
    1264 00000066 FFFEF7FF!         BL        UARTCharGetNonBlocking ; [DPU_3_PIPE] |145|  ; [KEEP 32-BIT INS]
    1265                            ; CALL OCCURS {UARTCharGetNonBlocking }  ; [] |145| 
TI ARM Assembler PC v5.2.6 Thu Apr 28 12:50:03 2016

Tools Copyright (c) 1996-2015 Texas Instruments Incorporated
esp8266.asm                                                          PAGE   24

    1266 0000006a 4922              LDR       A2, $C$CON5           ; [DPU_3_PIPE] |145|  ; [ORIG 16-BIT INS]
    1267 0000006c 7008              STRB      A1, [A2, #0]          ; [DPU_3_PIPE] |145|  ; [ORIG 16-BIT INS]
    1268                            .dwpsn  file "../esp8266.c",line 146,column 3,is_stmt,isa 1
    1269                    ;----------------------------------------------------------------------
    1270                    ; 146 | if(dummy == 10)                                                        
    1271                    ; 148 |         //LOGprintf("ESP:%s\n", uart_data);                            
    1272                    ;----------------------------------------------------------------------
    1273 0000006e 4821              LDR       A1, $C$CON5           ; [DPU_3_PIPE] |146|  ; [ORIG 16-BIT INS]
    1274 00000070 7800              LDRB      A1, [A1, #0]          ; [DPU_3_PIPE] |146|  ; [ORIG 16-BIT INS]
    1275 00000072 280A              CMP       A1, #10               ; [DPU_3_PIPE] |146|  ; [ORIG 16-BIT INS]
    1276 00000074 D108              BNE       ||$C$L16||            ; [DPU_3_PIPE] |146|  ; [ORIG 16-BIT INS]
    1277                            ; BRANCHCC OCCURS {||$C$L16||}   ; [] |146| 
    1278                    ;* --------------------------------------------------------------------------*
    1279                            .dwpsn  file "../esp8266.c",line 149,column 4,is_stmt,isa 1
    1280                    ;----------------------------------------------------------------------
    1281                    ; 149 | memset(uart_data, 0, UART5_BUFFER_SIZE);                               
    1282                    ;----------------------------------------------------------------------
    1283 00000076 0011F10D          ADD       A1, SP, #17           ; [DPU_3_PIPE] |149|  ; [KEEP 32-BIT INS]
    1284 0000007a 2100              MOVS      A2, #0                ; [DPU_3_PIPE] |149|  ; [ORIG 16-BIT INS]
    1285 0000007c 223C              MOVS      A3, #60               ; [DPU_3_PIPE] |149|  ; [ORIG 16-BIT INS]
    1286                    $C$DW$116       .dwtag  DW_TAG_TI_branch
    1287                            .dwattr $C$DW$116, DW_AT_low_pc(0x00)
    1288                            .dwattr $C$DW$116, DW_AT_name("memset")
    1289                            .dwattr $C$DW$116, DW_AT_TI_call
    1290 0000007e FFFEF7FF!         BL        memset                ; [DPU_3_PIPE] |149|  ; [KEEP 32-BIT INS]
    1291                            ; CALL OCCURS {memset }          ; [] |149| 
    1292                            .dwpsn  file "../esp8266.c",line 150,column 4,is_stmt,isa 1
    1293                    ;----------------------------------------------------------------------
    1294                    ; 150 | uart_data_counter = 0;                                                 
    1295                    ;----------------------------------------------------------------------
    1296 00000082 2000              MOVS      A1, #0                ; [DPU_3_PIPE] |150|  ; [ORIG 16-BIT INS]
    1297 00000084 004DF88D          STRB      A1, [SP, #77]         ; [DPU_3_PIPE] |150|  ; [KEEP 32-BIT INS]
    1298                    ;* --------------------------------------------------------------------------*
    1299 00000088           ||$C$L16||:    
    1300                            .dwpsn  file "../esp8266.c",line 152,column 3,is_stmt,isa 1
    1301                    ;----------------------------------------------------------------------
    1302                    ; 152 | if((dummy>=0x20) && (dummy <= '~'))//valid characters from SPACE to ~  
    1303                    ;----------------------------------------------------------------------
    1304 00000088 481A              LDR       A1, $C$CON5           ; [DPU_3_PIPE] |152|  ; [ORIG 16-BIT INS]
    1305 0000008a 7800              LDRB      A1, [A1, #0]          ; [DPU_3_PIPE] |152|  ; [ORIG 16-BIT INS]
    1306 0000008c 2820              CMP       A1, #32               ; [DPU_3_PIPE] |152|  ; [ORIG 16-BIT INS]
    1307 0000008e DB20              BLT       ||$C$L18||            ; [DPU_3_PIPE] |152|  ; [ORIG 16-BIT INS]
    1308                            ; BRANCHCC OCCURS {||$C$L18||}   ; [] |152| 
    1309                    ;* --------------------------------------------------------------------------*
    1310 00000090 4818              LDR       A1, $C$CON5           ; [DPU_3_PIPE] |152|  ; [ORIG 16-BIT INS]
    1311 00000092 7800              LDRB      A1, [A1, #0]          ; [DPU_3_PIPE] |152|  ; [ORIG 16-BIT INS]
    1312 00000094 287E              CMP       A1, #126              ; [DPU_3_PIPE] |152|  ; [ORIG 16-BIT INS]
    1313 00000096 DC1C              BGT       ||$C$L18||            ; [DPU_3_PIPE] |152|  ; [ORIG 16-BIT INS]
    1314                            ; BRANCHCC OCCURS {||$C$L18||}   ; [] |152| 
    1315                    ;* --------------------------------------------------------------------------*
    1316                            .dwpsn  file "../esp8266.c",line 154,column 4,is_stmt,isa 1
    1317                    ;----------------------------------------------------------------------
    1318                    ; 154 | uart_data[uart_data_counter++] = dummy;                                
    1319                    ;----------------------------------------------------------------------
    1320 00000098 004DF89D          LDRB      A1, [SP, #77]         ; [DPU_3_PIPE] |154|  ; [KEEP 32-BIT INS]
TI ARM Assembler PC v5.2.6 Thu Apr 28 12:50:03 2016

Tools Copyright (c) 1996-2015 Texas Instruments Incorporated
esp8266.asm                                                          PAGE   25

    1321 0000009c 4915              LDR       A2, $C$CON5           ; [DPU_3_PIPE] |154|  ; [ORIG 16-BIT INS]
    1322 0000009e 1C42              ADDS      A3, A1, #1            ; [DPU_3_PIPE] |154|  ; [ORIG 16-BIT INS]
    1323 000000a0 7809              LDRB      A2, [A2, #0]          ; [DPU_3_PIPE] |154|  ; [ORIG 16-BIT INS]
    1324 000000a2 204DF88D          STRB      A3, [SP, #77]         ; [DPU_3_PIPE] |154|  ; [KEEP 32-BIT INS]
    1325 000000a6 4468              ADD       A1, A1, SP            ; [DPU_3_PIPE] |154|  ; [ORIG 16-BIT INS]
    1326 000000a8 7441              STRB      A2, [A1, #17]         ; [DPU_3_PIPE] |154|  ; [ORIG 16-BIT INS]
    1327                            .dwpsn  file "../esp8266.c",line 155,column 4,is_stmt,isa 1
    1328                    ;----------------------------------------------------------------------
    1329                    ; 155 | if(uart_data_counter == UART5_BUFFER_SIZE)                             
    1330                    ;----------------------------------------------------------------------
    1331 000000aa 004DF89D          LDRB      A1, [SP, #77]         ; [DPU_3_PIPE] |155|  ; [KEEP 32-BIT INS]
    1332 000000ae 283C              CMP       A1, #60               ; [DPU_3_PIPE] |155|  ; [ORIG 16-BIT INS]
    1333 000000b0 D102              BNE       ||$C$L17||            ; [DPU_3_PIPE] |155|  ; [ORIG 16-BIT INS]
    1334                            ; BRANCHCC OCCURS {||$C$L17||}   ; [] |155| 
    1335                    ;* --------------------------------------------------------------------------*
    1336                            .dwpsn  file "../esp8266.c",line 156,column 7,is_stmt,isa 1
    1337                    ;----------------------------------------------------------------------
    1338                    ; 156 | uart_data_counter = 0;                                                 
    1339                    ;----------------------------------------------------------------------
    1340 000000b2 2000              MOVS      A1, #0                ; [DPU_3_PIPE] |156|  ; [ORIG 16-BIT INS]
    1341 000000b4 004DF88D          STRB      A1, [SP, #77]         ; [DPU_3_PIPE] |156|  ; [KEEP 32-BIT INS]
    1342                    ;* --------------------------------------------------------------------------*
    1343 000000b8           ||$C$L17||:    
    1344                            .dwpsn  file "../esp8266.c",line 157,column 4,is_stmt,isa 1
    1345                    ;----------------------------------------------------------------------
    1346                    ; 157 | if(strstr((const char*)uart_data, confirmation))                       
    1347                    ;----------------------------------------------------------------------
    1348 000000b8 9901              LDR       A2, [SP, #4]          ; [DPU_3_PIPE] |157|  ; [ORIG 16-BIT INS]
    1349 000000ba 0011F10D          ADD       A1, SP, #17           ; [DPU_3_PIPE] |157|  ; [KEEP 32-BIT INS]
    1350                    $C$DW$117       .dwtag  DW_TAG_TI_branch
    1351                            .dwattr $C$DW$117, DW_AT_low_pc(0x00)
    1352                            .dwattr $C$DW$117, DW_AT_name("strstr")
    1353                            .dwattr $C$DW$117, DW_AT_TI_call
    1354 000000be FFFEF7FF!         BL        strstr                ; [DPU_3_PIPE] |157|  ; [KEEP 32-BIT INS]
    1355                            ; CALL OCCURS {strstr }          ; [] |157| 
    1356 000000c2 B130              CBZ       A1, ||$C$L18||        ; []  ; [ORIG 16-BIT INS]
    1357                            ; BRANCHCC OCCURS {||$C$L18||}   ; [] |157| 
    1358                    ;* --------------------------------------------------------------------------*
    1359                            .dwpsn  file "../esp8266.c",line 159,column 5,is_stmt,isa 1
    1360                    ;----------------------------------------------------------------------
    1361                    ; 159 | strcpy(response, uart_data);                                           
    1362                    ; 160 | //LOGprintf("Data:%s\n", uart_data);                                   
    1363                    ;----------------------------------------------------------------------
    1364 000000c4 9802              LDR       A1, [SP, #8]          ; [DPU_3_PIPE] |159|  ; [ORIG 16-BIT INS]
    1365 000000c6 0111F10D          ADD       A2, SP, #17           ; [DPU_3_PIPE] |159|  ; [KEEP 32-BIT INS]
    1366                    $C$DW$118       .dwtag  DW_TAG_TI_branch
    1367                            .dwattr $C$DW$118, DW_AT_low_pc(0x00)
    1368                            .dwattr $C$DW$118, DW_AT_name("strcpy")
    1369                            .dwattr $C$DW$118, DW_AT_TI_call
    1370 000000ca FFFEF7FF!         BL        strcpy                ; [DPU_3_PIPE] |159|  ; [KEEP 32-BIT INS]
    1371                            ; CALL OCCURS {strcpy }          ; [] |159| 
    1372                            .dwpsn  file "../esp8266.c",line 161,column 5,is_stmt,isa 1
    1373                    ;----------------------------------------------------------------------
    1374                    ; 161 | return 1;                                                              
    1375                    ;----------------------------------------------------------------------
TI ARM Assembler PC v5.2.6 Thu Apr 28 12:50:03 2016

Tools Copyright (c) 1996-2015 Texas Instruments Incorporated
esp8266.asm                                                          PAGE   26

    1376 000000ce 2001              MOVS      A1, #1                ; [DPU_3_PIPE] |161|  ; [ORIG 16-BIT INS]
    1377 000000d0 E00E              B         ||$C$L20||            ; [DPU_3_PIPE] |161|  ; [ORIG 16-BIT INS]
    1378                            ; BRANCH OCCURS {||$C$L20||}     ; [] |161| 
    1379                    ;* --------------------------------------------------------------------------*
    1380 000000d2           ||$C$L18||:    
    1381                            .dwpsn  file "../esp8266.c",line 165,column 3,is_stmt,isa 1
    1382                    ;----------------------------------------------------------------------
    1383                    ; 165 | timeout++;                                                             
    1384                    ;----------------------------------------------------------------------
    1385 000000d2 9803              LDR       A1, [SP, #12]         ; [DPU_3_PIPE] |165|  ; [ORIG 16-BIT INS]
    1386 000000d4 1C40              ADDS      A1, A1, #1            ; [DPU_3_PIPE] |165|  ; [ORIG 16-BIT INS]
    1387 000000d6 9003              STR       A1, [SP, #12]         ; [DPU_3_PIPE] |165|  ; [ORIG 16-BIT INS]
    1388                            .dwpsn  file "../esp8266.c",line 166,column 3,is_stmt,isa 1
    1389                    ;----------------------------------------------------------------------
    1390                    ; 166 | if(timeout>10000000)                                                   
    1391                    ; 168 |         //LOGprintf("Timeout:%s\n", uart_data);                        
    1392                    ;----------------------------------------------------------------------
    1393 000000d8 4908              LDR       A2, $C$CON7           ; [DPU_3_PIPE] |166|  ; [ORIG 16-BIT INS]
    1394 000000da 9803              LDR       A1, [SP, #12]         ; [DPU_3_PIPE] |166|  ; [ORIG 16-BIT INS]
    1395 000000dc 4281              CMP       A2, A1                ; [DPU_3_PIPE] |166|  ; [ORIG 16-BIT INS]
    1396 000000de D201              BCS       ||$C$L19||            ; [DPU_3_PIPE] |166|  ; [ORIG 16-BIT INS]
    1397                            ; BRANCHCC OCCURS {||$C$L19||}   ; [] |166| 
    1398                    ;* --------------------------------------------------------------------------*
    1399                            .dwpsn  file "../esp8266.c",line 169,column 4,is_stmt,isa 1
    1400                    ;----------------------------------------------------------------------
    1401                    ; 169 | return 0;                                                              
    1402                    ;----------------------------------------------------------------------
    1403 000000e0 2000              MOVS      A1, #0                ; [DPU_3_PIPE] |169|  ; [ORIG 16-BIT INS]
    1404 000000e2 E005              B         ||$C$L20||            ; [DPU_3_PIPE] |169|  ; [ORIG 16-BIT INS]
    1405                            ; BRANCH OCCURS {||$C$L20||}     ; [] |169| 
    1406                    ;* --------------------------------------------------------------------------*
    1407                    ;*   BEGIN LOOP ||$C$L19||
    1408                    ;* --------------------------------------------------------------------------*
    1409 000000e4           ||$C$L19||:    
    1410                            .dwpsn  file "../esp8266.c",line 143,column 8,is_stmt,isa 1
    1411 000000e4 0010F89D          LDRB      A1, [SP, #16]         ; [DPU_3_PIPE] |143|  ; [KEEP 32-BIT INS]
    1412 000000e8 2800              CMP       A1, #0                ; [DPU_3_PIPE] |143|  ; [ORIG 16-BIT INS]
    1413 000000ea D0BB              BEQ       ||$C$L15||            ; [DPU_3_PIPE] |143|  ; [ORIG 16-BIT INS]
    1414                            ; BRANCHCC OCCURS {||$C$L15||}   ; [] |143| 
    1415                    ;* --------------------------------------------------------------------------*
    1416                            .dwpsn  file "../esp8266.c",line 172,column 2,is_stmt,isa 1
    1417                    ;----------------------------------------------------------------------
    1418                    ; 172 | return result;                                                         
    1419                    ;----------------------------------------------------------------------
    1420 000000ec 0010F89D          LDRB      A1, [SP, #16]         ; [DPU_3_PIPE] |172|  ; [KEEP 32-BIT INS]
    1421                    ;* --------------------------------------------------------------------------*
    1422 000000f0           ||$C$L20||:    
    1423                            .dwpsn  file "../esp8266.c",line 173,column 1,is_stmt,isa 1
    1424 000000f0 B015              ADD       SP, SP, #84           ; [DPU_3_PIPE]  ; [ORIG 16-BIT INS]
    1425                            .dwcfi  cfa_offset, 4
    1426                    $C$DW$119       .dwtag  DW_TAG_TI_branch
    1427                            .dwattr $C$DW$119, DW_AT_low_pc(0x00)
    1428                            .dwattr $C$DW$119, DW_AT_TI_return
    1429 000000f2 BD00              POP       {PC}                  ; [DPU_3_PIPE]  ; [ORIG 16-BIT INS]
    1430                            .dwcfi  cfa_offset, 0
TI ARM Assembler PC v5.2.6 Thu Apr 28 12:50:03 2016

Tools Copyright (c) 1996-2015 Texas Instruments Incorporated
esp8266.asm                                                          PAGE   27

    1431                            ; BRANCH OCCURS                  ; [] 
    1432                            .dwattr $C$DW$100, DW_AT_TI_end_file("../esp8266.c")
    1433                            .dwattr $C$DW$100, DW_AT_TI_end_line(0xad)
    1434                            .dwattr $C$DW$100, DW_AT_TI_end_column(0x01)
    1435                            .dwendentry
    1436                            .dwendtag $C$DW$100
    1437                    
    1438 00000000                   .sect   ".text:setResetPinState"
    1439                            .clink
    1440                            .thumbfunc setResetPinState
    1441 00000000                   .thumb
    1442                            .global setResetPinState
    1443                    
    1444                    $C$DW$120       .dwtag  DW_TAG_subprogram, DW_AT_name("setResetPinState")
    1445                            .dwattr $C$DW$120, DW_AT_low_pc(setResetPinState)
    1446                            .dwattr $C$DW$120, DW_AT_high_pc(0x00)
    1447                            .dwattr $C$DW$120, DW_AT_TI_symbol_name("setResetPinState")
    1448                            .dwattr $C$DW$120, DW_AT_external
    1449                            .dwattr $C$DW$120, DW_AT_TI_begin_file("../esp8266.c")
    1450                            .dwattr $C$DW$120, DW_AT_TI_begin_line(0xaf)
    1451                            .dwattr $C$DW$120, DW_AT_TI_begin_column(0x06)
    1452                            .dwattr $C$DW$120, DW_AT_decl_file("../esp8266.c")
    1453                            .dwattr $C$DW$120, DW_AT_decl_line(0xaf)
    1454                            .dwattr $C$DW$120, DW_AT_decl_column(0x06)
    1455                            .dwattr $C$DW$120, DW_AT_TI_max_frame_size(0x08)
    1456                            .dwpsn  file "../esp8266.c",line 176,column 1,is_stmt,address setResetPinState,isa 1
    1457                    
    1458                            .dwfde $C$DW$CIE, setResetPinState
    1459                    $C$DW$121       .dwtag  DW_TAG_formal_parameter, DW_AT_name("state")
    1460                            .dwattr $C$DW$121, DW_AT_TI_symbol_name("state")
    1461                            .dwattr $C$DW$121, DW_AT_type(*$C$DW$T$30)
    1462                            .dwattr $C$DW$121, DW_AT_location[DW_OP_reg0]
    1463                    ;----------------------------------------------------------------------
    1464                    ; 175 | void setResetPinState(uint8_t state)                                   
    1465                    ;----------------------------------------------------------------------
    1466                    
    1467                    ;*****************************************************************************
    1468                    ;* FUNCTION NAME: setResetPinState                                           *
    1469                    ;*                                                                           *
    1470                    ;*   Regs Modified     : A1,A2,A3,A4,V9,SP,LR,SR,D0,D0_hi,D1,D1_hi,D2,D2_hi, *
    1471                    ;*                           D3,D3_hi,D4,D4_hi,D5,D5_hi,D6,D6_hi,D7,D7_hi,   *
    1472                    ;*                           FPEXC,FPSCR                                     *
    1473                    ;*   Regs Used         : A1,A2,A3,A4,V9,SP,LR,SR,D0,D0_hi,D1,D1_hi,D2,D2_hi, *
    1474                    ;*                           D3,D3_hi,D4,D4_hi,D5,D5_hi,D6,D6_hi,D7,D7_hi,   *
    1475                    ;*                           FPEXC,FPSCR                                     *
    1476                    ;*   Local Frame Size  : 0 Args + 4 Auto + 4 Save = 8 byte                   *
    1477                    ;*****************************************************************************
    1478 00000000           setResetPinState:
    1479                    ;* --------------------------------------------------------------------------*
    1480                            .dwcfi  cfa_offset, 0
    1481 00000000 B508              PUSH      {A4, LR}              ; [DPU_3_PIPE]  ; [ORIG 16-BIT INS]
    1482                            .dwcfi  cfa_offset, 8
    1483                            .dwcfi  save_reg_to_mem, 14, -4
    1484                            .dwcfi  save_reg_to_mem, 3, -8
    1485                    $C$DW$122       .dwtag  DW_TAG_variable, DW_AT_name("state")
TI ARM Assembler PC v5.2.6 Thu Apr 28 12:50:03 2016

Tools Copyright (c) 1996-2015 Texas Instruments Incorporated
esp8266.asm                                                          PAGE   28

    1486                            .dwattr $C$DW$122, DW_AT_TI_symbol_name("state")
    1487                            .dwattr $C$DW$122, DW_AT_type(*$C$DW$T$30)
    1488                            .dwattr $C$DW$122, DW_AT_location[DW_OP_breg13 0]
    1489 00000002 0000F88D          STRB      A1, [SP, #0]          ; [DPU_3_PIPE] |176|  ; [KEEP 32-BIT INS]
    1490                            .dwpsn  file "../esp8266.c",line 177,column 2,is_stmt,isa 1
    1491                    ;----------------------------------------------------------------------
    1492                    ; 177 | if(state == LOW)                                                       
    1493                    ;----------------------------------------------------------------------
    1494 00000006 0000F89D          LDRB      A1, [SP, #0]          ; [DPU_3_PIPE] |177|  ; [KEEP 32-BIT INS]
    1495 0000000a B928              CBNZ      A1, ||$C$L21||        ; []  ; [ORIG 16-BIT INS]
    1496                            ; BRANCHCC OCCURS {||$C$L21||}   ; [] |177| 
    1497                    ;* --------------------------------------------------------------------------*
    1498                            .dwpsn  file "../esp8266.c",line 178,column 3,is_stmt,isa 1
    1499                    ;----------------------------------------------------------------------
    1500                    ; 178 | GPIOPinWrite(GPIO_PORTE_BASE, GPIO_PIN_3, 0);                          
    1501                    ; 179 | else                                                                   
    1502                    ;----------------------------------------------------------------------
    1503 0000000c 4805              LDR       A1, $C$CON8           ; [DPU_3_PIPE] |178|  ; [ORIG 16-BIT INS]
    1504 0000000e 2108              MOVS      A2, #8                ; [DPU_3_PIPE] |178|  ; [ORIG 16-BIT INS]
    1505 00000010 2200              MOVS      A3, #0                ; [DPU_3_PIPE] |178|  ; [ORIG 16-BIT INS]
    1506                    $C$DW$123       .dwtag  DW_TAG_TI_branch
    1507                            .dwattr $C$DW$123, DW_AT_low_pc(0x00)
    1508                            .dwattr $C$DW$123, DW_AT_name("GPIOPinWrite")
    1509                            .dwattr $C$DW$123, DW_AT_TI_call
    1510 00000012 FFFEF7FF!         BL        GPIOPinWrite          ; [DPU_3_PIPE] |178|  ; [KEEP 32-BIT INS]
    1511                            ; CALL OCCURS {GPIOPinWrite }    ; [] |178| 
    1512 00000016 E004              B         ||$C$L22||            ; [DPU_3_PIPE] |178|  ; [ORIG 16-BIT INS]
    1513                            ; BRANCH OCCURS {||$C$L22||}     ; [] |178| 
    1514                    ;* --------------------------------------------------------------------------*
    1515 00000018           ||$C$L21||:    
    1516                            .dwpsn  file "../esp8266.c",line 180,column 3,is_stmt,isa 1
    1517                    ;----------------------------------------------------------------------
    1518                    ; 180 | GPIOPinWrite(GPIO_PORTE_BASE, GPIO_PIN_3, GPIO_PIN_3);                 
    1519                    ;----------------------------------------------------------------------
    1520 00000018 4802              LDR       A1, $C$CON8           ; [DPU_3_PIPE] |180|  ; [ORIG 16-BIT INS]
    1521 0000001a 2108              MOVS      A2, #8                ; [DPU_3_PIPE] |180|  ; [ORIG 16-BIT INS]
    1522 0000001c 2208              MOVS      A3, #8                ; [DPU_3_PIPE] |180|  ; [ORIG 16-BIT INS]
    1523                    $C$DW$124       .dwtag  DW_TAG_TI_branch
    1524                            .dwattr $C$DW$124, DW_AT_low_pc(0x00)
    1525                            .dwattr $C$DW$124, DW_AT_name("GPIOPinWrite")
    1526                            .dwattr $C$DW$124, DW_AT_TI_call
    1527 0000001e FFFEF7FF!         BL        GPIOPinWrite          ; [DPU_3_PIPE] |180|  ; [KEEP 32-BIT INS]
    1528                            ; CALL OCCURS {GPIOPinWrite }    ; [] |180| 
    1529                            .dwpsn  file "../esp8266.c",line 181,column 1,is_stmt,isa 1
    1530                    ;* --------------------------------------------------------------------------*
    1531                    ||$C$L22||:    
    1532                    $C$DW$125       .dwtag  DW_TAG_TI_branch
    1533                            .dwattr $C$DW$125, DW_AT_low_pc(0x00)
    1534                            .dwattr $C$DW$125, DW_AT_TI_return
    1535 00000022 BD08              POP       {A4, PC}              ; [DPU_3_PIPE]  ; [ORIG 16-BIT INS]
    1536                            .dwcfi  cfa_offset, 0
    1537                            ; BRANCH OCCURS                  ; [] 
    1538                            .dwattr $C$DW$120, DW_AT_TI_end_file("../esp8266.c")
    1539                            .dwattr $C$DW$120, DW_AT_TI_end_line(0xb5)
    1540                            .dwattr $C$DW$120, DW_AT_TI_end_column(0x01)
TI ARM Assembler PC v5.2.6 Thu Apr 28 12:50:03 2016

Tools Copyright (c) 1996-2015 Texas Instruments Incorporated
esp8266.asm                                                          PAGE   29

    1541                            .dwendentry
    1542                            .dwendtag $C$DW$120
    1543                    
    1544 00000000                   .sect   ".text:esp8266_reset"
    1545                            .clink
    1546                            .thumbfunc esp8266_reset
    1547 00000000                   .thumb
    1548                            .global esp8266_reset
    1549                    
    1550                    $C$DW$126       .dwtag  DW_TAG_subprogram, DW_AT_name("esp8266_reset")
    1551                            .dwattr $C$DW$126, DW_AT_low_pc(esp8266_reset)
    1552                            .dwattr $C$DW$126, DW_AT_high_pc(0x00)
    1553                            .dwattr $C$DW$126, DW_AT_TI_symbol_name("esp8266_reset")
    1554                            .dwattr $C$DW$126, DW_AT_external
    1555                            .dwattr $C$DW$126, DW_AT_TI_begin_file("../esp8266.c")
    1556                            .dwattr $C$DW$126, DW_AT_TI_begin_line(0xb6)
    1557                            .dwattr $C$DW$126, DW_AT_TI_begin_column(0x06)
    1558                            .dwattr $C$DW$126, DW_AT_decl_file("../esp8266.c")
    1559                            .dwattr $C$DW$126, DW_AT_decl_line(0xb6)
    1560                            .dwattr $C$DW$126, DW_AT_decl_column(0x06)
    1561                            .dwattr $C$DW$126, DW_AT_TI_max_frame_size(0x08)
    1562                            .dwpsn  file "../esp8266.c",line 183,column 1,is_stmt,address esp8266_reset,isa 1
    1563                    
    1564                            .dwfde $C$DW$CIE, esp8266_reset
    1565                    ;----------------------------------------------------------------------
    1566                    ; 182 | void esp8266_reset()                                                   
    1567                    ; 184 | //uart_send(RESET_ESP8266);                                            
    1568                    ;----------------------------------------------------------------------
    1569                    
    1570                    ;*****************************************************************************
    1571                    ;* FUNCTION NAME: esp8266_reset                                              *
    1572                    ;*                                                                           *
    1573                    ;*   Regs Modified     : A1,A2,A3,A4,V9,SP,LR,SR,D0,D0_hi,D1,D1_hi,D2,D2_hi, *
    1574                    ;*                           D3,D3_hi,D4,D4_hi,D5,D5_hi,D6,D6_hi,D7,D7_hi,   *
    1575                    ;*                           FPEXC,FPSCR                                     *
    1576                    ;*   Regs Used         : A1,A2,A3,A4,V9,SP,LR,SR,D0,D0_hi,D1,D1_hi,D2,D2_hi, *
    1577                    ;*                           D3,D3_hi,D4,D4_hi,D5,D5_hi,D6,D6_hi,D7,D7_hi,   *
    1578                    ;*                           FPEXC,FPSCR                                     *
    1579                    ;*   Local Frame Size  : 0 Args + 0 Auto + 4 Save = 4 byte                   *
    1580                    ;*****************************************************************************
    1581 00000000           esp8266_reset:
    1582                    ;* --------------------------------------------------------------------------*
    1583                            .dwcfi  cfa_offset, 0
    1584 00000000 B508              PUSH      {A4, LR}              ; [DPU_3_PIPE]  ; [ORIG 16-BIT INS]
    1585                            .dwcfi  cfa_offset, 8
    1586                            .dwcfi  save_reg_to_mem, 14, -4
    1587                            .dwcfi  save_reg_to_mem, 3, -8
    1588                            .dwpsn  file "../esp8266.c",line 185,column 2,is_stmt,isa 1
    1589                    ;----------------------------------------------------------------------
    1590                    ; 185 | setResetPinState(LOW);                                                 
    1591                    ;----------------------------------------------------------------------
    1592 00000002 2000              MOVS      A1, #0                ; [DPU_3_PIPE] |185|  ; [ORIG 16-BIT INS]
    1593                    $C$DW$127       .dwtag  DW_TAG_TI_branch
    1594                            .dwattr $C$DW$127, DW_AT_low_pc(0x00)
    1595                            .dwattr $C$DW$127, DW_AT_name("setResetPinState")
TI ARM Assembler PC v5.2.6 Thu Apr 28 12:50:03 2016

Tools Copyright (c) 1996-2015 Texas Instruments Incorporated
esp8266.asm                                                          PAGE   30

    1596                            .dwattr $C$DW$127, DW_AT_TI_call
    1597 00000004 FFFEF7FF!         BL        setResetPinState      ; [DPU_3_PIPE] |185|  ; [KEEP 32-BIT INS]
    1598                            ; CALL OCCURS {setResetPinState }  ; [] |185| 
    1599                            .dwpsn  file "../esp8266.c",line 186,column 2,is_stmt,isa 1
    1600                    ;----------------------------------------------------------------------
    1601                    ; 186 | SysCtlDelay(SysCtlClockGet());                                         
    1602                    ;----------------------------------------------------------------------
    1603                    $C$DW$128       .dwtag  DW_TAG_TI_branch
    1604                            .dwattr $C$DW$128, DW_AT_low_pc(0x00)
    1605                            .dwattr $C$DW$128, DW_AT_name("SysCtlClockGet")
    1606                            .dwattr $C$DW$128, DW_AT_TI_call
    1607 00000008 FFFEF7FF!         BL        SysCtlClockGet        ; [DPU_3_PIPE] |186|  ; [KEEP 32-BIT INS]
    1608                            ; CALL OCCURS {SysCtlClockGet }  ; [] |186| 
    1609                    $C$DW$129       .dwtag  DW_TAG_TI_branch
    1610                            .dwattr $C$DW$129, DW_AT_low_pc(0x00)
    1611                            .dwattr $C$DW$129, DW_AT_name("SysCtlDelay")
    1612                            .dwattr $C$DW$129, DW_AT_TI_call
    1613 0000000c FFFEF7FF!         BL        SysCtlDelay           ; [DPU_3_PIPE] |186|  ; [KEEP 32-BIT INS]
    1614                            ; CALL OCCURS {SysCtlDelay }     ; [] |186| 
    1615                            .dwpsn  file "../esp8266.c",line 187,column 2,is_stmt,isa 1
    1616                    ;----------------------------------------------------------------------
    1617                    ; 187 | SysCtlDelay(SysCtlClockGet());                                         
    1618                    ;----------------------------------------------------------------------
    1619                    $C$DW$130       .dwtag  DW_TAG_TI_branch
    1620                            .dwattr $C$DW$130, DW_AT_low_pc(0x00)
    1621                            .dwattr $C$DW$130, DW_AT_name("SysCtlClockGet")
    1622                            .dwattr $C$DW$130, DW_AT_TI_call
    1623 00000010 FFFEF7FF!         BL        SysCtlClockGet        ; [DPU_3_PIPE] |187|  ; [KEEP 32-BIT INS]
    1624                            ; CALL OCCURS {SysCtlClockGet }  ; [] |187| 
    1625                    $C$DW$131       .dwtag  DW_TAG_TI_branch
    1626                            .dwattr $C$DW$131, DW_AT_low_pc(0x00)
    1627                            .dwattr $C$DW$131, DW_AT_name("SysCtlDelay")
    1628                            .dwattr $C$DW$131, DW_AT_TI_call
    1629 00000014 FFFEF7FF!         BL        SysCtlDelay           ; [DPU_3_PIPE] |187|  ; [KEEP 32-BIT INS]
    1630                            ; CALL OCCURS {SysCtlDelay }     ; [] |187| 
    1631                            .dwpsn  file "../esp8266.c",line 188,column 2,is_stmt,isa 1
    1632                    ;----------------------------------------------------------------------
    1633                    ; 188 | SysCtlDelay(SysCtlClockGet());                                         
    1634                    ;----------------------------------------------------------------------
    1635                    $C$DW$132       .dwtag  DW_TAG_TI_branch
    1636                            .dwattr $C$DW$132, DW_AT_low_pc(0x00)
    1637                            .dwattr $C$DW$132, DW_AT_name("SysCtlClockGet")
    1638                            .dwattr $C$DW$132, DW_AT_TI_call
    1639 00000018 FFFEF7FF!         BL        SysCtlClockGet        ; [DPU_3_PIPE] |188|  ; [KEEP 32-BIT INS]
    1640                            ; CALL OCCURS {SysCtlClockGet }  ; [] |188| 
    1641                    $C$DW$133       .dwtag  DW_TAG_TI_branch
    1642                            .dwattr $C$DW$133, DW_AT_low_pc(0x00)
    1643                            .dwattr $C$DW$133, DW_AT_name("SysCtlDelay")
    1644                            .dwattr $C$DW$133, DW_AT_TI_call
    1645 0000001c FFFEF7FF!         BL        SysCtlDelay           ; [DPU_3_PIPE] |188|  ; [KEEP 32-BIT INS]
    1646                            ; CALL OCCURS {SysCtlDelay }     ; [] |188| 
    1647                            .dwpsn  file "../esp8266.c",line 189,column 2,is_stmt,isa 1
    1648                    ;----------------------------------------------------------------------
    1649                    ; 189 | setResetPinState(HIGH);                                                
    1650                    ;----------------------------------------------------------------------
TI ARM Assembler PC v5.2.6 Thu Apr 28 12:50:03 2016

Tools Copyright (c) 1996-2015 Texas Instruments Incorporated
esp8266.asm                                                          PAGE   31

    1651 00000020 2001              MOVS      A1, #1                ; [DPU_3_PIPE] |189|  ; [ORIG 16-BIT INS]
    1652                    $C$DW$134       .dwtag  DW_TAG_TI_branch
    1653                            .dwattr $C$DW$134, DW_AT_low_pc(0x00)
    1654                            .dwattr $C$DW$134, DW_AT_name("setResetPinState")
    1655                            .dwattr $C$DW$134, DW_AT_TI_call
    1656 00000022 FFFEF7FF!         BL        setResetPinState      ; [DPU_3_PIPE] |189|  ; [KEEP 32-BIT INS]
    1657                            ; CALL OCCURS {setResetPinState }  ; [] |189| 
    1658                            .dwpsn  file "../esp8266.c",line 190,column 2,is_stmt,isa 1
    1659                    ;----------------------------------------------------------------------
    1660                    ; 190 | SysCtlDelay(SysCtlClockGet());                                         
    1661                    ;----------------------------------------------------------------------
    1662                    $C$DW$135       .dwtag  DW_TAG_TI_branch
    1663                            .dwattr $C$DW$135, DW_AT_low_pc(0x00)
    1664                            .dwattr $C$DW$135, DW_AT_name("SysCtlClockGet")
    1665                            .dwattr $C$DW$135, DW_AT_TI_call
    1666 00000026 FFFEF7FF!         BL        SysCtlClockGet        ; [DPU_3_PIPE] |190|  ; [KEEP 32-BIT INS]
    1667                            ; CALL OCCURS {SysCtlClockGet }  ; [] |190| 
    1668                    $C$DW$136       .dwtag  DW_TAG_TI_branch
    1669                            .dwattr $C$DW$136, DW_AT_low_pc(0x00)
    1670                            .dwattr $C$DW$136, DW_AT_name("SysCtlDelay")
    1671                            .dwattr $C$DW$136, DW_AT_TI_call
    1672 0000002a FFFEF7FF!         BL        SysCtlDelay           ; [DPU_3_PIPE] |190|  ; [KEEP 32-BIT INS]
    1673                            ; CALL OCCURS {SysCtlDelay }     ; [] |190| 
    1674                            .dwpsn  file "../esp8266.c",line 191,column 2,is_stmt,isa 1
    1675                    ;----------------------------------------------------------------------
    1676                    ; 191 | SysCtlDelay(SysCtlClockGet());                                         
    1677                    ;----------------------------------------------------------------------
    1678                    $C$DW$137       .dwtag  DW_TAG_TI_branch
    1679                            .dwattr $C$DW$137, DW_AT_low_pc(0x00)
    1680                            .dwattr $C$DW$137, DW_AT_name("SysCtlClockGet")
    1681                            .dwattr $C$DW$137, DW_AT_TI_call
    1682 0000002e FFFEF7FF!         BL        SysCtlClockGet        ; [DPU_3_PIPE] |191|  ; [KEEP 32-BIT INS]
    1683                            ; CALL OCCURS {SysCtlClockGet }  ; [] |191| 
    1684                    ;* --------------------------------------------------------------------------*
    1685                    $C$DW$138       .dwtag  DW_TAG_TI_branch
    1686                            .dwattr $C$DW$138, DW_AT_low_pc(0x00)
    1687                            .dwattr $C$DW$138, DW_AT_name("SysCtlDelay")
    1688                            .dwattr $C$DW$138, DW_AT_TI_call
    1689 00000032 FFFEF7FF!         BL        SysCtlDelay           ; [DPU_3_PIPE] |191|  ; [KEEP 32-BIT INS]
    1690                            ; CALL OCCURS {SysCtlDelay }     ; [] |191| 
    1691                            .dwpsn  file "../esp8266.c",line 192,column 2,is_stmt,isa 1
    1692                    ;----------------------------------------------------------------------
    1693                    ; 192 | uart_send(CONNECT_TO_AP);                                              
    1694                    ;----------------------------------------------------------------------
    1695 00000036 A006              ADR       A1, $C$SL1            ; [DPU_3_PIPE] |192|  ; [ORIG 16-BIT INS]
    1696                    $C$DW$139       .dwtag  DW_TAG_TI_branch
    1697                            .dwattr $C$DW$139, DW_AT_low_pc(0x00)
    1698                            .dwattr $C$DW$139, DW_AT_name("uart_send")
    1699                            .dwattr $C$DW$139, DW_AT_TI_call
    1700 00000038 FFFEF7FF!         BL        uart_send             ; [DPU_3_PIPE] |192|  ; [KEEP 32-BIT INS]
    1701                            ; CALL OCCURS {uart_send }       ; [] |192| 
    1702                            .dwpsn  file "../esp8266.c",line 193,column 2,is_stmt,isa 1
    1703                    ;----------------------------------------------------------------------
    1704                    ; 193 | SysCtlDelay(SysCtlClockGet());                                         
    1705                    ;----------------------------------------------------------------------
TI ARM Assembler PC v5.2.6 Thu Apr 28 12:50:03 2016

Tools Copyright (c) 1996-2015 Texas Instruments Incorporated
esp8266.asm                                                          PAGE   32

    1706                    $C$DW$140       .dwtag  DW_TAG_TI_branch
    1707                            .dwattr $C$DW$140, DW_AT_low_pc(0x00)
    1708                            .dwattr $C$DW$140, DW_AT_name("SysCtlClockGet")
    1709                            .dwattr $C$DW$140, DW_AT_TI_call
    1710 0000003c FFFEF7FF!         BL        SysCtlClockGet        ; [DPU_3_PIPE] |193|  ; [KEEP 32-BIT INS]
    1711                            ; CALL OCCURS {SysCtlClockGet }  ; [] |193| 
    1712                    $C$DW$141       .dwtag  DW_TAG_TI_branch
    1713                            .dwattr $C$DW$141, DW_AT_low_pc(0x00)
    1714                            .dwattr $C$DW$141, DW_AT_name("SysCtlDelay")
    1715                            .dwattr $C$DW$141, DW_AT_TI_call
    1716 00000040 FFFEF7FF!         BL        SysCtlDelay           ; [DPU_3_PIPE] |193|  ; [KEEP 32-BIT INS]
    1717                            ; CALL OCCURS {SysCtlDelay }     ; [] |193| 
    1718                            .dwpsn  file "../esp8266.c",line 194,column 2,is_stmt,isa 1
    1719                    ;----------------------------------------------------------------------
    1720                    ; 194 | SysCtlDelay(SysCtlClockGet());                                         
    1721                    ;----------------------------------------------------------------------
    1722                    $C$DW$142       .dwtag  DW_TAG_TI_branch
    1723                            .dwattr $C$DW$142, DW_AT_low_pc(0x00)
    1724                            .dwattr $C$DW$142, DW_AT_name("SysCtlClockGet")
    1725                            .dwattr $C$DW$142, DW_AT_TI_call
    1726 00000044 FFFEF7FF!         BL        SysCtlClockGet        ; [DPU_3_PIPE] |194|  ; [KEEP 32-BIT INS]
    1727                            ; CALL OCCURS {SysCtlClockGet }  ; [] |194| 
    1728                    $C$DW$143       .dwtag  DW_TAG_TI_branch
    1729                            .dwattr $C$DW$143, DW_AT_low_pc(0x00)
    1730                            .dwattr $C$DW$143, DW_AT_name("SysCtlDelay")
    1731                            .dwattr $C$DW$143, DW_AT_TI_call
    1732 00000048 FFFEF7FF!         BL        SysCtlDelay           ; [DPU_3_PIPE] |194|  ; [KEEP 32-BIT INS]
    1733                            ; CALL OCCURS {SysCtlDelay }     ; [] |194| 
    1734                            .dwpsn  file "../esp8266.c",line 195,column 1,is_stmt,isa 1
    1735                    $C$DW$144       .dwtag  DW_TAG_TI_branch
    1736                            .dwattr $C$DW$144, DW_AT_low_pc(0x00)
    1737                            .dwattr $C$DW$144, DW_AT_TI_return
    1738 0000004c BD08              POP       {A4, PC}              ; [DPU_3_PIPE]  ; [ORIG 16-BIT INS]
    1739                            .dwcfi  cfa_offset, 0
    1740                            ; BRANCH OCCURS                  ; [] 
    1741                            .dwattr $C$DW$126, DW_AT_TI_end_file("../esp8266.c")
    1742                            .dwattr $C$DW$126, DW_AT_TI_end_line(0xc3)
    1743                            .dwattr $C$DW$126, DW_AT_TI_end_column(0x01)
    1744                            .dwendentry
    1745                            .dwendtag $C$DW$126
    1746                    
    1747 00000000                   .sect   ".text:send_esp8266"
    1748                            .clink
    1749                            .thumbfunc send_esp8266
    1750 00000000                   .thumb
    1751                            .global send_esp8266
    1752                    
    1753                    $C$DW$145       .dwtag  DW_TAG_subprogram, DW_AT_name("send_esp8266")
    1754                            .dwattr $C$DW$145, DW_AT_low_pc(send_esp8266)
    1755                            .dwattr $C$DW$145, DW_AT_high_pc(0x00)
    1756                            .dwattr $C$DW$145, DW_AT_TI_symbol_name("send_esp8266")
    1757                            .dwattr $C$DW$145, DW_AT_external
    1758                            .dwattr $C$DW$145, DW_AT_type(*$C$DW$T$30)
    1759                            .dwattr $C$DW$145, DW_AT_TI_begin_file("../esp8266.c")
    1760                            .dwattr $C$DW$145, DW_AT_TI_begin_line(0xc5)
TI ARM Assembler PC v5.2.6 Thu Apr 28 12:50:03 2016

Tools Copyright (c) 1996-2015 Texas Instruments Incorporated
esp8266.asm                                                          PAGE   33

    1761                            .dwattr $C$DW$145, DW_AT_TI_begin_column(0x09)
    1762                            .dwattr $C$DW$145, DW_AT_decl_file("../esp8266.c")
    1763                            .dwattr $C$DW$145, DW_AT_decl_line(0xc5)
    1764                            .dwattr $C$DW$145, DW_AT_decl_column(0x09)
    1765                            .dwattr $C$DW$145, DW_AT_TI_max_frame_size(0xa8)
    1766                            .dwpsn  file "../esp8266.c",line 204,column 1,is_stmt,address send_esp8266,isa 1
    1767                    
    1768                            .dwfde $C$DW$CIE, send_esp8266
    1769                    $C$DW$146       .dwtag  DW_TAG_formal_parameter, DW_AT_name("humidity_data")
    1770                            .dwattr $C$DW$146, DW_AT_TI_symbol_name("humidity_data")
    1771                            .dwattr $C$DW$146, DW_AT_type(*$C$DW$T$29)
    1772                            .dwattr $C$DW$146, DW_AT_location[DW_OP_reg0]
    1773                    $C$DW$147       .dwtag  DW_TAG_formal_parameter, DW_AT_name("temperature_data_1")
    1774                            .dwattr $C$DW$147, DW_AT_TI_symbol_name("temperature_data_1")
    1775                            .dwattr $C$DW$147, DW_AT_type(*$C$DW$T$29)
    1776                            .dwattr $C$DW$147, DW_AT_location[DW_OP_reg1]
    1777                    $C$DW$148       .dwtag  DW_TAG_formal_parameter, DW_AT_name("temperature_data_2")
    1778                            .dwattr $C$DW$148, DW_AT_TI_symbol_name("temperature_data_2")
    1779                            .dwattr $C$DW$148, DW_AT_type(*$C$DW$T$29)
    1780                            .dwattr $C$DW$148, DW_AT_location[DW_OP_reg2]
    1781                    $C$DW$149       .dwtag  DW_TAG_formal_parameter, DW_AT_name("temperature_data_3")
    1782                            .dwattr $C$DW$149, DW_AT_TI_symbol_name("temperature_data_3")
    1783                            .dwattr $C$DW$149, DW_AT_type(*$C$DW$T$29)
    1784                            .dwattr $C$DW$149, DW_AT_location[DW_OP_reg3]
    1785                    $C$DW$150       .dwtag  DW_TAG_formal_parameter, DW_AT_name("co2level")
    1786                            .dwattr $C$DW$150, DW_AT_TI_symbol_name("co2level")
    1787                            .dwattr $C$DW$150, DW_AT_type(*$C$DW$T$29)
    1788                            .dwattr $C$DW$150, DW_AT_location[DW_OP_breg13 168]
    1789                    $C$DW$151       .dwtag  DW_TAG_formal_parameter, DW_AT_name("water_relay")
    1790                            .dwattr $C$DW$151, DW_AT_TI_symbol_name("water_relay")
    1791                            .dwattr $C$DW$151, DW_AT_type(*$C$DW$T$29)
    1792                            .dwattr $C$DW$151, DW_AT_location[DW_OP_breg13 172]
    1793                    $C$DW$152       .dwtag  DW_TAG_formal_parameter, DW_AT_name("fan_relay")
    1794                            .dwattr $C$DW$152, DW_AT_TI_symbol_name("fan_relay")
    1795                            .dwattr $C$DW$152, DW_AT_type(*$C$DW$T$29)
    1796                            .dwattr $C$DW$152, DW_AT_location[DW_OP_breg13 176]
    1797                    ;----------------------------------------------------------------------
    1798                    ; 197 | uint8_t send_esp8266(   uint32_t humidity_data,//field1                
    1799                    ; 198 | uint32_t temperature_data_1, //field2                                  
    1800                    ; 199 | uint32_t temperature_data_2,  //field3                                 
    1801                    ; 200 | uint32_t temperature_data_3, //field4                                  
    1802                    ; 201 | uint32_t co2level,  //field5                                           
    1803                    ; 202 | uint32_t water_relay, //field6                                         
    1804                    ; 203 | uint32_t fan_relay)//field7                                            
    1805                    ;----------------------------------------------------------------------
    1806                    
    1807                    ;*****************************************************************************
    1808                    ;* FUNCTION NAME: send_esp8266                                               *
    1809                    ;*                                                                           *
    1810                    ;*   Regs Modified     : A1,A2,A3,A4,V4,V9,SP,LR,SR,D0,D0_hi,D1,D1_hi,D2,    *
    1811                    ;*                           D2_hi,D3,D3_hi,D4,D4_hi,D5,D5_hi,D6,D6_hi,D7,   *
    1812                    ;*                           D7_hi,FPEXC,FPSCR                               *
    1813                    ;*   Regs Used         : A1,A2,A3,A4,V4,V9,SP,LR,SR,D0,D0_hi,D1,D1_hi,D2,    *
    1814                    ;*                           D2_hi,D3,D3_hi,D4,D4_hi,D5,D5_hi,D6,D6_hi,D7,   *
    1815                    ;*                           D7_hi,FPEXC,FPSCR                               *
TI ARM Assembler PC v5.2.6 Thu Apr 28 12:50:03 2016

Tools Copyright (c) 1996-2015 Texas Instruments Incorporated
esp8266.asm                                                          PAGE   34

    1816                    ;*   Local Frame Size  : 0 Args + 160 Auto + 8 Save = 168 byte               *
    1817                    ;*****************************************************************************
    1818 00000000           send_esp8266:
    1819                    ;* --------------------------------------------------------------------------*
    1820                            .dwcfi  cfa_offset, 0
    1821 00000000 B580              PUSH      {V4, LR}              ; [DPU_3_PIPE]  ; [ORIG 16-BIT INS]
    1822                            .dwcfi  cfa_offset, 8
    1823                            .dwcfi  save_reg_to_mem, 14, -4
    1824                            .dwcfi  save_reg_to_mem, 7, -8
    1825 00000002 AF02              ADD       V4, SP, #8            ; [DPU_3_PIPE]  ; [ORIG 16-BIT INS]
    1826 00000004 0DA0F1AD          SUB       SP, SP, #160          ; [DPU_3_PIPE]  ; [KEEP 32-BIT INS]
    1827                            .dwcfi  cfa_offset, 168
    1828                    $C$DW$153       .dwtag  DW_TAG_variable, DW_AT_name("humidity_data")
    1829                            .dwattr $C$DW$153, DW_AT_TI_symbol_name("humidity_data")
    1830                            .dwattr $C$DW$153, DW_AT_type(*$C$DW$T$29)
    1831                            .dwattr $C$DW$153, DW_AT_location[DW_OP_breg13 0]
    1832                    $C$DW$154       .dwtag  DW_TAG_variable, DW_AT_name("temperature_data_1")
    1833                            .dwattr $C$DW$154, DW_AT_TI_symbol_name("temperature_data_1")
    1834                            .dwattr $C$DW$154, DW_AT_type(*$C$DW$T$29)
    1835                            .dwattr $C$DW$154, DW_AT_location[DW_OP_breg13 4]
    1836                    $C$DW$155       .dwtag  DW_TAG_variable, DW_AT_name("temperature_data_2")
    1837                            .dwattr $C$DW$155, DW_AT_TI_symbol_name("temperature_data_2")
    1838                            .dwattr $C$DW$155, DW_AT_type(*$C$DW$T$29)
    1839                            .dwattr $C$DW$155, DW_AT_location[DW_OP_breg13 8]
    1840                    $C$DW$156       .dwtag  DW_TAG_variable, DW_AT_name("temperature_data_3")
    1841                            .dwattr $C$DW$156, DW_AT_TI_symbol_name("temperature_data_3")
    1842                            .dwattr $C$DW$156, DW_AT_type(*$C$DW$T$29)
    1843                            .dwattr $C$DW$156, DW_AT_location[DW_OP_breg13 12]
    1844                    $C$DW$157       .dwtag  DW_TAG_variable, DW_AT_name("cmnd")
    1845                            .dwattr $C$DW$157, DW_AT_TI_symbol_name("cmnd")
    1846                            .dwattr $C$DW$157, DW_AT_type(*$C$DW$T$136)
    1847                            .dwattr $C$DW$157, DW_AT_location[DW_OP_breg13 16]
    1848                    $C$DW$158       .dwtag  DW_TAG_variable, DW_AT_name("cmnd_len_array")
    1849                            .dwattr $C$DW$158, DW_AT_TI_symbol_name("cmnd_len_array")
    1850                            .dwattr $C$DW$158, DW_AT_type(*$C$DW$T$137)
    1851                            .dwattr $C$DW$158, DW_AT_location[DW_OP_breg13 124]
    1852                    $C$DW$159       .dwtag  DW_TAG_variable, DW_AT_name("cmnd_len_array_temp")
    1853                            .dwattr $C$DW$159, DW_AT_TI_symbol_name("cmnd_len_array_temp")
    1854                            .dwattr $C$DW$159, DW_AT_type(*$C$DW$T$138)
    1855                            .dwattr $C$DW$159, DW_AT_location[DW_OP_breg13 140]
    1856                    $C$DW$160       .dwtag  DW_TAG_variable, DW_AT_name("buffer")
    1857                            .dwattr $C$DW$160, DW_AT_TI_symbol_name("buffer")
    1858                            .dwattr $C$DW$160, DW_AT_type(*$C$DW$T$140)
    1859                            .dwattr $C$DW$160, DW_AT_location[DW_OP_breg13 144]
    1860                    $C$DW$161       .dwtag  DW_TAG_variable, DW_AT_name("buffer_long")
    1861                            .dwattr $C$DW$161, DW_AT_TI_symbol_name("buffer_long")
    1862                            .dwattr $C$DW$161, DW_AT_type(*$C$DW$T$142)
    1863                            .dwattr $C$DW$161, DW_AT_location[DW_OP_breg13 148]
    1864                    $C$DW$162       .dwtag  DW_TAG_variable, DW_AT_name("result")
    1865                            .dwattr $C$DW$162, DW_AT_TI_symbol_name("result")
    1866                            .dwattr $C$DW$162, DW_AT_type(*$C$DW$T$30)
    1867                            .dwattr $C$DW$162, DW_AT_location[DW_OP_breg13 156]
    1868                    $C$DW$163       .dwtag  DW_TAG_variable, DW_AT_name("cmnd_len")
    1869                            .dwattr $C$DW$163, DW_AT_TI_symbol_name("cmnd_len")
    1870                            .dwattr $C$DW$163, DW_AT_type(*$C$DW$T$74)
TI ARM Assembler PC v5.2.6 Thu Apr 28 12:50:03 2016

Tools Copyright (c) 1996-2015 Texas Instruments Incorporated
esp8266.asm                                                          PAGE   35

    1871                            .dwattr $C$DW$163, DW_AT_location[DW_OP_breg13 158]
    1872                    ;----------------------------------------------------------------------
    1873                    ; 205 | char cmnd[106];                                                        
    1874                    ; 206 | char cmnd_len_array[15];                                               
    1875                    ;----------------------------------------------------------------------
    1876 00000008 9303              STR       A4, [SP, #12]         ; [DPU_3_PIPE] |204|  ; [ORIG 16-BIT INS]
    1877 0000000a 9202              STR       A3, [SP, #8]          ; [DPU_3_PIPE] |204|  ; [ORIG 16-BIT INS]
    1878 0000000c 9101              STR       A2, [SP, #4]          ; [DPU_3_PIPE] |204|  ; [ORIG 16-BIT INS]
    1879 0000000e 9000              STR       A1, [SP, #0]          ; [DPU_3_PIPE] |204|  ; [ORIG 16-BIT INS]
    1880                            .dwpsn  file "../esp8266.c",line 207,column 29,is_stmt,isa 1
    1881                    ;----------------------------------------------------------------------
    1882                    ; 207 | char cmnd_len_array_temp[3]={0,0,0};                                   
    1883                    ;----------------------------------------------------------------------
    1884 00000010 2100              MOVS      A2, #0                ; [DPU_3_PIPE] |207|  ; [ORIG 16-BIT INS]
    1885 00000012 2203              MOVS      A3, #3                ; [DPU_3_PIPE] |207|  ; [ORIG 16-BIT INS]
    1886 00000014 A823              ADD       A1, SP, #140          ; [DPU_3_PIPE] |207|  ; [ORIG 16-BIT INS]
    1887                    $C$DW$164       .dwtag  DW_TAG_TI_branch
    1888                            .dwattr $C$DW$164, DW_AT_low_pc(0x00)
    1889                            .dwattr $C$DW$164, DW_AT_name("memset")
    1890                            .dwattr $C$DW$164, DW_AT_TI_call
    1891 00000016 FFFEF7FF!         BL        memset                ; [DPU_3_PIPE] |207|  ; [KEEP 32-BIT INS]
    1892                            ; CALL OCCURS {memset }          ; [] |207| 
    1893                            .dwpsn  file "../esp8266.c",line 208,column 16,is_stmt,isa 1
    1894                    ;----------------------------------------------------------------------
    1895                    ; 208 | char buffer[2]={0,0};                                                  
    1896                    ;----------------------------------------------------------------------
    1897 0000001a 2100              MOVS      A2, #0                ; [DPU_3_PIPE] |208|  ; [ORIG 16-BIT INS]
    1898 0000001c 2202              MOVS      A3, #2                ; [DPU_3_PIPE] |208|  ; [ORIG 16-BIT INS]
    1899 0000001e A824              ADD       A1, SP, #144          ; [DPU_3_PIPE] |208|  ; [ORIG 16-BIT INS]
    1900                    $C$DW$165       .dwtag  DW_TAG_TI_branch
    1901                            .dwattr $C$DW$165, DW_AT_low_pc(0x00)
    1902                            .dwattr $C$DW$165, DW_AT_name("memset")
    1903                            .dwattr $C$DW$165, DW_AT_TI_call
    1904 00000020 FFFEF7FF!         BL        memset                ; [DPU_3_PIPE] |208|  ; [KEEP 32-BIT INS]
    1905                            ; CALL OCCURS {memset }          ; [] |208| 
    1906                            .dwpsn  file "../esp8266.c",line 209,column 22,is_stmt,isa 1
    1907                    ;----------------------------------------------------------------------
    1908                    ; 209 | char buffer_long[6] = {0,0,0,0,0};                                     
    1909                    ;----------------------------------------------------------------------
    1910 00000024 2100              MOVS      A2, #0                ; [DPU_3_PIPE] |209|  ; [ORIG 16-BIT INS]
    1911 00000026 2206              MOVS      A3, #6                ; [DPU_3_PIPE] |209|  ; [ORIG 16-BIT INS]
    1912 00000028 A825              ADD       A1, SP, #148          ; [DPU_3_PIPE] |209|  ; [ORIG 16-BIT INS]
    1913                    $C$DW$166       .dwtag  DW_TAG_TI_branch
    1914                            .dwattr $C$DW$166, DW_AT_low_pc(0x00)
    1915                            .dwattr $C$DW$166, DW_AT_name("memset")
    1916                            .dwattr $C$DW$166, DW_AT_TI_call
    1917 0000002a FFFEF7FF!         BL        memset                ; [DPU_3_PIPE] |209|  ; [KEEP 32-BIT INS]
    1918                            ; CALL OCCURS {memset }          ; [] |209| 
    1919                            .dwpsn  file "../esp8266.c",line 210,column 16,is_stmt,isa 1
    1920                    ;----------------------------------------------------------------------
    1921                    ; 210 | uint8_t result=1;                                                      
    1922                    ; 211 | uint16_t cmnd_len;                                                     
    1923                    ; 212 | //      memset(cmnd,0,106);                                            
    1924                    ; 213 | //      memset(buffer_long, '0',5);                                    
    1925                    ;----------------------------------------------------------------------
TI ARM Assembler PC v5.2.6 Thu Apr 28 12:50:03 2016

Tools Copyright (c) 1996-2015 Texas Instruments Incorporated
esp8266.asm                                                          PAGE   36

    1926 0000002e 2001              MOVS      A1, #1                ; [DPU_3_PIPE] |210|  ; [ORIG 16-BIT INS]
    1927 00000030 009CF88D          STRB      A1, [SP, #156]        ; [DPU_3_PIPE] |210|  ; [KEEP 32-BIT INS]
    1928                            .dwpsn  file "../esp8266.c",line 215,column 2,is_stmt,isa 1
    1929                    ;----------------------------------------------------------------------
    1930                    ; 215 | strcpy(cmnd,SEND_DATA);                                                
    1931                    ; 216 | //strcpy(cmnd,SEND_DATA_TEST);                                         
    1932                    ; 217 | //field1 humidity                                                      
    1933                    ;----------------------------------------------------------------------
    1934 00000034 A17B              ADR       A2, $C$SL2            ; [DPU_3_PIPE] |215|  ; [ORIG 16-BIT INS]
    1935 00000036 A804              ADD       A1, SP, #16           ; [DPU_3_PIPE] |215|  ; [ORIG 16-BIT INS]
    1936                    $C$DW$167       .dwtag  DW_TAG_TI_branch
    1937                            .dwattr $C$DW$167, DW_AT_low_pc(0x00)
    1938                            .dwattr $C$DW$167, DW_AT_name("strcpy")
    1939                            .dwattr $C$DW$167, DW_AT_TI_call
    1940 00000038 FFFEF7FF!         BL        strcpy                ; [DPU_3_PIPE] |215|  ; [KEEP 32-BIT INS]
    1941                            ; CALL OCCURS {strcpy }          ; [] |215| 
    1942                            .dwpsn  file "../esp8266.c",line 218,column 2,is_stmt,isa 1
    1943                    ;----------------------------------------------------------------------
    1944                    ; 218 | buffer[0] = (char)(humidity_data / 10)+'0';//decimal                   
    1945                    ;----------------------------------------------------------------------
    1946 0000003c 9900              LDR       A2, [SP, #0]          ; [DPU_3_PIPE] |218|  ; [ORIG 16-BIT INS]
    1947 0000003e 200A              MOVS      A1, #10               ; [DPU_3_PIPE] |218|  ; [ORIG 16-BIT INS]
    1948 00000040 F0F0FBB1          UDIV      A1, A2, A1            ; [DPU_3_PIPE] |218|  ; [KEEP 32-BIT INS]
    1949 00000044 B2C0              UXTB      A1, A1                ; [DPU_3_PIPE] |218|  ; [ORIG 16-BIT INS]
    1950 00000046 3030              ADDS      A1, A1, #48           ; [DPU_3_PIPE] |218|  ; [ORIG 16-BIT INS]
    1951 00000048 0090F88D          STRB      A1, [SP, #144]        ; [DPU_3_PIPE] |218|  ; [KEEP 32-BIT INS]
    1952                            .dwpsn  file "../esp8266.c",line 219,column 2,is_stmt,isa 1
    1953                    ;----------------------------------------------------------------------
    1954                    ; 219 | buffer[1] = (char)(humidity_data % 10)+'0';//unit                      
    1955                    ;----------------------------------------------------------------------
    1956 0000004c 9800              LDR       A1, [SP, #0]          ; [DPU_3_PIPE] |219|  ; [ORIG 16-BIT INS]
    1957 0000004e 220A              MOVS      A3, #10               ; [DPU_3_PIPE] |219|  ; [ORIG 16-BIT INS]
    1958 00000050 F1F2FBB0          UDIV      A2, A1, A3            ; [DPU_3_PIPE] |219|  ; [KEEP 32-BIT INS]
    1959 00000054 4351              MULS      A2, A2, A3            ; [DPU_3_PIPE] |219|  ; [ORIG 16-BIT INS]
    1960 00000056 1A40              SUBS      A1, A1, A2            ; [DPU_3_PIPE] |219|  ; [ORIG 16-BIT INS]
    1961 00000058 B2C0              UXTB      A1, A1                ; [DPU_3_PIPE] |219|  ; [ORIG 16-BIT INS]
    1962 0000005a 3030              ADDS      A1, A1, #48           ; [DPU_3_PIPE] |219|  ; [ORIG 16-BIT INS]
    1963 0000005c 0091F88D          STRB      A1, [SP, #145]        ; [DPU_3_PIPE] |219|  ; [KEEP 32-BIT INS]
    1964                            .dwpsn  file "../esp8266.c",line 220,column 2,is_stmt,isa 1
    1965                    ;----------------------------------------------------------------------
    1966                    ; 220 | strncat(cmnd, buffer,2);                                               
    1967                    ; 221 | //field2 temperature 1                                                 
    1968                    ;----------------------------------------------------------------------
    1969 00000060 2202              MOVS      A3, #2                ; [DPU_3_PIPE] |220|  ; [ORIG 16-BIT INS]
    1970 00000062 A804              ADD       A1, SP, #16           ; [DPU_3_PIPE] |220|  ; [ORIG 16-BIT INS]
    1971 00000064 A924              ADD       A2, SP, #144          ; [DPU_3_PIPE] |220|  ; [ORIG 16-BIT INS]
    1972                    $C$DW$168       .dwtag  DW_TAG_TI_branch
    1973                            .dwattr $C$DW$168, DW_AT_low_pc(0x00)
    1974                            .dwattr $C$DW$168, DW_AT_name("strncat")
    1975                            .dwattr $C$DW$168, DW_AT_TI_call
    1976 00000066 FFFEF7FF!         BL        strncat               ; [DPU_3_PIPE] |220|  ; [KEEP 32-BIT INS]
    1977                            ; CALL OCCURS {strncat }         ; [] |220| 
    1978                            .dwpsn  file "../esp8266.c",line 222,column 2,is_stmt,isa 1
    1979                    ;----------------------------------------------------------------------
    1980                    ; 222 | strcat(cmnd,SEND_DATA_FIELD2);                                         
TI ARM Assembler PC v5.2.6 Thu Apr 28 12:50:03 2016

Tools Copyright (c) 1996-2015 Texas Instruments Incorporated
esp8266.asm                                                          PAGE   37

    1981                    ;----------------------------------------------------------------------
    1982 0000006a A179              ADR       A2, $C$SL3            ; [DPU_3_PIPE] |222|  ; [ORIG 16-BIT INS]
    1983 0000006c A804              ADD       A1, SP, #16           ; [DPU_3_PIPE] |222|  ; [ORIG 16-BIT INS]
    1984                    $C$DW$169       .dwtag  DW_TAG_TI_branch
    1985                            .dwattr $C$DW$169, DW_AT_low_pc(0x00)
    1986                            .dwattr $C$DW$169, DW_AT_name("strcat")
    1987                            .dwattr $C$DW$169, DW_AT_TI_call
    1988 0000006e FFFEF7FF!         BL        strcat                ; [DPU_3_PIPE] |222|  ; [KEEP 32-BIT INS]
    1989                            ; CALL OCCURS {strcat }          ; [] |222| 
    1990                            .dwpsn  file "../esp8266.c",line 223,column 2,is_stmt,isa 1
    1991                    ;----------------------------------------------------------------------
    1992                    ; 223 | buffer[0] = (char)(temperature_data_1 / 10)+'0';//decimal              
    1993                    ;----------------------------------------------------------------------
    1994 00000072 9901              LDR       A2, [SP, #4]          ; [DPU_3_PIPE] |223|  ; [ORIG 16-BIT INS]
    1995 00000074 200A              MOVS      A1, #10               ; [DPU_3_PIPE] |223|  ; [ORIG 16-BIT INS]
    1996 00000076 F0F0FBB1          UDIV      A1, A2, A1            ; [DPU_3_PIPE] |223|  ; [KEEP 32-BIT INS]
    1997 0000007a B2C0              UXTB      A1, A1                ; [DPU_3_PIPE] |223|  ; [ORIG 16-BIT INS]
    1998 0000007c 3030              ADDS      A1, A1, #48           ; [DPU_3_PIPE] |223|  ; [ORIG 16-BIT INS]
    1999 0000007e 0090F88D          STRB      A1, [SP, #144]        ; [DPU_3_PIPE] |223|  ; [KEEP 32-BIT INS]
    2000                            .dwpsn  file "../esp8266.c",line 224,column 2,is_stmt,isa 1
    2001                    ;----------------------------------------------------------------------
    2002                    ; 224 | buffer[1] = (char)(temperature_data_1 % 10)+'0';//unit                 
    2003                    ;----------------------------------------------------------------------
    2004 00000082 9801              LDR       A1, [SP, #4]          ; [DPU_3_PIPE] |224|  ; [ORIG 16-BIT INS]
    2005 00000084 220A              MOVS      A3, #10               ; [DPU_3_PIPE] |224|  ; [ORIG 16-BIT INS]
    2006 00000086 F1F2FBB0          UDIV      A2, A1, A3            ; [DPU_3_PIPE] |224|  ; [KEEP 32-BIT INS]
    2007 0000008a 4351              MULS      A2, A2, A3            ; [DPU_3_PIPE] |224|  ; [ORIG 16-BIT INS]
    2008 0000008c 1A40              SUBS      A1, A1, A2            ; [DPU_3_PIPE] |224|  ; [ORIG 16-BIT INS]
    2009 0000008e B2C0              UXTB      A1, A1                ; [DPU_3_PIPE] |224|  ; [ORIG 16-BIT INS]
    2010 00000090 3030              ADDS      A1, A1, #48           ; [DPU_3_PIPE] |224|  ; [ORIG 16-BIT INS]
    2011 00000092 0091F88D          STRB      A1, [SP, #145]        ; [DPU_3_PIPE] |224|  ; [KEEP 32-BIT INS]
    2012                            .dwpsn  file "../esp8266.c",line 225,column 2,is_stmt,isa 1
    2013                    ;----------------------------------------------------------------------
    2014                    ; 225 | strncat(cmnd, buffer,2);                                               
    2015                    ; 226 | //field3 temperature 2                                                 
    2016                    ;----------------------------------------------------------------------
    2017 00000096 2202              MOVS      A3, #2                ; [DPU_3_PIPE] |225|  ; [ORIG 16-BIT INS]
    2018 00000098 A804              ADD       A1, SP, #16           ; [DPU_3_PIPE] |225|  ; [ORIG 16-BIT INS]
    2019 0000009a A924              ADD       A2, SP, #144          ; [DPU_3_PIPE] |225|  ; [ORIG 16-BIT INS]
    2020                    $C$DW$170       .dwtag  DW_TAG_TI_branch
    2021                            .dwattr $C$DW$170, DW_AT_low_pc(0x00)
    2022                            .dwattr $C$DW$170, DW_AT_name("strncat")
    2023                            .dwattr $C$DW$170, DW_AT_TI_call
    2024 0000009c FFFEF7FF!         BL        strncat               ; [DPU_3_PIPE] |225|  ; [KEEP 32-BIT INS]
    2025                            ; CALL OCCURS {strncat }         ; [] |225| 
    2026                            .dwpsn  file "../esp8266.c",line 227,column 2,is_stmt,isa 1
    2027                    ;----------------------------------------------------------------------
    2028                    ; 227 | strcat(cmnd,SEND_DATA_FIELD3);                                         
    2029                    ;----------------------------------------------------------------------
    2030 000000a0 A16E              ADR       A2, $C$SL4            ; [DPU_3_PIPE] |227|  ; [ORIG 16-BIT INS]
    2031 000000a2 A804              ADD       A1, SP, #16           ; [DPU_3_PIPE] |227|  ; [ORIG 16-BIT INS]
    2032                    $C$DW$171       .dwtag  DW_TAG_TI_branch
    2033                            .dwattr $C$DW$171, DW_AT_low_pc(0x00)
    2034                            .dwattr $C$DW$171, DW_AT_name("strcat")
    2035                            .dwattr $C$DW$171, DW_AT_TI_call
TI ARM Assembler PC v5.2.6 Thu Apr 28 12:50:03 2016

Tools Copyright (c) 1996-2015 Texas Instruments Incorporated
esp8266.asm                                                          PAGE   38

    2036 000000a4 FFFEF7FF!         BL        strcat                ; [DPU_3_PIPE] |227|  ; [KEEP 32-BIT INS]
    2037                            ; CALL OCCURS {strcat }          ; [] |227| 
    2038                            .dwpsn  file "../esp8266.c",line 228,column 2,is_stmt,isa 1
    2039                    ;----------------------------------------------------------------------
    2040                    ; 228 | buffer[0] = (char)(temperature_data_2 / 10)+'0';//decimal              
    2041                    ;----------------------------------------------------------------------
    2042 000000a8 9902              LDR       A2, [SP, #8]          ; [DPU_3_PIPE] |228|  ; [ORIG 16-BIT INS]
    2043 000000aa 200A              MOVS      A1, #10               ; [DPU_3_PIPE] |228|  ; [ORIG 16-BIT INS]
    2044 000000ac F0F0FBB1          UDIV      A1, A2, A1            ; [DPU_3_PIPE] |228|  ; [KEEP 32-BIT INS]
    2045 000000b0 B2C0              UXTB      A1, A1                ; [DPU_3_PIPE] |228|  ; [ORIG 16-BIT INS]
    2046 000000b2 3030              ADDS      A1, A1, #48           ; [DPU_3_PIPE] |228|  ; [ORIG 16-BIT INS]
    2047 000000b4 0090F88D          STRB      A1, [SP, #144]        ; [DPU_3_PIPE] |228|  ; [KEEP 32-BIT INS]
    2048                            .dwpsn  file "../esp8266.c",line 229,column 2,is_stmt,isa 1
    2049                    ;----------------------------------------------------------------------
    2050                    ; 229 | buffer[1] = (char)(temperature_data_2 % 10)+'0';//unit                 
    2051                    ;----------------------------------------------------------------------
    2052 000000b8 9802              LDR       A1, [SP, #8]          ; [DPU_3_PIPE] |229|  ; [ORIG 16-BIT INS]
    2053 000000ba 220A              MOVS      A3, #10               ; [DPU_3_PIPE] |229|  ; [ORIG 16-BIT INS]
    2054 000000bc F1F2FBB0          UDIV      A2, A1, A3            ; [DPU_3_PIPE] |229|  ; [KEEP 32-BIT INS]
    2055 000000c0 4351              MULS      A2, A2, A3            ; [DPU_3_PIPE] |229|  ; [ORIG 16-BIT INS]
    2056 000000c2 1A40              SUBS      A1, A1, A2            ; [DPU_3_PIPE] |229|  ; [ORIG 16-BIT INS]
    2057 000000c4 B2C0              UXTB      A1, A1                ; [DPU_3_PIPE] |229|  ; [ORIG 16-BIT INS]
    2058 000000c6 3030              ADDS      A1, A1, #48           ; [DPU_3_PIPE] |229|  ; [ORIG 16-BIT INS]
    2059 000000c8 0091F88D          STRB      A1, [SP, #145]        ; [DPU_3_PIPE] |229|  ; [KEEP 32-BIT INS]
    2060                            .dwpsn  file "../esp8266.c",line 230,column 2,is_stmt,isa 1
    2061                    ;----------------------------------------------------------------------
    2062                    ; 230 | strncat(cmnd, buffer,2);                                               
    2063                    ; 231 | //field4 temperature 3                                                 
    2064                    ;----------------------------------------------------------------------
    2065 000000cc 2202              MOVS      A3, #2                ; [DPU_3_PIPE] |230|  ; [ORIG 16-BIT INS]
    2066 000000ce A804              ADD       A1, SP, #16           ; [DPU_3_PIPE] |230|  ; [ORIG 16-BIT INS]
    2067 000000d0 A924              ADD       A2, SP, #144          ; [DPU_3_PIPE] |230|  ; [ORIG 16-BIT INS]
    2068                    $C$DW$172       .dwtag  DW_TAG_TI_branch
    2069                            .dwattr $C$DW$172, DW_AT_low_pc(0x00)
    2070                            .dwattr $C$DW$172, DW_AT_name("strncat")
    2071                            .dwattr $C$DW$172, DW_AT_TI_call
    2072 000000d2 FFFEF7FF!         BL        strncat               ; [DPU_3_PIPE] |230|  ; [KEEP 32-BIT INS]
    2073                            ; CALL OCCURS {strncat }         ; [] |230| 
    2074                            .dwpsn  file "../esp8266.c",line 232,column 2,is_stmt,isa 1
    2075                    ;----------------------------------------------------------------------
    2076                    ; 232 | strcat(cmnd,SEND_DATA_FIELD4);                                         
    2077                    ;----------------------------------------------------------------------
    2078 000000d6 A164              ADR       A2, $C$SL5            ; [DPU_3_PIPE] |232|  ; [ORIG 16-BIT INS]
    2079 000000d8 A804              ADD       A1, SP, #16           ; [DPU_3_PIPE] |232|  ; [ORIG 16-BIT INS]
    2080                    $C$DW$173       .dwtag  DW_TAG_TI_branch
    2081                            .dwattr $C$DW$173, DW_AT_low_pc(0x00)
    2082                            .dwattr $C$DW$173, DW_AT_name("strcat")
    2083                            .dwattr $C$DW$173, DW_AT_TI_call
    2084 000000da FFFEF7FF!         BL        strcat                ; [DPU_3_PIPE] |232|  ; [KEEP 32-BIT INS]
    2085                            ; CALL OCCURS {strcat }          ; [] |232| 
    2086                            .dwpsn  file "../esp8266.c",line 233,column 2,is_stmt,isa 1
    2087                    ;----------------------------------------------------------------------
    2088                    ; 233 | buffer[0] = (char)(temperature_data_3 / 10)+'0';//decimal              
    2089                    ;----------------------------------------------------------------------
    2090 000000de 9903              LDR       A2, [SP, #12]         ; [DPU_3_PIPE] |233|  ; [ORIG 16-BIT INS]
TI ARM Assembler PC v5.2.6 Thu Apr 28 12:50:03 2016

Tools Copyright (c) 1996-2015 Texas Instruments Incorporated
esp8266.asm                                                          PAGE   39

    2091 000000e0 200A              MOVS      A1, #10               ; [DPU_3_PIPE] |233|  ; [ORIG 16-BIT INS]
    2092 000000e2 F0F0FBB1          UDIV      A1, A2, A1            ; [DPU_3_PIPE] |233|  ; [KEEP 32-BIT INS]
    2093 000000e6 B2C0              UXTB      A1, A1                ; [DPU_3_PIPE] |233|  ; [ORIG 16-BIT INS]
    2094 000000e8 3030              ADDS      A1, A1, #48           ; [DPU_3_PIPE] |233|  ; [ORIG 16-BIT INS]
    2095 000000ea 0090F88D          STRB      A1, [SP, #144]        ; [DPU_3_PIPE] |233|  ; [KEEP 32-BIT INS]
    2096                            .dwpsn  file "../esp8266.c",line 234,column 2,is_stmt,isa 1
    2097                    ;----------------------------------------------------------------------
    2098                    ; 234 | buffer[1] = (char)(temperature_data_3 % 10)+'0';//unit                 
    2099                    ;----------------------------------------------------------------------
    2100 000000ee 9803              LDR       A1, [SP, #12]         ; [DPU_3_PIPE] |234|  ; [ORIG 16-BIT INS]
    2101 000000f0 220A              MOVS      A3, #10               ; [DPU_3_PIPE] |234|  ; [ORIG 16-BIT INS]
    2102 000000f2 F1F2FBB0          UDIV      A2, A1, A3            ; [DPU_3_PIPE] |234|  ; [KEEP 32-BIT INS]
    2103 000000f6 4351              MULS      A2, A2, A3            ; [DPU_3_PIPE] |234|  ; [ORIG 16-BIT INS]
    2104 000000f8 1A40              SUBS      A1, A1, A2            ; [DPU_3_PIPE] |234|  ; [ORIG 16-BIT INS]
    2105 000000fa B2C0              UXTB      A1, A1                ; [DPU_3_PIPE] |234|  ; [ORIG 16-BIT INS]
    2106 000000fc 3030              ADDS      A1, A1, #48           ; [DPU_3_PIPE] |234|  ; [ORIG 16-BIT INS]
    2107 000000fe 0091F88D          STRB      A1, [SP, #145]        ; [DPU_3_PIPE] |234|  ; [KEEP 32-BIT INS]
    2108                            .dwpsn  file "../esp8266.c",line 235,column 2,is_stmt,isa 1
    2109                    ;----------------------------------------------------------------------
    2110                    ; 235 | strncat(cmnd, buffer,2);                                               
    2111                    ; 236 | //field5 CO2 level                                                     
    2112                    ;----------------------------------------------------------------------
    2113 00000102 2202              MOVS      A3, #2                ; [DPU_3_PIPE] |235|  ; [ORIG 16-BIT INS]
    2114 00000104 A804              ADD       A1, SP, #16           ; [DPU_3_PIPE] |235|  ; [ORIG 16-BIT INS]
    2115 00000106 A924              ADD       A2, SP, #144          ; [DPU_3_PIPE] |235|  ; [ORIG 16-BIT INS]
    2116                    $C$DW$174       .dwtag  DW_TAG_TI_branch
    2117                            .dwattr $C$DW$174, DW_AT_low_pc(0x00)
    2118                            .dwattr $C$DW$174, DW_AT_name("strncat")
    2119                            .dwattr $C$DW$174, DW_AT_TI_call
    2120 00000108 FFFEF7FF!         BL        strncat               ; [DPU_3_PIPE] |235|  ; [KEEP 32-BIT INS]
    2121                            ; CALL OCCURS {strncat }         ; [] |235| 
    2122                    ;* --------------------------------------------------------------------------*
    2123                            .dwpsn  file "../esp8266.c",line 237,column 2,is_stmt,isa 1
    2124                    ;----------------------------------------------------------------------
    2125                    ; 237 | strcat(cmnd,SEND_DATA_FIELD5);                                         
    2126                    ;----------------------------------------------------------------------
    2127 0000010c A804              ADD       A1, SP, #16           ; [DPU_3_PIPE] |237|  ; [ORIG 16-BIT INS]
    2128 0000010e A159              ADR       A2, $C$SL6            ; [DPU_3_PIPE] |237|  ; [ORIG 16-BIT INS]
    2129                    $C$DW$175       .dwtag  DW_TAG_TI_branch
    2130                            .dwattr $C$DW$175, DW_AT_low_pc(0x00)
    2131                            .dwattr $C$DW$175, DW_AT_name("strcat")
    2132                            .dwattr $C$DW$175, DW_AT_TI_call
    2133 00000110 FFFEF7FF!         BL        strcat                ; [DPU_3_PIPE] |237|  ; [KEEP 32-BIT INS]
    2134                            ; CALL OCCURS {strcat }          ; [] |237| 
    2135                            .dwpsn  file "../esp8266.c",line 238,column 2,is_stmt,isa 1
    2136                    ;----------------------------------------------------------------------
    2137                    ; 238 | uitoa(co2level, buffer_long, 5);                                       
    2138                    ;----------------------------------------------------------------------
    2139 00000114 6838              LDR       A1, [V4, #0]          ; [DPU_3_PIPE] |238|  ; [ORIG 16-BIT INS]
    2140 00000116 A925              ADD       A2, SP, #148          ; [DPU_3_PIPE] |238|  ; [ORIG 16-BIT INS]
    2141 00000118 2205              MOVS      A3, #5                ; [DPU_3_PIPE] |238|  ; [ORIG 16-BIT INS]
    2142                    $C$DW$176       .dwtag  DW_TAG_TI_branch
    2143                            .dwattr $C$DW$176, DW_AT_low_pc(0x00)
    2144                            .dwattr $C$DW$176, DW_AT_name("uitoa")
    2145                            .dwattr $C$DW$176, DW_AT_TI_call
TI ARM Assembler PC v5.2.6 Thu Apr 28 12:50:03 2016

Tools Copyright (c) 1996-2015 Texas Instruments Incorporated
esp8266.asm                                                          PAGE   40

    2146 0000011a FFFEF7FF!         BL        uitoa                 ; [DPU_3_PIPE] |238|  ; [KEEP 32-BIT INS]
    2147                            ; CALL OCCURS {uitoa }           ; [] |238| 
    2148                            .dwpsn  file "../esp8266.c",line 239,column 2,is_stmt,isa 1
    2149                    ;----------------------------------------------------------------------
    2150                    ; 239 | strncat(cmnd, buffer_long,5);                                          
    2151                    ; 240 | //field6 Water relay                                                   
    2152                    ;----------------------------------------------------------------------
    2153 0000011e A804              ADD       A1, SP, #16           ; [DPU_3_PIPE] |239|  ; [ORIG 16-BIT INS]
    2154 00000120 A925              ADD       A2, SP, #148          ; [DPU_3_PIPE] |239|  ; [ORIG 16-BIT INS]
    2155 00000122 2205              MOVS      A3, #5                ; [DPU_3_PIPE] |239|  ; [ORIG 16-BIT INS]
    2156                    $C$DW$177       .dwtag  DW_TAG_TI_branch
    2157                            .dwattr $C$DW$177, DW_AT_low_pc(0x00)
    2158                            .dwattr $C$DW$177, DW_AT_name("strncat")
    2159                            .dwattr $C$DW$177, DW_AT_TI_call
    2160 00000124 FFFEF7FF!         BL        strncat               ; [DPU_3_PIPE] |239|  ; [KEEP 32-BIT INS]
    2161                            ; CALL OCCURS {strncat }         ; [] |239| 
    2162                            .dwpsn  file "../esp8266.c",line 241,column 2,is_stmt,isa 1
    2163                    ;----------------------------------------------------------------------
    2164                    ; 241 | strcat(cmnd,SEND_DATA_FIELD6);                                         
    2165                    ;----------------------------------------------------------------------
    2166 00000128 A804              ADD       A1, SP, #16           ; [DPU_3_PIPE] |241|  ; [ORIG 16-BIT INS]
    2167 0000012a A155              ADR       A2, $C$SL7            ; [DPU_3_PIPE] |241|  ; [ORIG 16-BIT INS]
    2168                    $C$DW$178       .dwtag  DW_TAG_TI_branch
    2169                            .dwattr $C$DW$178, DW_AT_low_pc(0x00)
    2170                            .dwattr $C$DW$178, DW_AT_name("strcat")
    2171                            .dwattr $C$DW$178, DW_AT_TI_call
    2172 0000012c FFFEF7FF!         BL        strcat                ; [DPU_3_PIPE] |241|  ; [KEEP 32-BIT INS]
    2173                            ; CALL OCCURS {strcat }          ; [] |241| 
    2174                            .dwpsn  file "../esp8266.c",line 242,column 2,is_stmt,isa 1
    2175                    ;----------------------------------------------------------------------
    2176                    ; 242 | buffer[0] = (char)(water_relay)+'0';//decimal                          
    2177                    ;----------------------------------------------------------------------
    2178 00000130 7938              LDRB      A1, [V4, #4]          ; [DPU_3_PIPE] |242|  ; [ORIG 16-BIT INS]
    2179 00000132 3030              ADDS      A1, A1, #48           ; [DPU_3_PIPE] |242|  ; [ORIG 16-BIT INS]
    2180 00000134 0090F88D          STRB      A1, [SP, #144]        ; [DPU_3_PIPE] |242|  ; [KEEP 32-BIT INS]
    2181                            .dwpsn  file "../esp8266.c",line 243,column 2,is_stmt,isa 1
    2182                    ;----------------------------------------------------------------------
    2183                    ; 243 | buffer[1] = '0';//unit                                                 
    2184                    ;----------------------------------------------------------------------
    2185 00000138 2030              MOVS      A1, #48               ; [DPU_3_PIPE] |243|  ; [ORIG 16-BIT INS]
    2186 0000013a 0091F88D          STRB      A1, [SP, #145]        ; [DPU_3_PIPE] |243|  ; [KEEP 32-BIT INS]
    2187                            .dwpsn  file "../esp8266.c",line 244,column 2,is_stmt,isa 1
    2188                    ;----------------------------------------------------------------------
    2189                    ; 244 | strncat(cmnd, buffer,2);                                               
    2190                    ; 245 | //field7 Fan relay                                                     
    2191                    ;----------------------------------------------------------------------
    2192 0000013e A924              ADD       A2, SP, #144          ; [DPU_3_PIPE] |244|  ; [ORIG 16-BIT INS]
    2193 00000140 2202              MOVS      A3, #2                ; [DPU_3_PIPE] |244|  ; [ORIG 16-BIT INS]
    2194 00000142 A804              ADD       A1, SP, #16           ; [DPU_3_PIPE] |244|  ; [ORIG 16-BIT INS]
    2195                    $C$DW$179       .dwtag  DW_TAG_TI_branch
    2196                            .dwattr $C$DW$179, DW_AT_low_pc(0x00)
    2197                            .dwattr $C$DW$179, DW_AT_name("strncat")
    2198                            .dwattr $C$DW$179, DW_AT_TI_call
    2199 00000144 FFFEF7FF!         BL        strncat               ; [DPU_3_PIPE] |244|  ; [KEEP 32-BIT INS]
    2200                            ; CALL OCCURS {strncat }         ; [] |244| 
TI ARM Assembler PC v5.2.6 Thu Apr 28 12:50:03 2016

Tools Copyright (c) 1996-2015 Texas Instruments Incorporated
esp8266.asm                                                          PAGE   41

    2201                            .dwpsn  file "../esp8266.c",line 246,column 2,is_stmt,isa 1
    2202                    ;----------------------------------------------------------------------
    2203                    ; 246 | strcat(cmnd,SEND_DATA_FIELD7);                                         
    2204                    ;----------------------------------------------------------------------
    2205 00000148 A804              ADD       A1, SP, #16           ; [DPU_3_PIPE] |246|  ; [ORIG 16-BIT INS]
    2206 0000014a A150              ADR       A2, $C$SL8            ; [DPU_3_PIPE] |246|  ; [ORIG 16-BIT INS]
    2207                    $C$DW$180       .dwtag  DW_TAG_TI_branch
    2208                            .dwattr $C$DW$180, DW_AT_low_pc(0x00)
    2209                            .dwattr $C$DW$180, DW_AT_name("strcat")
    2210                            .dwattr $C$DW$180, DW_AT_TI_call
    2211 0000014c FFFEF7FF!         BL        strcat                ; [DPU_3_PIPE] |246|  ; [KEEP 32-BIT INS]
    2212                            ; CALL OCCURS {strcat }          ; [] |246| 
    2213                            .dwpsn  file "../esp8266.c",line 247,column 2,is_stmt,isa 1
    2214                    ;----------------------------------------------------------------------
    2215                    ; 247 | buffer[0] = (char)(fan_relay)+'0';//decimal                            
    2216                    ;----------------------------------------------------------------------
    2217 00000150 7A38              LDRB      A1, [V4, #8]          ; [DPU_3_PIPE] |247|  ; [ORIG 16-BIT INS]
    2218 00000152 3030              ADDS      A1, A1, #48           ; [DPU_3_PIPE] |247|  ; [ORIG 16-BIT INS]
    2219 00000154 0090F88D          STRB      A1, [SP, #144]        ; [DPU_3_PIPE] |247|  ; [KEEP 32-BIT INS]
    2220                            .dwpsn  file "../esp8266.c",line 248,column 2,is_stmt,isa 1
    2221                    ;----------------------------------------------------------------------
    2222                    ; 248 | buffer[1] = '0';//unit                                                 
    2223                    ;----------------------------------------------------------------------
    2224 00000158 2030              MOVS      A1, #48               ; [DPU_3_PIPE] |248|  ; [ORIG 16-BIT INS]
    2225 0000015a 0091F88D          STRB      A1, [SP, #145]        ; [DPU_3_PIPE] |248|  ; [KEEP 32-BIT INS]
    2226                            .dwpsn  file "../esp8266.c",line 249,column 2,is_stmt,isa 1
    2227                    ;----------------------------------------------------------------------
    2228                    ; 249 | strncat(cmnd, buffer,2);                                               
    2229                    ;----------------------------------------------------------------------
    2230 0000015e A924              ADD       A2, SP, #144          ; [DPU_3_PIPE] |249|  ; [ORIG 16-BIT INS]
    2231 00000160 2202              MOVS      A3, #2                ; [DPU_3_PIPE] |249|  ; [ORIG 16-BIT INS]
    2232 00000162 A804              ADD       A1, SP, #16           ; [DPU_3_PIPE] |249|  ; [ORIG 16-BIT INS]
    2233                    $C$DW$181       .dwtag  DW_TAG_TI_branch
    2234                            .dwattr $C$DW$181, DW_AT_low_pc(0x00)
    2235                            .dwattr $C$DW$181, DW_AT_name("strncat")
    2236                            .dwattr $C$DW$181, DW_AT_TI_call
    2237 00000164 FFFEF7FF!         BL        strncat               ; [DPU_3_PIPE] |249|  ; [KEEP 32-BIT INS]
    2238                            ; CALL OCCURS {strncat }         ; [] |249| 
    2239                            .dwpsn  file "../esp8266.c",line 251,column 2,is_stmt,isa 1
    2240                    ;----------------------------------------------------------------------
    2241                    ; 251 | cmnd_len = strlen(cmnd);                                               
    2242                    ;----------------------------------------------------------------------
    2243 00000168 A804              ADD       A1, SP, #16           ; [DPU_3_PIPE] |251|  ; [ORIG 16-BIT INS]
    2244                    $C$DW$182       .dwtag  DW_TAG_TI_branch
    2245                            .dwattr $C$DW$182, DW_AT_low_pc(0x00)
    2246                            .dwattr $C$DW$182, DW_AT_name("strlen")
    2247                            .dwattr $C$DW$182, DW_AT_TI_call
    2248 0000016a FFFEF7FF!         BL        strlen                ; [DPU_3_PIPE] |251|  ; [KEEP 32-BIT INS]
    2249                            ; CALL OCCURS {strlen }          ; [] |251| 
    2250 0000016e 009EF8AD          STRH      A1, [SP, #158]        ; [DPU_3_PIPE] |251|  ; [KEEP 32-BIT INS]
    2251                            .dwpsn  file "../esp8266.c",line 252,column 2,is_stmt,isa 1
    2252                    ;----------------------------------------------------------------------
    2253                    ; 252 | if(cmnd_len>106)                                                       
    2254                    ; 254 | #ifdef DEBUG                                                           
    2255                    ;----------------------------------------------------------------------
TI ARM Assembler PC v5.2.6 Thu Apr 28 12:50:03 2016

Tools Copyright (c) 1996-2015 Texas Instruments Incorporated
esp8266.asm                                                          PAGE   42

    2256 00000172 009EF8BD          LDRH      A1, [SP, #158]        ; [DPU_3_PIPE] |252|  ; [KEEP 32-BIT INS]
    2257 00000176 286A              CMP       A1, #106              ; [DPU_3_PIPE] |252|  ; [ORIG 16-BIT INS]
    2258 00000178 DD06              BLE       ||$C$L23||            ; [DPU_3_PIPE] |252|  ; [ORIG 16-BIT INS]
    2259                            ; BRANCHCC OCCURS {||$C$L23||}   ; [] |252| 
    2260                    ;* --------------------------------------------------------------------------*
    2261                            .dwpsn  file "../esp8266.c",line 255,column 3,is_stmt,isa 1
    2262                    ;----------------------------------------------------------------------
    2263                    ; 255 | LOGprintf("Cmnd size exceedes allowed length (%d)\n", cmnd_len);       
    2264                    ; 256 | #endif                                                                 
    2265                    ;----------------------------------------------------------------------
    2266 0000017a 109EF8BD          LDRH      A2, [SP, #158]        ; [DPU_3_PIPE] |255|  ; [KEEP 32-BIT INS]
    2267 0000017e A046              ADR       A1, $C$SL9            ; [DPU_3_PIPE] |255|  ; [ORIG 16-BIT INS]
    2268                    $C$DW$183       .dwtag  DW_TAG_TI_branch
    2269                            .dwattr $C$DW$183, DW_AT_low_pc(0x00)
    2270                            .dwattr $C$DW$183, DW_AT_name("LOGprintf")
    2271                            .dwattr $C$DW$183, DW_AT_TI_call
    2272 00000180 FFFEF7FF!         BL        LOGprintf             ; [DPU_3_PIPE] |255|  ; [KEEP 32-BIT INS]
    2273                            ; CALL OCCURS {LOGprintf }       ; [] |255| 
    2274                            .dwpsn  file "../esp8266.c",line 257,column 3,is_stmt,isa 1
    2275                    ;----------------------------------------------------------------------
    2276                    ; 257 | return 0;//too much data                                               
    2277                    ;----------------------------------------------------------------------
    2278 00000184 2000              MOVS      A1, #0                ; [DPU_3_PIPE] |257|  ; [ORIG 16-BIT INS]
    2279 00000186 E04A              B         ||$C$L26||            ; [DPU_3_PIPE] |257|  ; [ORIG 16-BIT INS]
    2280                            ; BRANCH OCCURS {||$C$L26||}     ; [] |257| 
    2281                    ;* --------------------------------------------------------------------------*
    2282 00000188           ||$C$L23||:    
    2283                            .dwpsn  file "../esp8266.c",line 259,column 2,is_stmt,isa 1
    2284                    ;----------------------------------------------------------------------
    2285                    ; 259 | cmnd_len += 2;                                                         
    2286                    ;----------------------------------------------------------------------
    2287 00000188 009EF8BD          LDRH      A1, [SP, #158]        ; [DPU_3_PIPE] |259|  ; [KEEP 32-BIT INS]
    2288 0000018c 1C80              ADDS      A1, A1, #2            ; [DPU_3_PIPE] |259|  ; [ORIG 16-BIT INS]
    2289 0000018e 009EF8AD          STRH      A1, [SP, #158]        ; [DPU_3_PIPE] |259|  ; [KEEP 32-BIT INS]
    2290                            .dwpsn  file "../esp8266.c",line 260,column 2,is_stmt,isa 1
    2291                    ;----------------------------------------------------------------------
    2292                    ; 260 | uitoa(cmnd_len, cmnd_len_array_temp, 3);                               
    2293                    ;----------------------------------------------------------------------
    2294 00000192 009EF8BD          LDRH      A1, [SP, #158]        ; [DPU_3_PIPE] |260|  ; [KEEP 32-BIT INS]
    2295 00000196 A923              ADD       A2, SP, #140          ; [DPU_3_PIPE] |260|  ; [ORIG 16-BIT INS]
    2296 00000198 2203              MOVS      A3, #3                ; [DPU_3_PIPE] |260|  ; [ORIG 16-BIT INS]
    2297                    $C$DW$184       .dwtag  DW_TAG_TI_branch
    2298                            .dwattr $C$DW$184, DW_AT_low_pc(0x00)
    2299                            .dwattr $C$DW$184, DW_AT_name("uitoa")
    2300                            .dwattr $C$DW$184, DW_AT_TI_call
    2301 0000019a FFFEF7FF!         BL        uitoa                 ; [DPU_3_PIPE] |260|  ; [KEEP 32-BIT INS]
    2302                            ; CALL OCCURS {uitoa }           ; [] |260| 
    2303                            .dwpsn  file "../esp8266.c",line 261,column 2,is_stmt,isa 1
    2304                    ;----------------------------------------------------------------------
    2305                    ; 261 | strcpy(cmnd_len_array, SEND_AT_CIPSEND);                               
    2306                    ;----------------------------------------------------------------------
    2307 0000019e A81F              ADD       A1, SP, #124          ; [DPU_3_PIPE] |261|  ; [ORIG 16-BIT INS]
    2308 000001a0 A147              ADR       A2, $C$SL10           ; [DPU_3_PIPE] |261|  ; [ORIG 16-BIT INS]
    2309                    $C$DW$185       .dwtag  DW_TAG_TI_branch
    2310                            .dwattr $C$DW$185, DW_AT_low_pc(0x00)
TI ARM Assembler PC v5.2.6 Thu Apr 28 12:50:03 2016

Tools Copyright (c) 1996-2015 Texas Instruments Incorporated
esp8266.asm                                                          PAGE   43

    2311                            .dwattr $C$DW$185, DW_AT_name("strcpy")
    2312                            .dwattr $C$DW$185, DW_AT_TI_call
    2313 000001a2 FFFEF7FF!         BL        strcpy                ; [DPU_3_PIPE] |261|  ; [KEEP 32-BIT INS]
    2314                            ; CALL OCCURS {strcpy }          ; [] |261| 
    2315                            .dwpsn  file "../esp8266.c",line 262,column 2,is_stmt,isa 1
    2316                    ;----------------------------------------------------------------------
    2317                    ; 262 | strcat(cmnd_len_array, cmnd_len_array_temp);                           
    2318                    ;----------------------------------------------------------------------
    2319 000001a6 A81F              ADD       A1, SP, #124          ; [DPU_3_PIPE] |262|  ; [ORIG 16-BIT INS]
    2320 000001a8 A923              ADD       A2, SP, #140          ; [DPU_3_PIPE] |262|  ; [ORIG 16-BIT INS]
    2321                    $C$DW$186       .dwtag  DW_TAG_TI_branch
    2322                            .dwattr $C$DW$186, DW_AT_low_pc(0x00)
    2323                            .dwattr $C$DW$186, DW_AT_name("strcat")
    2324                            .dwattr $C$DW$186, DW_AT_TI_call
    2325 000001aa FFFEF7FF!         BL        strcat                ; [DPU_3_PIPE] |262|  ; [KEEP 32-BIT INS]
    2326                            ; CALL OCCURS {strcat }          ; [] |262| 
    2327                            .dwpsn  file "../esp8266.c",line 264,column 2,is_stmt,isa 1
    2328                    ;----------------------------------------------------------------------
    2329                    ; 264 | uart_send(CONNECT_TO_THINGSPEAK);                                      
    2330                    ;----------------------------------------------------------------------
    2331 000001ae A047              ADR       A1, $C$SL11           ; [DPU_3_PIPE] |264|  ; [ORIG 16-BIT INS]
    2332                    $C$DW$187       .dwtag  DW_TAG_TI_branch
    2333                            .dwattr $C$DW$187, DW_AT_low_pc(0x00)
    2334                            .dwattr $C$DW$187, DW_AT_name("uart_send")
    2335                            .dwattr $C$DW$187, DW_AT_TI_call
    2336 000001b0 FFFEF7FF!         BL        uart_send             ; [DPU_3_PIPE] |264|  ; [KEEP 32-BIT INS]
    2337                            ; CALL OCCURS {uart_send }       ; [] |264| 
    2338                            .dwpsn  file "../esp8266.c",line 265,column 2,is_stmt,isa 1
    2339                    ;----------------------------------------------------------------------
    2340                    ; 265 | SysCtlDelay(SysCtlClockGet());                                         
    2341                    ;----------------------------------------------------------------------
    2342                    $C$DW$188       .dwtag  DW_TAG_TI_branch
    2343                            .dwattr $C$DW$188, DW_AT_low_pc(0x00)
    2344                            .dwattr $C$DW$188, DW_AT_name("SysCtlClockGet")
    2345                            .dwattr $C$DW$188, DW_AT_TI_call
    2346 000001b4 FFFEF7FF!         BL        SysCtlClockGet        ; [DPU_3_PIPE] |265|  ; [KEEP 32-BIT INS]
    2347                            ; CALL OCCURS {SysCtlClockGet }  ; [] |265| 
    2348                    $C$DW$189       .dwtag  DW_TAG_TI_branch
    2349                            .dwattr $C$DW$189, DW_AT_low_pc(0x00)
    2350                            .dwattr $C$DW$189, DW_AT_name("SysCtlDelay")
    2351                            .dwattr $C$DW$189, DW_AT_TI_call
    2352 000001b8 FFFEF7FF!         BL        SysCtlDelay           ; [DPU_3_PIPE] |265|  ; [KEEP 32-BIT INS]
    2353                            ; CALL OCCURS {SysCtlDelay }     ; [] |265| 
    2354                            .dwpsn  file "../esp8266.c",line 266,column 2,is_stmt,isa 1
    2355                    ;----------------------------------------------------------------------
    2356                    ; 266 | SysCtlDelay(SysCtlClockGet());                                         
    2357                    ;----------------------------------------------------------------------
    2358                    $C$DW$190       .dwtag  DW_TAG_TI_branch
    2359                            .dwattr $C$DW$190, DW_AT_low_pc(0x00)
    2360                            .dwattr $C$DW$190, DW_AT_name("SysCtlClockGet")
    2361                            .dwattr $C$DW$190, DW_AT_TI_call
    2362 000001bc FFFEF7FF!         BL        SysCtlClockGet        ; [DPU_3_PIPE] |266|  ; [KEEP 32-BIT INS]
    2363                            ; CALL OCCURS {SysCtlClockGet }  ; [] |266| 
    2364                    $C$DW$191       .dwtag  DW_TAG_TI_branch
    2365                            .dwattr $C$DW$191, DW_AT_low_pc(0x00)
TI ARM Assembler PC v5.2.6 Thu Apr 28 12:50:03 2016

Tools Copyright (c) 1996-2015 Texas Instruments Incorporated
esp8266.asm                                                          PAGE   44

    2366                            .dwattr $C$DW$191, DW_AT_name("SysCtlDelay")
    2367                            .dwattr $C$DW$191, DW_AT_TI_call
    2368 000001c0 FFFEF7FF!         BL        SysCtlDelay           ; [DPU_3_PIPE] |266|  ; [KEEP 32-BIT INS]
    2369                            ; CALL OCCURS {SysCtlDelay }     ; [] |266| 
    2370                            .dwpsn  file "../esp8266.c",line 267,column 2,is_stmt,isa 1
    2371                    ;----------------------------------------------------------------------
    2372                    ; 267 | SysCtlDelay(SysCtlClockGet());                                         
    2373                    ;----------------------------------------------------------------------
    2374                    $C$DW$192       .dwtag  DW_TAG_TI_branch
    2375                            .dwattr $C$DW$192, DW_AT_low_pc(0x00)
    2376                            .dwattr $C$DW$192, DW_AT_name("SysCtlClockGet")
    2377                            .dwattr $C$DW$192, DW_AT_TI_call
    2378 000001c4 FFFEF7FF!         BL        SysCtlClockGet        ; [DPU_3_PIPE] |267|  ; [KEEP 32-BIT INS]
    2379                            ; CALL OCCURS {SysCtlClockGet }  ; [] |267| 
    2380                    $C$DW$193       .dwtag  DW_TAG_TI_branch
    2381                            .dwattr $C$DW$193, DW_AT_low_pc(0x00)
    2382                            .dwattr $C$DW$193, DW_AT_name("SysCtlDelay")
    2383                            .dwattr $C$DW$193, DW_AT_TI_call
    2384 000001c8 FFFEF7FF!         BL        SysCtlDelay           ; [DPU_3_PIPE] |267|  ; [KEEP 32-BIT INS]
    2385                            ; CALL OCCURS {SysCtlDelay }     ; [] |267| 
    2386                            .dwpsn  file "../esp8266.c",line 268,column 2,is_stmt,isa 1
    2387                    ;----------------------------------------------------------------------
    2388                    ; 268 | cmnd_len_array[14] = '\0';                                             
    2389                    ;----------------------------------------------------------------------
    2390 000001cc 2000              MOVS      A1, #0                ; [DPU_3_PIPE] |268|  ; [ORIG 16-BIT INS]
    2391 000001ce 008AF88D          STRB      A1, [SP, #138]        ; [DPU_3_PIPE] |268|  ; [KEEP 32-BIT INS]
    2392                            .dwpsn  file "../esp8266.c",line 269,column 2,is_stmt,isa 1
    2393                    ;----------------------------------------------------------------------
    2394                    ; 269 | result = esp8266_send(cmnd_len_array, CMD_LENGTH_CONFIRMATION);        
    2395                    ;----------------------------------------------------------------------
    2396 000001d2 A148              ADR       A2, $C$SL12           ; [DPU_3_PIPE] |269|  ; [ORIG 16-BIT INS]
    2397 000001d4 A81F              ADD       A1, SP, #124          ; [DPU_3_PIPE] |269|  ; [ORIG 16-BIT INS]
    2398                    $C$DW$194       .dwtag  DW_TAG_TI_branch
    2399                            .dwattr $C$DW$194, DW_AT_low_pc(0x00)
    2400                            .dwattr $C$DW$194, DW_AT_name("esp8266_send")
    2401                            .dwattr $C$DW$194, DW_AT_TI_call
    2402 000001d6 FFFEF7FF!         BL        esp8266_send          ; [DPU_3_PIPE] |269|  ; [KEEP 32-BIT INS]
    2403                            ; CALL OCCURS {esp8266_send }    ; [] |269| 
    2404                    ;* --------------------------------------------------------------------------*
    2405 000001da 009CF88D          STRB      A1, [SP, #156]        ; [DPU_3_PIPE] |269|  ; [KEEP 32-BIT INS]
    2406                            .dwpsn  file "../esp8266.c",line 270,column 2,is_stmt,isa 1
    2407                    ;----------------------------------------------------------------------
    2408                    ; 270 | if(!result)                                                            
    2409                    ; 272 | #ifdef DEBUG                                                           
    2410                    ;----------------------------------------------------------------------
    2411 000001de 009CF89D          LDRB      A1, [SP, #156]        ; [DPU_3_PIPE] |270|  ; [KEEP 32-BIT INS]
    2412 000001e2 B938              CBNZ      A1, ||$C$L24||        ; []  ; [ORIG 16-BIT INS]
    2413                            ; BRANCHCC OCCURS {||$C$L24||}   ; [] |270| 
    2414                    ;* --------------------------------------------------------------------------*
    2415                            .dwpsn  file "../esp8266.c",line 273,column 3,is_stmt,isa 1
    2416                    ;----------------------------------------------------------------------
    2417                    ; 273 | LOGprintf("Failed to send: %s\n", cmnd_len_array);                     
    2418                    ; 274 | #endif                                                                 
    2419                    ;----------------------------------------------------------------------
    2420 000001e4 A044              ADR       A1, $C$SL13           ; [DPU_3_PIPE] |273|  ; [ORIG 16-BIT INS]
TI ARM Assembler PC v5.2.6 Thu Apr 28 12:50:03 2016

Tools Copyright (c) 1996-2015 Texas Instruments Incorporated
esp8266.asm                                                          PAGE   45

    2421 000001e6 A91F              ADD       A2, SP, #124          ; [DPU_3_PIPE] |273|  ; [ORIG 16-BIT INS]
    2422                    $C$DW$195       .dwtag  DW_TAG_TI_branch
    2423                            .dwattr $C$DW$195, DW_AT_low_pc(0x00)
    2424                            .dwattr $C$DW$195, DW_AT_name("LOGprintf")
    2425                            .dwattr $C$DW$195, DW_AT_TI_call
    2426 000001e8 FFFEF7FF!         BL        LOGprintf             ; [DPU_3_PIPE] |273|  ; [KEEP 32-BIT INS]
    2427                            ; CALL OCCURS {LOGprintf }       ; [] |273| 
    2428                            .dwpsn  file "../esp8266.c",line 275,column 6,is_stmt,isa 1
    2429                    ;----------------------------------------------------------------------
    2430                    ; 275 | esp8266_reset();                                                       
    2431                    ;----------------------------------------------------------------------
    2432                    $C$DW$196       .dwtag  DW_TAG_TI_branch
    2433                            .dwattr $C$DW$196, DW_AT_low_pc(0x00)
    2434                            .dwattr $C$DW$196, DW_AT_name("esp8266_reset")
    2435                            .dwattr $C$DW$196, DW_AT_TI_call
    2436 000001ec FFFEF7FF!         BL        esp8266_reset         ; [DPU_3_PIPE] |275|  ; [KEEP 32-BIT INS]
    2437                            ; CALL OCCURS {esp8266_reset }   ; [] |275| 
    2438                            .dwpsn  file "../esp8266.c",line 276,column 5,is_stmt,isa 1
    2439                    ;----------------------------------------------------------------------
    2440                    ; 276 | return 0;                                                              
    2441                    ;----------------------------------------------------------------------
    2442 000001f0 2000              MOVS      A1, #0                ; [DPU_3_PIPE] |276|  ; [ORIG 16-BIT INS]
    2443 000001f2 E014              B         ||$C$L26||            ; [DPU_3_PIPE] |276|  ; [ORIG 16-BIT INS]
    2444                            ; BRANCH OCCURS {||$C$L26||}     ; [] |276| 
    2445                    ;* --------------------------------------------------------------------------*
    2446 000001f4           ||$C$L24||:    
    2447                            .dwpsn  file "../esp8266.c",line 278,column 2,is_stmt,isa 1
    2448                    ;----------------------------------------------------------------------
    2449                    ; 278 | result = esp8266_send(cmnd, CMD_CONFIRMATION);                         
    2450                    ;----------------------------------------------------------------------
    2451 000001f4 A804              ADD       A1, SP, #16           ; [DPU_3_PIPE] |278|  ; [ORIG 16-BIT INS]
    2452 000001f6 A145              ADR       A2, $C$SL14           ; [DPU_3_PIPE] |278|  ; [ORIG 16-BIT INS]
    2453                    $C$DW$197       .dwtag  DW_TAG_TI_branch
    2454                            .dwattr $C$DW$197, DW_AT_low_pc(0x00)
    2455                            .dwattr $C$DW$197, DW_AT_name("esp8266_send")
    2456                            .dwattr $C$DW$197, DW_AT_TI_call
    2457 000001f8 FFFEF7FF!         BL        esp8266_send          ; [DPU_3_PIPE] |278|  ; [KEEP 32-BIT INS]
    2458                            ; CALL OCCURS {esp8266_send }    ; [] |278| 
    2459 000001fc 009CF88D          STRB      A1, [SP, #156]        ; [DPU_3_PIPE] |278|  ; [KEEP 32-BIT INS]
    2460                            .dwpsn  file "../esp8266.c",line 279,column 2,is_stmt,isa 1
    2461                    ;----------------------------------------------------------------------
    2462                    ; 279 | if(!result)                                                            
    2463                    ; 281 | #ifdef DEBUG                                                           
    2464                    ;----------------------------------------------------------------------
    2465 00000200 009CF89D          LDRB      A1, [SP, #156]        ; [DPU_3_PIPE] |279|  ; [KEEP 32-BIT INS]
    2466 00000204 B950              CBNZ      A1, ||$C$L25||        ; []  ; [ORIG 16-BIT INS]
    2467                            ; BRANCHCC OCCURS {||$C$L25||}   ; [] |279| 
    2468                    ;* --------------------------------------------------------------------------*
    2469                            .dwpsn  file "../esp8266.c",line 282,column 3,is_stmt,isa 1
    2470                    ;----------------------------------------------------------------------
    2471                    ; 282 | LOGprintf("Failed to send cmnd\n");                                    
    2472                    ;----------------------------------------------------------------------
    2473 00000206 A043              ADR       A1, $C$SL15           ; [DPU_3_PIPE] |282|  ; [ORIG 16-BIT INS]
    2474                    $C$DW$198       .dwtag  DW_TAG_TI_branch
    2475                            .dwattr $C$DW$198, DW_AT_low_pc(0x00)
TI ARM Assembler PC v5.2.6 Thu Apr 28 12:50:03 2016

Tools Copyright (c) 1996-2015 Texas Instruments Incorporated
esp8266.asm                                                          PAGE   46

    2476                            .dwattr $C$DW$198, DW_AT_name("LOGprintf")
    2477                            .dwattr $C$DW$198, DW_AT_TI_call
    2478 00000208 FFFEF7FF!         BL        LOGprintf             ; [DPU_3_PIPE] |282|  ; [KEEP 32-BIT INS]
    2479                            ; CALL OCCURS {LOGprintf }       ; [] |282| 
    2480                            .dwpsn  file "../esp8266.c",line 283,column 3,is_stmt,isa 1
    2481                    ;----------------------------------------------------------------------
    2482                    ; 283 | LOGprintf("%s", cmnd);                                                 
    2483                    ; 284 | #endif                                                                 
    2484                    ;----------------------------------------------------------------------
    2485 0000020c A047              ADR       A1, $C$SL16           ; [DPU_3_PIPE] |283|  ; [ORIG 16-BIT INS]
    2486 0000020e A904              ADD       A2, SP, #16           ; [DPU_3_PIPE] |283|  ; [ORIG 16-BIT INS]
    2487                    $C$DW$199       .dwtag  DW_TAG_TI_branch
    2488                            .dwattr $C$DW$199, DW_AT_low_pc(0x00)
    2489                            .dwattr $C$DW$199, DW_AT_name("LOGprintf")
    2490                            .dwattr $C$DW$199, DW_AT_TI_call
    2491 00000210 FFFEF7FF!         BL        LOGprintf             ; [DPU_3_PIPE] |283|  ; [KEEP 32-BIT INS]
    2492                            ; CALL OCCURS {LOGprintf }       ; [] |283| 
    2493                            .dwpsn  file "../esp8266.c",line 285,column 6,is_stmt,isa 1
    2494                    ;----------------------------------------------------------------------
    2495                    ; 285 | esp8266_reset();                                                       
    2496                    ;----------------------------------------------------------------------
    2497                    $C$DW$200       .dwtag  DW_TAG_TI_branch
    2498                            .dwattr $C$DW$200, DW_AT_low_pc(0x00)
    2499                            .dwattr $C$DW$200, DW_AT_name("esp8266_reset")
    2500                            .dwattr $C$DW$200, DW_AT_TI_call
    2501 00000214 FFFEF7FF!         BL        esp8266_reset         ; [DPU_3_PIPE] |285|  ; [KEEP 32-BIT INS]
    2502                            ; CALL OCCURS {esp8266_reset }   ; [] |285| 
    2503                            .dwpsn  file "../esp8266.c",line 286,column 5,is_stmt,isa 1
    2504                    ;----------------------------------------------------------------------
    2505                    ; 286 | return 0;                                                              
    2506                    ;----------------------------------------------------------------------
    2507 00000218 2000              MOVS      A1, #0                ; [DPU_3_PIPE] |286|  ; [ORIG 16-BIT INS]
    2508 0000021a E000              B         ||$C$L26||            ; [DPU_3_PIPE] |286|  ; [ORIG 16-BIT INS]
    2509                            ; BRANCH OCCURS {||$C$L26||}     ; [] |286| 
    2510                    ;* --------------------------------------------------------------------------*
    2511 0000021c           ||$C$L25||:    
    2512                            .dwpsn  file "../esp8266.c",line 288,column 2,is_stmt,isa 1
    2513                    ;----------------------------------------------------------------------
    2514                    ; 288 | return 1;                                                              
    2515                    ;----------------------------------------------------------------------
    2516 0000021c 2001              MOVS      A1, #1                ; [DPU_3_PIPE] |288|  ; [ORIG 16-BIT INS]
    2517                    ;* --------------------------------------------------------------------------*
    2518 0000021e           ||$C$L26||:    
    2519                            .dwpsn  file "../esp8266.c",line 289,column 1,is_stmt,isa 1
    2520 0000021e B028              ADD       SP, SP, #160          ; [DPU_3_PIPE]  ; [ORIG 16-BIT INS]
    2521                            .dwcfi  cfa_offset, 8
    2522                    $C$DW$201       .dwtag  DW_TAG_TI_branch
    2523                            .dwattr $C$DW$201, DW_AT_low_pc(0x00)
    2524                            .dwattr $C$DW$201, DW_AT_TI_return
    2525 00000220 BD80              POP       {V4, PC}              ; [DPU_3_PIPE]  ; [ORIG 16-BIT INS]
    2526                            .dwcfi  cfa_offset, 0
    2527                            ; BRANCH OCCURS                  ; [] 
    2528                            .dwattr $C$DW$145, DW_AT_TI_end_file("../esp8266.c")
    2529                            .dwattr $C$DW$145, DW_AT_TI_end_line(0x121)
    2530                            .dwattr $C$DW$145, DW_AT_TI_end_column(0x01)
TI ARM Assembler PC v5.2.6 Thu Apr 28 12:50:03 2016

Tools Copyright (c) 1996-2015 Texas Instruments Incorporated
esp8266.asm                                                          PAGE   47

    2531                            .dwendentry
    2532                            .dwendtag $C$DW$145
    2533                    
    2534 00000000                   .sect   ".text:setESP8266ResetPin"
    2535                            .clink
    2536                            .thumbfunc setESP8266ResetPin
    2537 00000000                   .thumb
    2538                            .global setESP8266ResetPin
    2539                    
    2540                    $C$DW$202       .dwtag  DW_TAG_subprogram, DW_AT_name("setESP8266ResetPin")
    2541                            .dwattr $C$DW$202, DW_AT_low_pc(setESP8266ResetPin)
    2542                            .dwattr $C$DW$202, DW_AT_high_pc(0x00)
    2543                            .dwattr $C$DW$202, DW_AT_TI_symbol_name("setESP8266ResetPin")
    2544                            .dwattr $C$DW$202, DW_AT_external
    2545                            .dwattr $C$DW$202, DW_AT_TI_begin_file("../esp8266.c")
    2546                            .dwattr $C$DW$202, DW_AT_TI_begin_line(0x123)
    2547                            .dwattr $C$DW$202, DW_AT_TI_begin_column(0x06)
    2548                            .dwattr $C$DW$202, DW_AT_decl_file("../esp8266.c")
    2549                            .dwattr $C$DW$202, DW_AT_decl_line(0x123)
    2550                            .dwattr $C$DW$202, DW_AT_decl_column(0x06)
    2551                            .dwattr $C$DW$202, DW_AT_TI_max_frame_size(0x08)
    2552                            .dwpsn  file "../esp8266.c",line 292,column 1,is_stmt,address setESP8266ResetPin,isa 1
    2553                    
    2554                            .dwfde $C$DW$CIE, setESP8266ResetPin
    2555                    ;----------------------------------------------------------------------
    2556                    ; 291 | void setESP8266ResetPin()                                              
    2557                    ;----------------------------------------------------------------------
    2558                    
    2559                    ;*****************************************************************************
    2560                    ;* FUNCTION NAME: setESP8266ResetPin                                         *
    2561                    ;*                                                                           *
    2562                    ;*   Regs Modified     : A1,A2,A3,A4,V9,SP,LR,SR,D0,D0_hi,D1,D1_hi,D2,D2_hi, *
    2563                    ;*                           D3,D3_hi,D4,D4_hi,D5,D5_hi,D6,D6_hi,D7,D7_hi,   *
    2564                    ;*                           FPEXC,FPSCR                                     *
    2565                    ;*   Regs Used         : A1,A2,A3,A4,V9,SP,LR,SR,D0,D0_hi,D1,D1_hi,D2,D2_hi, *
    2566                    ;*                           D3,D3_hi,D4,D4_hi,D5,D5_hi,D6,D6_hi,D7,D7_hi,   *
    2567                    ;*                           FPEXC,FPSCR                                     *
    2568                    ;*   Local Frame Size  : 0 Args + 0 Auto + 4 Save = 4 byte                   *
    2569                    ;*****************************************************************************
    2570 00000000           setESP8266ResetPin:
    2571                    ;* --------------------------------------------------------------------------*
    2572                            .dwcfi  cfa_offset, 0
    2573 00000000 B508              PUSH      {A4, LR}              ; [DPU_3_PIPE]  ; [ORIG 16-BIT INS]
    2574                            .dwcfi  cfa_offset, 8
    2575                            .dwcfi  save_reg_to_mem, 14, -4
    2576                            .dwcfi  save_reg_to_mem, 3, -8
    2577                            .dwpsn  file "../esp8266.c",line 293,column 2,is_stmt,isa 1
    2578                    ;----------------------------------------------------------------------
    2579                    ; 293 | SysCtlPeripheralEnable(SYSCTL_PERIPH_GPIOE);                           
    2580                    ;----------------------------------------------------------------------
    2581 00000002 4806              LDR       A1, $C$CON9           ; [DPU_3_PIPE] |293|  ; [ORIG 16-BIT INS]
    2582                    $C$DW$203       .dwtag  DW_TAG_TI_branch
    2583                            .dwattr $C$DW$203, DW_AT_low_pc(0x00)
    2584                            .dwattr $C$DW$203, DW_AT_name("SysCtlPeripheralEnable")
    2585                            .dwattr $C$DW$203, DW_AT_TI_call
TI ARM Assembler PC v5.2.6 Thu Apr 28 12:50:03 2016

Tools Copyright (c) 1996-2015 Texas Instruments Incorporated
esp8266.asm                                                          PAGE   48

    2586 00000004 FFFEF7FF!         BL        SysCtlPeripheralEnable ; [DPU_3_PIPE] |293|  ; [KEEP 32-BIT INS]
    2587                            ; CALL OCCURS {SysCtlPeripheralEnable }  ; [] |293| 
    2588                            .dwpsn  file "../esp8266.c",line 294,column 2,is_stmt,isa 1
    2589                    ;----------------------------------------------------------------------
    2590                    ; 294 | GPIOPinTypeGPIOOutput(GPIO_PORTE_BASE, GPIO_PIN_3);                    
    2591                    ;----------------------------------------------------------------------
    2592 00000008 4805              LDR       A1, $C$CON10          ; [DPU_3_PIPE] |294|  ; [ORIG 16-BIT INS]
    2593 0000000a 2108              MOVS      A2, #8                ; [DPU_3_PIPE] |294|  ; [ORIG 16-BIT INS]
    2594                    $C$DW$204       .dwtag  DW_TAG_TI_branch
    2595                            .dwattr $C$DW$204, DW_AT_low_pc(0x00)
    2596                            .dwattr $C$DW$204, DW_AT_name("GPIOPinTypeGPIOOutput")
    2597                            .dwattr $C$DW$204, DW_AT_TI_call
    2598 0000000c FFFEF7FF!         BL        GPIOPinTypeGPIOOutput ; [DPU_3_PIPE] |294|  ; [KEEP 32-BIT INS]
    2599                            ; CALL OCCURS {GPIOPinTypeGPIOOutput }  ; [] |294| 
    2600                            .dwpsn  file "../esp8266.c",line 295,column 2,is_stmt,isa 1
    2601                    ;----------------------------------------------------------------------
    2602                    ; 295 | GPIOPinWrite(GPIO_PORTE_BASE, GPIO_PIN_3, GPIO_PIN_3);                 
    2603                    ;----------------------------------------------------------------------
    2604 00000010 4803              LDR       A1, $C$CON10          ; [DPU_3_PIPE] |295|  ; [ORIG 16-BIT INS]
    2605 00000012 2108              MOVS      A2, #8                ; [DPU_3_PIPE] |295|  ; [ORIG 16-BIT INS]
    2606 00000014 2208              MOVS      A3, #8                ; [DPU_3_PIPE] |295|  ; [ORIG 16-BIT INS]
    2607                    $C$DW$205       .dwtag  DW_TAG_TI_branch
    2608                            .dwattr $C$DW$205, DW_AT_low_pc(0x00)
    2609                            .dwattr $C$DW$205, DW_AT_name("GPIOPinWrite")
    2610                            .dwattr $C$DW$205, DW_AT_TI_call
    2611 00000016 FFFEF7FF!         BL        GPIOPinWrite          ; [DPU_3_PIPE] |295|  ; [KEEP 32-BIT INS]
    2612                            ; CALL OCCURS {GPIOPinWrite }    ; [] |295| 
    2613                            .dwpsn  file "../esp8266.c",line 296,column 1,is_stmt,isa 1
    2614                    $C$DW$206       .dwtag  DW_TAG_TI_branch
    2615                            .dwattr $C$DW$206, DW_AT_low_pc(0x00)
    2616                            .dwattr $C$DW$206, DW_AT_TI_return
    2617 0000001a BD08              POP       {A4, PC}              ; [DPU_3_PIPE]  ; [ORIG 16-BIT INS]
    2618                            .dwcfi  cfa_offset, 0
    2619                            ; BRANCH OCCURS                  ; [] 
    2620                            .dwattr $C$DW$202, DW_AT_TI_end_file("../esp8266.c")
    2621                            .dwattr $C$DW$202, DW_AT_TI_end_line(0x128)
    2622                            .dwattr $C$DW$202, DW_AT_TI_end_column(0x01)
    2623                            .dwendentry
    2624                            .dwendtag $C$DW$202
    2625                    
    2626 00000000                   .sect   ".text:init_esp8266"
    2627                            .clink
    2628                            .thumbfunc init_esp8266
    2629 00000000                   .thumb
    2630                            .global init_esp8266
    2631                    
    2632                    $C$DW$207       .dwtag  DW_TAG_subprogram, DW_AT_name("init_esp8266")
    2633                            .dwattr $C$DW$207, DW_AT_low_pc(init_esp8266)
    2634                            .dwattr $C$DW$207, DW_AT_high_pc(0x00)
    2635                            .dwattr $C$DW$207, DW_AT_TI_symbol_name("init_esp8266")
    2636                            .dwattr $C$DW$207, DW_AT_external
    2637                            .dwattr $C$DW$207, DW_AT_type(*$C$DW$T$30)
    2638                            .dwattr $C$DW$207, DW_AT_TI_begin_file("../esp8266.c")
    2639                            .dwattr $C$DW$207, DW_AT_TI_begin_line(0x12b)
    2640                            .dwattr $C$DW$207, DW_AT_TI_begin_column(0x09)
TI ARM Assembler PC v5.2.6 Thu Apr 28 12:50:03 2016

Tools Copyright (c) 1996-2015 Texas Instruments Incorporated
esp8266.asm                                                          PAGE   49

    2641                            .dwattr $C$DW$207, DW_AT_decl_file("../esp8266.c")
    2642                            .dwattr $C$DW$207, DW_AT_decl_line(0x12b)
    2643                            .dwattr $C$DW$207, DW_AT_decl_column(0x09)
    2644                            .dwattr $C$DW$207, DW_AT_TI_max_frame_size(0x08)
    2645                            .dwpsn  file "../esp8266.c",line 300,column 1,is_stmt,address init_esp8266,isa 1
    2646                    
    2647                            .dwfde $C$DW$CIE, init_esp8266
    2648                    ;----------------------------------------------------------------------
    2649                    ; 299 | uint8_t init_esp8266()                                                 
    2650                    ;----------------------------------------------------------------------
    2651                    
    2652                    ;*****************************************************************************
    2653                    ;* FUNCTION NAME: init_esp8266                                               *
    2654                    ;*                                                                           *
    2655                    ;*   Regs Modified     : A1,A2,A3,A4,V9,SP,LR,SR,D0,D0_hi,D1,D1_hi,D2,D2_hi, *
    2656                    ;*                           D3,D3_hi,D4,D4_hi,D5,D5_hi,D6,D6_hi,D7,D7_hi,   *
    2657                    ;*                           FPEXC,FPSCR                                     *
    2658                    ;*   Regs Used         : A1,A2,A3,A4,V9,SP,LR,SR,D0,D0_hi,D1,D1_hi,D2,D2_hi, *
    2659                    ;*                           D3,D3_hi,D4,D4_hi,D5,D5_hi,D6,D6_hi,D7,D7_hi,   *
    2660                    ;*                           FPEXC,FPSCR                                     *
    2661                    ;*   Local Frame Size  : 0 Args + 4 Auto + 4 Save = 8 byte                   *
    2662                    ;*****************************************************************************
    2663 00000000           init_esp8266:
    2664                    ;* --------------------------------------------------------------------------*
    2665                            .dwcfi  cfa_offset, 0
    2666 00000000 B508              PUSH      {A4, LR}              ; [DPU_3_PIPE]  ; [ORIG 16-BIT INS]
    2667                            .dwcfi  cfa_offset, 8
    2668                            .dwcfi  save_reg_to_mem, 14, -4
    2669                            .dwcfi  save_reg_to_mem, 3, -8
    2670                    $C$DW$208       .dwtag  DW_TAG_variable, DW_AT_name("result")
    2671                            .dwattr $C$DW$208, DW_AT_TI_symbol_name("result")
    2672                            .dwattr $C$DW$208, DW_AT_type(*$C$DW$T$10)
    2673                            .dwattr $C$DW$208, DW_AT_location[DW_OP_breg13 0]
    2674                            .dwpsn  file "../esp8266.c",line 301,column 12,is_stmt,isa 1
    2675                    ;----------------------------------------------------------------------
    2676                    ; 301 | int result=1;                                                          
    2677                    ;----------------------------------------------------------------------
    2678 00000002 2001              MOVS      A1, #1                ; [DPU_3_PIPE] |301|  ; [ORIG 16-BIT INS]
    2679 00000004 9000              STR       A1, [SP, #0]          ; [DPU_3_PIPE] |301|  ; [ORIG 16-BIT INS]
    2680                            .dwpsn  file "../esp8266.c",line 303,column 2,is_stmt,isa 1
    2681                    ;----------------------------------------------------------------------
    2682                    ; 303 | SysCtlPeripheralEnable(SYSCTL_PERIPH_UART5);                           
    2683                    ;----------------------------------------------------------------------
    2684 00000006 4822              LDR       A1, $C$CON11          ; [DPU_3_PIPE] |303|  ; [ORIG 16-BIT INS]
    2685                    $C$DW$209       .dwtag  DW_TAG_TI_branch
    2686                            .dwattr $C$DW$209, DW_AT_low_pc(0x00)
    2687                            .dwattr $C$DW$209, DW_AT_name("SysCtlPeripheralEnable")
    2688                            .dwattr $C$DW$209, DW_AT_TI_call
    2689 00000008 FFFEF7FF!         BL        SysCtlPeripheralEnable ; [DPU_3_PIPE] |303|  ; [KEEP 32-BIT INS]
    2690                            ; CALL OCCURS {SysCtlPeripheralEnable }  ; [] |303| 
    2691                            .dwpsn  file "../esp8266.c",line 304,column 5,is_stmt,isa 1
    2692                    ;----------------------------------------------------------------------
    2693                    ; 304 | SysCtlPeripheralEnable(SYSCTL_PERIPH_GPIOE);                           
    2694                    ;----------------------------------------------------------------------
