TI ARM Assembler PC v5.2.5 Sat Nov 07 12:29:23 2015

Tools Copyright (c) 1996-2015 Texas Instruments Incorporated
esp8266.asm                                                          PAGE    1

       1                    ;******************************************************************************
       2                    ;* TI ARM C/C++ Codegen                                             PC v5.2.5 *
       3                    ;* Date/Time created: Sat Nov 07 12:29:23 2015                                *
       4                    ;******************************************************************************
       5                            .compiler_opts --abi=eabi --arm_vmrs_si_workaround=off --code_state=16 --diag_wrap=off --disab
       6 00000000                   .thumb
       7                    
       8                    $C$DW$CU        .dwtag  DW_TAG_compile_unit
       9                            .dwattr $C$DW$CU, DW_AT_name("../esp8266.c")
      10                            .dwattr $C$DW$CU, DW_AT_producer("TI TI ARM C/C++ Codegen PC v5.2.5 Copyright (c) 1996-2015 Te
      11                            .dwattr $C$DW$CU, DW_AT_TI_version(0x01)
      12                            .dwattr $C$DW$CU, DW_AT_comp_dir("E:\Dev\Ti\Code\GIT\LaunchpadRoomControl\LaunchpadRoomControl
      13                    
      14                    $C$DW$1 .dwtag  DW_TAG_subprogram, DW_AT_name("__builtin_strlen")
      15                            .dwattr $C$DW$1, DW_AT_TI_symbol_name("__builtin_strlen")
      16                            .dwattr $C$DW$1, DW_AT_type(*$C$DW$T$11)
      17                            .dwattr $C$DW$1, DW_AT_declaration
      18                            .dwattr $C$DW$1, DW_AT_external
      19                    $C$DW$2 .dwtag  DW_TAG_formal_parameter
      20                            .dwattr $C$DW$2, DW_AT_type(*$C$DW$T$64)
      21                            .dwendtag $C$DW$1
      22                    
      23                    
      24                    $C$DW$3 .dwtag  DW_TAG_subprogram, DW_AT_name("strlen")
      25                            .dwattr $C$DW$3, DW_AT_TI_symbol_name("strlen")
      26                            .dwattr $C$DW$3, DW_AT_type(*$C$DW$T$66)
      27                            .dwattr $C$DW$3, DW_AT_declaration
      28                            .dwattr $C$DW$3, DW_AT_external
      29                            .dwattr $C$DW$3, DW_AT_decl_file("C:/ti/ccsv6/tools/compiler/ti-cgt-arm_5.2.5/include/string.h
      30                            .dwattr $C$DW$3, DW_AT_decl_line(0x4f)
      31                            .dwattr $C$DW$3, DW_AT_decl_column(0x14)
      32                    $C$DW$4 .dwtag  DW_TAG_formal_parameter
      33                            .dwattr $C$DW$4, DW_AT_type(*$C$DW$T$64)
      34                            .dwendtag $C$DW$3
      35                    
      36                    
      37                    $C$DW$5 .dwtag  DW_TAG_subprogram, DW_AT_name("strcpy")
      38                            .dwattr $C$DW$5, DW_AT_TI_symbol_name("strcpy")
      39                            .dwattr $C$DW$5, DW_AT_type(*$C$DW$T$33)
      40                            .dwattr $C$DW$5, DW_AT_declaration
      41                            .dwattr $C$DW$5, DW_AT_external
      42                            .dwattr $C$DW$5, DW_AT_decl_file("C:/ti/ccsv6/tools/compiler/ti-cgt-arm_5.2.5/include/string.h
      43                            .dwattr $C$DW$5, DW_AT_decl_line(0x51)
      44                            .dwattr $C$DW$5, DW_AT_decl_column(0x12)
      45                    $C$DW$6 .dwtag  DW_TAG_formal_parameter
      46                            .dwattr $C$DW$6, DW_AT_type(*$C$DW$T$33)
      47                    $C$DW$7 .dwtag  DW_TAG_formal_parameter
      48                            .dwattr $C$DW$7, DW_AT_type(*$C$DW$T$64)
      49                            .dwendtag $C$DW$5
      50                    
      51                    
      52                    $C$DW$8 .dwtag  DW_TAG_subprogram, DW_AT_name("strcat")
      53                            .dwattr $C$DW$8, DW_AT_TI_symbol_name("strcat")
      54                            .dwattr $C$DW$8, DW_AT_type(*$C$DW$T$33)
      55                            .dwattr $C$DW$8, DW_AT_declaration
TI ARM Assembler PC v5.2.5 Sat Nov 07 12:29:23 2015

Tools Copyright (c) 1996-2015 Texas Instruments Incorporated
esp8266.asm                                                          PAGE    2

      56                            .dwattr $C$DW$8, DW_AT_external
      57                            .dwattr $C$DW$8, DW_AT_decl_file("C:/ti/ccsv6/tools/compiler/ti-cgt-arm_5.2.5/include/string.h
      58                            .dwattr $C$DW$8, DW_AT_decl_line(0x53)
      59                            .dwattr $C$DW$8, DW_AT_decl_column(0x12)
      60                    $C$DW$9 .dwtag  DW_TAG_formal_parameter
      61                            .dwattr $C$DW$9, DW_AT_type(*$C$DW$T$33)
      62                    $C$DW$10        .dwtag  DW_TAG_formal_parameter
      63                            .dwattr $C$DW$10, DW_AT_type(*$C$DW$T$64)
      64                            .dwendtag $C$DW$8
      65                    
      66                    
      67                    $C$DW$11        .dwtag  DW_TAG_subprogram, DW_AT_name("strstr")
      68                            .dwattr $C$DW$11, DW_AT_TI_symbol_name("strstr")
      69                            .dwattr $C$DW$11, DW_AT_type(*$C$DW$T$33)
      70                            .dwattr $C$DW$11, DW_AT_declaration
      71                            .dwattr $C$DW$11, DW_AT_external
      72                            .dwattr $C$DW$11, DW_AT_decl_file("C:/ti/ccsv6/tools/compiler/ti-cgt-arm_5.2.5/include/string.
      73                            .dwattr $C$DW$11, DW_AT_decl_line(0x60)
      74                            .dwattr $C$DW$11, DW_AT_decl_column(0x16)
      75                    $C$DW$12        .dwtag  DW_TAG_formal_parameter
      76                            .dwattr $C$DW$12, DW_AT_type(*$C$DW$T$64)
      77                    $C$DW$13        .dwtag  DW_TAG_formal_parameter
      78                            .dwattr $C$DW$13, DW_AT_type(*$C$DW$T$64)
      79                            .dwendtag $C$DW$11
      80                    
      81                    
      82                    $C$DW$14        .dwtag  DW_TAG_subprogram, DW_AT_name("GPIOPinConfigure")
      83                            .dwattr $C$DW$14, DW_AT_TI_symbol_name("GPIOPinConfigure")
      84                            .dwattr $C$DW$14, DW_AT_declaration
      85                            .dwattr $C$DW$14, DW_AT_external
      86                            .dwattr $C$DW$14, DW_AT_decl_file("E:/Dev/Ti/TivaWare/driverlib/gpio.h")
      87                            .dwattr $C$DW$14, DW_AT_decl_line(0x9f)
      88                            .dwattr $C$DW$14, DW_AT_decl_column(0x0d)
      89                    $C$DW$15        .dwtag  DW_TAG_formal_parameter
      90                            .dwattr $C$DW$15, DW_AT_type(*$C$DW$T$22)
      91                            .dwendtag $C$DW$14
      92                    
      93                    
      94                    $C$DW$16        .dwtag  DW_TAG_subprogram, DW_AT_name("GPIOPinTypeUART")
      95                            .dwattr $C$DW$16, DW_AT_TI_symbol_name("GPIOPinTypeUART")
      96                            .dwattr $C$DW$16, DW_AT_declaration
      97                            .dwattr $C$DW$16, DW_AT_external
      98                            .dwattr $C$DW$16, DW_AT_decl_file("E:/Dev/Ti/TivaWare/driverlib/gpio.h")
      99                            .dwattr $C$DW$16, DW_AT_decl_line(0xb1)
     100                            .dwattr $C$DW$16, DW_AT_decl_column(0x0d)
     101                    $C$DW$17        .dwtag  DW_TAG_formal_parameter
     102                            .dwattr $C$DW$17, DW_AT_type(*$C$DW$T$22)
     103                    $C$DW$18        .dwtag  DW_TAG_formal_parameter
     104                            .dwattr $C$DW$18, DW_AT_type(*$C$DW$T$25)
     105                            .dwendtag $C$DW$16
     106                    
     107                    
     108                    $C$DW$19        .dwtag  DW_TAG_subprogram, DW_AT_name("SysCtlPeripheralEnable")
     109                            .dwattr $C$DW$19, DW_AT_TI_symbol_name("SysCtlPeripheralEnable")
     110                            .dwattr $C$DW$19, DW_AT_declaration
TI ARM Assembler PC v5.2.5 Sat Nov 07 12:29:23 2015

Tools Copyright (c) 1996-2015 Texas Instruments Incorporated
esp8266.asm                                                          PAGE    3

     111                            .dwattr $C$DW$19, DW_AT_external
     112                            .dwattr $C$DW$19, DW_AT_decl_file("E:/Dev/Ti/TivaWare/driverlib/sysctl.h")
     113                            .dwattr $C$DW$19, DW_AT_decl_line(0x24e)
     114                            .dwattr $C$DW$19, DW_AT_decl_column(0x0d)
     115                    $C$DW$20        .dwtag  DW_TAG_formal_parameter
     116                            .dwattr $C$DW$20, DW_AT_type(*$C$DW$T$22)
     117                            .dwendtag $C$DW$19
     118                    
     119                    
     120                    $C$DW$21        .dwtag  DW_TAG_subprogram, DW_AT_name("SysCtlDelay")
     121                            .dwattr $C$DW$21, DW_AT_TI_symbol_name("SysCtlDelay")
     122                            .dwattr $C$DW$21, DW_AT_declaration
     123                            .dwattr $C$DW$21, DW_AT_external
     124                            .dwattr $C$DW$21, DW_AT_decl_file("E:/Dev/Ti/TivaWare/driverlib/sysctl.h")
     125                            .dwattr $C$DW$21, DW_AT_decl_line(0x268)
     126                            .dwattr $C$DW$21, DW_AT_decl_column(0x0d)
     127                    $C$DW$22        .dwtag  DW_TAG_formal_parameter
     128                            .dwattr $C$DW$22, DW_AT_type(*$C$DW$T$22)
     129                            .dwendtag $C$DW$21
     130                    
     131                    
     132                    $C$DW$23        .dwtag  DW_TAG_subprogram, DW_AT_name("SysCtlClockGet")
     133                            .dwattr $C$DW$23, DW_AT_TI_symbol_name("SysCtlClockGet")
     134                            .dwattr $C$DW$23, DW_AT_type(*$C$DW$T$22)
     135                            .dwattr $C$DW$23, DW_AT_declaration
     136                            .dwattr $C$DW$23, DW_AT_external
     137                            .dwattr $C$DW$23, DW_AT_decl_file("E:/Dev/Ti/TivaWare/driverlib/sysctl.h")
     138                            .dwattr $C$DW$23, DW_AT_decl_line(0x26c)
     139                            .dwattr $C$DW$23, DW_AT_decl_column(0x11)
     140                    
     141                    $C$DW$24        .dwtag  DW_TAG_subprogram, DW_AT_name("UARTConfigSetExpClk")
     142                            .dwattr $C$DW$24, DW_AT_TI_symbol_name("UARTConfigSetExpClk")
     143                            .dwattr $C$DW$24, DW_AT_declaration
     144                            .dwattr $C$DW$24, DW_AT_external
     145                            .dwattr $C$DW$24, DW_AT_decl_file("E:/Dev/Ti/TivaWare/driverlib/uart.h")
     146                            .dwattr $C$DW$24, DW_AT_decl_line(0xc8)
     147                            .dwattr $C$DW$24, DW_AT_decl_column(0x0d)
     148                    $C$DW$25        .dwtag  DW_TAG_formal_parameter
     149                            .dwattr $C$DW$25, DW_AT_type(*$C$DW$T$22)
     150                    $C$DW$26        .dwtag  DW_TAG_formal_parameter
     151                            .dwattr $C$DW$26, DW_AT_type(*$C$DW$T$22)
     152                    $C$DW$27        .dwtag  DW_TAG_formal_parameter
     153                            .dwattr $C$DW$27, DW_AT_type(*$C$DW$T$22)
     154                    $C$DW$28        .dwtag  DW_TAG_formal_parameter
     155                            .dwattr $C$DW$28, DW_AT_type(*$C$DW$T$22)
     156                            .dwendtag $C$DW$24
     157                    
     158                    
     159                    $C$DW$29        .dwtag  DW_TAG_subprogram, DW_AT_name("UARTCharsAvail")
     160                            .dwattr $C$DW$29, DW_AT_TI_symbol_name("UARTCharsAvail")
     161                            .dwattr $C$DW$29, DW_AT_type(*$C$DW$T$112)
     162                            .dwattr $C$DW$29, DW_AT_declaration
     163                            .dwattr $C$DW$29, DW_AT_external
     164                            .dwattr $C$DW$29, DW_AT_decl_file("E:/Dev/Ti/TivaWare/driverlib/uart.h")
     165                            .dwattr $C$DW$29, DW_AT_decl_line(0xd2)
TI ARM Assembler PC v5.2.5 Sat Nov 07 12:29:23 2015

Tools Copyright (c) 1996-2015 Texas Instruments Incorporated
esp8266.asm                                                          PAGE    4

     166                            .dwattr $C$DW$29, DW_AT_decl_column(0x0d)
     167                    $C$DW$30        .dwtag  DW_TAG_formal_parameter
     168                            .dwattr $C$DW$30, DW_AT_type(*$C$DW$T$22)
     169                            .dwendtag $C$DW$29
     170                    
     171                    
     172                    $C$DW$31        .dwtag  DW_TAG_subprogram, DW_AT_name("UARTCharGetNonBlocking")
     173                            .dwattr $C$DW$31, DW_AT_TI_symbol_name("UARTCharGetNonBlocking")
     174                            .dwattr $C$DW$31, DW_AT_type(*$C$DW$T$54)
     175                            .dwattr $C$DW$31, DW_AT_declaration
     176                            .dwattr $C$DW$31, DW_AT_external
     177                            .dwattr $C$DW$31, DW_AT_decl_file("E:/Dev/Ti/TivaWare/driverlib/uart.h")
     178                            .dwattr $C$DW$31, DW_AT_decl_line(0xd4)
     179                            .dwattr $C$DW$31, DW_AT_decl_column(0x10)
     180                    $C$DW$32        .dwtag  DW_TAG_formal_parameter
     181                            .dwattr $C$DW$32, DW_AT_type(*$C$DW$T$22)
     182                            .dwendtag $C$DW$31
     183                    
     184                    
     185                    $C$DW$33        .dwtag  DW_TAG_subprogram, DW_AT_name("UARTCharGet")
     186                            .dwattr $C$DW$33, DW_AT_TI_symbol_name("UARTCharGet")
     187                            .dwattr $C$DW$33, DW_AT_type(*$C$DW$T$54)
     188                            .dwattr $C$DW$33, DW_AT_declaration
     189                            .dwattr $C$DW$33, DW_AT_external
     190                            .dwattr $C$DW$33, DW_AT_decl_file("E:/Dev/Ti/TivaWare/driverlib/uart.h")
     191                            .dwattr $C$DW$33, DW_AT_decl_line(0xd5)
     192                            .dwattr $C$DW$33, DW_AT_decl_column(0x10)
     193                    $C$DW$34        .dwtag  DW_TAG_formal_parameter
     194                            .dwattr $C$DW$34, DW_AT_type(*$C$DW$T$22)
     195                            .dwendtag $C$DW$33
     196                    
     197                    
     198                    $C$DW$35        .dwtag  DW_TAG_subprogram, DW_AT_name("UARTCharPut")
     199                            .dwattr $C$DW$35, DW_AT_TI_symbol_name("UARTCharPut")
     200                            .dwattr $C$DW$35, DW_AT_declaration
     201                            .dwattr $C$DW$35, DW_AT_external
     202                            .dwattr $C$DW$35, DW_AT_decl_file("E:/Dev/Ti/TivaWare/driverlib/uart.h")
     203                            .dwattr $C$DW$35, DW_AT_decl_line(0xd7)
     204                            .dwattr $C$DW$35, DW_AT_decl_column(0x0d)
     205                    $C$DW$36        .dwtag  DW_TAG_formal_parameter
     206                            .dwattr $C$DW$36, DW_AT_type(*$C$DW$T$22)
     207                    $C$DW$37        .dwtag  DW_TAG_formal_parameter
     208                            .dwattr $C$DW$37, DW_AT_type(*$C$DW$T$6)
     209                            .dwendtag $C$DW$35
     210                    
     211                    
     212                    $C$DW$38        .dwtag  DW_TAG_subprogram, DW_AT_name("uitoa")
     213                            .dwattr $C$DW$38, DW_AT_TI_symbol_name("uitoa")
     214                            .dwattr $C$DW$38, DW_AT_declaration
     215                            .dwattr $C$DW$38, DW_AT_external
     216                            .dwattr $C$DW$38, DW_AT_decl_file("..\utils.h")
     217                            .dwattr $C$DW$38, DW_AT_decl_line(0x0b)
     218                            .dwattr $C$DW$38, DW_AT_decl_column(0x06)
     219                    $C$DW$39        .dwtag  DW_TAG_formal_parameter
     220                            .dwattr $C$DW$39, DW_AT_type(*$C$DW$T$22)
TI ARM Assembler PC v5.2.5 Sat Nov 07 12:29:23 2015

Tools Copyright (c) 1996-2015 Texas Instruments Incorporated
esp8266.asm                                                          PAGE    5

     221                    $C$DW$40        .dwtag  DW_TAG_formal_parameter
     222                            .dwattr $C$DW$40, DW_AT_type(*$C$DW$T$33)
     223                    $C$DW$41        .dwtag  DW_TAG_formal_parameter
     224                            .dwattr $C$DW$41, DW_AT_type(*$C$DW$T$10)
     225                            .dwendtag $C$DW$38
     226                    
     227                            .global uart_data
     228                            .common uart_data,32,1
     229                    $C$DW$42        .dwtag  DW_TAG_variable, DW_AT_name("uart_data")
     230                            .dwattr $C$DW$42, DW_AT_TI_symbol_name("uart_data")
     231                            .dwattr $C$DW$42, DW_AT_location[DW_OP_addr uart_data]
     232                            .dwattr $C$DW$42, DW_AT_type(*$C$DW$T$95)
     233                            .dwattr $C$DW$42, DW_AT_external
     234                            .dwattr $C$DW$42, DW_AT_decl_file("../esp8266.c")
     235                            .dwattr $C$DW$42, DW_AT_decl_line(0x36)
     236                            .dwattr $C$DW$42, DW_AT_decl_column(0x0f)
     237                            .global uart_data_counter
     238                            .common uart_data_counter,1,1
     239                    $C$DW$43        .dwtag  DW_TAG_variable, DW_AT_name("uart_data_counter")
     240                            .dwattr $C$DW$43, DW_AT_TI_symbol_name("uart_data_counter")
     241                            .dwattr $C$DW$43, DW_AT_location[DW_OP_addr uart_data_counter]
     242                            .dwattr $C$DW$43, DW_AT_type(*$C$DW$T$94)
     243                            .dwattr $C$DW$43, DW_AT_external
     244                            .dwattr $C$DW$43, DW_AT_decl_file("../esp8266.c")
     245                            .dwattr $C$DW$43, DW_AT_decl_line(0x36)
     246                            .dwattr $C$DW$43, DW_AT_decl_column(0x1e)
     247                            .common dummy$1,1,1
     248                    
     249                    $C$DW$44        .dwtag  DW_TAG_subprogram, DW_AT_name("memset")
     250                            .dwattr $C$DW$44, DW_AT_TI_symbol_name("memset")
     251                            .dwattr $C$DW$44, DW_AT_type(*$C$DW$T$3)
     252                            .dwattr $C$DW$44, DW_AT_declaration
     253                            .dwattr $C$DW$44, DW_AT_external
     254                    ;       C:\ti\ccsv6\tools\compiler\ti-cgt-arm_5.2.5\bin\armacpia.exe -@C:\\Users\\DCOSAS~1.SAG\\AppDat
     255 00000000                   .sect   ".text:uart_send"
     256                            .clink
     257                            .thumbfunc uart_send
     258 00000000                   .thumb
     259                            .global uart_send
     260                    
     261                    $C$DW$45        .dwtag  DW_TAG_subprogram, DW_AT_name("uart_send")
     262                            .dwattr $C$DW$45, DW_AT_low_pc(uart_send)
     263                            .dwattr $C$DW$45, DW_AT_high_pc(0x00)
     264                            .dwattr $C$DW$45, DW_AT_TI_symbol_name("uart_send")
     265                            .dwattr $C$DW$45, DW_AT_external
     266                            .dwattr $C$DW$45, DW_AT_TI_begin_file("../esp8266.c")
     267                            .dwattr $C$DW$45, DW_AT_TI_begin_line(0x38)
     268                            .dwattr $C$DW$45, DW_AT_TI_begin_column(0x06)
     269                            .dwattr $C$DW$45, DW_AT_decl_file("../esp8266.c")
     270                            .dwattr $C$DW$45, DW_AT_decl_line(0x38)
     271                            .dwattr $C$DW$45, DW_AT_decl_column(0x06)
     272                            .dwattr $C$DW$45, DW_AT_TI_max_frame_size(0x08)
     273                            .dwpsn  file "../esp8266.c",line 57,column 1,is_stmt,address uart_send,isa 1
     274                    
     275                            .dwfde $C$DW$CIE, uart_send
TI ARM Assembler PC v5.2.5 Sat Nov 07 12:29:23 2015

Tools Copyright (c) 1996-2015 Texas Instruments Incorporated
esp8266.asm                                                          PAGE    6

     276                    $C$DW$46        .dwtag  DW_TAG_formal_parameter, DW_AT_name("str")
     277                            .dwattr $C$DW$46, DW_AT_TI_symbol_name("str")
     278                            .dwattr $C$DW$46, DW_AT_type(*$C$DW$T$33)
     279                            .dwattr $C$DW$46, DW_AT_location[DW_OP_reg0]
     280                    ;----------------------------------------------------------------------
     281                    ;  56 | void uart_send(char* str)                                              
     282                    ;----------------------------------------------------------------------
     283                    
     284                    ;*****************************************************************************
     285                    ;* FUNCTION NAME: uart_send                                                  *
     286                    ;*                                                                           *
     287                    ;*   Regs Modified     : A1,A2,A3,A4,V9,SP,LR,SR,D0,D0_hi,D1,D1_hi,D2,D2_hi, *
     288                    ;*                           D3,D3_hi,D4,D4_hi,D5,D5_hi,D6,D6_hi,D7,D7_hi,   *
     289                    ;*                           FPEXC,FPSCR                                     *
     290                    ;*   Regs Used         : A1,A2,A3,A4,V9,SP,LR,SR,D0,D0_hi,D1,D1_hi,D2,D2_hi, *
     291                    ;*                           D3,D3_hi,D4,D4_hi,D5,D5_hi,D6,D6_hi,D7,D7_hi,   *
     292                    ;*                           FPEXC,FPSCR                                     *
     293                    ;*   Local Frame Size  : 0 Args + 4 Auto + 4 Save = 8 byte                   *
     294                    ;*****************************************************************************
     295 00000000           uart_send:
     296                    ;* --------------------------------------------------------------------------*
     297                            .dwcfi  cfa_offset, 0
     298 00000000 B508              PUSH      {A4, LR}              ; [DPU_3_PIPE]  ; [ORIG 16-BIT INS]
     299                            .dwcfi  cfa_offset, 8
     300                            .dwcfi  save_reg_to_mem, 14, -4
     301                            .dwcfi  save_reg_to_mem, 3, -8
     302                    $C$DW$47        .dwtag  DW_TAG_variable, DW_AT_name("str")
     303                            .dwattr $C$DW$47, DW_AT_TI_symbol_name("str")
     304                            .dwattr $C$DW$47, DW_AT_type(*$C$DW$T$33)
     305                            .dwattr $C$DW$47, DW_AT_location[DW_OP_breg13 0]
     306 00000002 9000              STR       A1, [SP, #0]          ; [DPU_3_PIPE] |57|  ; [ORIG 16-BIT INS]
     307                            .dwpsn  file "../esp8266.c",line 58,column 2,is_stmt,isa 1
     308                    ;----------------------------------------------------------------------
     309                    ;  58 | while(*str)                                                            
     310                    ;----------------------------------------------------------------------
     311 00000004 E006              B         ||$C$L2||             ; [DPU_3_PIPE] |58|  ; [ORIG 16-BIT INS]
     312                            ; BRANCH OCCURS {||$C$L2||}      ; [] |58| 
     313                    ;* --------------------------------------------------------------------------*
     314 00000006           ||$C$L1||:    
     315                            .dwpsn  file "../esp8266.c",line 60,column 3,is_stmt,isa 1
     316                    ;----------------------------------------------------------------------
     317                    ;  60 | UARTCharPut(UART5_BASE, *str++);                                       
     318                    ;----------------------------------------------------------------------
     319 00000006 9800              LDR       A1, [SP, #0]          ; [DPU_3_PIPE] |60|  ; [ORIG 16-BIT INS]
     320 00000008 1B01F810          LDRB      A2, [A1], #1          ; [DPU_3_PIPE] |60|  ; [KEEP 32-BIT INS]
     321 0000000c 9000              STR       A1, [SP, #0]          ; [DPU_3_PIPE] |60|  ; [ORIG 16-BIT INS]
     322 0000000e 4808              LDR       A1, $C$CON1           ; [DPU_3_PIPE] |60|  ; [ORIG 16-BIT INS]
     323                    $C$DW$48        .dwtag  DW_TAG_TI_branch
     324                            .dwattr $C$DW$48, DW_AT_low_pc(0x00)
     325                            .dwattr $C$DW$48, DW_AT_name("UARTCharPut")
     326                            .dwattr $C$DW$48, DW_AT_TI_call
     327 00000010 FFFEF7FF!         BL        UARTCharPut           ; [DPU_3_PIPE] |60|  ; [KEEP 32-BIT INS]
     328                            ; CALL OCCURS {UARTCharPut }     ; [] |60| 
     329                    ;* --------------------------------------------------------------------------*
     330                    ;*   BEGIN LOOP ||$C$L2||
TI ARM Assembler PC v5.2.5 Sat Nov 07 12:29:23 2015

Tools Copyright (c) 1996-2015 Texas Instruments Incorporated
esp8266.asm                                                          PAGE    7

     331                    ;* --------------------------------------------------------------------------*
     332 00000014           ||$C$L2||:    
     333                            .dwpsn  file "../esp8266.c",line 58,column 2,is_stmt,isa 1
     334 00000014 9800              LDR       A1, [SP, #0]          ; [DPU_3_PIPE] |58|  ; [ORIG 16-BIT INS]
     335 00000016 7800              LDRB      A1, [A1, #0]          ; [DPU_3_PIPE] |58|  ; [ORIG 16-BIT INS]
     336 00000018 2800              CMP       A1, #0                ; [DPU_3_PIPE] |58|  ; [ORIG 16-BIT INS]
     337 0000001a D1F4              BNE       ||$C$L1||             ; [DPU_3_PIPE] |58|  ; [ORIG 16-BIT INS]
     338                            ; BRANCHCC OCCURS {||$C$L1||}    ; [] |58| 
     339                    ;* --------------------------------------------------------------------------*
     340                            .dwpsn  file "../esp8266.c",line 62,column 2,is_stmt,isa 1
     341                    ;----------------------------------------------------------------------
     342                    ;  62 | UARTCharPut(UART5_BASE, 13);                                           
     343                    ;----------------------------------------------------------------------
     344 0000001c 4804              LDR       A1, $C$CON1           ; [DPU_3_PIPE] |62|  ; [ORIG 16-BIT INS]
     345 0000001e 210D              MOVS      A2, #13               ; [DPU_3_PIPE] |62|  ; [ORIG 16-BIT INS]
     346                    $C$DW$49        .dwtag  DW_TAG_TI_branch
     347                            .dwattr $C$DW$49, DW_AT_low_pc(0x00)
     348                            .dwattr $C$DW$49, DW_AT_name("UARTCharPut")
     349                            .dwattr $C$DW$49, DW_AT_TI_call
     350 00000020 FFFEF7FF!         BL        UARTCharPut           ; [DPU_3_PIPE] |62|  ; [KEEP 32-BIT INS]
     351                            ; CALL OCCURS {UARTCharPut }     ; [] |62| 
     352                            .dwpsn  file "../esp8266.c",line 63,column 2,is_stmt,isa 1
     353                    ;----------------------------------------------------------------------
     354                    ;  63 | UARTCharPut(UART5_BASE, 10);                                           
     355                    ;----------------------------------------------------------------------
     356 00000024 4802              LDR       A1, $C$CON1           ; [DPU_3_PIPE] |63|  ; [ORIG 16-BIT INS]
     357 00000026 210A              MOVS      A2, #10               ; [DPU_3_PIPE] |63|  ; [ORIG 16-BIT INS]
     358                    $C$DW$50        .dwtag  DW_TAG_TI_branch
     359                            .dwattr $C$DW$50, DW_AT_low_pc(0x00)
     360                            .dwattr $C$DW$50, DW_AT_name("UARTCharPut")
     361                            .dwattr $C$DW$50, DW_AT_TI_call
     362 00000028 FFFEF7FF!         BL        UARTCharPut           ; [DPU_3_PIPE] |63|  ; [KEEP 32-BIT INS]
     363                            ; CALL OCCURS {UARTCharPut }     ; [] |63| 
     364                            .dwpsn  file "../esp8266.c",line 64,column 1,is_stmt,isa 1
     365                    $C$DW$51        .dwtag  DW_TAG_TI_branch
     366                            .dwattr $C$DW$51, DW_AT_low_pc(0x00)
     367                            .dwattr $C$DW$51, DW_AT_TI_return
     368 0000002c BD08              POP       {A4, PC}              ; [DPU_3_PIPE]  ; [ORIG 16-BIT INS]
     369                            .dwcfi  cfa_offset, 0
     370                            ; BRANCH OCCURS                  ; [] 
     371                            .dwattr $C$DW$45, DW_AT_TI_end_file("../esp8266.c")
     372                            .dwattr $C$DW$45, DW_AT_TI_end_line(0x40)
     373                            .dwattr $C$DW$45, DW_AT_TI_end_column(0x01)
     374                            .dwendentry
     375                            .dwendtag $C$DW$45
     376                    
     377 00000000                   .sect   ".text:esp8266_send"
     378                            .clink
     379                            .thumbfunc esp8266_send
     380 00000000                   .thumb
     381                            .global esp8266_send
     382                    
     383                    $C$DW$52        .dwtag  DW_TAG_subprogram, DW_AT_name("esp8266_send")
     384                            .dwattr $C$DW$52, DW_AT_low_pc(esp8266_send)
     385                            .dwattr $C$DW$52, DW_AT_high_pc(0x00)
TI ARM Assembler PC v5.2.5 Sat Nov 07 12:29:23 2015

Tools Copyright (c) 1996-2015 Texas Instruments Incorporated
esp8266.asm                                                          PAGE    8

     386                            .dwattr $C$DW$52, DW_AT_TI_symbol_name("esp8266_send")
     387                            .dwattr $C$DW$52, DW_AT_external
     388                            .dwattr $C$DW$52, DW_AT_type(*$C$DW$T$25)
     389                            .dwattr $C$DW$52, DW_AT_TI_begin_file("../esp8266.c")
     390                            .dwattr $C$DW$52, DW_AT_TI_begin_line(0x42)
     391                            .dwattr $C$DW$52, DW_AT_TI_begin_column(0x09)
     392                            .dwattr $C$DW$52, DW_AT_decl_file("../esp8266.c")
     393                            .dwattr $C$DW$52, DW_AT_decl_line(0x42)
     394                            .dwattr $C$DW$52, DW_AT_decl_column(0x09)
     395                            .dwattr $C$DW$52, DW_AT_TI_max_frame_size(0x18)
     396                            .dwpsn  file "../esp8266.c",line 67,column 1,is_stmt,address esp8266_send,isa 1
     397                    
     398                            .dwfde $C$DW$CIE, esp8266_send
     399                    $C$DW$53        .dwtag  DW_TAG_variable, DW_AT_name("dummy")
     400                            .dwattr $C$DW$53, DW_AT_TI_symbol_name("dummy$1")
     401                            .dwattr $C$DW$53, DW_AT_type(*$C$DW$T$6)
     402                            .dwattr $C$DW$53, DW_AT_location[DW_OP_addr dummy$1]
     403                    $C$DW$54        .dwtag  DW_TAG_formal_parameter, DW_AT_name("str")
     404                            .dwattr $C$DW$54, DW_AT_TI_symbol_name("str")
     405                            .dwattr $C$DW$54, DW_AT_type(*$C$DW$T$33)
     406                            .dwattr $C$DW$54, DW_AT_location[DW_OP_reg0]
     407                    $C$DW$55        .dwtag  DW_TAG_formal_parameter, DW_AT_name("confirmation")
     408                            .dwattr $C$DW$55, DW_AT_TI_symbol_name("confirmation")
     409                            .dwattr $C$DW$55, DW_AT_type(*$C$DW$T$33)
     410                            .dwattr $C$DW$55, DW_AT_location[DW_OP_reg1]
     411                    ;----------------------------------------------------------------------
     412                    ;  66 | uint8_t esp8266_send(char* str, char* confirmation)                    
     413                    ;----------------------------------------------------------------------
     414                    
     415                    ;*****************************************************************************
     416                    ;* FUNCTION NAME: esp8266_send                                               *
     417                    ;*                                                                           *
     418                    ;*   Regs Modified     : A1,A2,A3,A4,V1,V9,SP,LR,SR,D0,D0_hi,D1,D1_hi,D2,    *
     419                    ;*                           D2_hi,D3,D3_hi,D4,D4_hi,D5,D5_hi,D6,D6_hi,D7,   *
     420                    ;*                           D7_hi,FPEXC,FPSCR                               *
     421                    ;*   Regs Used         : A1,A2,A3,A4,V1,V9,SP,LR,SR,D0,D0_hi,D1,D1_hi,D2,    *
     422                    ;*                           D2_hi,D3,D3_hi,D4,D4_hi,D5,D5_hi,D6,D6_hi,D7,   *
     423                    ;*                           D7_hi,FPEXC,FPSCR                               *
     424                    ;*   Local Frame Size  : 0 Args + 16 Auto + 8 Save = 24 byte                 *
     425                    ;*****************************************************************************
     426 00000000           esp8266_send:
     427                    ;* --------------------------------------------------------------------------*
     428                            .dwcfi  cfa_offset, 0
     429 00000000 B51F              PUSH      {A1, A2, A3, A4, V1, LR} ; [DPU_3_PIPE]  ; [ORIG 16-BIT INS]
     430                            .dwcfi  cfa_offset, 24
     431                            .dwcfi  save_reg_to_mem, 14, -4
     432                            .dwcfi  save_reg_to_mem, 4, -8
     433                            .dwcfi  save_reg_to_mem, 3, -12
     434                            .dwcfi  save_reg_to_mem, 2, -16
     435                            .dwcfi  save_reg_to_mem, 1, -20
     436                            .dwcfi  save_reg_to_mem, 0, -24
     437                    $C$DW$56        .dwtag  DW_TAG_variable, DW_AT_name("str")
     438                            .dwattr $C$DW$56, DW_AT_TI_symbol_name("str")
     439                            .dwattr $C$DW$56, DW_AT_type(*$C$DW$T$33)
     440                            .dwattr $C$DW$56, DW_AT_location[DW_OP_breg13 0]
TI ARM Assembler PC v5.2.5 Sat Nov 07 12:29:23 2015

Tools Copyright (c) 1996-2015 Texas Instruments Incorporated
esp8266.asm                                                          PAGE    9

     441                    $C$DW$57        .dwtag  DW_TAG_variable, DW_AT_name("confirmation")
     442                            .dwattr $C$DW$57, DW_AT_TI_symbol_name("confirmation")
     443                            .dwattr $C$DW$57, DW_AT_type(*$C$DW$T$33)
     444                            .dwattr $C$DW$57, DW_AT_location[DW_OP_breg13 4]
     445                    $C$DW$58        .dwtag  DW_TAG_variable, DW_AT_name("timeout")
     446                            .dwattr $C$DW$58, DW_AT_TI_symbol_name("timeout")
     447                            .dwattr $C$DW$58, DW_AT_type(*$C$DW$T$22)
     448                            .dwattr $C$DW$58, DW_AT_location[DW_OP_breg13 8]
     449                    $C$DW$59        .dwtag  DW_TAG_variable, DW_AT_name("result")
     450                            .dwattr $C$DW$59, DW_AT_TI_symbol_name("result")
     451                            .dwattr $C$DW$59, DW_AT_type(*$C$DW$T$25)
     452                            .dwattr $C$DW$59, DW_AT_location[DW_OP_breg13 12]
     453 00000002 9101              STR       A2, [SP, #4]          ; [DPU_3_PIPE] |67|  ; [ORIG 16-BIT INS]
     454 00000004 9000              STR       A1, [SP, #0]          ; [DPU_3_PIPE] |67|  ; [ORIG 16-BIT INS]
     455                            .dwpsn  file "../esp8266.c",line 68,column 19,is_stmt,isa 1
     456                    ;----------------------------------------------------------------------
     457                    ;  68 | uint32_t timeout = 0;                                                  
     458                    ;----------------------------------------------------------------------
     459 00000006 2000              MOVS      A1, #0                ; [DPU_3_PIPE] |68|  ; [ORIG 16-BIT INS]
     460 00000008 9002              STR       A1, [SP, #8]          ; [DPU_3_PIPE] |68|  ; [ORIG 16-BIT INS]
     461                            .dwpsn  file "../esp8266.c",line 69,column 17,is_stmt,isa 1
     462                    ;----------------------------------------------------------------------
     463                    ;  69 | uint8_t result = 0;                                                    
     464                    ;  71 | static char dummy;                                                     
     465                    ;  72 | //memset ((void*)uart_data,'\0',255);                                  
     466                    ;----------------------------------------------------------------------
     467 0000000a 2000              MOVS      A1, #0                ; [DPU_3_PIPE] |69|  ; [ORIG 16-BIT INS]
     468 0000000c 000CF88D          STRB      A1, [SP, #12]         ; [DPU_3_PIPE] |69|  ; [KEEP 32-BIT INS]
     469                            .dwpsn  file "../esp8266.c",line 73,column 6,is_stmt,isa 1
     470                    ;----------------------------------------------------------------------
     471                    ;  73 | for(uart_data_counter = 0; uart_data_counter < 30; uart_data_counter++)
     472                    ;----------------------------------------------------------------------
     473 00000010 492C              LDR       A2, $C$CON2           ; [DPU_3_PIPE] |73|  ; [ORIG 16-BIT INS]
     474 00000012 2000              MOVS      A1, #0                ; [DPU_3_PIPE] |73|  ; [ORIG 16-BIT INS]
     475 00000014 7008              STRB      A1, [A2, #0]          ; [DPU_3_PIPE] |73|  ; [ORIG 16-BIT INS]
     476                            .dwpsn  file "../esp8266.c",line 73,column 29,is_stmt,isa 1
     477 00000016 482B              LDR       A1, $C$CON2           ; [DPU_3_PIPE] |73|  ; [ORIG 16-BIT INS]
     478 00000018 7800              LDRB      A1, [A1, #0]          ; [DPU_3_PIPE] |73|  ; [ORIG 16-BIT INS]
     479 0000001a 281E              CMP       A1, #30               ; [DPU_3_PIPE] |73|  ; [ORIG 16-BIT INS]
     480 0000001c DA12              BGE       ||$C$L5||             ; [DPU_3_PIPE] |73|  ; [ORIG 16-BIT INS]
     481                            ; BRANCHCC OCCURS {||$C$L5||}    ; [] |73| 
     482                    ;* --------------------------------------------------------------------------*
     483                    ;*   BEGIN LOOP ||$C$L3||
     484                    ;*
     485                    ;*   Loop source line                : 73
     486                    ;*   Loop closing brace source line  : 76
     487                    ;*   Known Minimum Trip Count        : 1
     488                    ;*   Known Maximum Trip Count        : 4294967295
     489                    ;*   Known Max Trip Count Factor     : 1
     490                    ;* --------------------------------------------------------------------------*
     491 0000001e           ||$C$L3||:    
     492                            .dwpsn  file "../esp8266.c",line 75,column 3,is_stmt,isa 1
     493                    ;----------------------------------------------------------------------
     494                    ;  75 | uart_data[uart_data_counter] = 0;                                      
     495                    ;----------------------------------------------------------------------
TI ARM Assembler PC v5.2.5 Sat Nov 07 12:29:23 2015

Tools Copyright (c) 1996-2015 Texas Instruments Incorporated
esp8266.asm                                                          PAGE   10

     496 0000001e 4829              LDR       A1, $C$CON2           ; [DPU_3_PIPE] |75|  ; [ORIG 16-BIT INS]
     497 00000020 4A29              LDR       A3, $C$CON3           ; [DPU_3_PIPE] |75|  ; [ORIG 16-BIT INS]
     498 00000022 7800              LDRB      A1, [A1, #0]          ; [DPU_3_PIPE] |75|  ; [ORIG 16-BIT INS]
     499 00000024 2100              MOVS      A2, #0                ; [DPU_3_PIPE] |75|  ; [ORIG 16-BIT INS]
     500 00000026 5411              STRB      A2, [A3, +A1]         ; [DPU_3_PIPE] |75|  ; [ORIG 16-BIT INS]
     501                            .dwpsn  file "../esp8266.c",line 73,column 53,is_stmt,isa 1
     502 00000028 4926              LDR       A2, $C$CON2           ; [DPU_3_PIPE] |73|  ; [ORIG 16-BIT INS]
     503 0000002a 7808              LDRB      A1, [A2, #0]          ; [DPU_3_PIPE] |73|  ; [ORIG 16-BIT INS]
     504 0000002c 1C40              ADDS      A1, A1, #1            ; [DPU_3_PIPE] |73|  ; [ORIG 16-BIT INS]
     505 0000002e 7008              STRB      A1, [A2, #0]          ; [DPU_3_PIPE] |73|  ; [ORIG 16-BIT INS]
     506                            .dwpsn  file "../esp8266.c",line 73,column 29,is_stmt,isa 1
     507 00000030 4824              LDR       A1, $C$CON2           ; [DPU_3_PIPE] |73|  ; [ORIG 16-BIT INS]
     508 00000032 7800              LDRB      A1, [A1, #0]          ; [DPU_3_PIPE] |73|  ; [ORIG 16-BIT INS]
     509 00000034 281E              CMP       A1, #30               ; [DPU_3_PIPE] |73|  ; [ORIG 16-BIT INS]
     510 00000036 DBF2              BLT       ||$C$L3||             ; [DPU_3_PIPE] |73|  ; [ORIG 16-BIT INS]
     511                            ; BRANCHCC OCCURS {||$C$L3||}    ; [] |73| 
     512                    ;* --------------------------------------------------------------------------*
     513                            .dwpsn  file "../esp8266.c",line 77,column 2,is_stmt,isa 1
     514                    ;----------------------------------------------------------------------
     515                    ;  77 | while(UARTCharsAvail(UART5_BASE))                                      
     516                    ;----------------------------------------------------------------------
     517 00000038 E004              B         ||$C$L5||             ; [DPU_3_PIPE] |77|  ; [ORIG 16-BIT INS]
     518                            ; BRANCH OCCURS {||$C$L5||}      ; [] |77| 
     519                    ;* --------------------------------------------------------------------------*
     520 0000003a           ||$C$L4||:    
     521                            .dwpsn  file "../esp8266.c",line 79,column 3,is_stmt,isa 1
     522                    ;----------------------------------------------------------------------
     523                    ;  79 | dummy = UARTCharGet(UART5_BASE);                                       
     524                    ;----------------------------------------------------------------------
     525 0000003a 4825              LDR       A1, $C$CON5           ; [DPU_3_PIPE] |79|  ; [ORIG 16-BIT INS]
     526                    $C$DW$60        .dwtag  DW_TAG_TI_branch
     527                            .dwattr $C$DW$60, DW_AT_low_pc(0x00)
     528                            .dwattr $C$DW$60, DW_AT_name("UARTCharGet")
     529                            .dwattr $C$DW$60, DW_AT_TI_call
     530 0000003c FFFEF7FF!         BL        UARTCharGet           ; [DPU_3_PIPE] |79|  ; [KEEP 32-BIT INS]
     531                            ; CALL OCCURS {UARTCharGet }     ; [] |79| 
     532 00000040 4922              LDR       A2, $C$CON4           ; [DPU_3_PIPE] |79|  ; [ORIG 16-BIT INS]
     533 00000042 7008              STRB      A1, [A2, #0]          ; [DPU_3_PIPE] |79|  ; [ORIG 16-BIT INS]
     534                    ;* --------------------------------------------------------------------------*
     535                    ;*   BEGIN LOOP ||$C$L5||
     536                    ;* --------------------------------------------------------------------------*
     537 00000044           ||$C$L5||:    
     538                            .dwpsn  file "../esp8266.c",line 77,column 2,is_stmt,isa 1
     539 00000044 4822              LDR       A1, $C$CON5           ; [DPU_3_PIPE] |77|  ; [ORIG 16-BIT INS]
     540                    $C$DW$61        .dwtag  DW_TAG_TI_branch
     541                            .dwattr $C$DW$61, DW_AT_low_pc(0x00)
     542                            .dwattr $C$DW$61, DW_AT_name("UARTCharsAvail")
     543                            .dwattr $C$DW$61, DW_AT_TI_call
     544 00000046 FFFEF7FF!         BL        UARTCharsAvail        ; [DPU_3_PIPE] |77|  ; [KEEP 32-BIT INS]
     545                            ; CALL OCCURS {UARTCharsAvail }  ; [] |77| 
     546 0000004a 2800              CMP       A1, #0                ; [DPU_3_PIPE] |77|  ; [ORIG 16-BIT INS]
     547 0000004c D1F5              BNE       ||$C$L4||             ; [DPU_3_PIPE] |77|  ; [ORIG 16-BIT INS]
     548                            ; BRANCHCC OCCURS {||$C$L4||}    ; [] |77| 
     549                    ;* --------------------------------------------------------------------------*
     550                            .dwpsn  file "../esp8266.c",line 81,column 2,is_stmt,isa 1
TI ARM Assembler PC v5.2.5 Sat Nov 07 12:29:23 2015

Tools Copyright (c) 1996-2015 Texas Instruments Incorporated
esp8266.asm                                                          PAGE   11

     551                    ;----------------------------------------------------------------------
     552                    ;  81 | uart_data_counter = 0;                                                 
     553                    ;----------------------------------------------------------------------
     554 0000004e 491D              LDR       A2, $C$CON2           ; [DPU_3_PIPE] |81|  ; [ORIG 16-BIT INS]
     555 00000050 2000              MOVS      A1, #0                ; [DPU_3_PIPE] |81|  ; [ORIG 16-BIT INS]
     556 00000052 7008              STRB      A1, [A2, #0]          ; [DPU_3_PIPE] |81|  ; [ORIG 16-BIT INS]
     557                            .dwpsn  file "../esp8266.c",line 82,column 2,is_stmt,isa 1
     558                    ;----------------------------------------------------------------------
     559                    ;  82 | uart_send(str);                                                        
     560                    ;----------------------------------------------------------------------
     561 00000054 9800              LDR       A1, [SP, #0]          ; [DPU_3_PIPE] |82|  ; [ORIG 16-BIT INS]
     562                    $C$DW$62        .dwtag  DW_TAG_TI_branch
     563                            .dwattr $C$DW$62, DW_AT_low_pc(0x00)
     564                            .dwattr $C$DW$62, DW_AT_name("uart_send")
     565                            .dwattr $C$DW$62, DW_AT_TI_call
     566 00000056 FFFEF7FF!         BL        uart_send             ; [DPU_3_PIPE] |82|  ; [KEEP 32-BIT INS]
     567                            ; CALL OCCURS {uart_send }       ; [] |82| 
     568                            .dwpsn  file "../esp8266.c",line 84,column 2,is_stmt,isa 1
     569                    ;----------------------------------------------------------------------
     570                    ;  84 | while(!result)                                                         
     571                    ;----------------------------------------------------------------------
     572 0000005a E02B              B         ||$C$L9||             ; [DPU_3_PIPE] |84|  ; [ORIG 16-BIT INS]
     573                            ; BRANCH OCCURS {||$C$L9||}      ; [] |84| 
     574                    ;* --------------------------------------------------------------------------*
     575 0000005c           ||$C$L6||:    
     576                            .dwpsn  file "../esp8266.c",line 86,column 3,is_stmt,isa 1
     577                    ;----------------------------------------------------------------------
     578                    ;  86 | dummy = UARTCharGetNonBlocking(UART5_BASE);                            
     579                    ;----------------------------------------------------------------------
     580 0000005c 481C              LDR       A1, $C$CON5           ; [DPU_3_PIPE] |86|  ; [ORIG 16-BIT INS]
     581                    $C$DW$63        .dwtag  DW_TAG_TI_branch
     582                            .dwattr $C$DW$63, DW_AT_low_pc(0x00)
     583                            .dwattr $C$DW$63, DW_AT_name("UARTCharGetNonBlocking")
     584                            .dwattr $C$DW$63, DW_AT_TI_call
     585 0000005e FFFEF7FF!         BL        UARTCharGetNonBlocking ; [DPU_3_PIPE] |86|  ; [KEEP 32-BIT INS]
     586                            ; CALL OCCURS {UARTCharGetNonBlocking }  ; [] |86| 
     587 00000062 491A              LDR       A2, $C$CON4           ; [DPU_3_PIPE] |86|  ; [ORIG 16-BIT INS]
     588 00000064 7008              STRB      A1, [A2, #0]          ; [DPU_3_PIPE] |86|  ; [ORIG 16-BIT INS]
     589                            .dwpsn  file "../esp8266.c",line 87,column 3,is_stmt,isa 1
     590                    ;----------------------------------------------------------------------
     591                    ;  87 | if((dummy>'!') && (dummy < '}'))                                       
     592                    ;----------------------------------------------------------------------
     593 00000066 4819              LDR       A1, $C$CON4           ; [DPU_3_PIPE] |87|  ; [ORIG 16-BIT INS]
     594 00000068 7800              LDRB      A1, [A1, #0]          ; [DPU_3_PIPE] |87|  ; [ORIG 16-BIT INS]
     595 0000006a 2821              CMP       A1, #33               ; [DPU_3_PIPE] |87|  ; [ORIG 16-BIT INS]
     596 0000006c DD19              BLE       ||$C$L8||             ; [DPU_3_PIPE] |87|  ; [ORIG 16-BIT INS]
     597                            ; BRANCHCC OCCURS {||$C$L8||}    ; [] |87| 
     598                    ;* --------------------------------------------------------------------------*
     599 0000006e 4817              LDR       A1, $C$CON4           ; [DPU_3_PIPE] |87|  ; [ORIG 16-BIT INS]
     600 00000070 7800              LDRB      A1, [A1, #0]          ; [DPU_3_PIPE] |87|  ; [ORIG 16-BIT INS]
     601 00000072 287D              CMP       A1, #125              ; [DPU_3_PIPE] |87|  ; [ORIG 16-BIT INS]
     602 00000074 DA15              BGE       ||$C$L8||             ; [DPU_3_PIPE] |87|  ; [ORIG 16-BIT INS]
     603                            ; BRANCHCC OCCURS {||$C$L8||}    ; [] |87| 
     604                    ;* --------------------------------------------------------------------------*
     605                            .dwpsn  file "../esp8266.c",line 89,column 4,is_stmt,isa 1
TI ARM Assembler PC v5.2.5 Sat Nov 07 12:29:23 2015

Tools Copyright (c) 1996-2015 Texas Instruments Incorporated
esp8266.asm                                                          PAGE   12

     606                    ;----------------------------------------------------------------------
     607                    ;  89 | uart_data[uart_data_counter++] = dummy;                                
     608                    ;----------------------------------------------------------------------
     609 00000076 4A13              LDR       A3, $C$CON2           ; [DPU_3_PIPE] |89|  ; [ORIG 16-BIT INS]
     610 00000078 4B14              LDR       A4, $C$CON4           ; [DPU_3_PIPE] |89|  ; [ORIG 16-BIT INS]
     611 0000007a 7810              LDRB      A1, [A3, #0]          ; [DPU_3_PIPE] |89|  ; [ORIG 16-BIT INS]
     612 0000007c 4C12              LDR       V1, $C$CON3           ; [DPU_3_PIPE] |89|  ; [ORIG 16-BIT INS]
     613 0000007e 1C41              ADDS      A2, A1, #1            ; [DPU_3_PIPE] |89|  ; [ORIG 16-BIT INS]
     614 00000080 7011              STRB      A2, [A3, #0]          ; [DPU_3_PIPE] |89|  ; [ORIG 16-BIT INS]
     615 00000082 7819              LDRB      A2, [A4, #0]          ; [DPU_3_PIPE] |89|  ; [ORIG 16-BIT INS]
     616 00000084 5421              STRB      A2, [V1, +A1]         ; [DPU_3_PIPE] |89|  ; [ORIG 16-BIT INS]
     617                            .dwpsn  file "../esp8266.c",line 90,column 4,is_stmt,isa 1
     618                    ;----------------------------------------------------------------------
     619                    ;  90 | if(uart_data_counter == 254)                                           
     620                    ;----------------------------------------------------------------------
     621 00000086 480F              LDR       A1, $C$CON2           ; [DPU_3_PIPE] |90|  ; [ORIG 16-BIT INS]
     622 00000088 7800              LDRB      A1, [A1, #0]          ; [DPU_3_PIPE] |90|  ; [ORIG 16-BIT INS]
     623 0000008a 28FE              CMP       A1, #254              ; [DPU_3_PIPE] |90|  ; [ORIG 16-BIT INS]
     624 0000008c D102              BNE       ||$C$L7||             ; [DPU_3_PIPE] |90|  ; [ORIG 16-BIT INS]
     625                            ; BRANCHCC OCCURS {||$C$L7||}    ; [] |90| 
     626                    ;* --------------------------------------------------------------------------*
     627                            .dwpsn  file "../esp8266.c",line 91,column 7,is_stmt,isa 1
     628                    ;----------------------------------------------------------------------
     629                    ;  91 | uart_data_counter = 0;                                                 
     630                    ;----------------------------------------------------------------------
     631 0000008e 490D              LDR       A2, $C$CON2           ; [DPU_3_PIPE] |91|  ; [ORIG 16-BIT INS]
     632 00000090 2000              MOVS      A1, #0                ; [DPU_3_PIPE] |91|  ; [ORIG 16-BIT INS]
     633 00000092 7008              STRB      A1, [A2, #0]          ; [DPU_3_PIPE] |91|  ; [ORIG 16-BIT INS]
     634                    ;* --------------------------------------------------------------------------*
     635 00000094           ||$C$L7||:    
     636                            .dwpsn  file "../esp8266.c",line 92,column 4,is_stmt,isa 1
     637                    ;----------------------------------------------------------------------
     638                    ;  92 | if(strstr((const char*)uart_data, confirmation))                       
     639                    ;----------------------------------------------------------------------
     640 00000094 480C              LDR       A1, $C$CON3           ; [DPU_3_PIPE] |92|  ; [ORIG 16-BIT INS]
     641 00000096 9901              LDR       A2, [SP, #4]          ; [DPU_3_PIPE] |92|  ; [ORIG 16-BIT INS]
     642                    $C$DW$64        .dwtag  DW_TAG_TI_branch
     643                            .dwattr $C$DW$64, DW_AT_low_pc(0x00)
     644                            .dwattr $C$DW$64, DW_AT_name("strstr")
     645                            .dwattr $C$DW$64, DW_AT_TI_call
     646 00000098 FFFEF7FF!         BL        strstr                ; [DPU_3_PIPE] |92|  ; [KEEP 32-BIT INS]
     647                            ; CALL OCCURS {strstr }          ; [] |92| 
     648 0000009c B108              CBZ       A1, ||$C$L8||         ; []  ; [ORIG 16-BIT INS]
     649                            ; BRANCHCC OCCURS {||$C$L8||}    ; [] |92| 
     650                    ;* --------------------------------------------------------------------------*
     651                            .dwpsn  file "../esp8266.c",line 94,column 5,is_stmt,isa 1
     652                    ;----------------------------------------------------------------------
     653                    ;  94 | return 1;                                                              
     654                    ;----------------------------------------------------------------------
     655 0000009e 2001              MOVS      A1, #1                ; [DPU_3_PIPE] |94|  ; [ORIG 16-BIT INS]
     656 000000a0 E00E              B         ||$C$L10||            ; [DPU_3_PIPE] |94|  ; [ORIG 16-BIT INS]
     657                            ; BRANCH OCCURS {||$C$L10||}     ; [] |94| 
     658                    ;* --------------------------------------------------------------------------*
     659 000000a2           ||$C$L8||:    
     660                            .dwpsn  file "../esp8266.c",line 98,column 3,is_stmt,isa 1
TI ARM Assembler PC v5.2.5 Sat Nov 07 12:29:23 2015

Tools Copyright (c) 1996-2015 Texas Instruments Incorporated
esp8266.asm                                                          PAGE   13

     661                    ;----------------------------------------------------------------------
     662                    ;  98 | timeout++;                                                             
     663                    ;----------------------------------------------------------------------
     664 000000a2 9802              LDR       A1, [SP, #8]          ; [DPU_3_PIPE] |98|  ; [ORIG 16-BIT INS]
     665 000000a4 1C40              ADDS      A1, A1, #1            ; [DPU_3_PIPE] |98|  ; [ORIG 16-BIT INS]
     666 000000a6 9002              STR       A1, [SP, #8]          ; [DPU_3_PIPE] |98|  ; [ORIG 16-BIT INS]
     667                            .dwpsn  file "../esp8266.c",line 99,column 3,is_stmt,isa 1
     668                    ;----------------------------------------------------------------------
     669                    ;  99 | if(timeout>10000000)                                                   
     670                    ;----------------------------------------------------------------------
     671 000000a8 490A              LDR       A2, $C$CON6           ; [DPU_3_PIPE] |99|  ; [ORIG 16-BIT INS]
     672 000000aa 9802              LDR       A1, [SP, #8]          ; [DPU_3_PIPE] |99|  ; [ORIG 16-BIT INS]
     673 000000ac 4281              CMP       A2, A1                ; [DPU_3_PIPE] |99|  ; [ORIG 16-BIT INS]
     674 000000ae D201              BCS       ||$C$L9||             ; [DPU_3_PIPE] |99|  ; [ORIG 16-BIT INS]
     675                            ; BRANCHCC OCCURS {||$C$L9||}    ; [] |99| 
     676                    ;* --------------------------------------------------------------------------*
     677                            .dwpsn  file "../esp8266.c",line 101,column 4,is_stmt,isa 1
     678                    ;----------------------------------------------------------------------
     679                    ; 101 | return 0;                                                              
     680                    ;----------------------------------------------------------------------
     681 000000b0 2000              MOVS      A1, #0                ; [DPU_3_PIPE] |101|  ; [ORIG 16-BIT INS]
     682 000000b2 E005              B         ||$C$L10||            ; [DPU_3_PIPE] |101|  ; [ORIG 16-BIT INS]
     683                            ; BRANCH OCCURS {||$C$L10||}     ; [] |101| 
     684                    ;* --------------------------------------------------------------------------*
     685                    ;*   BEGIN LOOP ||$C$L9||
     686                    ;* --------------------------------------------------------------------------*
     687 000000b4           ||$C$L9||:    
     688                            .dwpsn  file "../esp8266.c",line 84,column 8,is_stmt,isa 1
     689 000000b4 000CF89D          LDRB      A1, [SP, #12]         ; [DPU_3_PIPE] |84|  ; [KEEP 32-BIT INS]
     690 000000b8 2800              CMP       A1, #0                ; [DPU_3_PIPE] |84|  ; [ORIG 16-BIT INS]
     691 000000ba D0CF              BEQ       ||$C$L6||             ; [DPU_3_PIPE] |84|  ; [ORIG 16-BIT INS]
     692                            ; BRANCHCC OCCURS {||$C$L6||}    ; [] |84| 
     693                    ;* --------------------------------------------------------------------------*
     694                            .dwpsn  file "../esp8266.c",line 104,column 2,is_stmt,isa 1
     695                    ;----------------------------------------------------------------------
     696                    ; 104 | return result;                                                         
     697                    ;----------------------------------------------------------------------
     698 000000bc 000CF89D          LDRB      A1, [SP, #12]         ; [DPU_3_PIPE] |104|  ; [KEEP 32-BIT INS]
     699                    ;* --------------------------------------------------------------------------*
     700 000000c0           ||$C$L10||:    
     701                            .dwpsn  file "../esp8266.c",line 105,column 1,is_stmt,isa 1
     702 000000c0 9000              STR       A1, [SP, #0]          ; [DPU_3_PIPE]  ; [ORIG 16-BIT INS]
     703                    $C$DW$65        .dwtag  DW_TAG_TI_branch
     704                            .dwattr $C$DW$65, DW_AT_low_pc(0x00)
     705                            .dwattr $C$DW$65, DW_AT_TI_return
     706 000000c2 BD1F              POP       {A1, A2, A3, A4, V1, PC} ; [DPU_3_PIPE]  ; [ORIG 16-BIT INS]
     707                            .dwcfi  cfa_offset, 0
     708                            ; BRANCH OCCURS                  ; [] 
     709                            .dwattr $C$DW$52, DW_AT_TI_end_file("../esp8266.c")
     710                            .dwattr $C$DW$52, DW_AT_TI_end_line(0x69)
     711                            .dwattr $C$DW$52, DW_AT_TI_end_column(0x01)
     712                            .dwendentry
     713                            .dwendtag $C$DW$52
     714                    
     715 00000000                   .sect   ".text:esp8266_reset"
TI ARM Assembler PC v5.2.5 Sat Nov 07 12:29:23 2015

Tools Copyright (c) 1996-2015 Texas Instruments Incorporated
esp8266.asm                                                          PAGE   14

     716                            .clink
     717                            .thumbfunc esp8266_reset
     718 00000000                   .thumb
     719                            .global esp8266_reset
     720                    
     721                    $C$DW$66        .dwtag  DW_TAG_subprogram, DW_AT_name("esp8266_reset")
     722                            .dwattr $C$DW$66, DW_AT_low_pc(esp8266_reset)
     723                            .dwattr $C$DW$66, DW_AT_high_pc(0x00)
     724                            .dwattr $C$DW$66, DW_AT_TI_symbol_name("esp8266_reset")
     725                            .dwattr $C$DW$66, DW_AT_external
     726                            .dwattr $C$DW$66, DW_AT_TI_begin_file("../esp8266.c")
     727                            .dwattr $C$DW$66, DW_AT_TI_begin_line(0x6b)
     728                            .dwattr $C$DW$66, DW_AT_TI_begin_column(0x06)
     729                            .dwattr $C$DW$66, DW_AT_decl_file("../esp8266.c")
     730                            .dwattr $C$DW$66, DW_AT_decl_line(0x6b)
     731                            .dwattr $C$DW$66, DW_AT_decl_column(0x06)
     732                            .dwattr $C$DW$66, DW_AT_TI_max_frame_size(0x08)
     733                            .dwpsn  file "../esp8266.c",line 108,column 1,is_stmt,address esp8266_reset,isa 1
     734                    
     735                            .dwfde $C$DW$CIE, esp8266_reset
     736                    ;----------------------------------------------------------------------
     737                    ; 107 | void esp8266_reset()                                                   
     738                    ;----------------------------------------------------------------------
     739                    
     740                    ;*****************************************************************************
     741                    ;* FUNCTION NAME: esp8266_reset                                              *
     742                    ;*                                                                           *
     743                    ;*   Regs Modified     : A1,A2,A3,A4,V9,SP,LR,SR,D0,D0_hi,D1,D1_hi,D2,D2_hi, *
     744                    ;*                           D3,D3_hi,D4,D4_hi,D5,D5_hi,D6,D6_hi,D7,D7_hi,   *
     745                    ;*                           FPEXC,FPSCR                                     *
     746                    ;*   Regs Used         : A1,A2,A3,A4,V9,SP,LR,SR,D0,D0_hi,D1,D1_hi,D2,D2_hi, *
     747                    ;*                           D3,D3_hi,D4,D4_hi,D5,D5_hi,D6,D6_hi,D7,D7_hi,   *
     748                    ;*                           FPEXC,FPSCR                                     *
     749                    ;*   Local Frame Size  : 0 Args + 0 Auto + 4 Save = 4 byte                   *
     750                    ;*****************************************************************************
     751 00000000           esp8266_reset:
     752                    ;* --------------------------------------------------------------------------*
     753                            .dwcfi  cfa_offset, 0
     754 00000000 B508              PUSH      {A4, LR}              ; [DPU_3_PIPE]  ; [ORIG 16-BIT INS]
     755                            .dwcfi  cfa_offset, 8
     756                            .dwcfi  save_reg_to_mem, 14, -4
     757                            .dwcfi  save_reg_to_mem, 3, -8
     758                            .dwpsn  file "../esp8266.c",line 109,column 2,is_stmt,isa 1
     759                    ;----------------------------------------------------------------------
     760                    ; 109 | uart_send(RESET_ESP8266);                                              
     761                    ;----------------------------------------------------------------------
     762 00000002 A007              ADR       A1, $C$SL1            ; [DPU_3_PIPE] |109|  ; [ORIG 16-BIT INS]
     763                    $C$DW$67        .dwtag  DW_TAG_TI_branch
     764                            .dwattr $C$DW$67, DW_AT_low_pc(0x00)
     765                            .dwattr $C$DW$67, DW_AT_name("uart_send")
     766                            .dwattr $C$DW$67, DW_AT_TI_call
     767 00000004 FFFEF7FF!         BL        uart_send             ; [DPU_3_PIPE] |109|  ; [KEEP 32-BIT INS]
     768                            ; CALL OCCURS {uart_send }       ; [] |109| 
     769                            .dwpsn  file "../esp8266.c",line 110,column 2,is_stmt,isa 1
     770                    ;----------------------------------------------------------------------
TI ARM Assembler PC v5.2.5 Sat Nov 07 12:29:23 2015

Tools Copyright (c) 1996-2015 Texas Instruments Incorporated
esp8266.asm                                                          PAGE   15

     771                    ; 110 | SysCtlDelay(SysCtlClockGet());                                         
     772                    ;----------------------------------------------------------------------
     773                    $C$DW$68        .dwtag  DW_TAG_TI_branch
     774                            .dwattr $C$DW$68, DW_AT_low_pc(0x00)
     775                            .dwattr $C$DW$68, DW_AT_name("SysCtlClockGet")
     776                            .dwattr $C$DW$68, DW_AT_TI_call
     777 00000008 FFFEF7FF!         BL        SysCtlClockGet        ; [DPU_3_PIPE] |110|  ; [KEEP 32-BIT INS]
     778                            ; CALL OCCURS {SysCtlClockGet }  ; [] |110| 
     779                    $C$DW$69        .dwtag  DW_TAG_TI_branch
     780                            .dwattr $C$DW$69, DW_AT_low_pc(0x00)
     781                            .dwattr $C$DW$69, DW_AT_name("SysCtlDelay")
     782                            .dwattr $C$DW$69, DW_AT_TI_call
     783 0000000c FFFEF7FF!         BL        SysCtlDelay           ; [DPU_3_PIPE] |110|  ; [KEEP 32-BIT INS]
     784                            ; CALL OCCURS {SysCtlDelay }     ; [] |110| 
     785                            .dwpsn  file "../esp8266.c",line 111,column 2,is_stmt,isa 1
     786                    ;----------------------------------------------------------------------
     787                    ; 111 | SysCtlDelay(SysCtlClockGet());                                         
     788                    ;----------------------------------------------------------------------
     789                    $C$DW$70        .dwtag  DW_TAG_TI_branch
     790                            .dwattr $C$DW$70, DW_AT_low_pc(0x00)
     791                            .dwattr $C$DW$70, DW_AT_name("SysCtlClockGet")
     792                            .dwattr $C$DW$70, DW_AT_TI_call
     793 00000010 FFFEF7FF!         BL        SysCtlClockGet        ; [DPU_3_PIPE] |111|  ; [KEEP 32-BIT INS]
     794                            ; CALL OCCURS {SysCtlClockGet }  ; [] |111| 
     795                    $C$DW$71        .dwtag  DW_TAG_TI_branch
     796                            .dwattr $C$DW$71, DW_AT_low_pc(0x00)
     797                            .dwattr $C$DW$71, DW_AT_name("SysCtlDelay")
     798                            .dwattr $C$DW$71, DW_AT_TI_call
     799 00000014 FFFEF7FF!         BL        SysCtlDelay           ; [DPU_3_PIPE] |111|  ; [KEEP 32-BIT INS]
     800                            ; CALL OCCURS {SysCtlDelay }     ; [] |111| 
     801                            .dwpsn  file "../esp8266.c",line 112,column 2,is_stmt,isa 1
     802                    ;----------------------------------------------------------------------
     803                    ; 112 | uart_send(CONNECT_TO_AP);                                              
     804                    ;----------------------------------------------------------------------
     805 00000018 A003              ADR       A1, $C$SL2            ; [DPU_3_PIPE] |112|  ; [ORIG 16-BIT INS]
     806                    $C$DW$72        .dwtag  DW_TAG_TI_branch
     807                            .dwattr $C$DW$72, DW_AT_low_pc(0x00)
     808                            .dwattr $C$DW$72, DW_AT_name("uart_send")
     809                            .dwattr $C$DW$72, DW_AT_TI_call
     810 0000001a FFFEF7FF!         BL        uart_send             ; [DPU_3_PIPE] |112|  ; [KEEP 32-BIT INS]
     811                            ; CALL OCCURS {uart_send }       ; [] |112| 
     812                            .dwpsn  file "../esp8266.c",line 113,column 1,is_stmt,isa 1
     813                    $C$DW$73        .dwtag  DW_TAG_TI_branch
     814                            .dwattr $C$DW$73, DW_AT_low_pc(0x00)
     815                            .dwattr $C$DW$73, DW_AT_TI_return
     816 0000001e BD08              POP       {A4, PC}              ; [DPU_3_PIPE]  ; [ORIG 16-BIT INS]
     817                            .dwcfi  cfa_offset, 0
     818                            ; BRANCH OCCURS                  ; [] 
     819                            .dwattr $C$DW$66, DW_AT_TI_end_file("../esp8266.c")
     820                            .dwattr $C$DW$66, DW_AT_TI_end_line(0x71)
     821                            .dwattr $C$DW$66, DW_AT_TI_end_column(0x01)
     822                            .dwendentry
     823                            .dwendtag $C$DW$66
     824                    
     825 00000000                   .sect   ".text:send_esp8266"
TI ARM Assembler PC v5.2.5 Sat Nov 07 12:29:23 2015

Tools Copyright (c) 1996-2015 Texas Instruments Incorporated
esp8266.asm                                                          PAGE   16

     826                            .clink
     827                            .thumbfunc send_esp8266
     828 00000000                   .thumb
     829                            .global send_esp8266
     830                    
     831                    $C$DW$74        .dwtag  DW_TAG_subprogram, DW_AT_name("send_esp8266")
     832                            .dwattr $C$DW$74, DW_AT_low_pc(send_esp8266)
     833                            .dwattr $C$DW$74, DW_AT_high_pc(0x00)
     834                            .dwattr $C$DW$74, DW_AT_TI_symbol_name("send_esp8266")
     835                            .dwattr $C$DW$74, DW_AT_external
     836                            .dwattr $C$DW$74, DW_AT_type(*$C$DW$T$25)
     837                            .dwattr $C$DW$74, DW_AT_TI_begin_file("../esp8266.c")
     838                            .dwattr $C$DW$74, DW_AT_TI_begin_line(0x73)
     839                            .dwattr $C$DW$74, DW_AT_TI_begin_column(0x09)
     840                            .dwattr $C$DW$74, DW_AT_decl_file("../esp8266.c")
     841                            .dwattr $C$DW$74, DW_AT_decl_line(0x73)
     842                            .dwattr $C$DW$74, DW_AT_decl_column(0x09)
     843                            .dwattr $C$DW$74, DW_AT_TI_max_frame_size(0xa8)
     844                            .dwpsn  file "../esp8266.c",line 122,column 1,is_stmt,address send_esp8266,isa 1
     845                    
     846                            .dwfde $C$DW$CIE, send_esp8266
     847                    $C$DW$75        .dwtag  DW_TAG_formal_parameter, DW_AT_name("humidity_data")
     848                            .dwattr $C$DW$75, DW_AT_TI_symbol_name("humidity_data")
     849                            .dwattr $C$DW$75, DW_AT_type(*$C$DW$T$22)
     850                            .dwattr $C$DW$75, DW_AT_location[DW_OP_reg0]
     851                    $C$DW$76        .dwtag  DW_TAG_formal_parameter, DW_AT_name("temperature_data_1")
     852                            .dwattr $C$DW$76, DW_AT_TI_symbol_name("temperature_data_1")
     853                            .dwattr $C$DW$76, DW_AT_type(*$C$DW$T$22)
     854                            .dwattr $C$DW$76, DW_AT_location[DW_OP_reg1]
     855                    $C$DW$77        .dwtag  DW_TAG_formal_parameter, DW_AT_name("temperature_data_2")
     856                            .dwattr $C$DW$77, DW_AT_TI_symbol_name("temperature_data_2")
     857                            .dwattr $C$DW$77, DW_AT_type(*$C$DW$T$22)
     858                            .dwattr $C$DW$77, DW_AT_location[DW_OP_reg2]
     859                    $C$DW$78        .dwtag  DW_TAG_formal_parameter, DW_AT_name("temperature_data_3")
     860                            .dwattr $C$DW$78, DW_AT_TI_symbol_name("temperature_data_3")
     861                            .dwattr $C$DW$78, DW_AT_type(*$C$DW$T$22)
     862                            .dwattr $C$DW$78, DW_AT_location[DW_OP_reg3]
     863                    $C$DW$79        .dwtag  DW_TAG_formal_parameter, DW_AT_name("co2level")
     864                            .dwattr $C$DW$79, DW_AT_TI_symbol_name("co2level")
     865                            .dwattr $C$DW$79, DW_AT_type(*$C$DW$T$22)
     866                            .dwattr $C$DW$79, DW_AT_location[DW_OP_breg13 168]
     867                    $C$DW$80        .dwtag  DW_TAG_formal_parameter, DW_AT_name("water_relay")
     868                            .dwattr $C$DW$80, DW_AT_TI_symbol_name("water_relay")
     869                            .dwattr $C$DW$80, DW_AT_type(*$C$DW$T$22)
     870                            .dwattr $C$DW$80, DW_AT_location[DW_OP_breg13 172]
     871                    $C$DW$81        .dwtag  DW_TAG_formal_parameter, DW_AT_name("fan_relay")
     872                            .dwattr $C$DW$81, DW_AT_TI_symbol_name("fan_relay")
     873                            .dwattr $C$DW$81, DW_AT_type(*$C$DW$T$22)
     874                            .dwattr $C$DW$81, DW_AT_location[DW_OP_breg13 176]
     875                    ;----------------------------------------------------------------------
     876                    ; 115 | uint8_t send_esp8266(   uint32_t humidity_data,//field1                
     877                    ; 116 | uint32_t temperature_data_1, //field2                                  
     878                    ; 117 | uint32_t temperature_data_2,  //field3                                 
     879                    ; 118 | uint32_t temperature_data_3, //field4                                  
     880                    ; 119 | uint32_t co2level,  //field5                                           
TI ARM Assembler PC v5.2.5 Sat Nov 07 12:29:23 2015

Tools Copyright (c) 1996-2015 Texas Instruments Incorporated
esp8266.asm                                                          PAGE   17

     881                    ; 120 | uint32_t water_relay, //field6                                         
     882                    ; 121 | uint32_t fan_relay)//field7                                            
     883                    ;----------------------------------------------------------------------
     884                    
     885                    ;*****************************************************************************
     886                    ;* FUNCTION NAME: send_esp8266                                               *
     887                    ;*                                                                           *
     888                    ;*   Regs Modified     : A1,A2,A3,A4,V4,V9,SP,LR,SR,D0,D0_hi,D1,D1_hi,D2,    *
     889                    ;*                           D2_hi,D3,D3_hi,D4,D4_hi,D5,D5_hi,D6,D6_hi,D7,   *
     890                    ;*                           D7_hi,FPEXC,FPSCR                               *
     891                    ;*   Regs Used         : A1,A2,A3,A4,V4,V9,SP,LR,SR,D0,D0_hi,D1,D1_hi,D2,    *
     892                    ;*                           D2_hi,D3,D3_hi,D4,D4_hi,D5,D5_hi,D6,D6_hi,D7,   *
     893                    ;*                           D7_hi,FPEXC,FPSCR                               *
     894                    ;*   Local Frame Size  : 0 Args + 160 Auto + 8 Save = 168 byte               *
     895                    ;*****************************************************************************
     896 00000000           send_esp8266:
     897                    ;* --------------------------------------------------------------------------*
     898                            .dwcfi  cfa_offset, 0
     899 00000000 B580              PUSH      {V4, LR}              ; [DPU_3_PIPE]  ; [ORIG 16-BIT INS]
     900                            .dwcfi  cfa_offset, 8
     901                            .dwcfi  save_reg_to_mem, 14, -4
     902                            .dwcfi  save_reg_to_mem, 7, -8
     903 00000002 AF02              ADD       V4, SP, #8            ; [DPU_3_PIPE]  ; [ORIG 16-BIT INS]
     904 00000004 0DA0F1AD          SUB       SP, SP, #160          ; [DPU_3_PIPE]  ; [KEEP 32-BIT INS]
     905                            .dwcfi  cfa_offset, 168
     906                    $C$DW$82        .dwtag  DW_TAG_variable, DW_AT_name("humidity_data")
     907                            .dwattr $C$DW$82, DW_AT_TI_symbol_name("humidity_data")
     908                            .dwattr $C$DW$82, DW_AT_type(*$C$DW$T$22)
     909                            .dwattr $C$DW$82, DW_AT_location[DW_OP_breg13 0]
     910                    $C$DW$83        .dwtag  DW_TAG_variable, DW_AT_name("temperature_data_1")
     911                            .dwattr $C$DW$83, DW_AT_TI_symbol_name("temperature_data_1")
     912                            .dwattr $C$DW$83, DW_AT_type(*$C$DW$T$22)
     913                            .dwattr $C$DW$83, DW_AT_location[DW_OP_breg13 4]
     914                    $C$DW$84        .dwtag  DW_TAG_variable, DW_AT_name("temperature_data_2")
     915                            .dwattr $C$DW$84, DW_AT_TI_symbol_name("temperature_data_2")
     916                            .dwattr $C$DW$84, DW_AT_type(*$C$DW$T$22)
     917                            .dwattr $C$DW$84, DW_AT_location[DW_OP_breg13 8]
     918                    $C$DW$85        .dwtag  DW_TAG_variable, DW_AT_name("temperature_data_3")
     919                            .dwattr $C$DW$85, DW_AT_TI_symbol_name("temperature_data_3")
     920                            .dwattr $C$DW$85, DW_AT_type(*$C$DW$T$22)
     921                            .dwattr $C$DW$85, DW_AT_location[DW_OP_breg13 12]
     922                    $C$DW$86        .dwtag  DW_TAG_variable, DW_AT_name("cmnd")
     923                            .dwattr $C$DW$86, DW_AT_TI_symbol_name("cmnd")
     924                            .dwattr $C$DW$86, DW_AT_type(*$C$DW$T$98)
     925                            .dwattr $C$DW$86, DW_AT_location[DW_OP_breg13 16]
     926                    $C$DW$87        .dwtag  DW_TAG_variable, DW_AT_name("cmnd_len_array")
     927                            .dwattr $C$DW$87, DW_AT_TI_symbol_name("cmnd_len_array")
     928                            .dwattr $C$DW$87, DW_AT_type(*$C$DW$T$99)
     929                            .dwattr $C$DW$87, DW_AT_location[DW_OP_breg13 124]
     930                    $C$DW$88        .dwtag  DW_TAG_variable, DW_AT_name("cmnd_len_array_temp")
     931                            .dwattr $C$DW$88, DW_AT_TI_symbol_name("cmnd_len_array_temp")
     932                            .dwattr $C$DW$88, DW_AT_type(*$C$DW$T$100)
     933                            .dwattr $C$DW$88, DW_AT_location[DW_OP_breg13 140]
     934                    $C$DW$89        .dwtag  DW_TAG_variable, DW_AT_name("buffer")
     935                            .dwattr $C$DW$89, DW_AT_TI_symbol_name("buffer")
TI ARM Assembler PC v5.2.5 Sat Nov 07 12:29:23 2015

Tools Copyright (c) 1996-2015 Texas Instruments Incorporated
esp8266.asm                                                          PAGE   18

     936                            .dwattr $C$DW$89, DW_AT_type(*$C$DW$T$102)
     937                            .dwattr $C$DW$89, DW_AT_location[DW_OP_breg13 144]
     938                    $C$DW$90        .dwtag  DW_TAG_variable, DW_AT_name("buffer_long")
     939                            .dwattr $C$DW$90, DW_AT_TI_symbol_name("buffer_long")
     940                            .dwattr $C$DW$90, DW_AT_type(*$C$DW$T$104)
     941                            .dwattr $C$DW$90, DW_AT_location[DW_OP_breg13 148]
     942                    $C$DW$91        .dwtag  DW_TAG_variable, DW_AT_name("result")
     943                            .dwattr $C$DW$91, DW_AT_TI_symbol_name("result")
     944                            .dwattr $C$DW$91, DW_AT_type(*$C$DW$T$25)
     945                            .dwattr $C$DW$91, DW_AT_location[DW_OP_breg13 156]
     946                    $C$DW$92        .dwtag  DW_TAG_variable, DW_AT_name("cmnd_len")
     947                            .dwattr $C$DW$92, DW_AT_TI_symbol_name("cmnd_len")
     948                            .dwattr $C$DW$92, DW_AT_type(*$C$DW$T$51)
     949                            .dwattr $C$DW$92, DW_AT_location[DW_OP_breg13 158]
     950                    ;----------------------------------------------------------------------
     951                    ; 123 | char cmnd[106];                                                        
     952                    ; 124 | char cmnd_len_array[14];                                               
     953                    ;----------------------------------------------------------------------
     954 00000008 9303              STR       A4, [SP, #12]         ; [DPU_3_PIPE] |122|  ; [ORIG 16-BIT INS]
     955 0000000a 9202              STR       A3, [SP, #8]          ; [DPU_3_PIPE] |122|  ; [ORIG 16-BIT INS]
     956 0000000c 9101              STR       A2, [SP, #4]          ; [DPU_3_PIPE] |122|  ; [ORIG 16-BIT INS]
     957 0000000e 9000              STR       A1, [SP, #0]          ; [DPU_3_PIPE] |122|  ; [ORIG 16-BIT INS]
     958                            .dwpsn  file "../esp8266.c",line 125,column 29,is_stmt,isa 1
     959                    ;----------------------------------------------------------------------
     960                    ; 125 | char cmnd_len_array_temp[3]={0,0,0};                                   
     961                    ;----------------------------------------------------------------------
     962 00000010 2100              MOVS      A2, #0                ; [DPU_3_PIPE] |125|  ; [ORIG 16-BIT INS]
     963 00000012 2203              MOVS      A3, #3                ; [DPU_3_PIPE] |125|  ; [ORIG 16-BIT INS]
     964 00000014 A823              ADD       A1, SP, #140          ; [DPU_3_PIPE] |125|  ; [ORIG 16-BIT INS]
     965                    $C$DW$93        .dwtag  DW_TAG_TI_branch
     966                            .dwattr $C$DW$93, DW_AT_low_pc(0x00)
     967                            .dwattr $C$DW$93, DW_AT_name("memset")
     968                            .dwattr $C$DW$93, DW_AT_TI_call
     969 00000016 FFFEF7FF!         BL        memset                ; [DPU_3_PIPE] |125|  ; [KEEP 32-BIT INS]
     970                            ; CALL OCCURS {memset }          ; [] |125| 
     971                            .dwpsn  file "../esp8266.c",line 126,column 16,is_stmt,isa 1
     972                    ;----------------------------------------------------------------------
     973                    ; 126 | char buffer[2]={0,0};                                                  
     974                    ;----------------------------------------------------------------------
     975 0000001a 2100              MOVS      A2, #0                ; [DPU_3_PIPE] |126|  ; [ORIG 16-BIT INS]
     976 0000001c 2202              MOVS      A3, #2                ; [DPU_3_PIPE] |126|  ; [ORIG 16-BIT INS]
     977 0000001e A824              ADD       A1, SP, #144          ; [DPU_3_PIPE] |126|  ; [ORIG 16-BIT INS]
     978                    $C$DW$94        .dwtag  DW_TAG_TI_branch
     979                            .dwattr $C$DW$94, DW_AT_low_pc(0x00)
     980                            .dwattr $C$DW$94, DW_AT_name("memset")
     981                            .dwattr $C$DW$94, DW_AT_TI_call
     982 00000020 FFFEF7FF!         BL        memset                ; [DPU_3_PIPE] |126|  ; [KEEP 32-BIT INS]
     983                            ; CALL OCCURS {memset }          ; [] |126| 
     984                            .dwpsn  file "../esp8266.c",line 127,column 22,is_stmt,isa 1
     985                    ;----------------------------------------------------------------------
     986                    ; 127 | char buffer_long[5] = {0,0,0,0,0};                                     
     987                    ;----------------------------------------------------------------------
     988 00000024 2100              MOVS      A2, #0                ; [DPU_3_PIPE] |127|  ; [ORIG 16-BIT INS]
     989 00000026 2205              MOVS      A3, #5                ; [DPU_3_PIPE] |127|  ; [ORIG 16-BIT INS]
     990 00000028 A825              ADD       A1, SP, #148          ; [DPU_3_PIPE] |127|  ; [ORIG 16-BIT INS]
TI ARM Assembler PC v5.2.5 Sat Nov 07 12:29:23 2015

Tools Copyright (c) 1996-2015 Texas Instruments Incorporated
esp8266.asm                                                          PAGE   19

     991                    $C$DW$95        .dwtag  DW_TAG_TI_branch
     992                            .dwattr $C$DW$95, DW_AT_low_pc(0x00)
     993                            .dwattr $C$DW$95, DW_AT_name("memset")
     994                            .dwattr $C$DW$95, DW_AT_TI_call
     995 0000002a FFFEF7FF!         BL        memset                ; [DPU_3_PIPE] |127|  ; [KEEP 32-BIT INS]
     996                            ; CALL OCCURS {memset }          ; [] |127| 
     997                            .dwpsn  file "../esp8266.c",line 128,column 16,is_stmt,isa 1
     998                    ;----------------------------------------------------------------------
     999                    ; 128 | uint8_t result=1;                                                      
    1000                    ; 129 | uint16_t cmnd_len;                                                     
    1001                    ; 131 | // result = esp8266_send(CONNECT_TO_THINGSPEAK, CONNECT_TO_THINGSPEAK_C
    1002                    ;     | ONFIRMATION);                                                          
    1003                    ;----------------------------------------------------------------------
    1004 0000002e 2001              MOVS      A1, #1                ; [DPU_3_PIPE] |128|  ; [ORIG 16-BIT INS]
    1005 00000030 009CF88D          STRB      A1, [SP, #156]        ; [DPU_3_PIPE] |128|  ; [KEEP 32-BIT INS]
    1006                            .dwpsn  file "../esp8266.c",line 132,column 5,is_stmt,isa 1
    1007                    ;----------------------------------------------------------------------
    1008                    ; 132 | uart_send(CONNECT_TO_THINGSPEAK);                                      
    1009                    ; 133 | //SysCtlDelay(SysCtlClockGet());                                       
    1010                    ;----------------------------------------------------------------------
    1011 00000034 A067              ADR       A1, $C$SL3            ; [DPU_3_PIPE] |132|  ; [ORIG 16-BIT INS]
    1012                    $C$DW$96        .dwtag  DW_TAG_TI_branch
    1013                            .dwattr $C$DW$96, DW_AT_low_pc(0x00)
    1014                            .dwattr $C$DW$96, DW_AT_name("uart_send")
    1015                            .dwattr $C$DW$96, DW_AT_TI_call
    1016 00000036 FFFEF7FF!         BL        uart_send             ; [DPU_3_PIPE] |132|  ; [KEEP 32-BIT INS]
    1017                            ; CALL OCCURS {uart_send }       ; [] |132| 
    1018                            .dwpsn  file "../esp8266.c",line 135,column 2,is_stmt,isa 1
    1019                    ;----------------------------------------------------------------------
    1020                    ; 135 | SysCtlDelay(SysCtlClockGet()/3);                                       
    1021                    ; 136 | //field1 humidity                                                      
    1022                    ;----------------------------------------------------------------------
    1023                    $C$DW$97        .dwtag  DW_TAG_TI_branch
    1024                            .dwattr $C$DW$97, DW_AT_low_pc(0x00)
    1025                            .dwattr $C$DW$97, DW_AT_name("SysCtlClockGet")
    1026                            .dwattr $C$DW$97, DW_AT_TI_call
    1027 0000003a FFFEF7FF!         BL        SysCtlClockGet        ; [DPU_3_PIPE] |135|  ; [KEEP 32-BIT INS]
    1028                            ; CALL OCCURS {SysCtlClockGet }  ; [] |135| 
    1029 0000003e 2103              MOVS      A2, #3                ; [DPU_3_PIPE] |135|  ; [ORIG 16-BIT INS]
    1030 00000040 F0F1FBB0          UDIV      A1, A1, A2            ; [DPU_3_PIPE] |135|  ; [KEEP 32-BIT INS]
    1031                    $C$DW$98        .dwtag  DW_TAG_TI_branch
    1032                            .dwattr $C$DW$98, DW_AT_low_pc(0x00)
    1033                            .dwattr $C$DW$98, DW_AT_name("SysCtlDelay")
    1034                            .dwattr $C$DW$98, DW_AT_TI_call
    1035 00000044 FFFEF7FF!         BL        SysCtlDelay           ; [DPU_3_PIPE] |135|  ; [KEEP 32-BIT INS]
    1036                            ; CALL OCCURS {SysCtlDelay }     ; [] |135| 
    1037                            .dwpsn  file "../esp8266.c",line 137,column 2,is_stmt,isa 1
    1038                    ;----------------------------------------------------------------------
    1039                    ; 137 | strcpy(cmnd,SEND_DATA);                                                
    1040                    ;----------------------------------------------------------------------
    1041 00000048 A16C              ADR       A2, $C$SL4            ; [DPU_3_PIPE] |137|  ; [ORIG 16-BIT INS]
    1042 0000004a A804              ADD       A1, SP, #16           ; [DPU_3_PIPE] |137|  ; [ORIG 16-BIT INS]
    1043                    $C$DW$99        .dwtag  DW_TAG_TI_branch
    1044                            .dwattr $C$DW$99, DW_AT_low_pc(0x00)
    1045                            .dwattr $C$DW$99, DW_AT_name("strcpy")
TI ARM Assembler PC v5.2.5 Sat Nov 07 12:29:23 2015

Tools Copyright (c) 1996-2015 Texas Instruments Incorporated
esp8266.asm                                                          PAGE   20

    1046                            .dwattr $C$DW$99, DW_AT_TI_call
    1047 0000004c FFFEF7FF!         BL        strcpy                ; [DPU_3_PIPE] |137|  ; [KEEP 32-BIT INS]
    1048                            ; CALL OCCURS {strcpy }          ; [] |137| 
    1049                            .dwpsn  file "../esp8266.c",line 138,column 2,is_stmt,isa 1
    1050                    ;----------------------------------------------------------------------
    1051                    ; 138 | buffer[0] = (char)(humidity_data / 10)+'0';//decimal                   
    1052                    ;----------------------------------------------------------------------
    1053 00000050 9900              LDR       A2, [SP, #0]          ; [DPU_3_PIPE] |138|  ; [ORIG 16-BIT INS]
    1054 00000052 200A              MOVS      A1, #10               ; [DPU_3_PIPE] |138|  ; [ORIG 16-BIT INS]
    1055 00000054 F0F0FBB1          UDIV      A1, A2, A1            ; [DPU_3_PIPE] |138|  ; [KEEP 32-BIT INS]
    1056 00000058 B2C0              UXTB      A1, A1                ; [DPU_3_PIPE] |138|  ; [ORIG 16-BIT INS]
    1057 0000005a 3030              ADDS      A1, A1, #48           ; [DPU_3_PIPE] |138|  ; [ORIG 16-BIT INS]
    1058 0000005c 0090F88D          STRB      A1, [SP, #144]        ; [DPU_3_PIPE] |138|  ; [KEEP 32-BIT INS]
    1059                            .dwpsn  file "../esp8266.c",line 139,column 2,is_stmt,isa 1
    1060                    ;----------------------------------------------------------------------
    1061                    ; 139 | buffer[1] = (char)(humidity_data % 10)+'0';//unit                      
    1062                    ;----------------------------------------------------------------------
    1063 00000060 9800              LDR       A1, [SP, #0]          ; [DPU_3_PIPE] |139|  ; [ORIG 16-BIT INS]
    1064 00000062 220A              MOVS      A3, #10               ; [DPU_3_PIPE] |139|  ; [ORIG 16-BIT INS]
    1065 00000064 F1F2FBB0          UDIV      A2, A1, A3            ; [DPU_3_PIPE] |139|  ; [KEEP 32-BIT INS]
    1066 00000068 4351              MULS      A2, A2, A3            ; [DPU_3_PIPE] |139|  ; [ORIG 16-BIT INS]
    1067 0000006a 1A40              SUBS      A1, A1, A2            ; [DPU_3_PIPE] |139|  ; [ORIG 16-BIT INS]
    1068 0000006c B2C0              UXTB      A1, A1                ; [DPU_3_PIPE] |139|  ; [ORIG 16-BIT INS]
    1069 0000006e 3030              ADDS      A1, A1, #48           ; [DPU_3_PIPE] |139|  ; [ORIG 16-BIT INS]
    1070 00000070 0091F88D          STRB      A1, [SP, #145]        ; [DPU_3_PIPE] |139|  ; [KEEP 32-BIT INS]
    1071                            .dwpsn  file "../esp8266.c",line 140,column 2,is_stmt,isa 1
    1072                    ;----------------------------------------------------------------------
    1073                    ; 140 | strcat(cmnd, buffer);                                                  
    1074                    ; 141 | //field2 temperature 1                                                 
    1075                    ;----------------------------------------------------------------------
    1076 00000074 A804              ADD       A1, SP, #16           ; [DPU_3_PIPE] |140|  ; [ORIG 16-BIT INS]
    1077 00000076 A924              ADD       A2, SP, #144          ; [DPU_3_PIPE] |140|  ; [ORIG 16-BIT INS]
    1078                    $C$DW$100       .dwtag  DW_TAG_TI_branch
    1079                            .dwattr $C$DW$100, DW_AT_low_pc(0x00)
    1080                            .dwattr $C$DW$100, DW_AT_name("strcat")
    1081                            .dwattr $C$DW$100, DW_AT_TI_call
    1082 00000078 FFFEF7FF!         BL        strcat                ; [DPU_3_PIPE] |140|  ; [KEEP 32-BIT INS]
    1083                            ; CALL OCCURS {strcat }          ; [] |140| 
    1084                            .dwpsn  file "../esp8266.c",line 142,column 2,is_stmt,isa 1
    1085                    ;----------------------------------------------------------------------
    1086                    ; 142 | strcat(cmnd,SEND_DATA_FIELD2);                                         
    1087                    ;----------------------------------------------------------------------
    1088 0000007c A16A              ADR       A2, $C$SL5            ; [DPU_3_PIPE] |142|  ; [ORIG 16-BIT INS]
    1089 0000007e A804              ADD       A1, SP, #16           ; [DPU_3_PIPE] |142|  ; [ORIG 16-BIT INS]
    1090                    $C$DW$101       .dwtag  DW_TAG_TI_branch
    1091                            .dwattr $C$DW$101, DW_AT_low_pc(0x00)
    1092                            .dwattr $C$DW$101, DW_AT_name("strcat")
    1093                            .dwattr $C$DW$101, DW_AT_TI_call
    1094 00000080 FFFEF7FF!         BL        strcat                ; [DPU_3_PIPE] |142|  ; [KEEP 32-BIT INS]
    1095                            ; CALL OCCURS {strcat }          ; [] |142| 
    1096                            .dwpsn  file "../esp8266.c",line 143,column 2,is_stmt,isa 1
    1097                    ;----------------------------------------------------------------------
    1098                    ; 143 | buffer[0] = (char)(temperature_data_1 / 10)+'0';//decimal              
    1099                    ;----------------------------------------------------------------------
    1100 00000084 9901              LDR       A2, [SP, #4]          ; [DPU_3_PIPE] |143|  ; [ORIG 16-BIT INS]
TI ARM Assembler PC v5.2.5 Sat Nov 07 12:29:23 2015

Tools Copyright (c) 1996-2015 Texas Instruments Incorporated
esp8266.asm                                                          PAGE   21

    1101 00000086 200A              MOVS      A1, #10               ; [DPU_3_PIPE] |143|  ; [ORIG 16-BIT INS]
    1102 00000088 F0F0FBB1          UDIV      A1, A2, A1            ; [DPU_3_PIPE] |143|  ; [KEEP 32-BIT INS]
    1103 0000008c B2C0              UXTB      A1, A1                ; [DPU_3_PIPE] |143|  ; [ORIG 16-BIT INS]
    1104 0000008e 3030              ADDS      A1, A1, #48           ; [DPU_3_PIPE] |143|  ; [ORIG 16-BIT INS]
    1105 00000090 0090F88D          STRB      A1, [SP, #144]        ; [DPU_3_PIPE] |143|  ; [KEEP 32-BIT INS]
    1106                            .dwpsn  file "../esp8266.c",line 144,column 2,is_stmt,isa 1
    1107                    ;----------------------------------------------------------------------
    1108                    ; 144 | buffer[1] = (char)(temperature_data_1 % 10)+'0';//unit                 
    1109                    ;----------------------------------------------------------------------
    1110 00000094 9801              LDR       A1, [SP, #4]          ; [DPU_3_PIPE] |144|  ; [ORIG 16-BIT INS]
    1111 00000096 220A              MOVS      A3, #10               ; [DPU_3_PIPE] |144|  ; [ORIG 16-BIT INS]
    1112 00000098 F1F2FBB0          UDIV      A2, A1, A3            ; [DPU_3_PIPE] |144|  ; [KEEP 32-BIT INS]
    1113 0000009c 4351              MULS      A2, A2, A3            ; [DPU_3_PIPE] |144|  ; [ORIG 16-BIT INS]
    1114 0000009e 1A40              SUBS      A1, A1, A2            ; [DPU_3_PIPE] |144|  ; [ORIG 16-BIT INS]
    1115 000000a0 B2C0              UXTB      A1, A1                ; [DPU_3_PIPE] |144|  ; [ORIG 16-BIT INS]
    1116 000000a2 3030              ADDS      A1, A1, #48           ; [DPU_3_PIPE] |144|  ; [ORIG 16-BIT INS]
    1117 000000a4 0091F88D          STRB      A1, [SP, #145]        ; [DPU_3_PIPE] |144|  ; [KEEP 32-BIT INS]
    1118                            .dwpsn  file "../esp8266.c",line 145,column 2,is_stmt,isa 1
    1119                    ;----------------------------------------------------------------------
    1120                    ; 145 | strcat(cmnd, buffer);                                                  
    1121                    ; 146 | //field3 temperature 2                                                 
    1122                    ;----------------------------------------------------------------------
    1123 000000a8 A804              ADD       A1, SP, #16           ; [DPU_3_PIPE] |145|  ; [ORIG 16-BIT INS]
    1124 000000aa A924              ADD       A2, SP, #144          ; [DPU_3_PIPE] |145|  ; [ORIG 16-BIT INS]
    1125                    $C$DW$102       .dwtag  DW_TAG_TI_branch
    1126                            .dwattr $C$DW$102, DW_AT_low_pc(0x00)
    1127                            .dwattr $C$DW$102, DW_AT_name("strcat")
    1128                            .dwattr $C$DW$102, DW_AT_TI_call
    1129 000000ac FFFEF7FF!         BL        strcat                ; [DPU_3_PIPE] |145|  ; [KEEP 32-BIT INS]
    1130                            ; CALL OCCURS {strcat }          ; [] |145| 
    1131                            .dwpsn  file "../esp8266.c",line 147,column 2,is_stmt,isa 1
    1132                    ;----------------------------------------------------------------------
    1133                    ; 147 | strcat(cmnd,SEND_DATA_FIELD3);                                         
    1134                    ;----------------------------------------------------------------------
    1135 000000b0 A160              ADR       A2, $C$SL6            ; [DPU_3_PIPE] |147|  ; [ORIG 16-BIT INS]
    1136 000000b2 A804              ADD       A1, SP, #16           ; [DPU_3_PIPE] |147|  ; [ORIG 16-BIT INS]
    1137                    $C$DW$103       .dwtag  DW_TAG_TI_branch
    1138                            .dwattr $C$DW$103, DW_AT_low_pc(0x00)
    1139                            .dwattr $C$DW$103, DW_AT_name("strcat")
    1140                            .dwattr $C$DW$103, DW_AT_TI_call
    1141 000000b4 FFFEF7FF!         BL        strcat                ; [DPU_3_PIPE] |147|  ; [KEEP 32-BIT INS]
    1142                            ; CALL OCCURS {strcat }          ; [] |147| 
    1143                    ;* --------------------------------------------------------------------------*
    1144                            .dwpsn  file "../esp8266.c",line 148,column 2,is_stmt,isa 1
    1145                    ;----------------------------------------------------------------------
    1146                    ; 148 | buffer[0] = (char)(temperature_data_2 / 10)+'0';//decimal              
    1147                    ;----------------------------------------------------------------------
    1148 000000b8 9902              LDR       A2, [SP, #8]          ; [DPU_3_PIPE] |148|  ; [ORIG 16-BIT INS]
    1149 000000ba 200A              MOVS      A1, #10               ; [DPU_3_PIPE] |148|  ; [ORIG 16-BIT INS]
    1150 000000bc F0F0FBB1          UDIV      A1, A2, A1            ; [DPU_3_PIPE] |148|  ; [KEEP 32-BIT INS]
    1151 000000c0 B2C0              UXTB      A1, A1                ; [DPU_3_PIPE] |148|  ; [ORIG 16-BIT INS]
    1152 000000c2 3030              ADDS      A1, A1, #48           ; [DPU_3_PIPE] |148|  ; [ORIG 16-BIT INS]
    1153 000000c4 0090F88D          STRB      A1, [SP, #144]        ; [DPU_3_PIPE] |148|  ; [KEEP 32-BIT INS]
    1154                            .dwpsn  file "../esp8266.c",line 149,column 2,is_stmt,isa 1
    1155                    ;----------------------------------------------------------------------
TI ARM Assembler PC v5.2.5 Sat Nov 07 12:29:23 2015

Tools Copyright (c) 1996-2015 Texas Instruments Incorporated
esp8266.asm                                                          PAGE   22

    1156                    ; 149 | buffer[1] = (char)(temperature_data_2 % 10)+'0';//unit                 
    1157                    ;----------------------------------------------------------------------
    1158 000000c8 9802              LDR       A1, [SP, #8]          ; [DPU_3_PIPE] |149|  ; [ORIG 16-BIT INS]
    1159 000000ca 220A              MOVS      A3, #10               ; [DPU_3_PIPE] |149|  ; [ORIG 16-BIT INS]
    1160 000000cc F1F2FBB0          UDIV      A2, A1, A3            ; [DPU_3_PIPE] |149|  ; [KEEP 32-BIT INS]
    1161 000000d0 4351              MULS      A2, A2, A3            ; [DPU_3_PIPE] |149|  ; [ORIG 16-BIT INS]
    1162 000000d2 1A40              SUBS      A1, A1, A2            ; [DPU_3_PIPE] |149|  ; [ORIG 16-BIT INS]
    1163 000000d4 B2C0              UXTB      A1, A1                ; [DPU_3_PIPE] |149|  ; [ORIG 16-BIT INS]
    1164 000000d6 3030              ADDS      A1, A1, #48           ; [DPU_3_PIPE] |149|  ; [ORIG 16-BIT INS]
    1165 000000d8 0091F88D          STRB      A1, [SP, #145]        ; [DPU_3_PIPE] |149|  ; [KEEP 32-BIT INS]
    1166                            .dwpsn  file "../esp8266.c",line 150,column 2,is_stmt,isa 1
    1167                    ;----------------------------------------------------------------------
    1168                    ; 150 | strcat(cmnd, buffer);                                                  
    1169                    ; 151 | //field4 temperature 3                                                 
    1170                    ;----------------------------------------------------------------------
    1171 000000dc A804              ADD       A1, SP, #16           ; [DPU_3_PIPE] |150|  ; [ORIG 16-BIT INS]
    1172 000000de A924              ADD       A2, SP, #144          ; [DPU_3_PIPE] |150|  ; [ORIG 16-BIT INS]
    1173                    $C$DW$104       .dwtag  DW_TAG_TI_branch
    1174                            .dwattr $C$DW$104, DW_AT_low_pc(0x00)
    1175                            .dwattr $C$DW$104, DW_AT_name("strcat")
    1176                            .dwattr $C$DW$104, DW_AT_TI_call
    1177 000000e0 FFFEF7FF!         BL        strcat                ; [DPU_3_PIPE] |150|  ; [KEEP 32-BIT INS]
    1178                            ; CALL OCCURS {strcat }          ; [] |150| 
    1179                            .dwpsn  file "../esp8266.c",line 152,column 2,is_stmt,isa 1
    1180                    ;----------------------------------------------------------------------
    1181                    ; 152 | strcat(cmnd,SEND_DATA_FIELD4);                                         
    1182                    ;----------------------------------------------------------------------
    1183 000000e4 A804              ADD       A1, SP, #16           ; [DPU_3_PIPE] |152|  ; [ORIG 16-BIT INS]
    1184 000000e6 A156              ADR       A2, $C$SL7            ; [DPU_3_PIPE] |152|  ; [ORIG 16-BIT INS]
    1185                    $C$DW$105       .dwtag  DW_TAG_TI_branch
    1186                            .dwattr $C$DW$105, DW_AT_low_pc(0x00)
    1187                            .dwattr $C$DW$105, DW_AT_name("strcat")
    1188                            .dwattr $C$DW$105, DW_AT_TI_call
    1189 000000e8 FFFEF7FF!         BL        strcat                ; [DPU_3_PIPE] |152|  ; [KEEP 32-BIT INS]
    1190                            ; CALL OCCURS {strcat }          ; [] |152| 
    1191                            .dwpsn  file "../esp8266.c",line 153,column 2,is_stmt,isa 1
    1192                    ;----------------------------------------------------------------------
    1193                    ; 153 | buffer[0] = (char)(temperature_data_3 / 10)+'0';//decimal              
    1194                    ;----------------------------------------------------------------------
    1195 000000ec 9903              LDR       A2, [SP, #12]         ; [DPU_3_PIPE] |153|  ; [ORIG 16-BIT INS]
    1196 000000ee 200A              MOVS      A1, #10               ; [DPU_3_PIPE] |153|  ; [ORIG 16-BIT INS]
    1197 000000f0 F0F0FBB1          UDIV      A1, A2, A1            ; [DPU_3_PIPE] |153|  ; [KEEP 32-BIT INS]
    1198 000000f4 B2C0              UXTB      A1, A1                ; [DPU_3_PIPE] |153|  ; [ORIG 16-BIT INS]
    1199 000000f6 3030              ADDS      A1, A1, #48           ; [DPU_3_PIPE] |153|  ; [ORIG 16-BIT INS]
    1200 000000f8 0090F88D          STRB      A1, [SP, #144]        ; [DPU_3_PIPE] |153|  ; [KEEP 32-BIT INS]
    1201                            .dwpsn  file "../esp8266.c",line 154,column 2,is_stmt,isa 1
    1202                    ;----------------------------------------------------------------------
    1203                    ; 154 | buffer[1] = (char)(temperature_data_3 % 10)+'0';//unit                 
    1204                    ;----------------------------------------------------------------------
    1205 000000fc 9803              LDR       A1, [SP, #12]         ; [DPU_3_PIPE] |154|  ; [ORIG 16-BIT INS]
    1206 000000fe 220A              MOVS      A3, #10               ; [DPU_3_PIPE] |154|  ; [ORIG 16-BIT INS]
    1207 00000100 F1F2FBB0          UDIV      A2, A1, A3            ; [DPU_3_PIPE] |154|  ; [KEEP 32-BIT INS]
    1208 00000104 4351              MULS      A2, A2, A3            ; [DPU_3_PIPE] |154|  ; [ORIG 16-BIT INS]
    1209 00000106 1A40              SUBS      A1, A1, A2            ; [DPU_3_PIPE] |154|  ; [ORIG 16-BIT INS]
    1210 00000108 B2C0              UXTB      A1, A1                ; [DPU_3_PIPE] |154|  ; [ORIG 16-BIT INS]
TI ARM Assembler PC v5.2.5 Sat Nov 07 12:29:23 2015

Tools Copyright (c) 1996-2015 Texas Instruments Incorporated
esp8266.asm                                                          PAGE   23

    1211 0000010a 3030              ADDS      A1, A1, #48           ; [DPU_3_PIPE] |154|  ; [ORIG 16-BIT INS]
    1212 0000010c 0091F88D          STRB      A1, [SP, #145]        ; [DPU_3_PIPE] |154|  ; [KEEP 32-BIT INS]
    1213                            .dwpsn  file "../esp8266.c",line 155,column 2,is_stmt,isa 1
    1214                    ;----------------------------------------------------------------------
    1215                    ; 155 | strcat(cmnd, buffer);                                                  
    1216                    ; 156 | //field5 CO2 level                                                     
    1217                    ;----------------------------------------------------------------------
    1218 00000110 A804              ADD       A1, SP, #16           ; [DPU_3_PIPE] |155|  ; [ORIG 16-BIT INS]
    1219 00000112 A924              ADD       A2, SP, #144          ; [DPU_3_PIPE] |155|  ; [ORIG 16-BIT INS]
    1220                    $C$DW$106       .dwtag  DW_TAG_TI_branch
    1221                            .dwattr $C$DW$106, DW_AT_low_pc(0x00)
    1222                            .dwattr $C$DW$106, DW_AT_name("strcat")
    1223                            .dwattr $C$DW$106, DW_AT_TI_call
    1224 00000114 FFFEF7FF!         BL        strcat                ; [DPU_3_PIPE] |155|  ; [KEEP 32-BIT INS]
    1225                            ; CALL OCCURS {strcat }          ; [] |155| 
    1226                            .dwpsn  file "../esp8266.c",line 157,column 2,is_stmt,isa 1
    1227                    ;----------------------------------------------------------------------
    1228                    ; 157 | strcat(cmnd,SEND_DATA_FIELD5);                                         
    1229                    ; 158 | //buffer[0] = (char)(co2level / 10)+'0';//decimal                      
    1230                    ; 159 | //buffer[1] = (char)(co2level % 10)+'0';//unit                         
    1231                    ;----------------------------------------------------------------------
    1232 00000118 A804              ADD       A1, SP, #16           ; [DPU_3_PIPE] |157|  ; [ORIG 16-BIT INS]
    1233 0000011a A14C              ADR       A2, $C$SL8            ; [DPU_3_PIPE] |157|  ; [ORIG 16-BIT INS]
    1234                    $C$DW$107       .dwtag  DW_TAG_TI_branch
    1235                            .dwattr $C$DW$107, DW_AT_low_pc(0x00)
    1236                            .dwattr $C$DW$107, DW_AT_name("strcat")
    1237                            .dwattr $C$DW$107, DW_AT_TI_call
    1238 0000011c FFFEF7FF!         BL        strcat                ; [DPU_3_PIPE] |157|  ; [KEEP 32-BIT INS]
    1239                            ; CALL OCCURS {strcat }          ; [] |157| 
    1240                            .dwpsn  file "../esp8266.c",line 160,column 2,is_stmt,isa 1
    1241                    ;----------------------------------------------------------------------
    1242                    ; 160 | uitoa(co2level, buffer_long, 5);                                       
    1243                    ;----------------------------------------------------------------------
    1244 00000120 6838              LDR       A1, [V4, #0]          ; [DPU_3_PIPE] |160|  ; [ORIG 16-BIT INS]
    1245 00000122 A925              ADD       A2, SP, #148          ; [DPU_3_PIPE] |160|  ; [ORIG 16-BIT INS]
    1246 00000124 2205              MOVS      A3, #5                ; [DPU_3_PIPE] |160|  ; [ORIG 16-BIT INS]
    1247                    $C$DW$108       .dwtag  DW_TAG_TI_branch
    1248                            .dwattr $C$DW$108, DW_AT_low_pc(0x00)
    1249                            .dwattr $C$DW$108, DW_AT_name("uitoa")
    1250                            .dwattr $C$DW$108, DW_AT_TI_call
    1251 00000126 FFFEF7FF!         BL        uitoa                 ; [DPU_3_PIPE] |160|  ; [KEEP 32-BIT INS]
    1252                            ; CALL OCCURS {uitoa }           ; [] |160| 
    1253                            .dwpsn  file "../esp8266.c",line 161,column 2,is_stmt,isa 1
    1254                    ;----------------------------------------------------------------------
    1255                    ; 161 | strcat(cmnd, buffer_long);                                             
    1256                    ; 162 | //field6 Water relay                                                   
    1257                    ;----------------------------------------------------------------------
    1258 0000012a A804              ADD       A1, SP, #16           ; [DPU_3_PIPE] |161|  ; [ORIG 16-BIT INS]
    1259 0000012c A925              ADD       A2, SP, #148          ; [DPU_3_PIPE] |161|  ; [ORIG 16-BIT INS]
    1260                    $C$DW$109       .dwtag  DW_TAG_TI_branch
    1261                            .dwattr $C$DW$109, DW_AT_low_pc(0x00)
    1262                            .dwattr $C$DW$109, DW_AT_name("strcat")
    1263                            .dwattr $C$DW$109, DW_AT_TI_call
    1264 0000012e FFFEF7FF!         BL        strcat                ; [DPU_3_PIPE] |161|  ; [KEEP 32-BIT INS]
    1265                            ; CALL OCCURS {strcat }          ; [] |161| 
TI ARM Assembler PC v5.2.5 Sat Nov 07 12:29:23 2015

Tools Copyright (c) 1996-2015 Texas Instruments Incorporated
esp8266.asm                                                          PAGE   24

    1266                            .dwpsn  file "../esp8266.c",line 163,column 2,is_stmt,isa 1
    1267                    ;----------------------------------------------------------------------
    1268                    ; 163 | strcat(cmnd,SEND_DATA_FIELD6);                                         
    1269                    ;----------------------------------------------------------------------
    1270 00000132 A804              ADD       A1, SP, #16           ; [DPU_3_PIPE] |163|  ; [ORIG 16-BIT INS]
    1271 00000134 A148              ADR       A2, $C$SL9            ; [DPU_3_PIPE] |163|  ; [ORIG 16-BIT INS]
    1272                    $C$DW$110       .dwtag  DW_TAG_TI_branch
    1273                            .dwattr $C$DW$110, DW_AT_low_pc(0x00)
    1274                            .dwattr $C$DW$110, DW_AT_name("strcat")
    1275                            .dwattr $C$DW$110, DW_AT_TI_call
    1276 00000136 FFFEF7FF!         BL        strcat                ; [DPU_3_PIPE] |163|  ; [KEEP 32-BIT INS]
    1277                            ; CALL OCCURS {strcat }          ; [] |163| 
    1278                            .dwpsn  file "../esp8266.c",line 164,column 2,is_stmt,isa 1
    1279                    ;----------------------------------------------------------------------
    1280                    ; 164 | buffer[0] = (char)(water_relay)+'0';//decimal                          
    1281                    ;----------------------------------------------------------------------
    1282 0000013a 7938              LDRB      A1, [V4, #4]          ; [DPU_3_PIPE] |164|  ; [ORIG 16-BIT INS]
    1283 0000013c 3030              ADDS      A1, A1, #48           ; [DPU_3_PIPE] |164|  ; [ORIG 16-BIT INS]
    1284 0000013e 0090F88D          STRB      A1, [SP, #144]        ; [DPU_3_PIPE] |164|  ; [KEEP 32-BIT INS]
    1285                            .dwpsn  file "../esp8266.c",line 165,column 2,is_stmt,isa 1
    1286                    ;----------------------------------------------------------------------
    1287                    ; 165 | buffer[1] = '0';//unit                                                 
    1288                    ;----------------------------------------------------------------------
    1289 00000142 2030              MOVS      A1, #48               ; [DPU_3_PIPE] |165|  ; [ORIG 16-BIT INS]
    1290 00000144 0091F88D          STRB      A1, [SP, #145]        ; [DPU_3_PIPE] |165|  ; [KEEP 32-BIT INS]
    1291                            .dwpsn  file "../esp8266.c",line 166,column 2,is_stmt,isa 1
    1292                    ;----------------------------------------------------------------------
    1293                    ; 166 | strcat(cmnd, buffer);                                                  
    1294                    ; 167 | //field7 Fan relay                                                     
    1295                    ;----------------------------------------------------------------------
    1296 00000148 A924              ADD       A2, SP, #144          ; [DPU_3_PIPE] |166|  ; [ORIG 16-BIT INS]
    1297 0000014a A804              ADD       A1, SP, #16           ; [DPU_3_PIPE] |166|  ; [ORIG 16-BIT INS]
    1298                    $C$DW$111       .dwtag  DW_TAG_TI_branch
    1299                            .dwattr $C$DW$111, DW_AT_low_pc(0x00)
    1300                            .dwattr $C$DW$111, DW_AT_name("strcat")
    1301                            .dwattr $C$DW$111, DW_AT_TI_call
    1302 0000014c FFFEF7FF!         BL        strcat                ; [DPU_3_PIPE] |166|  ; [KEEP 32-BIT INS]
    1303                            ; CALL OCCURS {strcat }          ; [] |166| 
    1304                            .dwpsn  file "../esp8266.c",line 168,column 2,is_stmt,isa 1
    1305                    ;----------------------------------------------------------------------
    1306                    ; 168 | strcat(cmnd,SEND_DATA_FIELD7);                                         
    1307                    ;----------------------------------------------------------------------
    1308 00000150 A804              ADD       A1, SP, #16           ; [DPU_3_PIPE] |168|  ; [ORIG 16-BIT INS]
    1309 00000152 A144              ADR       A2, $C$SL10           ; [DPU_3_PIPE] |168|  ; [ORIG 16-BIT INS]
    1310                    $C$DW$112       .dwtag  DW_TAG_TI_branch
    1311                            .dwattr $C$DW$112, DW_AT_low_pc(0x00)
    1312                            .dwattr $C$DW$112, DW_AT_name("strcat")
    1313                            .dwattr $C$DW$112, DW_AT_TI_call
    1314 00000154 FFFEF7FF!         BL        strcat                ; [DPU_3_PIPE] |168|  ; [KEEP 32-BIT INS]
    1315                            ; CALL OCCURS {strcat }          ; [] |168| 
    1316                            .dwpsn  file "../esp8266.c",line 169,column 2,is_stmt,isa 1
    1317                    ;----------------------------------------------------------------------
    1318                    ; 169 | buffer[0] = (char)(fan_relay)+'0';//decimal                            
    1319                    ;----------------------------------------------------------------------
    1320 00000158 7A38              LDRB      A1, [V4, #8]          ; [DPU_3_PIPE] |169|  ; [ORIG 16-BIT INS]
TI ARM Assembler PC v5.2.5 Sat Nov 07 12:29:23 2015

Tools Copyright (c) 1996-2015 Texas Instruments Incorporated
esp8266.asm                                                          PAGE   25

    1321 0000015a 3030              ADDS      A1, A1, #48           ; [DPU_3_PIPE] |169|  ; [ORIG 16-BIT INS]
    1322 0000015c 0090F88D          STRB      A1, [SP, #144]        ; [DPU_3_PIPE] |169|  ; [KEEP 32-BIT INS]
    1323                            .dwpsn  file "../esp8266.c",line 170,column 2,is_stmt,isa 1
    1324                    ;----------------------------------------------------------------------
    1325                    ; 170 | buffer[1] = '0';//unit                                                 
    1326                    ;----------------------------------------------------------------------
    1327 00000160 2030              MOVS      A1, #48               ; [DPU_3_PIPE] |170|  ; [ORIG 16-BIT INS]
    1328 00000162 0091F88D          STRB      A1, [SP, #145]        ; [DPU_3_PIPE] |170|  ; [KEEP 32-BIT INS]
    1329                            .dwpsn  file "../esp8266.c",line 171,column 2,is_stmt,isa 1
    1330                    ;----------------------------------------------------------------------
    1331                    ; 171 | strcat(cmnd, buffer);                                                  
    1332                    ;----------------------------------------------------------------------
    1333 00000166 A924              ADD       A2, SP, #144          ; [DPU_3_PIPE] |171|  ; [ORIG 16-BIT INS]
    1334 00000168 A804              ADD       A1, SP, #16           ; [DPU_3_PIPE] |171|  ; [ORIG 16-BIT INS]
    1335                    $C$DW$113       .dwtag  DW_TAG_TI_branch
    1336                            .dwattr $C$DW$113, DW_AT_low_pc(0x00)
    1337                            .dwattr $C$DW$113, DW_AT_name("strcat")
    1338                            .dwattr $C$DW$113, DW_AT_TI_call
    1339 0000016a FFFEF7FF!         BL        strcat                ; [DPU_3_PIPE] |171|  ; [KEEP 32-BIT INS]
    1340                            ; CALL OCCURS {strcat }          ; [] |171| 
    1341                            .dwpsn  file "../esp8266.c",line 173,column 2,is_stmt,isa 1
    1342                    ;----------------------------------------------------------------------
    1343                    ; 173 | cmnd_len = strlen(cmnd);                                               
    1344                    ;----------------------------------------------------------------------
    1345 0000016e A804              ADD       A1, SP, #16           ; [DPU_3_PIPE] |173|  ; [ORIG 16-BIT INS]
    1346                    $C$DW$114       .dwtag  DW_TAG_TI_branch
    1347                            .dwattr $C$DW$114, DW_AT_low_pc(0x00)
    1348                            .dwattr $C$DW$114, DW_AT_name("strlen")
    1349                            .dwattr $C$DW$114, DW_AT_TI_call
    1350 00000170 FFFEF7FF!         BL        strlen                ; [DPU_3_PIPE] |173|  ; [KEEP 32-BIT INS]
    1351                            ; CALL OCCURS {strlen }          ; [] |173| 
    1352                    ;* --------------------------------------------------------------------------*
    1353 00000174 009EF8AD          STRH      A1, [SP, #158]        ; [DPU_3_PIPE] |173|  ; [KEEP 32-BIT INS]
    1354                            .dwpsn  file "../esp8266.c",line 174,column 2,is_stmt,isa 1
    1355                    ;----------------------------------------------------------------------
    1356                    ; 174 | cmnd_len += 2;                                                         
    1357                    ;----------------------------------------------------------------------
    1358 00000178 009EF8BD          LDRH      A1, [SP, #158]        ; [DPU_3_PIPE] |174|  ; [KEEP 32-BIT INS]
    1359 0000017c 1C80              ADDS      A1, A1, #2            ; [DPU_3_PIPE] |174|  ; [ORIG 16-BIT INS]
    1360 0000017e 009EF8AD          STRH      A1, [SP, #158]        ; [DPU_3_PIPE] |174|  ; [KEEP 32-BIT INS]
    1361                            .dwpsn  file "../esp8266.c",line 175,column 2,is_stmt,isa 1
    1362                    ;----------------------------------------------------------------------
    1363                    ; 175 | uitoa(cmnd_len, cmnd_len_array_temp, 3);                               
    1364                    ;----------------------------------------------------------------------
    1365 00000182 009EF8BD          LDRH      A1, [SP, #158]        ; [DPU_3_PIPE] |175|  ; [KEEP 32-BIT INS]
    1366 00000186 A923              ADD       A2, SP, #140          ; [DPU_3_PIPE] |175|  ; [ORIG 16-BIT INS]
    1367 00000188 2203              MOVS      A3, #3                ; [DPU_3_PIPE] |175|  ; [ORIG 16-BIT INS]
    1368                    $C$DW$115       .dwtag  DW_TAG_TI_branch
    1369                            .dwattr $C$DW$115, DW_AT_low_pc(0x00)
    1370                            .dwattr $C$DW$115, DW_AT_name("uitoa")
    1371                            .dwattr $C$DW$115, DW_AT_TI_call
    1372 0000018a FFFEF7FF!         BL        uitoa                 ; [DPU_3_PIPE] |175|  ; [KEEP 32-BIT INS]
    1373                            ; CALL OCCURS {uitoa }           ; [] |175| 
    1374                            .dwpsn  file "../esp8266.c",line 176,column 2,is_stmt,isa 1
    1375                    ;----------------------------------------------------------------------
TI ARM Assembler PC v5.2.5 Sat Nov 07 12:29:23 2015

Tools Copyright (c) 1996-2015 Texas Instruments Incorporated
esp8266.asm                                                          PAGE   26

    1376                    ; 176 | strcpy(cmnd_len_array, SEND_AT_CIPSEND);                               
    1377                    ;----------------------------------------------------------------------
    1378 0000018e A81F              ADD       A1, SP, #124          ; [DPU_3_PIPE] |176|  ; [ORIG 16-BIT INS]
    1379 00000190 A137              ADR       A2, $C$SL11           ; [DPU_3_PIPE] |176|  ; [ORIG 16-BIT INS]
    1380                    $C$DW$116       .dwtag  DW_TAG_TI_branch
    1381                            .dwattr $C$DW$116, DW_AT_low_pc(0x00)
    1382                            .dwattr $C$DW$116, DW_AT_name("strcpy")
    1383                            .dwattr $C$DW$116, DW_AT_TI_call
    1384 00000192 FFFEF7FF!         BL        strcpy                ; [DPU_3_PIPE] |176|  ; [KEEP 32-BIT INS]
    1385                            ; CALL OCCURS {strcpy }          ; [] |176| 
    1386                            .dwpsn  file "../esp8266.c",line 177,column 2,is_stmt,isa 1
    1387                    ;----------------------------------------------------------------------
    1388                    ; 177 | strcat(cmnd_len_array, cmnd_len_array_temp);                           
    1389                    ; 178 | //uart_send(SEND_CMD_LENGTH);                                          
    1390                    ; 179 | //result = esp8266_send(SEND_CMD_LENGTH, CMD_LENGTH_CONFIRMATION);     
    1391                    ;----------------------------------------------------------------------
    1392 00000196 A81F              ADD       A1, SP, #124          ; [DPU_3_PIPE] |177|  ; [ORIG 16-BIT INS]
    1393 00000198 A923              ADD       A2, SP, #140          ; [DPU_3_PIPE] |177|  ; [ORIG 16-BIT INS]
    1394                    $C$DW$117       .dwtag  DW_TAG_TI_branch
    1395                            .dwattr $C$DW$117, DW_AT_low_pc(0x00)
    1396                            .dwattr $C$DW$117, DW_AT_name("strcat")
    1397                            .dwattr $C$DW$117, DW_AT_TI_call
    1398 0000019a FFFEF7FF!         BL        strcat                ; [DPU_3_PIPE] |177|  ; [KEEP 32-BIT INS]
    1399                            ; CALL OCCURS {strcat }          ; [] |177| 
    1400                            .dwpsn  file "../esp8266.c",line 180,column 2,is_stmt,isa 1
    1401                    ;----------------------------------------------------------------------
    1402                    ; 180 | result = esp8266_send(cmnd_len_array, CMD_LENGTH_CONFIRMATION);        
    1403                    ;----------------------------------------------------------------------
    1404 0000019e A81F              ADD       A1, SP, #124          ; [DPU_3_PIPE] |180|  ; [ORIG 16-BIT INS]
    1405 000001a0 A136              ADR       A2, $C$SL12           ; [DPU_3_PIPE] |180|  ; [ORIG 16-BIT INS]
    1406                    $C$DW$118       .dwtag  DW_TAG_TI_branch
    1407                            .dwattr $C$DW$118, DW_AT_low_pc(0x00)
    1408                            .dwattr $C$DW$118, DW_AT_name("esp8266_send")
    1409                            .dwattr $C$DW$118, DW_AT_TI_call
    1410 000001a2 FFFEF7FF!         BL        esp8266_send          ; [DPU_3_PIPE] |180|  ; [KEEP 32-BIT INS]
    1411                            ; CALL OCCURS {esp8266_send }    ; [] |180| 
    1412 000001a6 009CF88D          STRB      A1, [SP, #156]        ; [DPU_3_PIPE] |180|  ; [KEEP 32-BIT INS]
    1413                            .dwpsn  file "../esp8266.c",line 181,column 2,is_stmt,isa 1
    1414                    ;----------------------------------------------------------------------
    1415                    ; 181 | if(!result)                                                            
    1416                    ;----------------------------------------------------------------------
    1417 000001aa 009CF89D          LDRB      A1, [SP, #156]        ; [DPU_3_PIPE] |181|  ; [KEEP 32-BIT INS]
    1418 000001ae B918              CBNZ      A1, ||$C$L11||        ; []  ; [ORIG 16-BIT INS]
    1419                            ; BRANCHCC OCCURS {||$C$L11||}   ; [] |181| 
    1420                    ;* --------------------------------------------------------------------------*
    1421                            .dwpsn  file "../esp8266.c",line 183,column 6,is_stmt,isa 1
    1422                    ;----------------------------------------------------------------------
    1423                    ; 183 | esp8266_reset();                                                       
    1424                    ;----------------------------------------------------------------------
    1425                    $C$DW$119       .dwtag  DW_TAG_TI_branch
    1426                            .dwattr $C$DW$119, DW_AT_low_pc(0x00)
    1427                            .dwattr $C$DW$119, DW_AT_name("esp8266_reset")
    1428                            .dwattr $C$DW$119, DW_AT_TI_call
    1429 000001b0 FFFEF7FF!         BL        esp8266_reset         ; [DPU_3_PIPE] |183|  ; [KEEP 32-BIT INS]
    1430                            ; CALL OCCURS {esp8266_reset }   ; [] |183| 
TI ARM Assembler PC v5.2.5 Sat Nov 07 12:29:23 2015

Tools Copyright (c) 1996-2015 Texas Instruments Incorporated
esp8266.asm                                                          PAGE   27

    1431                            .dwpsn  file "../esp8266.c",line 184,column 5,is_stmt,isa 1
    1432                    ;----------------------------------------------------------------------
    1433                    ; 184 | return 0;                                                              
    1434                    ;----------------------------------------------------------------------
    1435 000001b4 2000              MOVS      A1, #0                ; [DPU_3_PIPE] |184|  ; [ORIG 16-BIT INS]
    1436 000001b6 E00A              B         ||$C$L12||            ; [DPU_3_PIPE] |184|  ; [ORIG 16-BIT INS]
    1437                            ; BRANCH OCCURS {||$C$L12||}     ; [] |184| 
    1438                    ;* --------------------------------------------------------------------------*
    1439 000001b8           ||$C$L11||:    
    1440                            .dwpsn  file "../esp8266.c",line 186,column 2,is_stmt,isa 1
    1441                    ;----------------------------------------------------------------------
    1442                    ; 186 | SysCtlDelay(SysCtlClockGet()/3);                                       
    1443                    ;----------------------------------------------------------------------
    1444                    $C$DW$120       .dwtag  DW_TAG_TI_branch
    1445                            .dwattr $C$DW$120, DW_AT_low_pc(0x00)
    1446                            .dwattr $C$DW$120, DW_AT_name("SysCtlClockGet")
    1447                            .dwattr $C$DW$120, DW_AT_TI_call
    1448 000001b8 FFFEF7FF!         BL        SysCtlClockGet        ; [DPU_3_PIPE] |186|  ; [KEEP 32-BIT INS]
    1449                            ; CALL OCCURS {SysCtlClockGet }  ; [] |186| 
    1450 000001bc 2103              MOVS      A2, #3                ; [DPU_3_PIPE] |186|  ; [ORIG 16-BIT INS]
    1451 000001be F0F1FBB0          UDIV      A1, A1, A2            ; [DPU_3_PIPE] |186|  ; [KEEP 32-BIT INS]
    1452                    $C$DW$121       .dwtag  DW_TAG_TI_branch
    1453                            .dwattr $C$DW$121, DW_AT_low_pc(0x00)
    1454                            .dwattr $C$DW$121, DW_AT_name("SysCtlDelay")
    1455                            .dwattr $C$DW$121, DW_AT_TI_call
    1456 000001c2 FFFEF7FF!         BL        SysCtlDelay           ; [DPU_3_PIPE] |186|  ; [KEEP 32-BIT INS]
    1457                            ; CALL OCCURS {SysCtlDelay }     ; [] |186| 
    1458                            .dwpsn  file "../esp8266.c",line 188,column 2,is_stmt,isa 1
    1459                    ;----------------------------------------------------------------------
    1460                    ; 188 | uart_send(cmnd);                                                       
    1461                    ;----------------------------------------------------------------------
    1462 000001c6 A804              ADD       A1, SP, #16           ; [DPU_3_PIPE] |188|  ; [ORIG 16-BIT INS]
    1463                    $C$DW$122       .dwtag  DW_TAG_TI_branch
    1464                            .dwattr $C$DW$122, DW_AT_low_pc(0x00)
    1465                            .dwattr $C$DW$122, DW_AT_name("uart_send")
    1466                            .dwattr $C$DW$122, DW_AT_TI_call
    1467 000001c8 FFFEF7FF!         BL        uart_send             ; [DPU_3_PIPE] |188|  ; [KEEP 32-BIT INS]
    1468                            ; CALL OCCURS {uart_send }       ; [] |188| 
    1469                            .dwpsn  file "../esp8266.c",line 189,column 2,is_stmt,isa 1
    1470                    ;----------------------------------------------------------------------
    1471                    ; 189 | return 1;                                                              
    1472                    ;----------------------------------------------------------------------
    1473 000001cc 2001              MOVS      A1, #1                ; [DPU_3_PIPE] |189|  ; [ORIG 16-BIT INS]
    1474                    ;* --------------------------------------------------------------------------*
    1475 000001ce           ||$C$L12||:    
    1476                            .dwpsn  file "../esp8266.c",line 190,column 1,is_stmt,isa 1
    1477 000001ce B028              ADD       SP, SP, #160          ; [DPU_3_PIPE]  ; [ORIG 16-BIT INS]
    1478                            .dwcfi  cfa_offset, 8
    1479                    $C$DW$123       .dwtag  DW_TAG_TI_branch
    1480                            .dwattr $C$DW$123, DW_AT_low_pc(0x00)
    1481                            .dwattr $C$DW$123, DW_AT_TI_return
    1482 000001d0 BD80              POP       {V4, PC}              ; [DPU_3_PIPE]  ; [ORIG 16-BIT INS]
    1483                            .dwcfi  cfa_offset, 0
    1484                            ; BRANCH OCCURS                  ; [] 
    1485                            .dwattr $C$DW$74, DW_AT_TI_end_file("../esp8266.c")
TI ARM Assembler PC v5.2.5 Sat Nov 07 12:29:23 2015

Tools Copyright (c) 1996-2015 Texas Instruments Incorporated
esp8266.asm                                                          PAGE   28

    1486                            .dwattr $C$DW$74, DW_AT_TI_end_line(0xbe)
    1487                            .dwattr $C$DW$74, DW_AT_TI_end_column(0x01)
    1488                            .dwendentry
    1489                            .dwendtag $C$DW$74
    1490                    
    1491 00000000                   .sect   ".text:list_ap"
    1492                            .clink
    1493                            .thumbfunc list_ap
    1494 00000000                   .thumb
    1495                            .global list_ap
    1496                    
    1497                    $C$DW$124       .dwtag  DW_TAG_subprogram, DW_AT_name("list_ap")
    1498                            .dwattr $C$DW$124, DW_AT_low_pc(list_ap)
    1499                            .dwattr $C$DW$124, DW_AT_high_pc(0x00)
    1500                            .dwattr $C$DW$124, DW_AT_TI_symbol_name("list_ap")
    1501                            .dwattr $C$DW$124, DW_AT_external
    1502                            .dwattr $C$DW$124, DW_AT_TI_begin_file("../esp8266.c")
    1503                            .dwattr $C$DW$124, DW_AT_TI_begin_line(0xc0)
    1504                            .dwattr $C$DW$124, DW_AT_TI_begin_column(0x06)
    1505                            .dwattr $C$DW$124, DW_AT_decl_file("../esp8266.c")
    1506                            .dwattr $C$DW$124, DW_AT_decl_line(0xc0)
    1507                            .dwattr $C$DW$124, DW_AT_decl_column(0x06)
    1508                            .dwattr $C$DW$124, DW_AT_TI_max_frame_size(0x00)
    1509                            .dwpsn  file "../esp8266.c",line 193,column 1,is_stmt,address list_ap,isa 1
    1510                    
    1511                            .dwfde $C$DW$CIE, list_ap
    1512                    ;----------------------------------------------------------------------
    1513                    ; 192 | void list_ap()                                                         
    1514                    ; 194 | //uart_send(LIST_AP);                                                  
    1515                    ; 195 | //esp8266_send(LIST_AP,LIST_AP_CONFIRMATION);                          
    1516                    ;----------------------------------------------------------------------
    1517                    
    1518                    ;*****************************************************************************
    1519                    ;* FUNCTION NAME: list_ap                                                    *
    1520                    ;*                                                                           *
    1521                    ;*   Regs Modified     :                                                     *
    1522                    ;*   Regs Used         : LR                                                  *
    1523                    ;*   Local Frame Size  : 0 Args + 0 Auto + 0 Save = 0 byte                   *
    1524                    ;*****************************************************************************
    1525 00000000           list_ap:
    1526                    ;* --------------------------------------------------------------------------*
    1527                            .dwcfi  cfa_offset, 0
    1528                            .dwpsn  file "../esp8266.c",line 196,column 1,is_stmt,isa 1
    1529                    $C$DW$125       .dwtag  DW_TAG_TI_branch
    1530                            .dwattr $C$DW$125, DW_AT_low_pc(0x00)
    1531                            .dwattr $C$DW$125, DW_AT_TI_return
    1532 00000000 4770              BX        LR                    ; [DPU_3_PIPE]  ; [ORIG 16-BIT INS]
    1533                            ; BRANCH OCCURS                  ; [] 
    1534                            .dwattr $C$DW$124, DW_AT_TI_end_file("../esp8266.c")
    1535                            .dwattr $C$DW$124, DW_AT_TI_end_line(0xc4)
    1536                            .dwattr $C$DW$124, DW_AT_TI_end_column(0x01)
    1537                            .dwendentry
    1538                            .dwendtag $C$DW$124
    1539                    
    1540 00000000                   .sect   ".text:init_esp8266"
TI ARM Assembler PC v5.2.5 Sat Nov 07 12:29:23 2015

Tools Copyright (c) 1996-2015 Texas Instruments Incorporated
esp8266.asm                                                          PAGE   29

    1541                            .clink
    1542                            .thumbfunc init_esp8266
    1543 00000000                   .thumb
    1544                            .global init_esp8266
    1545                    
    1546                    $C$DW$126       .dwtag  DW_TAG_subprogram, DW_AT_name("init_esp8266")
    1547                            .dwattr $C$DW$126, DW_AT_low_pc(init_esp8266)
    1548                            .dwattr $C$DW$126, DW_AT_high_pc(0x00)
    1549                            .dwattr $C$DW$126, DW_AT_TI_symbol_name("init_esp8266")
    1550                            .dwattr $C$DW$126, DW_AT_external
    1551                            .dwattr $C$DW$126, DW_AT_type(*$C$DW$T$25)
    1552                            .dwattr $C$DW$126, DW_AT_TI_begin_file("../esp8266.c")
    1553                            .dwattr $C$DW$126, DW_AT_TI_begin_line(0xc6)
    1554                            .dwattr $C$DW$126, DW_AT_TI_begin_column(0x09)
    1555                            .dwattr $C$DW$126, DW_AT_decl_file("../esp8266.c")
    1556                            .dwattr $C$DW$126, DW_AT_decl_line(0xc6)
    1557                            .dwattr $C$DW$126, DW_AT_decl_column(0x09)
    1558                            .dwattr $C$DW$126, DW_AT_TI_max_frame_size(0x08)
    1559                            .dwpsn  file "../esp8266.c",line 199,column 1,is_stmt,address init_esp8266,isa 1
    1560                    
    1561                            .dwfde $C$DW$CIE, init_esp8266
    1562                    ;----------------------------------------------------------------------
    1563                    ; 198 | uint8_t init_esp8266()                                                 
    1564                    ;----------------------------------------------------------------------
    1565                    
    1566                    ;*****************************************************************************
    1567                    ;* FUNCTION NAME: init_esp8266                                               *
    1568                    ;*                                                                           *
    1569                    ;*   Regs Modified     : A1,A2,A3,A4,V9,SP,LR,SR,D0,D0_hi,D1,D1_hi,D2,D2_hi, *
    1570                    ;*                           D3,D3_hi,D4,D4_hi,D5,D5_hi,D6,D6_hi,D7,D7_hi,   *
    1571                    ;*                           FPEXC,FPSCR                                     *
    1572                    ;*   Regs Used         : A1,A2,A3,A4,V9,SP,LR,SR,D0,D0_hi,D1,D1_hi,D2,D2_hi, *
    1573                    ;*                           D3,D3_hi,D4,D4_hi,D5,D5_hi,D6,D6_hi,D7,D7_hi,   *
    1574                    ;*                           FPEXC,FPSCR                                     *
    1575                    ;*   Local Frame Size  : 0 Args + 4 Auto + 4 Save = 8 byte                   *
    1576                    ;*****************************************************************************
    1577 00000000           init_esp8266:
    1578                    ;* --------------------------------------------------------------------------*
    1579                            .dwcfi  cfa_offset, 0
    1580 00000000 B508              PUSH      {A4, LR}              ; [DPU_3_PIPE]  ; [ORIG 16-BIT INS]
    1581                            .dwcfi  cfa_offset, 8
    1582                            .dwcfi  save_reg_to_mem, 14, -4
    1583                            .dwcfi  save_reg_to_mem, 3, -8
    1584                    $C$DW$127       .dwtag  DW_TAG_variable, DW_AT_name("result")
    1585                            .dwattr $C$DW$127, DW_AT_TI_symbol_name("result")
    1586                            .dwattr $C$DW$127, DW_AT_type(*$C$DW$T$10)
    1587                            .dwattr $C$DW$127, DW_AT_location[DW_OP_breg13 0]
    1588                            .dwpsn  file "../esp8266.c",line 200,column 12,is_stmt,isa 1
    1589                    ;----------------------------------------------------------------------
    1590                    ; 200 | int result=1;                                                          
    1591                    ;----------------------------------------------------------------------
    1592 00000002 2001              MOVS      A1, #1                ; [DPU_3_PIPE] |200|  ; [ORIG 16-BIT INS]
    1593 00000004 9000              STR       A1, [SP, #0]          ; [DPU_3_PIPE] |200|  ; [ORIG 16-BIT INS]
    1594                            .dwpsn  file "../esp8266.c",line 201,column 5,is_stmt,isa 1
    1595                    ;----------------------------------------------------------------------
TI ARM Assembler PC v5.2.5 Sat Nov 07 12:29:23 2015

Tools Copyright (c) 1996-2015 Texas Instruments Incorporated
esp8266.asm                                                          PAGE   30

    1596                    ; 201 | SysCtlPeripheralEnable(SYSCTL_PERIPH_UART5);                           
    1597                    ;----------------------------------------------------------------------
    1598 00000006 4821              LDR       A1, $C$CON7           ; [DPU_3_PIPE] |201|  ; [ORIG 16-BIT INS]
    1599                    $C$DW$128       .dwtag  DW_TAG_TI_branch
    1600                            .dwattr $C$DW$128, DW_AT_low_pc(0x00)
    1601                            .dwattr $C$DW$128, DW_AT_name("SysCtlPeripheralEnable")
    1602                            .dwattr $C$DW$128, DW_AT_TI_call
    1603 00000008 FFFEF7FF!         BL        SysCtlPeripheralEnable ; [DPU_3_PIPE] |201|  ; [KEEP 32-BIT INS]
    1604                            ; CALL OCCURS {SysCtlPeripheralEnable }  ; [] |201| 
    1605                            .dwpsn  file "../esp8266.c",line 202,column 5,is_stmt,isa 1
    1606                    ;----------------------------------------------------------------------
    1607                    ; 202 | SysCtlPeripheralEnable(SYSCTL_PERIPH_GPIOE);                           
    1608                    ;----------------------------------------------------------------------
    1609 0000000c 4820              LDR       A1, $C$CON8           ; [DPU_3_PIPE] |202|  ; [ORIG 16-BIT INS]
    1610                    $C$DW$129       .dwtag  DW_TAG_TI_branch
    1611                            .dwattr $C$DW$129, DW_AT_low_pc(0x00)
    1612                            .dwattr $C$DW$129, DW_AT_name("SysCtlPeripheralEnable")
    1613                            .dwattr $C$DW$129, DW_AT_TI_call
    1614 0000000e FFFEF7FF!         BL        SysCtlPeripheralEnable ; [DPU_3_PIPE] |202|  ; [KEEP 32-BIT INS]
    1615                            ; CALL OCCURS {SysCtlPeripheralEnable }  ; [] |202| 
    1616                            .dwpsn  file "../esp8266.c",line 203,column 5,is_stmt,isa 1
    1617                    ;----------------------------------------------------------------------
    1618                    ; 203 | GPIOPinConfigure(GPIO_PE4_U5RX);                                       
    1619                    ;----------------------------------------------------------------------
    1620 00000012 4820              LDR       A1, $C$CON9           ; [DPU_3_PIPE] |203|  ; [ORIG 16-BIT INS]
    1621                    $C$DW$130       .dwtag  DW_TAG_TI_branch
    1622                            .dwattr $C$DW$130, DW_AT_low_pc(0x00)
    1623                            .dwattr $C$DW$130, DW_AT_name("GPIOPinConfigure")
    1624                            .dwattr $C$DW$130, DW_AT_TI_call
    1625 00000014 FFFEF7FF!         BL        GPIOPinConfigure      ; [DPU_3_PIPE] |203|  ; [KEEP 32-BIT INS]
    1626                            ; CALL OCCURS {GPIOPinConfigure }  ; [] |203| 
    1627                            .dwpsn  file "../esp8266.c",line 204,column 5,is_stmt,isa 1
    1628                    ;----------------------------------------------------------------------
    1629                    ; 204 | GPIOPinConfigure(GPIO_PE5_U5TX);                                       
    1630                    ;----------------------------------------------------------------------
    1631 00000018 481F              LDR       A1, $C$CON10          ; [DPU_3_PIPE] |204|  ; [ORIG 16-BIT INS]
    1632                    $C$DW$131       .dwtag  DW_TAG_TI_branch
    1633                            .dwattr $C$DW$131, DW_AT_low_pc(0x00)
    1634                            .dwattr $C$DW$131, DW_AT_name("GPIOPinConfigure")
    1635                            .dwattr $C$DW$131, DW_AT_TI_call
    1636 0000001a FFFEF7FF!         BL        GPIOPinConfigure      ; [DPU_3_PIPE] |204|  ; [KEEP 32-BIT INS]
    1637                            ; CALL OCCURS {GPIOPinConfigure }  ; [] |204| 
    1638                            .dwpsn  file "../esp8266.c",line 205,column 5,is_stmt,isa 1
    1639                    ;----------------------------------------------------------------------
    1640                    ; 205 | GPIOPinTypeUART(GPIO_PORTE_BASE, GPIO_PIN_4 | GPIO_PIN_5);             
    1641                    ;----------------------------------------------------------------------
    1642 0000001e 481F              LDR       A1, $C$CON11          ; [DPU_3_PIPE] |205|  ; [ORIG 16-BIT INS]
    1643 00000020 2130              MOVS      A2, #48               ; [DPU_3_PIPE] |205|  ; [ORIG 16-BIT INS]
    1644                    $C$DW$132       .dwtag  DW_TAG_TI_branch
    1645                            .dwattr $C$DW$132, DW_AT_low_pc(0x00)
    1646                            .dwattr $C$DW$132, DW_AT_name("GPIOPinTypeUART")
    1647                            .dwattr $C$DW$132, DW_AT_TI_call
    1648 00000022 FFFEF7FF!         BL        GPIOPinTypeUART       ; [DPU_3_PIPE] |205|  ; [KEEP 32-BIT INS]
    1649                            ; CALL OCCURS {GPIOPinTypeUART }  ; [] |205| 
    1650                            .dwpsn  file "../esp8266.c",line 206,column 5,is_stmt,isa 1
TI ARM Assembler PC v5.2.5 Sat Nov 07 12:29:23 2015

Tools Copyright (c) 1996-2015 Texas Instruments Incorporated
esp8266.asm                                                          PAGE   31

    1651                    ;----------------------------------------------------------------------
    1652                    ; 206 | UARTConfigSetExpClk(UART5_BASE, SysCtlClockGet(), 9600,                
    1653                    ; 207 |                         (UART_CONFIG_WLEN_8 | UART_CONFIG_STOP_ONE |   
    1654                    ; 208 |                          UART_CONFIG_PAR_NONE));                       
    1655                    ; 210 | // IntEnable(INT_UART5);                                               
    1656                    ; 211 | //    UARTIntEnable(UART5_BASE, UART_INT_OE | UART_INT_BE | UART_INT_PE
    1657                    ;     |  |                                                                     
    1658                    ; 212 |        //           UART_INT_FE | UART_INT_RT /*|   UART_INT_TX*/ | UAR
    1659                    ;     | T_INT_RX);                                                             
    1660                    ;----------------------------------------------------------------------
    1661                    $C$DW$133       .dwtag  DW_TAG_TI_branch
    1662                            .dwattr $C$DW$133, DW_AT_low_pc(0x00)
    1663                            .dwattr $C$DW$133, DW_AT_name("SysCtlClockGet")
    1664                            .dwattr $C$DW$133, DW_AT_TI_call
    1665 00000026 FFFEF7FF!         BL        SysCtlClockGet        ; [DPU_3_PIPE] |206|  ; [KEEP 32-BIT INS]
    1666                            ; CALL OCCURS {SysCtlClockGet }  ; [] |206| 
    1667 0000002a 4601              MOV       A2, A1                ; [DPU_3_PIPE] |206|  ; [ORIG 16-BIT INS]
    1668 0000002c 481C              LDR       A1, $C$CON12          ; [DPU_3_PIPE] |206|  ; [ORIG 16-BIT INS]
    1669 0000002e 5216F44F          MOV       A3, #9600             ; [DPU_3_PIPE] |206|  ; [KEEP 32-BIT INS]
    1670 00000032 2360              MOVS      A4, #96               ; [DPU_3_PIPE] |206|  ; [ORIG 16-BIT INS]
    1671                    $C$DW$134       .dwtag  DW_TAG_TI_branch
    1672                            .dwattr $C$DW$134, DW_AT_low_pc(0x00)
    1673                            .dwattr $C$DW$134, DW_AT_name("UARTConfigSetExpClk")
    1674                            .dwattr $C$DW$134, DW_AT_TI_call
    1675 00000034 FFFEF7FF!         BL        UARTConfigSetExpClk   ; [DPU_3_PIPE] |206|  ; [KEEP 32-BIT INS]
    1676                            ; CALL OCCURS {UARTConfigSetExpClk }  ; [] |206| 
    1677                            .dwpsn  file "../esp8266.c",line 214,column 5,is_stmt,isa 1
    1678                    ;----------------------------------------------------------------------
    1679                    ; 214 | uart_send(CLIENT_MODE_CMD);                                            
    1680                    ;----------------------------------------------------------------------
    1681 00000038 A009              ADR       A1, $C$SL13           ; [DPU_3_PIPE] |214|  ; [ORIG 16-BIT INS]
    1682                    $C$DW$135       .dwtag  DW_TAG_TI_branch
    1683                            .dwattr $C$DW$135, DW_AT_low_pc(0x00)
    1684                            .dwattr $C$DW$135, DW_AT_name("uart_send")
    1685                            .dwattr $C$DW$135, DW_AT_TI_call
    1686 0000003a FFFEF7FF!         BL        uart_send             ; [DPU_3_PIPE] |214|  ; [KEEP 32-BIT INS]
    1687                            ; CALL OCCURS {uart_send }       ; [] |214| 
    1688                            .dwpsn  file "../esp8266.c",line 216,column 2,is_stmt,isa 1
    1689                    ;----------------------------------------------------------------------
    1690                    ; 216 | SysCtlDelay(SysCtlClockGet()/3);                                       
    1691                    ;----------------------------------------------------------------------
    1692                    $C$DW$136       .dwtag  DW_TAG_TI_branch
    1693                            .dwattr $C$DW$136, DW_AT_low_pc(0x00)
    1694                            .dwattr $C$DW$136, DW_AT_name("SysCtlClockGet")
    1695                            .dwattr $C$DW$136, DW_AT_TI_call
    1696 0000003e FFFEF7FF!         BL        SysCtlClockGet        ; [DPU_3_PIPE] |216|  ; [KEEP 32-BIT INS]
    1697                            ; CALL OCCURS {SysCtlClockGet }  ; [] |216| 
    1698 00000042 2103              MOVS      A2, #3                ; [DPU_3_PIPE] |216|  ; [ORIG 16-BIT INS]
    1699 00000044 F0F1FBB0          UDIV      A1, A1, A2            ; [DPU_3_PIPE] |216|  ; [KEEP 32-BIT INS]
    1700                    $C$DW$137       .dwtag  DW_TAG_TI_branch
    1701                            .dwattr $C$DW$137, DW_AT_low_pc(0x00)
    1702                            .dwattr $C$DW$137, DW_AT_name("SysCtlDelay")
    1703                            .dwattr $C$DW$137, DW_AT_TI_call
    1704 00000048 FFFEF7FF!         BL        SysCtlDelay           ; [DPU_3_PIPE] |216|  ; [KEEP 32-BIT INS]
    1705                            ; CALL OCCURS {SysCtlDelay }     ; [] |216| 
TI ARM Assembler PC v5.2.5 Sat Nov 07 12:29:23 2015

Tools Copyright (c) 1996-2015 Texas Instruments Incorporated
esp8266.asm                                                          PAGE   32

    1706                            .dwpsn  file "../esp8266.c",line 217,column 2,is_stmt,isa 1
    1707                    ;----------------------------------------------------------------------
    1708                    ; 217 | uart_send(CONNECT_TO_AP);                                              
    1709                    ;----------------------------------------------------------------------
    1710 0000004c A007              ADR       A1, $C$SL14           ; [DPU_3_PIPE] |217|  ; [ORIG 16-BIT INS]
    1711                    $C$DW$138       .dwtag  DW_TAG_TI_branch
    1712                            .dwattr $C$DW$138, DW_AT_low_pc(0x00)
    1713                            .dwattr $C$DW$138, DW_AT_name("uart_send")
    1714                            .dwattr $C$DW$138, DW_AT_TI_call
    1715 0000004e FFFEF7FF!         BL        uart_send             ; [DPU_3_PIPE] |217|  ; [KEEP 32-BIT INS]
    1716                            ; CALL OCCURS {uart_send }       ; [] |217| 
    1717                    ;* --------------------------------------------------------------------------*
    1718                            .dwpsn  file "../esp8266.c",line 218,column 2,is_stmt,isa 1
    1719                    ;----------------------------------------------------------------------
    1720                    ; 218 | SysCtlDelay(SysCtlClockGet());                                         
    1721                    ;----------------------------------------------------------------------
    1722                    $C$DW$139       .dwtag  DW_TAG_TI_branch
    1723                            .dwattr $C$DW$139, DW_AT_low_pc(0x00)
    1724                            .dwattr $C$DW$139, DW_AT_name("SysCtlClockGet")
    1725                            .dwattr $C$DW$139, DW_AT_TI_call
    1726 00000052 FFFEF7FF!         BL        SysCtlClockGet        ; [DPU_3_PIPE] |218|  ; [KEEP 32-BIT INS]
    1727                            ; CALL OCCURS {SysCtlClockGet }  ; [] |218| 
    1728                    $C$DW$140       .dwtag  DW_TAG_TI_branch
    1729                            .dwattr $C$DW$140, DW_AT_low_pc(0x00)
    1730                            .dwattr $C$DW$140, DW_AT_name("SysCtlDelay")
    1731                            .dwattr $C$DW$140, DW_AT_TI_call
    1732 00000056 FFFEF7FF!         BL        SysCtlDelay           ; [DPU_3_PIPE] |218|  ; [KEEP 32-BIT INS]
    1733                            ; CALL OCCURS {SysCtlDelay }     ; [] |218| 
    1734                            .dwpsn  file "../esp8266.c",line 219,column 2,is_stmt,isa 1
    1735                    ;----------------------------------------------------------------------
    1736                    ; 219 | return result;                                                         
    1737                    ;----------------------------------------------------------------------
    1738 0000005a 0000F89D          LDRB      A1, [SP, #0]          ; [DPU_3_PIPE] |219|  ; [KEEP 32-BIT INS]
    1739                            .dwpsn  file "../esp8266.c",line 220,column 1,is_stmt,isa 1
    1740                    $C$DW$141       .dwtag  DW_TAG_TI_branch
    1741                            .dwattr $C$DW$141, DW_AT_low_pc(0x00)
    1742                            .dwattr $C$DW$141, DW_AT_TI_return
    1743 0000005e BD08              POP       {A4, PC}              ; [DPU_3_PIPE]  ; [ORIG 16-BIT INS]
    1744                            .dwcfi  cfa_offset, 0
    1745                            ; BRANCH OCCURS                  ; [] 
    1746                            .dwattr $C$DW$126, DW_AT_TI_end_file("../esp8266.c")
    1747                            .dwattr $C$DW$126, DW_AT_TI_end_line(0xdc)
    1748                            .dwattr $C$DW$126, DW_AT_TI_end_column(0x01)
    1749                            .dwendentry
    1750                            .dwendtag $C$DW$126
    1751                    
    1752 00000000                   .sect   ".text:esp8266_test"
    1753                            .clink
    1754                            .thumbfunc esp8266_test
    1755 00000000                   .thumb
    1756                            .global esp8266_test
    1757                    
    1758                    $C$DW$142       .dwtag  DW_TAG_subprogram, DW_AT_name("esp8266_test")
    1759                            .dwattr $C$DW$142, DW_AT_low_pc(esp8266_test)
    1760                            .dwattr $C$DW$142, DW_AT_high_pc(0x00)
TI ARM Assembler PC v5.2.5 Sat Nov 07 12:29:23 2015

Tools Copyright (c) 1996-2015 Texas Instruments Incorporated
esp8266.asm                                                          PAGE   33

    1761                            .dwattr $C$DW$142, DW_AT_TI_symbol_name("esp8266_test")
    1762                            .dwattr $C$DW$142, DW_AT_external
    1763                            .dwattr $C$DW$142, DW_AT_TI_begin_file("../esp8266.c")
    1764                            .dwattr $C$DW$142, DW_AT_TI_begin_line(0xde)
    1765                            .dwattr $C$DW$142, DW_AT_TI_begin_column(0x06)
    1766                            .dwattr $C$DW$142, DW_AT_decl_file("../esp8266.c")
    1767                            .dwattr $C$DW$142, DW_AT_decl_line(0xde)
    1768                            .dwattr $C$DW$142, DW_AT_decl_column(0x06)
    1769                            .dwattr $C$DW$142, DW_AT_TI_max_frame_size(0x08)
    1770                            .dwpsn  file "../esp8266.c",line 223,column 1,is_stmt,address esp8266_test,isa 1
    1771                    
    1772                            .dwfde $C$DW$CIE, esp8266_test
    1773                    ;----------------------------------------------------------------------
    1774                    ; 222 | void esp8266_test()                                                    
    1775                    ;----------------------------------------------------------------------
    1776                    
    1777                    ;*****************************************************************************
    1778                    ;* FUNCTION NAME: esp8266_test                                               *
    1779                    ;*                                                                           *
    1780                    ;*   Regs Modified     : A1,A2,A3,A4,V9,SP,LR,SR,D0,D0_hi,D1,D1_hi,D2,D2_hi, *
    1781                    ;*                           D3,D3_hi,D4,D4_hi,D5,D5_hi,D6,D6_hi,D7,D7_hi,   *
    1782                    ;*                           FPEXC,FPSCR                                     *
    1783                    ;*   Regs Used         : A1,A2,A3,A4,V9,SP,LR,SR,D0,D0_hi,D1,D1_hi,D2,D2_hi, *
    1784                    ;*                           D3,D3_hi,D4,D4_hi,D5,D5_hi,D6,D6_hi,D7,D7_hi,   *
    1785                    ;*                           FPEXC,FPSCR                                     *
    1786                    ;*   Local Frame Size  : 0 Args + 4 Auto + 4 Save = 8 byte                   *
    1787                    ;*****************************************************************************
    1788 00000000           esp8266_test:
    1789                    ;* --------------------------------------------------------------------------*
    1790                            .dwcfi  cfa_offset, 0
    1791 00000000 B508              PUSH      {A4, LR}              ; [DPU_3_PIPE]  ; [ORIG 16-BIT INS]
    1792                            .dwcfi  cfa_offset, 8
    1793                            .dwcfi  save_reg_to_mem, 14, -4
    1794                            .dwcfi  save_reg_to_mem, 3, -8
    1795                    $C$DW$143       .dwtag  DW_TAG_variable, DW_AT_name("result")
    1796                            .dwattr $C$DW$143, DW_AT_TI_symbol_name("result")
    1797                            .dwattr $C$DW$143, DW_AT_type(*$C$DW$T$25)
    1798                            .dwattr $C$DW$143, DW_AT_location[DW_OP_breg13 0]
    1799                            .dwpsn  file "../esp8266.c",line 224,column 17,is_stmt,isa 1
    1800                    ;----------------------------------------------------------------------
    1801                    ; 224 | uint8_t result = 1;                                                    
    1802                    ;----------------------------------------------------------------------
    1803 00000002 2001              MOVS      A1, #1                ; [DPU_3_PIPE] |224|  ; [ORIG 16-BIT INS]
    1804 00000004 0000F88D          STRB      A1, [SP, #0]          ; [DPU_3_PIPE] |224|  ; [KEEP 32-BIT INS]
    1805                            .dwpsn  file "../esp8266.c",line 225,column 2,is_stmt,isa 1
    1806                    ;----------------------------------------------------------------------
    1807                    ; 225 | SysCtlDelay(SysCtlClockGet());                                         
    1808                    ; 226 | //  result = esp8266_send(CONNECT_TO_THINGSPEAK, CONNECT_TO_THINGSPEAK_
    1809                    ;     | CONFIRMATION);                                                         
    1810                    ;----------------------------------------------------------------------
    1811                    $C$DW$144       .dwtag  DW_TAG_TI_branch
    1812                            .dwattr $C$DW$144, DW_AT_low_pc(0x00)
    1813                            .dwattr $C$DW$144, DW_AT_name("SysCtlClockGet")
    1814                            .dwattr $C$DW$144, DW_AT_TI_call
    1815 00000008 FFFEF7FF!         BL        SysCtlClockGet        ; [DPU_3_PIPE] |225|  ; [KEEP 32-BIT INS]
TI ARM Assembler PC v5.2.5 Sat Nov 07 12:29:23 2015

Tools Copyright (c) 1996-2015 Texas Instruments Incorporated
esp8266.asm                                                          PAGE   34

    1816                            ; CALL OCCURS {SysCtlClockGet }  ; [] |225| 
    1817                    $C$DW$145       .dwtag  DW_TAG_TI_branch
    1818                            .dwattr $C$DW$145, DW_AT_low_pc(0x00)
    1819                            .dwattr $C$DW$145, DW_AT_name("SysCtlDelay")
    1820                            .dwattr $C$DW$145, DW_AT_TI_call
    1821 0000000c FFFEF7FF!         BL        SysCtlDelay           ; [DPU_3_PIPE] |225|  ; [KEEP 32-BIT INS]
    1822                            ; CALL OCCURS {SysCtlDelay }     ; [] |225| 
    1823                            .dwpsn  file "../esp8266.c",line 227,column 5,is_stmt,isa 1
    1824                    ;----------------------------------------------------------------------
    1825                    ; 227 | SysCtlDelay(SysCtlClockGet());                                         
    1826                    ; 228 |     //uart_send(CONNECT_TO_THINGSPEAK);                                
    1827                    ;----------------------------------------------------------------------
    1828                    $C$DW$146       .dwtag  DW_TAG_TI_branch
    1829                            .dwattr $C$DW$146, DW_AT_low_pc(0x00)
    1830                            .dwattr $C$DW$146, DW_AT_name("SysCtlClockGet")
    1831                            .dwattr $C$DW$146, DW_AT_TI_call
    1832 00000010 FFFEF7FF!         BL        SysCtlClockGet        ; [DPU_3_PIPE] |227|  ; [KEEP 32-BIT INS]
    1833                            ; CALL OCCURS {SysCtlClockGet }  ; [] |227| 
    1834                    $C$DW$147       .dwtag  DW_TAG_TI_branch
    1835                            .dwattr $C$DW$147, DW_AT_low_pc(0x00)
    1836                            .dwattr $C$DW$147, DW_AT_name("SysCtlDelay")
    1837                            .dwattr $C$DW$147, DW_AT_TI_call
    1838 00000014 FFFEF7FF!         BL        SysCtlDelay           ; [DPU_3_PIPE] |227|  ; [KEEP 32-BIT INS]
    1839                            ; CALL OCCURS {SysCtlDelay }     ; [] |227| 
    1840                            .dwpsn  file "../esp8266.c",line 229,column 5,is_stmt,isa 1
    1841                    ;----------------------------------------------------------------------
    1842                    ; 229 | if(!result)                                                            
    1843                    ;----------------------------------------------------------------------
    1844 00000018 0000F89D          LDRB      A1, [SP, #0]          ; [DPU_3_PIPE] |229|  ; [KEEP 32-BIT INS]
    1845 0000001c B910              CBNZ      A1, ||$C$L13||        ; []  ; [ORIG 16-BIT INS]
    1846                            ; BRANCHCC OCCURS {||$C$L13||}   ; [] |229| 
    1847                    ;* --------------------------------------------------------------------------*
    1848                            .dwpsn  file "../esp8266.c",line 231,column 9,is_stmt,isa 1
    1849                    ;----------------------------------------------------------------------
    1850                    ; 231 | esp8266_reset();                                                       
    1851                    ;----------------------------------------------------------------------
    1852                    $C$DW$148       .dwtag  DW_TAG_TI_branch
    1853                            .dwattr $C$DW$148, DW_AT_low_pc(0x00)
    1854                            .dwattr $C$DW$148, DW_AT_name("esp8266_reset")
    1855                            .dwattr $C$DW$148, DW_AT_TI_call
    1856 0000001e FFFEF7FF!         BL        esp8266_reset         ; [DPU_3_PIPE] |231|  ; [KEEP 32-BIT INS]
    1857                            ; CALL OCCURS {esp8266_reset }   ; [] |231| 
    1858                            .dwpsn  file "../esp8266.c",line 232,column 9,is_stmt,isa 1
    1859                    ;----------------------------------------------------------------------
    1860                    ; 232 | return;                                                                
    1861                    ;----------------------------------------------------------------------
    1862 00000022 E00D              B         ||$C$L14||            ; [DPU_3_PIPE] |232|  ; [ORIG 16-BIT INS]
    1863                            ; BRANCH OCCURS {||$C$L14||}     ; [] |232| 
    1864                    ;* --------------------------------------------------------------------------*
    1865 00000024           ||$C$L13||:    
    1866                            .dwpsn  file "../esp8266.c",line 234,column 5,is_stmt,isa 1
    1867                    ;----------------------------------------------------------------------
    1868                    ; 234 | uart_send(SEND_TEST_CMD_LENGTH);                                       
    1869                    ;----------------------------------------------------------------------
    1870 00000024 A007              ADR       A1, $C$SL15           ; [DPU_3_PIPE] |234|  ; [ORIG 16-BIT INS]
TI ARM Assembler PC v5.2.5 Sat Nov 07 12:29:23 2015

Tools Copyright (c) 1996-2015 Texas Instruments Incorporated
esp8266.asm                                                          PAGE   35

    1871                    $C$DW$149       .dwtag  DW_TAG_TI_branch
    1872                            .dwattr $C$DW$149, DW_AT_low_pc(0x00)
    1873                            .dwattr $C$DW$149, DW_AT_name("uart_send")
    1874                            .dwattr $C$DW$149, DW_AT_TI_call
    1875 00000026 FFFEF7FF!         BL        uart_send             ; [DPU_3_PIPE] |234|  ; [KEEP 32-BIT INS]
    1876                            ; CALL OCCURS {uart_send }       ; [] |234| 
    1877                            .dwpsn  file "../esp8266.c",line 235,column 5,is_stmt,isa 1
    1878                    ;----------------------------------------------------------------------
    1879                    ; 235 | SysCtlDelay(SysCtlClockGet());                                         
    1880                    ;----------------------------------------------------------------------
    1881                    $C$DW$150       .dwtag  DW_TAG_TI_branch
    1882                            .dwattr $C$DW$150, DW_AT_low_pc(0x00)
    1883                            .dwattr $C$DW$150, DW_AT_name("SysCtlClockGet")
    1884                            .dwattr $C$DW$150, DW_AT_TI_call
    1885 0000002a FFFEF7FF!         BL        SysCtlClockGet        ; [DPU_3_PIPE] |235|  ; [KEEP 32-BIT INS]
    1886                            ; CALL OCCURS {SysCtlClockGet }  ; [] |235| 
    1887                    $C$DW$151       .dwtag  DW_TAG_TI_branch
    1888                            .dwattr $C$DW$151, DW_AT_low_pc(0x00)
    1889                            .dwattr $C$DW$151, DW_AT_name("SysCtlDelay")
    1890                            .dwattr $C$DW$151, DW_AT_TI_call
    1891 0000002e FFFEF7FF!         BL        SysCtlDelay           ; [DPU_3_PIPE] |235|  ; [KEEP 32-BIT INS]
    1892                            ; CALL OCCURS {SysCtlDelay }     ; [] |235| 
    1893                            .dwpsn  file "../esp8266.c",line 236,column 5,is_stmt,isa 1
    1894                    ;----------------------------------------------------------------------
    1895                    ; 236 | uart_send(SEND_TEST_DATA);                                             
    1896                    ;----------------------------------------------------------------------
    1897 00000032 A008              ADR       A1, $C$SL16           ; [DPU_3_PIPE] |236|  ; [ORIG 16-BIT INS]
    1898                    $C$DW$152       .dwtag  DW_TAG_TI_branch
    1899                            .dwattr $C$DW$152, DW_AT_low_pc(0x00)
    1900                            .dwattr $C$DW$152, DW_AT_name("uart_send")
    1901                            .dwattr $C$DW$152, DW_AT_TI_call
    1902 00000034 FFFEF7FF!         BL        uart_send             ; [DPU_3_PIPE] |236|  ; [KEEP 32-BIT INS]
    1903                            ; CALL OCCURS {uart_send }       ; [] |236| 
    1904                            .dwpsn  file "../esp8266.c",line 237,column 5,is_stmt,isa 1
    1905                    ;----------------------------------------------------------------------
    1906                    ; 237 | SysCtlDelay(SysCtlClockGet());                                         
    1907                    ;----------------------------------------------------------------------
    1908                    $C$DW$153       .dwtag  DW_TAG_TI_branch
    1909                            .dwattr $C$DW$153, DW_AT_low_pc(0x00)
    1910                            .dwattr $C$DW$153, DW_AT_name("SysCtlClockGet")
    1911                            .dwattr $C$DW$153, DW_AT_TI_call
    1912 00000038 FFFEF7FF!         BL        SysCtlClockGet        ; [DPU_3_PIPE] |237|  ; [KEEP 32-BIT INS]
    1913                            ; CALL OCCURS {SysCtlClockGet }  ; [] |237| 
    1914                    $C$DW$154       .dwtag  DW_TAG_TI_branch
    1915                            .dwattr $C$DW$154, DW_AT_low_pc(0x00)
    1916                            .dwattr $C$DW$154, DW_AT_name("SysCtlDelay")
    1917                            .dwattr $C$DW$154, DW_AT_TI_call
    1918 0000003c FFFEF7FF!         BL        SysCtlDelay           ; [DPU_3_PIPE] |237|  ; [KEEP 32-BIT INS]
    1919                            ; CALL OCCURS {SysCtlDelay }     ; [] |237| 
    1920                            .dwpsn  file "../esp8266.c",line 238,column 1,is_stmt,isa 1
    1921                    ;* --------------------------------------------------------------------------*
    1922                    ||$C$L14||:    
    1923                    $C$DW$155       .dwtag  DW_TAG_TI_branch
    1924                            .dwattr $C$DW$155, DW_AT_low_pc(0x00)
    1925                            .dwattr $C$DW$155, DW_AT_TI_return
TI ARM Assembler PC v5.2.5 Sat Nov 07 12:29:23 2015

Tools Copyright (c) 1996-2015 Texas Instruments Incorporated
esp8266.asm                                                          PAGE   36

    1926 00000040 BD08              POP       {A4, PC}              ; [DPU_3_PIPE]  ; [ORIG 16-BIT INS]
    1927                            .dwcfi  cfa_offset, 0
    1928                            ; BRANCH OCCURS                  ; [] 
    1929                            .dwattr $C$DW$142, DW_AT_TI_end_file("../esp8266.c")
    1930                            .dwattr $C$DW$142, DW_AT_TI_end_line(0xee)
    1931                            .dwattr $C$DW$142, DW_AT_TI_end_column(0x01)
    1932                            .dwendentry
    1933                            .dwendtag $C$DW$142
    1934                    
    1935                    ;******************************************************************************
    1936                    ;* CONSTANT TABLE                                                             *
    1937                    ;******************************************************************************
    1938 0000002e                   .sect   ".text:uart_send"
    1939                            .align  4
    1940 0000002e 100046C0  ||$C$CON1||:    .bits   1073811456,32
         00000032 00004001 
    1941                    ;******************************************************************************
    1942                    ;* CONSTANT TABLE                                                             *
    1943                    ;******************************************************************************
    1944 000000c4                   .sect   ".text:esp8266_send"
    1945                            .align  4
    1946 000000c4 00000000! ||$C$CON2||:    .bits   uart_data_counter,32
    1947                            .align  4
    1948 000000c8 00000000! ||$C$CON3||:    .bits   uart_data,32
    1949                            .align  4
    1950 000000cc 00000000! ||$C$CON4||:    .bits   dummy$1,32
    1951                            .align  4
    1952 000000d0 40011000  ||$C$CON5||:    .bits   1073811456,32
    1953                            .align  4
    1954 000000d4 00989680  ||$C$CON6||:    .bits   10000000,32
    1955                    ;******************************************************************************
    1956                    ;* STRINGS                                                                    *
    1957                    ;******************************************************************************
    1958 00000020                   .sect   ".text:esp8266_reset"
    1959                            .align  4
    1960 00000020 41        ||$C$SL1||:     .string "AT+RST",0
         00000021 54       
         00000022 2B       
         00000023 52       
         00000024 53       
         00000025 54       
         00000026 00       
    1961                            .align  4
    1962 00000028 41        ||$C$SL2||:     .string "AT+CWJAP=",34,"dlink",34,",",34,"aspire1000",34,0
         00000029 54       
         0000002a 2B       
         0000002b 43       
         0000002c 57       
         0000002d 4A       
         0000002e 41       
         0000002f 50       
         00000030 3D       
         00000031 22       
         00000032 64       
         00000033 6C       
TI ARM Assembler PC v5.2.5 Sat Nov 07 12:29:23 2015

Tools Copyright (c) 1996-2015 Texas Instruments Incorporated
esp8266.asm                                                          PAGE   37

         00000034 69       
         00000035 6E       
         00000036 6B       
         00000037 22       
         00000038 2C       
         00000039 22       
         0000003a 61       
         0000003b 73       
         0000003c 70       
         0000003d 69       
         0000003e 72       
         0000003f 65       
         00000040 31       
         00000041 30       
         00000042 30       
         00000043 30       
         00000044 22       
         00000045 00       
    1963                    ;******************************************************************************
    1964                    ;* STRINGS                                                                    *
    1965                    ;******************************************************************************
    1966 000001d2                   .sect   ".text:send_esp8266"
    1967                            .align  4
    1968 000001d4 41        ||$C$SL3||:     .string "AT+CIPSTART=",34,"TCP",34,",",34,"184.106.153.149",34,",80",0
         000001d5 54       
         000001d6 2B       
         000001d7 43       
         000001d8 49       
         000001d9 50       
         000001da 53       
         000001db 54       
         000001dc 41       
         000001dd 52       
         000001de 54       
         000001df 3D       
         000001e0 22       
         000001e1 54       
         000001e2 43       
         000001e3 50       
         000001e4 22       
         000001e5 2C       
         000001e6 22       
         000001e7 31       
         000001e8 38       
         000001e9 34       
         000001ea 2E       
         000001eb 31       
         000001ec 30       
         000001ed 36       
         000001ee 2E       
         000001ef 31       
         000001f0 35       
         000001f1 33       
         000001f2 2E       
         000001f3 31       
TI ARM Assembler PC v5.2.5 Sat Nov 07 12:29:23 2015

Tools Copyright (c) 1996-2015 Texas Instruments Incorporated
esp8266.asm                                                          PAGE   38

         000001f4 34       
         000001f5 39       
         000001f6 22       
         000001f7 2C       
         000001f8 38       
         000001f9 30       
         000001fa 00       
    1969                            .align  4
    1970 000001fc 47        ||$C$SL4||:     .string "GET /update?key=VW5223XR8EZEL6A3&field1=",0
         000001fd 45       
         000001fe 54       
         000001ff 20       
         00000200 2F       
         00000201 75       
         00000202 70       
         00000203 64       
         00000204 61       
         00000205 74       
         00000206 65       
         00000207 3F       
         00000208 6B       
         00000209 65       
         0000020a 79       
         0000020b 3D       
         0000020c 56       
         0000020d 57       
         0000020e 35       
         0000020f 32       
         00000210 32       
         00000211 33       
         00000212 58       
         00000213 52       
         00000214 38       
         00000215 45       
         00000216 5A       
         00000217 45       
         00000218 4C       
         00000219 36       
         0000021a 41       
         0000021b 33       
         0000021c 26       
         0000021d 66       
         0000021e 69       
         0000021f 65       
         00000220 6C       
         00000221 64       
         00000222 31       
         00000223 3D       
         00000224 00       
    1971                            .align  4
    1972 00000228 26        ||$C$SL5||:     .string "&field2=",0
         00000229 66       
         0000022a 69       
         0000022b 65       
         0000022c 6C       
TI ARM Assembler PC v5.2.5 Sat Nov 07 12:29:23 2015

Tools Copyright (c) 1996-2015 Texas Instruments Incorporated
esp8266.asm                                                          PAGE   39

         0000022d 64       
         0000022e 32       
         0000022f 3D       
         00000230 00       
    1973                            .align  4
    1974 00000234 26        ||$C$SL6||:     .string "&field3=",0
         00000235 66       
         00000236 69       
         00000237 65       
         00000238 6C       
         00000239 64       
         0000023a 33       
         0000023b 3D       
         0000023c 00       
    1975                            .align  4
    1976 00000240 26        ||$C$SL7||:     .string "&field4=",0
         00000241 66       
         00000242 69       
         00000243 65       
         00000244 6C       
         00000245 64       
         00000246 34       
         00000247 3D       
         00000248 00       
    1977                            .align  4
    1978 0000024c 26        ||$C$SL8||:     .string "&field5=",0
         0000024d 66       
         0000024e 69       
         0000024f 65       
         00000250 6C       
         00000251 64       
         00000252 35       
         00000253 3D       
         00000254 00       
    1979                            .align  4
    1980 00000258 26        ||$C$SL9||:     .string "&field6=",0
         00000259 66       
         0000025a 69       
         0000025b 65       
         0000025c 6C       
         0000025d 64       
         0000025e 36       
         0000025f 3D       
         00000260 00       
    1981                            .align  4
    1982 00000264 26        ||$C$SL10||:    .string "&field7=",0
         00000265 66       
         00000266 69       
         00000267 65       
         00000268 6C       
         00000269 64       
         0000026a 37       
         0000026b 3D       
         0000026c 00       
    1983                            .align  4
TI ARM Assembler PC v5.2.5 Sat Nov 07 12:29:23 2015

Tools Copyright (c) 1996-2015 Texas Instruments Incorporated
esp8266.asm                                                          PAGE   40

    1984 00000270 41        ||$C$SL11||:    .string "AT+CIPSEND=",0
         00000271 54       
         00000272 2B       
         00000273 43       
         00000274 49       
         00000275 50       
         00000276 53       
         00000277 45       
         00000278 4E       
         00000279 44       
         0000027a 3D       
         0000027b 00       
    1985                            .align  4
    1986 0000027c 3E        ||$C$SL12||:    .string ">",0
         0000027d 00       
    1987                    ;******************************************************************************
    1988                    ;* STRINGS                                                                    *
    1989                    ;******************************************************************************
    1990 00000060                   .sect   ".text:init_esp8266"
    1991                            .align  4
    1992 00000060 41        ||$C$SL13||:    .string "AT+CWMODE=1",0
         00000061 54       
         00000062 2B       
         00000063 43       
         00000064 57       
         00000065 4D       
         00000066 4F       
         00000067 44       
         00000068 45       
         00000069 3D       
         0000006a 31       
         0000006b 00       
    1993                            .align  4
    1994 0000006c 41        ||$C$SL14||:    .string "AT+CWJAP=",34,"dlink",34,",",34,"aspire1000",34,0
         0000006d 54       
         0000006e 2B       
         0000006f 43       
         00000070 57       
         00000071 4A       
         00000072 41       
         00000073 50       
         00000074 3D       
         00000075 22       
         00000076 64       
         00000077 6C       
         00000078 69       
         00000079 6E       
         0000007a 6B       
         0000007b 22       
         0000007c 2C       
         0000007d 22       
         0000007e 61       
         0000007f 73       
         00000080 70       
         00000081 69       
TI ARM Assembler PC v5.2.5 Sat Nov 07 12:29:23 2015

Tools Copyright (c) 1996-2015 Texas Instruments Incorporated
esp8266.asm                                                          PAGE   41

         00000082 72       
         00000083 65       
         00000084 31       
         00000085 30       
         00000086 30       
         00000087 30       
         00000088 22       
         00000089 00       
    1995                    ;******************************************************************************
    1996                    ;* CONSTANT TABLE                                                             *
    1997                    ;******************************************************************************
    1998 0000008a                   .sect   ".text:init_esp8266"
    1999                            .align  4
    2000 0000008c F0001805  ||$C$CON7||:    .bits   -268429307,32
    2001                            .align  4
    2002 00000090 F0000804  ||$C$CON8||:    .bits   -268433404,32
    2003                            .align  4
    2004 00000094 00041001  ||$C$CON9||:    .bits   266241,32
    2005                            .align  4
    2006 00000098 00041401  ||$C$CON10||:   .bits   267265,32
    2007                            .align  4
    2008 0000009c 40024000  ||$C$CON11||:   .bits   1073889280,32
    2009                            .align  4
    2010 000000a0 40011000  ||$C$CON12||:   .bits   1073811456,32
    2011                    ;******************************************************************************
    2012                    ;* STRINGS                                                                    *
    2013                    ;******************************************************************************
    2014 00000042                   .sect   ".text:esp8266_test"
    2015                            .align  4
    2016 00000044 41        ||$C$SL15||:    .string "AT+CIPSEND=44",0
         00000045 54       
         00000046 2B       
         00000047 43       
         00000048 49       
         00000049 50       
         0000004a 53       
         0000004b 45       
         0000004c 4E       
         0000004d 44       
         0000004e 3D       
         0000004f 34       
         00000050 34       
         00000051 00       
    2017                            .align  4
    2018 00000054 47        ||$C$SL16||:    .string "GET /update?key=DJGH4273J29TEUBH&field1=22",0
         00000055 45       
         00000056 54       
         00000057 20       
         00000058 2F       
         00000059 75       
         0000005a 70       
         0000005b 64       
         0000005c 61       
         0000005d 74       
         0000005e 65       
TI ARM Assembler PC v5.2.5 Sat Nov 07 12:29:23 2015

Tools Copyright (c) 1996-2015 Texas Instruments Incorporated
esp8266.asm                                                          PAGE   42

         0000005f 3F       
         00000060 6B       
         00000061 65       
         00000062 79       
         00000063 3D       
         00000064 44       
         00000065 4A       
         00000066 47       
         00000067 48       
         00000068 34       
         00000069 32       
         0000006a 37       
         0000006b 33       
         0000006c 4A       
         0000006d 32       
         0000006e 39       
         0000006f 54       
         00000070 45       
         00000071 55       
         00000072 42       
         00000073 48       
         00000074 26       
         00000075 66       
         00000076 69       
         00000077 65       
         00000078 6C       
         00000079 64       
         0000007a 31       
         0000007b 3D       
         0000007c 32       
         0000007d 32       
         0000007e 00       
    2019                    ;*****************************************************************************
    2020                    ;* UNDEFINED EXTERNAL REFERENCES                                             *
    2021                    ;*****************************************************************************
    2022                            .global strlen
    2023                            .global strcpy
    2024                            .global strcat
    2025                            .global strstr
    2026                            .global GPIOPinConfigure
    2027                            .global GPIOPinTypeUART
    2028                            .global SysCtlPeripheralEnable
    2029                            .global SysCtlDelay
    2030                            .global SysCtlClockGet
    2031                            .global UARTConfigSetExpClk
    2032                            .global UARTCharsAvail
    2033                            .global UARTCharGetNonBlocking
    2034                            .global UARTCharGet
    2035                            .global UARTCharPut
    2036                            .global uitoa
    2037                            .global memset
    2038                    
    2039                    ;******************************************************************************
    2040                    ;* BUILD ATTRIBUTES                                                           *
    2041                    ;******************************************************************************
TI ARM Assembler PC v5.2.5 Sat Nov 07 12:29:23 2015

Tools Copyright (c) 1996-2015 Texas Instruments Incorporated
esp8266.asm                                                          PAGE   43

    2042                            .battr "aeabi", Tag_File, 1, Tag_ABI_PCS_wchar_t(2)
    2043                            .battr "aeabi", Tag_File, 1, Tag_ABI_FP_rounding(0)
    2044                            .battr "aeabi", Tag_File, 1, Tag_ABI_FP_denormal(0)
    2045                            .battr "aeabi", Tag_File, 1, Tag_ABI_FP_exceptions(0)
    2046                            .battr "aeabi", Tag_File, 1, Tag_ABI_FP_number_model(1)
    2047                            .battr "aeabi", Tag_File, 1, Tag_ABI_enum_size(0)
    2048                            .battr "aeabi", Tag_File, 1, Tag_ABI_optimization_goals(5)
    2049                            .battr "aeabi", Tag_File, 1, Tag_ABI_FP_optimization_goals(0)
    2050                            .battr "TI", Tag_File, 1, Tag_Bitfield_layout(2)
    2051                            .battr "TI", Tag_File, 1, Tag_FP_interface(1)
    2052                    
    2053                    ;******************************************************************************
    2054                    ;* TYPE INFORMATION                                                           *
    2055                    ;******************************************************************************
    2056                    $C$DW$T$2       .dwtag  DW_TAG_unspecified_type
    2057                            .dwattr $C$DW$T$2, DW_AT_name("void")
    2058                    $C$DW$T$3       .dwtag  DW_TAG_pointer_type
    2059                            .dwattr $C$DW$T$3, DW_AT_type(*$C$DW$T$2)
    2060                            .dwattr $C$DW$T$3, DW_AT_address_class(0x20)
    2061                    $C$DW$T$4       .dwtag  DW_TAG_base_type
    2062                            .dwattr $C$DW$T$4, DW_AT_encoding(DW_ATE_boolean)
    2063                            .dwattr $C$DW$T$4, DW_AT_name("bool")
    2064                            .dwattr $C$DW$T$4, DW_AT_byte_size(0x01)
    2065                    $C$DW$T$5       .dwtag  DW_TAG_base_type
    2066                            .dwattr $C$DW$T$5, DW_AT_encoding(DW_ATE_signed_char)
    2067                            .dwattr $C$DW$T$5, DW_AT_name("signed char")
    2068                            .dwattr $C$DW$T$5, DW_AT_byte_size(0x01)
    2069                    $C$DW$T$40      .dwtag  DW_TAG_typedef, DW_AT_name("int8_t")
    2070                            .dwattr $C$DW$T$40, DW_AT_type(*$C$DW$T$5)
    2071                            .dwattr $C$DW$T$40, DW_AT_language(DW_LANG_C)
    2072                            .dwattr $C$DW$T$40, DW_AT_decl_file("C:/ti/ccsv6/tools/compiler/ti-cgt-arm_5.2.5/include/stdin
    2073                            .dwattr $C$DW$T$40, DW_AT_decl_line(0x2a)
    2074                            .dwattr $C$DW$T$40, DW_AT_decl_column(0x1d)
    2075                    $C$DW$T$41      .dwtag  DW_TAG_typedef, DW_AT_name("int_least8_t")
    2076                            .dwattr $C$DW$T$41, DW_AT_type(*$C$DW$T$40)
    2077                            .dwattr $C$DW$T$41, DW_AT_language(DW_LANG_C)
    2078                            .dwattr $C$DW$T$41, DW_AT_decl_file("C:/ti/ccsv6/tools/compiler/ti-cgt-arm_5.2.5/include/stdin
    2079                            .dwattr $C$DW$T$41, DW_AT_decl_line(0x37)
    2080                            .dwattr $C$DW$T$41, DW_AT_decl_column(0x17)
    2081                    $C$DW$T$6       .dwtag  DW_TAG_base_type
    2082                            .dwattr $C$DW$T$6, DW_AT_encoding(DW_ATE_unsigned_char)
    2083                            .dwattr $C$DW$T$6, DW_AT_name("unsigned char")
    2084                            .dwattr $C$DW$T$6, DW_AT_byte_size(0x01)
    2085                    $C$DW$T$25      .dwtag  DW_TAG_typedef, DW_AT_name("uint8_t")
    2086                            .dwattr $C$DW$T$25, DW_AT_type(*$C$DW$T$6)
    2087                            .dwattr $C$DW$T$25, DW_AT_language(DW_LANG_C)
    2088                            .dwattr $C$DW$T$25, DW_AT_decl_file("C:/ti/ccsv6/tools/compiler/ti-cgt-arm_5.2.5/include/stdin
    2089                            .dwattr $C$DW$T$25, DW_AT_decl_line(0x2b)
    2090                            .dwattr $C$DW$T$25, DW_AT_decl_column(0x1c)
    2091                    $C$DW$T$46      .dwtag  DW_TAG_typedef, DW_AT_name("uint_least8_t")
    2092                            .dwattr $C$DW$T$46, DW_AT_type(*$C$DW$T$25)
    2093                            .dwattr $C$DW$T$46, DW_AT_language(DW_LANG_C)
    2094                            .dwattr $C$DW$T$46, DW_AT_decl_file("C:/ti/ccsv6/tools/compiler/ti-cgt-arm_5.2.5/include/stdin
    2095                            .dwattr $C$DW$T$46, DW_AT_decl_line(0x38)
    2096                            .dwattr $C$DW$T$46, DW_AT_decl_column(0x16)
TI ARM Assembler PC v5.2.5 Sat Nov 07 12:29:23 2015

Tools Copyright (c) 1996-2015 Texas Instruments Incorporated
esp8266.asm                                                          PAGE   44

    2097                    $C$DW$T$7       .dwtag  DW_TAG_base_type
    2098                            .dwattr $C$DW$T$7, DW_AT_encoding(DW_ATE_signed_char)
    2099                            .dwattr $C$DW$T$7, DW_AT_name("wchar_t")
    2100                            .dwattr $C$DW$T$7, DW_AT_byte_size(0x02)
    2101                    $C$DW$T$8       .dwtag  DW_TAG_base_type
    2102                            .dwattr $C$DW$T$8, DW_AT_encoding(DW_ATE_signed)
    2103                            .dwattr $C$DW$T$8, DW_AT_name("short")
    2104                            .dwattr $C$DW$T$8, DW_AT_byte_size(0x02)
    2105                    $C$DW$T$47      .dwtag  DW_TAG_typedef, DW_AT_name("int16_t")
    2106                            .dwattr $C$DW$T$47, DW_AT_type(*$C$DW$T$8)
    2107                            .dwattr $C$DW$T$47, DW_AT_language(DW_LANG_C)
    2108                            .dwattr $C$DW$T$47, DW_AT_decl_file("C:/ti/ccsv6/tools/compiler/ti-cgt-arm_5.2.5/include/stdin
    2109                            .dwattr $C$DW$T$47, DW_AT_decl_line(0x2c)
    2110                            .dwattr $C$DW$T$47, DW_AT_decl_column(0x1d)
    2111                    $C$DW$T$48      .dwtag  DW_TAG_typedef, DW_AT_name("int_least16_t")
    2112                            .dwattr $C$DW$T$48, DW_AT_type(*$C$DW$T$47)
    2113                            .dwattr $C$DW$T$48, DW_AT_language(DW_LANG_C)
    2114                            .dwattr $C$DW$T$48, DW_AT_decl_file("C:/ti/ccsv6/tools/compiler/ti-cgt-arm_5.2.5/include/stdin
    2115                            .dwattr $C$DW$T$48, DW_AT_decl_line(0x3a)
    2116                            .dwattr $C$DW$T$48, DW_AT_decl_column(0x17)
    2117                    $C$DW$T$9       .dwtag  DW_TAG_base_type
    2118                            .dwattr $C$DW$T$9, DW_AT_encoding(DW_ATE_unsigned)
    2119                            .dwattr $C$DW$T$9, DW_AT_name("unsigned short")
    2120                            .dwattr $C$DW$T$9, DW_AT_byte_size(0x02)
    2121                    $C$DW$T$49      .dwtag  DW_TAG_typedef, DW_AT_name("_Wchart")
    2122                            .dwattr $C$DW$T$49, DW_AT_type(*$C$DW$T$9)
    2123                            .dwattr $C$DW$T$49, DW_AT_language(DW_LANG_C)
    2124                            .dwattr $C$DW$T$49, DW_AT_decl_file("C:/ti/ccsv6/tools/compiler/ti-cgt-arm_5.2.5/include/yvals
    2125                            .dwattr $C$DW$T$49, DW_AT_decl_line(0x1e5)
    2126                            .dwattr $C$DW$T$49, DW_AT_decl_column(0x21)
    2127                    $C$DW$T$50      .dwtag  DW_TAG_typedef, DW_AT_name("_Wintt")
    2128                            .dwattr $C$DW$T$50, DW_AT_type(*$C$DW$T$9)
    2129                            .dwattr $C$DW$T$50, DW_AT_language(DW_LANG_C)
    2130                            .dwattr $C$DW$T$50, DW_AT_decl_file("C:/ti/ccsv6/tools/compiler/ti-cgt-arm_5.2.5/include/yvals
    2131                            .dwattr $C$DW$T$50, DW_AT_decl_line(0x1e6)
    2132                            .dwattr $C$DW$T$50, DW_AT_decl_column(0x21)
    2133                    $C$DW$T$51      .dwtag  DW_TAG_typedef, DW_AT_name("uint16_t")
    2134                            .dwattr $C$DW$T$51, DW_AT_type(*$C$DW$T$9)
    2135                            .dwattr $C$DW$T$51, DW_AT_language(DW_LANG_C)
    2136                            .dwattr $C$DW$T$51, DW_AT_decl_file("C:/ti/ccsv6/tools/compiler/ti-cgt-arm_5.2.5/include/stdin
    2137                            .dwattr $C$DW$T$51, DW_AT_decl_line(0x2d)
    2138                            .dwattr $C$DW$T$51, DW_AT_decl_column(0x1c)
    2139                    $C$DW$T$52      .dwtag  DW_TAG_typedef, DW_AT_name("uint_least16_t")
    2140                            .dwattr $C$DW$T$52, DW_AT_type(*$C$DW$T$51)
    2141                            .dwattr $C$DW$T$52, DW_AT_language(DW_LANG_C)
    2142                            .dwattr $C$DW$T$52, DW_AT_decl_file("C:/ti/ccsv6/tools/compiler/ti-cgt-arm_5.2.5/include/stdin
    2143                            .dwattr $C$DW$T$52, DW_AT_decl_line(0x3b)
    2144                            .dwattr $C$DW$T$52, DW_AT_decl_column(0x16)
    2145                    $C$DW$T$10      .dwtag  DW_TAG_base_type
    2146                            .dwattr $C$DW$T$10, DW_AT_encoding(DW_ATE_signed)
    2147                            .dwattr $C$DW$T$10, DW_AT_name("int")
    2148                            .dwattr $C$DW$T$10, DW_AT_byte_size(0x04)
    2149                    $C$DW$T$53      .dwtag  DW_TAG_typedef, DW_AT_name("_Ptrdifft")
    2150                            .dwattr $C$DW$T$53, DW_AT_type(*$C$DW$T$10)
    2151                            .dwattr $C$DW$T$53, DW_AT_language(DW_LANG_C)
TI ARM Assembler PC v5.2.5 Sat Nov 07 12:29:23 2015

Tools Copyright (c) 1996-2015 Texas Instruments Incorporated
esp8266.asm                                                          PAGE   45

    2152                            .dwattr $C$DW$T$53, DW_AT_decl_file("C:/ti/ccsv6/tools/compiler/ti-cgt-arm_5.2.5/include/yvals
    2153                            .dwattr $C$DW$T$53, DW_AT_decl_line(0xa9)
    2154                            .dwattr $C$DW$T$53, DW_AT_decl_column(0x1e)
    2155                    $C$DW$T$54      .dwtag  DW_TAG_typedef, DW_AT_name("int32_t")
    2156                            .dwattr $C$DW$T$54, DW_AT_type(*$C$DW$T$10)
    2157                            .dwattr $C$DW$T$54, DW_AT_language(DW_LANG_C)
    2158                            .dwattr $C$DW$T$54, DW_AT_decl_file("C:/ti/ccsv6/tools/compiler/ti-cgt-arm_5.2.5/include/stdin
    2159                            .dwattr $C$DW$T$54, DW_AT_decl_line(0x2e)
    2160                            .dwattr $C$DW$T$54, DW_AT_decl_column(0x1d)
    2161                    $C$DW$T$57      .dwtag  DW_TAG_typedef, DW_AT_name("int_fast16_t")
    2162                            .dwattr $C$DW$T$57, DW_AT_type(*$C$DW$T$54)
    2163                            .dwattr $C$DW$T$57, DW_AT_language(DW_LANG_C)
    2164                            .dwattr $C$DW$T$57, DW_AT_decl_file("C:/ti/ccsv6/tools/compiler/ti-cgt-arm_5.2.5/include/stdin
    2165                            .dwattr $C$DW$T$57, DW_AT_decl_line(0x47)
    2166                            .dwattr $C$DW$T$57, DW_AT_decl_column(0x17)
    2167                    $C$DW$T$58      .dwtag  DW_TAG_typedef, DW_AT_name("int_fast32_t")
    2168                            .dwattr $C$DW$T$58, DW_AT_type(*$C$DW$T$54)
    2169                            .dwattr $C$DW$T$58, DW_AT_language(DW_LANG_C)
    2170                            .dwattr $C$DW$T$58, DW_AT_decl_file("C:/ti/ccsv6/tools/compiler/ti-cgt-arm_5.2.5/include/stdin
    2171                            .dwattr $C$DW$T$58, DW_AT_decl_line(0x4a)
    2172                            .dwattr $C$DW$T$58, DW_AT_decl_column(0x17)
    2173                    $C$DW$T$59      .dwtag  DW_TAG_typedef, DW_AT_name("int_fast8_t")
    2174                            .dwattr $C$DW$T$59, DW_AT_type(*$C$DW$T$54)
    2175                            .dwattr $C$DW$T$59, DW_AT_language(DW_LANG_C)
    2176                            .dwattr $C$DW$T$59, DW_AT_decl_file("C:/ti/ccsv6/tools/compiler/ti-cgt-arm_5.2.5/include/stdin
    2177                            .dwattr $C$DW$T$59, DW_AT_decl_line(0x45)
    2178                            .dwattr $C$DW$T$59, DW_AT_decl_column(0x17)
    2179                    $C$DW$T$60      .dwtag  DW_TAG_typedef, DW_AT_name("int_least32_t")
    2180                            .dwattr $C$DW$T$60, DW_AT_type(*$C$DW$T$54)
    2181                            .dwattr $C$DW$T$60, DW_AT_language(DW_LANG_C)
    2182                            .dwattr $C$DW$T$60, DW_AT_decl_file("C:/ti/ccsv6/tools/compiler/ti-cgt-arm_5.2.5/include/stdin
    2183                            .dwattr $C$DW$T$60, DW_AT_decl_line(0x3c)
    2184                            .dwattr $C$DW$T$60, DW_AT_decl_column(0x17)
    2185                    $C$DW$T$61      .dwtag  DW_TAG_typedef, DW_AT_name("intptr_t")
    2186                            .dwattr $C$DW$T$61, DW_AT_type(*$C$DW$T$10)
    2187                            .dwattr $C$DW$T$61, DW_AT_language(DW_LANG_C)
    2188                            .dwattr $C$DW$T$61, DW_AT_decl_file("C:/ti/ccsv6/tools/compiler/ti-cgt-arm_5.2.5/include/stdin
    2189                            .dwattr $C$DW$T$61, DW_AT_decl_line(0x52)
    2190                            .dwattr $C$DW$T$61, DW_AT_decl_column(0x1a)
    2191                    $C$DW$T$11      .dwtag  DW_TAG_base_type
    2192                            .dwattr $C$DW$T$11, DW_AT_encoding(DW_ATE_unsigned)
    2193                            .dwattr $C$DW$T$11, DW_AT_name("unsigned int")
    2194                            .dwattr $C$DW$T$11, DW_AT_byte_size(0x04)
    2195                    $C$DW$T$62      .dwtag  DW_TAG_typedef, DW_AT_name("_Sizet")
    2196                            .dwattr $C$DW$T$62, DW_AT_type(*$C$DW$T$11)
    2197                            .dwattr $C$DW$T$62, DW_AT_language(DW_LANG_C)
    2198                            .dwattr $C$DW$T$62, DW_AT_decl_file("C:/ti/ccsv6/tools/compiler/ti-cgt-arm_5.2.5/include/yvals
    2199                            .dwattr $C$DW$T$62, DW_AT_decl_line(0xab)
    2200                            .dwattr $C$DW$T$62, DW_AT_decl_column(0x1a)
    2201                    $C$DW$T$66      .dwtag  DW_TAG_typedef, DW_AT_name("size_t")
    2202                            .dwattr $C$DW$T$66, DW_AT_type(*$C$DW$T$11)
    2203                            .dwattr $C$DW$T$66, DW_AT_language(DW_LANG_C)
    2204                            .dwattr $C$DW$T$66, DW_AT_decl_file("C:/ti/ccsv6/tools/compiler/ti-cgt-arm_5.2.5/include/strin
    2205                            .dwattr $C$DW$T$66, DW_AT_decl_line(0x3d)
    2206                            .dwattr $C$DW$T$66, DW_AT_decl_column(0x19)
TI ARM Assembler PC v5.2.5 Sat Nov 07 12:29:23 2015

Tools Copyright (c) 1996-2015 Texas Instruments Incorporated
esp8266.asm                                                          PAGE   46

    2207                    $C$DW$T$22      .dwtag  DW_TAG_typedef, DW_AT_name("uint32_t")
    2208                            .dwattr $C$DW$T$22, DW_AT_type(*$C$DW$T$11)
    2209                            .dwattr $C$DW$T$22, DW_AT_language(DW_LANG_C)
    2210                            .dwattr $C$DW$T$22, DW_AT_decl_file("C:/ti/ccsv6/tools/compiler/ti-cgt-arm_5.2.5/include/stdin
    2211                            .dwattr $C$DW$T$22, DW_AT_decl_line(0x2f)
    2212                            .dwattr $C$DW$T$22, DW_AT_decl_column(0x1c)
    2213                    $C$DW$T$71      .dwtag  DW_TAG_typedef, DW_AT_name("uint_fast16_t")
    2214                            .dwattr $C$DW$T$71, DW_AT_type(*$C$DW$T$22)
    2215                            .dwattr $C$DW$T$71, DW_AT_language(DW_LANG_C)
    2216                            .dwattr $C$DW$T$71, DW_AT_decl_file("C:/ti/ccsv6/tools/compiler/ti-cgt-arm_5.2.5/include/stdin
    2217                            .dwattr $C$DW$T$71, DW_AT_decl_line(0x48)
    2218                            .dwattr $C$DW$T$71, DW_AT_decl_column(0x16)
    2219                    $C$DW$T$72      .dwtag  DW_TAG_typedef, DW_AT_name("uint_fast32_t")
    2220                            .dwattr $C$DW$T$72, DW_AT_type(*$C$DW$T$22)
    2221                            .dwattr $C$DW$T$72, DW_AT_language(DW_LANG_C)
    2222                            .dwattr $C$DW$T$72, DW_AT_decl_file("C:/ti/ccsv6/tools/compiler/ti-cgt-arm_5.2.5/include/stdin
    2223                            .dwattr $C$DW$T$72, DW_AT_decl_line(0x4b)
    2224                            .dwattr $C$DW$T$72, DW_AT_decl_column(0x16)
    2225                    $C$DW$T$73      .dwtag  DW_TAG_typedef, DW_AT_name("uint_fast8_t")
    2226                            .dwattr $C$DW$T$73, DW_AT_type(*$C$DW$T$22)
    2227                            .dwattr $C$DW$T$73, DW_AT_language(DW_LANG_C)
    2228                            .dwattr $C$DW$T$73, DW_AT_decl_file("C:/ti/ccsv6/tools/compiler/ti-cgt-arm_5.2.5/include/stdin
    2229                            .dwattr $C$DW$T$73, DW_AT_decl_line(0x46)
    2230                            .dwattr $C$DW$T$73, DW_AT_decl_column(0x16)
    2231                    $C$DW$T$74      .dwtag  DW_TAG_typedef, DW_AT_name("uint_least32_t")
    2232                            .dwattr $C$DW$T$74, DW_AT_type(*$C$DW$T$22)
    2233                            .dwattr $C$DW$T$74, DW_AT_language(DW_LANG_C)
    2234                            .dwattr $C$DW$T$74, DW_AT_decl_file("C:/ti/ccsv6/tools/compiler/ti-cgt-arm_5.2.5/include/stdin
    2235                            .dwattr $C$DW$T$74, DW_AT_decl_line(0x3d)
    2236                            .dwattr $C$DW$T$74, DW_AT_decl_column(0x16)
    2237                    $C$DW$T$75      .dwtag  DW_TAG_typedef, DW_AT_name("uintptr_t")
    2238                            .dwattr $C$DW$T$75, DW_AT_type(*$C$DW$T$11)
    2239                            .dwattr $C$DW$T$75, DW_AT_language(DW_LANG_C)
    2240                            .dwattr $C$DW$T$75, DW_AT_decl_file("C:/ti/ccsv6/tools/compiler/ti-cgt-arm_5.2.5/include/stdin
    2241                            .dwattr $C$DW$T$75, DW_AT_decl_line(0x53)
    2242                            .dwattr $C$DW$T$75, DW_AT_decl_column(0x1a)
    2243                    $C$DW$T$12      .dwtag  DW_TAG_base_type
    2244                            .dwattr $C$DW$T$12, DW_AT_encoding(DW_ATE_signed)
    2245                            .dwattr $C$DW$T$12, DW_AT_name("long")
    2246                            .dwattr $C$DW$T$12, DW_AT_byte_size(0x04)
    2247                    $C$DW$T$76      .dwtag  DW_TAG_typedef, DW_AT_name("_Int32t")
    2248                            .dwattr $C$DW$T$76, DW_AT_type(*$C$DW$T$12)
    2249                            .dwattr $C$DW$T$76, DW_AT_language(DW_LANG_C)
    2250                            .dwattr $C$DW$T$76, DW_AT_decl_file("C:/ti/ccsv6/tools/compiler/ti-cgt-arm_5.2.5/include/yvals
    2251                            .dwattr $C$DW$T$76, DW_AT_decl_line(0xa6)
    2252                            .dwattr $C$DW$T$76, DW_AT_decl_column(0x0e)
    2253                    $C$DW$T$13      .dwtag  DW_TAG_base_type
    2254                            .dwattr $C$DW$T$13, DW_AT_encoding(DW_ATE_unsigned)
    2255                            .dwattr $C$DW$T$13, DW_AT_name("unsigned long")
    2256                            .dwattr $C$DW$T$13, DW_AT_byte_size(0x04)
    2257                    $C$DW$T$77      .dwtag  DW_TAG_typedef, DW_AT_name("_Uint32t")
    2258                            .dwattr $C$DW$T$77, DW_AT_type(*$C$DW$T$13)
    2259                            .dwattr $C$DW$T$77, DW_AT_language(DW_LANG_C)
    2260                            .dwattr $C$DW$T$77, DW_AT_decl_file("C:/ti/ccsv6/tools/compiler/ti-cgt-arm_5.2.5/include/yvals
    2261                            .dwattr $C$DW$T$77, DW_AT_decl_line(0xa7)
TI ARM Assembler PC v5.2.5 Sat Nov 07 12:29:23 2015

Tools Copyright (c) 1996-2015 Texas Instruments Incorporated
esp8266.asm                                                          PAGE   47

    2262                            .dwattr $C$DW$T$77, DW_AT_decl_column(0x17)
    2263                    $C$DW$T$14      .dwtag  DW_TAG_base_type
    2264                            .dwattr $C$DW$T$14, DW_AT_encoding(DW_ATE_signed)
    2265                            .dwattr $C$DW$T$14, DW_AT_name("long long")
    2266                            .dwattr $C$DW$T$14, DW_AT_byte_size(0x08)
    2267                    $C$DW$T$78      .dwtag  DW_TAG_typedef, DW_AT_name("_Longlong")
    2268                            .dwattr $C$DW$T$78, DW_AT_type(*$C$DW$T$14)
    2269                            .dwattr $C$DW$T$78, DW_AT_language(DW_LANG_C)
    2270                            .dwattr $C$DW$T$78, DW_AT_decl_file("C:/ti/ccsv6/tools/compiler/ti-cgt-arm_5.2.5/include/yvals
    2271                            .dwattr $C$DW$T$78, DW_AT_decl_line(0x1b5)
    2272                            .dwattr $C$DW$T$78, DW_AT_decl_column(0x13)
    2273                    $C$DW$T$79      .dwtag  DW_TAG_typedef, DW_AT_name("int64_t")
    2274                            .dwattr $C$DW$T$79, DW_AT_type(*$C$DW$T$14)
    2275                            .dwattr $C$DW$T$79, DW_AT_language(DW_LANG_C)
    2276                            .dwattr $C$DW$T$79, DW_AT_decl_file("C:/ti/ccsv6/tools/compiler/ti-cgt-arm_5.2.5/include/stdin
    2277                            .dwattr $C$DW$T$79, DW_AT_decl_line(0x32)
    2278                            .dwattr $C$DW$T$79, DW_AT_decl_column(0x21)
    2279                    $C$DW$T$80      .dwtag  DW_TAG_typedef, DW_AT_name("int_fast64_t")
    2280                            .dwattr $C$DW$T$80, DW_AT_type(*$C$DW$T$79)
    2281                            .dwattr $C$DW$T$80, DW_AT_language(DW_LANG_C)
    2282                            .dwattr $C$DW$T$80, DW_AT_decl_file("C:/ti/ccsv6/tools/compiler/ti-cgt-arm_5.2.5/include/stdin
    2283                            .dwattr $C$DW$T$80, DW_AT_decl_line(0x4e)
    2284                            .dwattr $C$DW$T$80, DW_AT_decl_column(0x17)
    2285                    $C$DW$T$81      .dwtag  DW_TAG_typedef, DW_AT_name("int_least64_t")
    2286                            .dwattr $C$DW$T$81, DW_AT_type(*$C$DW$T$79)
    2287                            .dwattr $C$DW$T$81, DW_AT_language(DW_LANG_C)
    2288                            .dwattr $C$DW$T$81, DW_AT_decl_file("C:/ti/ccsv6/tools/compiler/ti-cgt-arm_5.2.5/include/stdin
    2289                            .dwattr $C$DW$T$81, DW_AT_decl_line(0x40)
    2290                            .dwattr $C$DW$T$81, DW_AT_decl_column(0x17)
    2291                    $C$DW$T$82      .dwtag  DW_TAG_typedef, DW_AT_name("intmax_t")
    2292                            .dwattr $C$DW$T$82, DW_AT_type(*$C$DW$T$14)
    2293                            .dwattr $C$DW$T$82, DW_AT_language(DW_LANG_C)
    2294                            .dwattr $C$DW$T$82, DW_AT_decl_file("C:/ti/ccsv6/tools/compiler/ti-cgt-arm_5.2.5/include/stdin
    2295                            .dwattr $C$DW$T$82, DW_AT_decl_line(0x56)
    2296                            .dwattr $C$DW$T$82, DW_AT_decl_column(0x20)
    2297                    $C$DW$T$15      .dwtag  DW_TAG_base_type
    2298                            .dwattr $C$DW$T$15, DW_AT_encoding(DW_ATE_unsigned)
    2299                            .dwattr $C$DW$T$15, DW_AT_name("unsigned long long")
    2300                            .dwattr $C$DW$T$15, DW_AT_byte_size(0x08)
    2301                    $C$DW$T$83      .dwtag  DW_TAG_typedef, DW_AT_name("_ULonglong")
    2302                            .dwattr $C$DW$T$83, DW_AT_type(*$C$DW$T$15)
    2303                            .dwattr $C$DW$T$83, DW_AT_language(DW_LANG_C)
    2304                            .dwattr $C$DW$T$83, DW_AT_decl_file("C:/ti/ccsv6/tools/compiler/ti-cgt-arm_5.2.5/include/yvals
    2305                            .dwattr $C$DW$T$83, DW_AT_decl_line(0x1b6)
    2306                            .dwattr $C$DW$T$83, DW_AT_decl_column(0x14)
    2307                    $C$DW$T$84      .dwtag  DW_TAG_typedef, DW_AT_name("uint64_t")
    2308                            .dwattr $C$DW$T$84, DW_AT_type(*$C$DW$T$15)
    2309                            .dwattr $C$DW$T$84, DW_AT_language(DW_LANG_C)
    2310                            .dwattr $C$DW$T$84, DW_AT_decl_file("C:/ti/ccsv6/tools/compiler/ti-cgt-arm_5.2.5/include/stdin
    2311                            .dwattr $C$DW$T$84, DW_AT_decl_line(0x33)
    2312                            .dwattr $C$DW$T$84, DW_AT_decl_column(0x20)
    2313                    $C$DW$T$85      .dwtag  DW_TAG_typedef, DW_AT_name("uint_fast64_t")
    2314                            .dwattr $C$DW$T$85, DW_AT_type(*$C$DW$T$84)
    2315                            .dwattr $C$DW$T$85, DW_AT_language(DW_LANG_C)
    2316                            .dwattr $C$DW$T$85, DW_AT_decl_file("C:/ti/ccsv6/tools/compiler/ti-cgt-arm_5.2.5/include/stdin
TI ARM Assembler PC v5.2.5 Sat Nov 07 12:29:23 2015

Tools Copyright (c) 1996-2015 Texas Instruments Incorporated
esp8266.asm                                                          PAGE   48

    2317                            .dwattr $C$DW$T$85, DW_AT_decl_line(0x4f)
    2318                            .dwattr $C$DW$T$85, DW_AT_decl_column(0x16)
    2319                    $C$DW$T$86      .dwtag  DW_TAG_typedef, DW_AT_name("uint_least64_t")
    2320                            .dwattr $C$DW$T$86, DW_AT_type(*$C$DW$T$84)
    2321                            .dwattr $C$DW$T$86, DW_AT_language(DW_LANG_C)
    2322                            .dwattr $C$DW$T$86, DW_AT_decl_file("C:/ti/ccsv6/tools/compiler/ti-cgt-arm_5.2.5/include/stdin
    2323                            .dwattr $C$DW$T$86, DW_AT_decl_line(0x41)
    2324                            .dwattr $C$DW$T$86, DW_AT_decl_column(0x16)
    2325                    $C$DW$T$87      .dwtag  DW_TAG_typedef, DW_AT_name("uintmax_t")
    2326                            .dwattr $C$DW$T$87, DW_AT_type(*$C$DW$T$15)
    2327                            .dwattr $C$DW$T$87, DW_AT_language(DW_LANG_C)
    2328                            .dwattr $C$DW$T$87, DW_AT_decl_file("C:/ti/ccsv6/tools/compiler/ti-cgt-arm_5.2.5/include/stdin
    2329                            .dwattr $C$DW$T$87, DW_AT_decl_line(0x57)
    2330                            .dwattr $C$DW$T$87, DW_AT_decl_column(0x20)
    2331                    $C$DW$T$16      .dwtag  DW_TAG_base_type
    2332                            .dwattr $C$DW$T$16, DW_AT_encoding(DW_ATE_float)
    2333                            .dwattr $C$DW$T$16, DW_AT_name("float")
    2334                            .dwattr $C$DW$T$16, DW_AT_byte_size(0x04)
    2335                    $C$DW$T$17      .dwtag  DW_TAG_base_type
    2336                            .dwattr $C$DW$T$17, DW_AT_encoding(DW_ATE_float)
    2337                            .dwattr $C$DW$T$17, DW_AT_name("double")
    2338                            .dwattr $C$DW$T$17, DW_AT_byte_size(0x08)
    2339                    $C$DW$T$18      .dwtag  DW_TAG_base_type
    2340                            .dwattr $C$DW$T$18, DW_AT_encoding(DW_ATE_float)
    2341                            .dwattr $C$DW$T$18, DW_AT_name("long double")
    2342                            .dwattr $C$DW$T$18, DW_AT_byte_size(0x08)
    2343                    $C$DW$T$88      .dwtag  DW_TAG_typedef, DW_AT_name("_Sysch_t")
    2344                            .dwattr $C$DW$T$88, DW_AT_type(*$C$DW$T$6)
    2345                            .dwattr $C$DW$T$88, DW_AT_language(DW_LANG_C)
    2346                            .dwattr $C$DW$T$88, DW_AT_decl_file("C:/ti/ccsv6/tools/compiler/ti-cgt-arm_5.2.5/include/yvals
    2347                            .dwattr $C$DW$T$88, DW_AT_decl_line(0x218)
    2348                            .dwattr $C$DW$T$88, DW_AT_decl_column(0x0e)
    2349                    $C$DW$T$33      .dwtag  DW_TAG_pointer_type
    2350                            .dwattr $C$DW$T$33, DW_AT_type(*$C$DW$T$6)
    2351                            .dwattr $C$DW$T$33, DW_AT_address_class(0x20)
    2352                    $C$DW$T$93      .dwtag  DW_TAG_typedef, DW_AT_name("__builtin_va_list")
    2353                            .dwattr $C$DW$T$93, DW_AT_type(*$C$DW$T$33)
    2354                            .dwattr $C$DW$T$93, DW_AT_language(DW_LANG_C)
    2355                            .dwattr $C$DW$T$93, DW_AT_decl_file("../esp8266.c")
    2356                            .dwattr $C$DW$T$93, DW_AT_decl_line(0xee)
    2357                            .dwattr $C$DW$T$93, DW_AT_decl_column(0x01)
    2358                    $C$DW$T$63      .dwtag  DW_TAG_const_type
    2359                            .dwattr $C$DW$T$63, DW_AT_type(*$C$DW$T$6)
    2360                    $C$DW$T$64      .dwtag  DW_TAG_pointer_type
    2361                            .dwattr $C$DW$T$64, DW_AT_type(*$C$DW$T$63)
    2362                            .dwattr $C$DW$T$64, DW_AT_address_class(0x20)
    2363                    $C$DW$T$94      .dwtag  DW_TAG_volatile_type
    2364                            .dwattr $C$DW$T$94, DW_AT_type(*$C$DW$T$6)
    2365                    
    2366                    $C$DW$T$95      .dwtag  DW_TAG_array_type
    2367                            .dwattr $C$DW$T$95, DW_AT_type(*$C$DW$T$94)
    2368                            .dwattr $C$DW$T$95, DW_AT_language(DW_LANG_C)
    2369                            .dwattr $C$DW$T$95, DW_AT_byte_size(0x1e)
    2370                    $C$DW$156       .dwtag  DW_TAG_subrange_type
    2371                            .dwattr $C$DW$156, DW_AT_upper_bound(0x1d)
TI ARM Assembler PC v5.2.5 Sat Nov 07 12:29:23 2015

Tools Copyright (c) 1996-2015 Texas Instruments Incorporated
esp8266.asm                                                          PAGE   49

    2372                            .dwendtag $C$DW$T$95
    2373                    
    2374                    
    2375                    $C$DW$T$98      .dwtag  DW_TAG_array_type
    2376                            .dwattr $C$DW$T$98, DW_AT_type(*$C$DW$T$6)
    2377                            .dwattr $C$DW$T$98, DW_AT_language(DW_LANG_C)
    2378                            .dwattr $C$DW$T$98, DW_AT_byte_size(0x6a)
    2379                    $C$DW$157       .dwtag  DW_TAG_subrange_type
    2380                            .dwattr $C$DW$157, DW_AT_upper_bound(0x69)
    2381                            .dwendtag $C$DW$T$98
    2382                    
    2383                    
    2384                    $C$DW$T$99      .dwtag  DW_TAG_array_type
    2385                            .dwattr $C$DW$T$99, DW_AT_type(*$C$DW$T$6)
    2386                            .dwattr $C$DW$T$99, DW_AT_language(DW_LANG_C)
    2387                            .dwattr $C$DW$T$99, DW_AT_byte_size(0x0e)
    2388                    $C$DW$158       .dwtag  DW_TAG_subrange_type
    2389                            .dwattr $C$DW$158, DW_AT_upper_bound(0x0d)
    2390                            .dwendtag $C$DW$T$99
    2391                    
    2392                    
    2393                    $C$DW$T$100     .dwtag  DW_TAG_array_type
    2394                            .dwattr $C$DW$T$100, DW_AT_type(*$C$DW$T$6)
    2395                            .dwattr $C$DW$T$100, DW_AT_language(DW_LANG_C)
    2396                            .dwattr $C$DW$T$100, DW_AT_byte_size(0x03)
    2397                    $C$DW$159       .dwtag  DW_TAG_subrange_type
    2398                            .dwattr $C$DW$159, DW_AT_upper_bound(0x02)
    2399                            .dwendtag $C$DW$T$100
    2400                    
    2401                    
    2402                    $C$DW$T$102     .dwtag  DW_TAG_array_type
    2403                            .dwattr $C$DW$T$102, DW_AT_type(*$C$DW$T$6)
    2404                            .dwattr $C$DW$T$102, DW_AT_language(DW_LANG_C)
    2405                            .dwattr $C$DW$T$102, DW_AT_byte_size(0x02)
    2406                    $C$DW$160       .dwtag  DW_TAG_subrange_type
    2407                            .dwattr $C$DW$160, DW_AT_upper_bound(0x01)
    2408                            .dwendtag $C$DW$T$102
    2409                    
    2410                    
    2411                    $C$DW$T$104     .dwtag  DW_TAG_array_type
    2412                            .dwattr $C$DW$T$104, DW_AT_type(*$C$DW$T$6)
    2413                            .dwattr $C$DW$T$104, DW_AT_language(DW_LANG_C)
    2414                            .dwattr $C$DW$T$104, DW_AT_byte_size(0x05)
    2415                    $C$DW$161       .dwtag  DW_TAG_subrange_type
    2416                            .dwattr $C$DW$161, DW_AT_upper_bound(0x04)
    2417                            .dwendtag $C$DW$T$104
    2418                    
    2419                    $C$DW$T$112     .dwtag  DW_TAG_base_type
    2420                            .dwattr $C$DW$T$112, DW_AT_encoding(DW_ATE_unsigned_char)
    2421                            .dwattr $C$DW$T$112, DW_AT_name("unsigned char")
    2422                            .dwattr $C$DW$T$112, DW_AT_byte_size(0x01)
    2423                    
    2424                    $C$DW$T$19      .dwtag  DW_TAG_structure_type
    2425                            .dwattr $C$DW$T$19, DW_AT_name("__va_list")
    2426                            .dwattr $C$DW$T$19, DW_AT_byte_size(0x04)
TI ARM Assembler PC v5.2.5 Sat Nov 07 12:29:23 2015

Tools Copyright (c) 1996-2015 Texas Instruments Incorporated
esp8266.asm                                                          PAGE   50

    2427                    $C$DW$162       .dwtag  DW_TAG_member
    2428                            .dwattr $C$DW$162, DW_AT_type(*$C$DW$T$3)
    2429                            .dwattr $C$DW$162, DW_AT_name("__ap")
    2430                            .dwattr $C$DW$162, DW_AT_TI_symbol_name("__ap")
    2431                            .dwattr $C$DW$162, DW_AT_data_member_location[DW_OP_plus_uconst 0x0]
    2432                            .dwattr $C$DW$162, DW_AT_accessibility(DW_ACCESS_public)
    2433                            .dwattr $C$DW$162, DW_AT_decl_file("C:/ti/ccsv6/tools/compiler/ti-cgt-arm_5.2.5/include/stdarg
    2434                            .dwattr $C$DW$162, DW_AT_decl_line(0x36)
    2435                            .dwattr $C$DW$162, DW_AT_decl_column(0x0c)
    2436                            .dwendtag $C$DW$T$19
    2437                    
    2438                            .dwattr $C$DW$T$19, DW_AT_decl_file("C:/ti/ccsv6/tools/compiler/ti-cgt-arm_5.2.5/include/stdar
    2439                            .dwattr $C$DW$T$19, DW_AT_decl_line(0x35)
    2440                            .dwattr $C$DW$T$19, DW_AT_decl_column(0x10)
    2441                    $C$DW$T$115     .dwtag  DW_TAG_typedef, DW_AT_name("va_list")
    2442                            .dwattr $C$DW$T$115, DW_AT_type(*$C$DW$T$19)
    2443                            .dwattr $C$DW$T$115, DW_AT_language(DW_LANG_C)
    2444                            .dwattr $C$DW$T$115, DW_AT_decl_file("C:/ti/ccsv6/tools/compiler/ti-cgt-arm_5.2.5/include/stda
    2445                            .dwattr $C$DW$T$115, DW_AT_decl_line(0x37)
    2446                            .dwattr $C$DW$T$115, DW_AT_decl_column(0x03)
    2447                    $C$DW$T$116     .dwtag  DW_TAG_typedef, DW_AT_name("_Va_list")
    2448                            .dwattr $C$DW$T$116, DW_AT_type(*$C$DW$T$115)
    2449                            .dwattr $C$DW$T$116, DW_AT_language(DW_LANG_C)
    2450                            .dwattr $C$DW$T$116, DW_AT_decl_file("C:/ti/ccsv6/tools/compiler/ti-cgt-arm_5.2.5/include/yval
    2451                            .dwattr $C$DW$T$116, DW_AT_decl_line(0x1f6)
    2452                            .dwattr $C$DW$T$116, DW_AT_decl_column(0x17)
    2453                            .dwattr $C$DW$CU, DW_AT_language(DW_LANG_C)
    2454                    
    2455                    ;***************************************************************
    2456                    ;* DWARF CIE ENTRIES                                           *
    2457                    ;***************************************************************
    2458                    
    2459                    $C$DW$CIE       .dwcie 14
    2460                            .dwcfi  cfa_register, 13
    2461                            .dwcfi  cfa_offset, 0
    2462                            .dwcfi  undefined, 0
    2463                            .dwcfi  undefined, 1
    2464                            .dwcfi  undefined, 2
    2465                            .dwcfi  undefined, 3
    2466                            .dwcfi  same_value, 4
    2467                            .dwcfi  same_value, 5
    2468                            .dwcfi  same_value, 6
    2469                            .dwcfi  same_value, 7
    2470                            .dwcfi  same_value, 8
    2471                            .dwcfi  same_value, 9
    2472                            .dwcfi  same_value, 10
    2473                            .dwcfi  same_value, 11
    2474                            .dwcfi  undefined, 12
    2475                            .dwcfi  undefined, 13
    2476                            .dwcfi  undefined, 14
    2477                            .dwcfi  undefined, 14
    2478                            .dwcfi  undefined, 7
    2479                            .dwcfi  undefined, 64
    2480                            .dwcfi  undefined, 65
    2481                            .dwcfi  undefined, 66
TI ARM Assembler PC v5.2.5 Sat Nov 07 12:29:23 2015

Tools Copyright (c) 1996-2015 Texas Instruments Incorporated
esp8266.asm                                                          PAGE   51

    2482                            .dwcfi  undefined, 67
    2483                            .dwcfi  undefined, 68
    2484                            .dwcfi  undefined, 69
    2485                            .dwcfi  undefined, 70
    2486                            .dwcfi  undefined, 71
    2487                            .dwcfi  undefined, 72
    2488                            .dwcfi  undefined, 73
    2489                            .dwcfi  undefined, 74
    2490                            .dwcfi  undefined, 75
    2491                            .dwcfi  undefined, 76
    2492                            .dwcfi  undefined, 77
    2493                            .dwcfi  undefined, 78
    2494                            .dwcfi  undefined, 79
    2495                            .dwcfi  same_value, 80
    2496                            .dwcfi  same_value, 81
    2497                            .dwcfi  same_value, 82
    2498                            .dwcfi  same_value, 83
    2499                            .dwcfi  same_value, 84
    2500                            .dwcfi  same_value, 85
    2501                            .dwcfi  same_value, 86
    2502                            .dwcfi  same_value, 87
    2503                            .dwcfi  same_value, 88
    2504                            .dwcfi  same_value, 89
    2505                            .dwcfi  same_value, 90
    2506                            .dwcfi  same_value, 91
    2507                            .dwcfi  same_value, 92
    2508                            .dwcfi  same_value, 93
    2509                            .dwcfi  same_value, 94
    2510                            .dwcfi  same_value, 95
    2511                            .dwendentry
    2512                            .dwendtag $C$DW$CU
    2513                    

--------------------------
Thumb2 Statistics
--------------------------
Number of Thumb2 ins converted to Thumb = 0 (0%)
Number of Thumb ins in input = 281 (72%)
Number of Thumb2 ins encoded as Thumb2 = 107 (100%)
Number of Thumb2 ins converted to 2 OPND Thumb = 16


No Assembly Errors, No Assembly Warnings
