;******************************************************************************
;* TI ARM C/C++ Codegen                                             PC v5.2.5 *
;* Date/Time created: Wed Oct 28 12:22:41 2015                                *
;******************************************************************************
	.compiler_opts --abi=eabi --arm_vmrs_si_workaround=off --code_state=16 --diag_wrap=off --disable_dual_state --embedded_constants=on --endian=little --float_support=FPv4SPD16 --hll_source=on --object_format=elf --silicon_version=7M4 --symdebug:dwarf --symdebug:dwarf_version=3 --unaligned_access=on 
	.thumb

$C$DW$CU	.dwtag  DW_TAG_compile_unit
	.dwattr $C$DW$CU, DW_AT_name("../esp8266.c")
	.dwattr $C$DW$CU, DW_AT_producer("TI TI ARM C/C++ Codegen PC v5.2.5 Copyright (c) 1996-2015 Texas Instruments Incorporated")
	.dwattr $C$DW$CU, DW_AT_TI_version(0x01)
	.dwattr $C$DW$CU, DW_AT_comp_dir("E:\Dev\Ti\Code\GIT\LaunchpadRoomControl\LaunchpadRoomControl\timers\Debug")

$C$DW$1	.dwtag  DW_TAG_subprogram, DW_AT_name("strcpy")
	.dwattr $C$DW$1, DW_AT_TI_symbol_name("strcpy")
	.dwattr $C$DW$1, DW_AT_type(*$C$DW$T$33)
	.dwattr $C$DW$1, DW_AT_declaration
	.dwattr $C$DW$1, DW_AT_external
	.dwattr $C$DW$1, DW_AT_decl_file("C:/ti/ccsv6/tools/compiler/ti-cgt-arm_5.2.5/include/string.h")
	.dwattr $C$DW$1, DW_AT_decl_line(0x51)
	.dwattr $C$DW$1, DW_AT_decl_column(0x12)
$C$DW$2	.dwtag  DW_TAG_formal_parameter
	.dwattr $C$DW$2, DW_AT_type(*$C$DW$T$33)
$C$DW$3	.dwtag  DW_TAG_formal_parameter
	.dwattr $C$DW$3, DW_AT_type(*$C$DW$T$83)
	.dwendtag $C$DW$1


$C$DW$4	.dwtag  DW_TAG_subprogram, DW_AT_name("strcat")
	.dwattr $C$DW$4, DW_AT_TI_symbol_name("strcat")
	.dwattr $C$DW$4, DW_AT_type(*$C$DW$T$33)
	.dwattr $C$DW$4, DW_AT_declaration
	.dwattr $C$DW$4, DW_AT_external
	.dwattr $C$DW$4, DW_AT_decl_file("C:/ti/ccsv6/tools/compiler/ti-cgt-arm_5.2.5/include/string.h")
	.dwattr $C$DW$4, DW_AT_decl_line(0x53)
	.dwattr $C$DW$4, DW_AT_decl_column(0x12)
$C$DW$5	.dwtag  DW_TAG_formal_parameter
	.dwattr $C$DW$5, DW_AT_type(*$C$DW$T$33)
$C$DW$6	.dwtag  DW_TAG_formal_parameter
	.dwattr $C$DW$6, DW_AT_type(*$C$DW$T$83)
	.dwendtag $C$DW$4


$C$DW$7	.dwtag  DW_TAG_subprogram, DW_AT_name("strstr")
	.dwattr $C$DW$7, DW_AT_TI_symbol_name("strstr")
	.dwattr $C$DW$7, DW_AT_type(*$C$DW$T$33)
	.dwattr $C$DW$7, DW_AT_declaration
	.dwattr $C$DW$7, DW_AT_external
	.dwattr $C$DW$7, DW_AT_decl_file("C:/ti/ccsv6/tools/compiler/ti-cgt-arm_5.2.5/include/string.h")
	.dwattr $C$DW$7, DW_AT_decl_line(0x60)
	.dwattr $C$DW$7, DW_AT_decl_column(0x16)
$C$DW$8	.dwtag  DW_TAG_formal_parameter
	.dwattr $C$DW$8, DW_AT_type(*$C$DW$T$83)
$C$DW$9	.dwtag  DW_TAG_formal_parameter
	.dwattr $C$DW$9, DW_AT_type(*$C$DW$T$83)
	.dwendtag $C$DW$7


$C$DW$10	.dwtag  DW_TAG_subprogram, DW_AT_name("GPIOPinConfigure")
	.dwattr $C$DW$10, DW_AT_TI_symbol_name("GPIOPinConfigure")
	.dwattr $C$DW$10, DW_AT_declaration
	.dwattr $C$DW$10, DW_AT_external
	.dwattr $C$DW$10, DW_AT_decl_file("E:/Dev/Ti/TivaWare/driverlib/gpio.h")
	.dwattr $C$DW$10, DW_AT_decl_line(0x9f)
	.dwattr $C$DW$10, DW_AT_decl_column(0x0d)
$C$DW$11	.dwtag  DW_TAG_formal_parameter
	.dwattr $C$DW$11, DW_AT_type(*$C$DW$T$22)
	.dwendtag $C$DW$10


$C$DW$12	.dwtag  DW_TAG_subprogram, DW_AT_name("GPIOPinTypeUART")
	.dwattr $C$DW$12, DW_AT_TI_symbol_name("GPIOPinTypeUART")
	.dwattr $C$DW$12, DW_AT_declaration
	.dwattr $C$DW$12, DW_AT_external
	.dwattr $C$DW$12, DW_AT_decl_file("E:/Dev/Ti/TivaWare/driverlib/gpio.h")
	.dwattr $C$DW$12, DW_AT_decl_line(0xb1)
	.dwattr $C$DW$12, DW_AT_decl_column(0x0d)
$C$DW$13	.dwtag  DW_TAG_formal_parameter
	.dwattr $C$DW$13, DW_AT_type(*$C$DW$T$22)
$C$DW$14	.dwtag  DW_TAG_formal_parameter
	.dwattr $C$DW$14, DW_AT_type(*$C$DW$T$25)
	.dwendtag $C$DW$12


$C$DW$15	.dwtag  DW_TAG_subprogram, DW_AT_name("SysCtlPeripheralEnable")
	.dwattr $C$DW$15, DW_AT_TI_symbol_name("SysCtlPeripheralEnable")
	.dwattr $C$DW$15, DW_AT_declaration
	.dwattr $C$DW$15, DW_AT_external
	.dwattr $C$DW$15, DW_AT_decl_file("E:/Dev/Ti/TivaWare/driverlib/sysctl.h")
	.dwattr $C$DW$15, DW_AT_decl_line(0x24e)
	.dwattr $C$DW$15, DW_AT_decl_column(0x0d)
$C$DW$16	.dwtag  DW_TAG_formal_parameter
	.dwattr $C$DW$16, DW_AT_type(*$C$DW$T$22)
	.dwendtag $C$DW$15


$C$DW$17	.dwtag  DW_TAG_subprogram, DW_AT_name("SysCtlDelay")
	.dwattr $C$DW$17, DW_AT_TI_symbol_name("SysCtlDelay")
	.dwattr $C$DW$17, DW_AT_declaration
	.dwattr $C$DW$17, DW_AT_external
	.dwattr $C$DW$17, DW_AT_decl_file("E:/Dev/Ti/TivaWare/driverlib/sysctl.h")
	.dwattr $C$DW$17, DW_AT_decl_line(0x268)
	.dwattr $C$DW$17, DW_AT_decl_column(0x0d)
$C$DW$18	.dwtag  DW_TAG_formal_parameter
	.dwattr $C$DW$18, DW_AT_type(*$C$DW$T$22)
	.dwendtag $C$DW$17


$C$DW$19	.dwtag  DW_TAG_subprogram, DW_AT_name("SysCtlClockGet")
	.dwattr $C$DW$19, DW_AT_TI_symbol_name("SysCtlClockGet")
	.dwattr $C$DW$19, DW_AT_type(*$C$DW$T$22)
	.dwattr $C$DW$19, DW_AT_declaration
	.dwattr $C$DW$19, DW_AT_external
	.dwattr $C$DW$19, DW_AT_decl_file("E:/Dev/Ti/TivaWare/driverlib/sysctl.h")
	.dwattr $C$DW$19, DW_AT_decl_line(0x26c)
	.dwattr $C$DW$19, DW_AT_decl_column(0x11)

$C$DW$20	.dwtag  DW_TAG_subprogram, DW_AT_name("UARTConfigSetExpClk")
	.dwattr $C$DW$20, DW_AT_TI_symbol_name("UARTConfigSetExpClk")
	.dwattr $C$DW$20, DW_AT_declaration
	.dwattr $C$DW$20, DW_AT_external
	.dwattr $C$DW$20, DW_AT_decl_file("E:/Dev/Ti/TivaWare/driverlib/uart.h")
	.dwattr $C$DW$20, DW_AT_decl_line(0xc8)
	.dwattr $C$DW$20, DW_AT_decl_column(0x0d)
$C$DW$21	.dwtag  DW_TAG_formal_parameter
	.dwattr $C$DW$21, DW_AT_type(*$C$DW$T$22)
$C$DW$22	.dwtag  DW_TAG_formal_parameter
	.dwattr $C$DW$22, DW_AT_type(*$C$DW$T$22)
$C$DW$23	.dwtag  DW_TAG_formal_parameter
	.dwattr $C$DW$23, DW_AT_type(*$C$DW$T$22)
$C$DW$24	.dwtag  DW_TAG_formal_parameter
	.dwattr $C$DW$24, DW_AT_type(*$C$DW$T$22)
	.dwendtag $C$DW$20


$C$DW$25	.dwtag  DW_TAG_subprogram, DW_AT_name("UARTCharsAvail")
	.dwattr $C$DW$25, DW_AT_TI_symbol_name("UARTCharsAvail")
	.dwattr $C$DW$25, DW_AT_type(*$C$DW$T$100)
	.dwattr $C$DW$25, DW_AT_declaration
	.dwattr $C$DW$25, DW_AT_external
	.dwattr $C$DW$25, DW_AT_decl_file("E:/Dev/Ti/TivaWare/driverlib/uart.h")
	.dwattr $C$DW$25, DW_AT_decl_line(0xd2)
	.dwattr $C$DW$25, DW_AT_decl_column(0x0d)
$C$DW$26	.dwtag  DW_TAG_formal_parameter
	.dwattr $C$DW$26, DW_AT_type(*$C$DW$T$22)
	.dwendtag $C$DW$25


$C$DW$27	.dwtag  DW_TAG_subprogram, DW_AT_name("UARTCharGetNonBlocking")
	.dwattr $C$DW$27, DW_AT_TI_symbol_name("UARTCharGetNonBlocking")
	.dwattr $C$DW$27, DW_AT_type(*$C$DW$T$52)
	.dwattr $C$DW$27, DW_AT_declaration
	.dwattr $C$DW$27, DW_AT_external
	.dwattr $C$DW$27, DW_AT_decl_file("E:/Dev/Ti/TivaWare/driverlib/uart.h")
	.dwattr $C$DW$27, DW_AT_decl_line(0xd4)
	.dwattr $C$DW$27, DW_AT_decl_column(0x10)
$C$DW$28	.dwtag  DW_TAG_formal_parameter
	.dwattr $C$DW$28, DW_AT_type(*$C$DW$T$22)
	.dwendtag $C$DW$27


$C$DW$29	.dwtag  DW_TAG_subprogram, DW_AT_name("UARTCharGet")
	.dwattr $C$DW$29, DW_AT_TI_symbol_name("UARTCharGet")
	.dwattr $C$DW$29, DW_AT_type(*$C$DW$T$52)
	.dwattr $C$DW$29, DW_AT_declaration
	.dwattr $C$DW$29, DW_AT_external
	.dwattr $C$DW$29, DW_AT_decl_file("E:/Dev/Ti/TivaWare/driverlib/uart.h")
	.dwattr $C$DW$29, DW_AT_decl_line(0xd5)
	.dwattr $C$DW$29, DW_AT_decl_column(0x10)
$C$DW$30	.dwtag  DW_TAG_formal_parameter
	.dwattr $C$DW$30, DW_AT_type(*$C$DW$T$22)
	.dwendtag $C$DW$29


$C$DW$31	.dwtag  DW_TAG_subprogram, DW_AT_name("UARTCharPut")
	.dwattr $C$DW$31, DW_AT_TI_symbol_name("UARTCharPut")
	.dwattr $C$DW$31, DW_AT_declaration
	.dwattr $C$DW$31, DW_AT_external
	.dwattr $C$DW$31, DW_AT_decl_file("E:/Dev/Ti/TivaWare/driverlib/uart.h")
	.dwattr $C$DW$31, DW_AT_decl_line(0xd7)
	.dwattr $C$DW$31, DW_AT_decl_column(0x0d)
$C$DW$32	.dwtag  DW_TAG_formal_parameter
	.dwattr $C$DW$32, DW_AT_type(*$C$DW$T$22)
$C$DW$33	.dwtag  DW_TAG_formal_parameter
	.dwattr $C$DW$33, DW_AT_type(*$C$DW$T$6)
	.dwendtag $C$DW$31

	.global	uart_data
	.common	uart_data,32,1
$C$DW$34	.dwtag  DW_TAG_variable, DW_AT_name("uart_data")
	.dwattr $C$DW$34, DW_AT_TI_symbol_name("uart_data")
	.dwattr $C$DW$34, DW_AT_location[DW_OP_addr uart_data]
	.dwattr $C$DW$34, DW_AT_type(*$C$DW$T$90)
	.dwattr $C$DW$34, DW_AT_external
	.dwattr $C$DW$34, DW_AT_decl_file("../esp8266.c")
	.dwattr $C$DW$34, DW_AT_decl_line(0x34)
	.dwattr $C$DW$34, DW_AT_decl_column(0x0f)
	.global	uart_data_counter
	.common	uart_data_counter,1,1
$C$DW$35	.dwtag  DW_TAG_variable, DW_AT_name("uart_data_counter")
	.dwattr $C$DW$35, DW_AT_TI_symbol_name("uart_data_counter")
	.dwattr $C$DW$35, DW_AT_location[DW_OP_addr uart_data_counter]
	.dwattr $C$DW$35, DW_AT_type(*$C$DW$T$89)
	.dwattr $C$DW$35, DW_AT_external
	.dwattr $C$DW$35, DW_AT_decl_file("../esp8266.c")
	.dwattr $C$DW$35, DW_AT_decl_line(0x34)
	.dwattr $C$DW$35, DW_AT_decl_column(0x1e)
	.common	dummy$1,1,1

$C$DW$36	.dwtag  DW_TAG_subprogram, DW_AT_name("memset")
	.dwattr $C$DW$36, DW_AT_TI_symbol_name("memset")
	.dwattr $C$DW$36, DW_AT_type(*$C$DW$T$3)
	.dwattr $C$DW$36, DW_AT_declaration
	.dwattr $C$DW$36, DW_AT_external
;	C:\ti\ccsv6\tools\compiler\ti-cgt-arm_5.2.5\bin\armacpia.exe -@C:\\Users\\DCOSAS~1.SAG\\AppData\\Local\\Temp\\0600812 
	.sect	".text:uart_send"
	.clink
	.thumbfunc uart_send
	.thumb
	.global	uart_send

$C$DW$37	.dwtag  DW_TAG_subprogram, DW_AT_name("uart_send")
	.dwattr $C$DW$37, DW_AT_low_pc(uart_send)
	.dwattr $C$DW$37, DW_AT_high_pc(0x00)
	.dwattr $C$DW$37, DW_AT_TI_symbol_name("uart_send")
	.dwattr $C$DW$37, DW_AT_external
	.dwattr $C$DW$37, DW_AT_TI_begin_file("../esp8266.c")
	.dwattr $C$DW$37, DW_AT_TI_begin_line(0x36)
	.dwattr $C$DW$37, DW_AT_TI_begin_column(0x06)
	.dwattr $C$DW$37, DW_AT_decl_file("../esp8266.c")
	.dwattr $C$DW$37, DW_AT_decl_line(0x36)
	.dwattr $C$DW$37, DW_AT_decl_column(0x06)
	.dwattr $C$DW$37, DW_AT_TI_max_frame_size(0x08)
	.dwpsn	file "../esp8266.c",line 55,column 1,is_stmt,address uart_send,isa 1

	.dwfde $C$DW$CIE, uart_send
$C$DW$38	.dwtag  DW_TAG_formal_parameter, DW_AT_name("str")
	.dwattr $C$DW$38, DW_AT_TI_symbol_name("str")
	.dwattr $C$DW$38, DW_AT_type(*$C$DW$T$33)
	.dwattr $C$DW$38, DW_AT_location[DW_OP_reg0]
;----------------------------------------------------------------------
;  54 | void uart_send(char* str)                                              
;----------------------------------------------------------------------

;*****************************************************************************
;* FUNCTION NAME: uart_send                                                  *
;*                                                                           *
;*   Regs Modified     : A1,A2,A3,A4,V9,SP,LR,SR,D0,D0_hi,D1,D1_hi,D2,D2_hi, *
;*                           D3,D3_hi,D4,D4_hi,D5,D5_hi,D6,D6_hi,D7,D7_hi,   *
;*                           FPEXC,FPSCR                                     *
;*   Regs Used         : A1,A2,A3,A4,V9,SP,LR,SR,D0,D0_hi,D1,D1_hi,D2,D2_hi, *
;*                           D3,D3_hi,D4,D4_hi,D5,D5_hi,D6,D6_hi,D7,D7_hi,   *
;*                           FPEXC,FPSCR                                     *
;*   Local Frame Size  : 0 Args + 4 Auto + 4 Save = 8 byte                   *
;*****************************************************************************
uart_send:
;* --------------------------------------------------------------------------*
	.dwcfi	cfa_offset, 0
        PUSH      {A4, LR}              ; [DPU_3_PIPE] 
	.dwcfi	cfa_offset, 8
	.dwcfi	save_reg_to_mem, 14, -4
	.dwcfi	save_reg_to_mem, 3, -8
$C$DW$39	.dwtag  DW_TAG_variable, DW_AT_name("str")
	.dwattr $C$DW$39, DW_AT_TI_symbol_name("str")
	.dwattr $C$DW$39, DW_AT_type(*$C$DW$T$33)
	.dwattr $C$DW$39, DW_AT_location[DW_OP_breg13 0]
        STR       A1, [SP, #0]          ; [DPU_3_PIPE] |55| 
	.dwpsn	file "../esp8266.c",line 56,column 2,is_stmt,isa 1
;----------------------------------------------------------------------
;  56 | while(*str)                                                            
;----------------------------------------------------------------------
        B         ||$C$L2||             ; [DPU_3_PIPE] |56| 
        ; BRANCH OCCURS {||$C$L2||}      ; [] |56| 
;* --------------------------------------------------------------------------*
||$C$L1||:    
	.dwpsn	file "../esp8266.c",line 58,column 3,is_stmt,isa 1
;----------------------------------------------------------------------
;  58 | UARTCharPut(UART5_BASE, *str++);                                       
;----------------------------------------------------------------------
        LDR       A1, [SP, #0]          ; [DPU_3_PIPE] |58| 
        LDRB      A2, [A1], #1          ; [DPU_3_PIPE] |58| 
        STR       A1, [SP, #0]          ; [DPU_3_PIPE] |58| 
        LDR       A1, $C$CON1           ; [DPU_3_PIPE] |58| 
$C$DW$40	.dwtag  DW_TAG_TI_branch
	.dwattr $C$DW$40, DW_AT_low_pc(0x00)
	.dwattr $C$DW$40, DW_AT_name("UARTCharPut")
	.dwattr $C$DW$40, DW_AT_TI_call
        BL        UARTCharPut           ; [DPU_3_PIPE] |58| 
        ; CALL OCCURS {UARTCharPut }     ; [] |58| 
;* --------------------------------------------------------------------------*
;*   BEGIN LOOP ||$C$L2||
;* --------------------------------------------------------------------------*
||$C$L2||:    
	.dwpsn	file "../esp8266.c",line 56,column 2,is_stmt,isa 1
        LDR       A1, [SP, #0]          ; [DPU_3_PIPE] |56| 
        LDRB      A1, [A1, #0]          ; [DPU_3_PIPE] |56| 
        CMP       A1, #0                ; [DPU_3_PIPE] |56| 
        BNE       ||$C$L1||             ; [DPU_3_PIPE] |56| 
        ; BRANCHCC OCCURS {||$C$L1||}    ; [] |56| 
;* --------------------------------------------------------------------------*
	.dwpsn	file "../esp8266.c",line 60,column 2,is_stmt,isa 1
;----------------------------------------------------------------------
;  60 | UARTCharPut(UART5_BASE, 13);                                           
;----------------------------------------------------------------------
        LDR       A1, $C$CON1           ; [DPU_3_PIPE] |60| 
        MOVS      A2, #13               ; [DPU_3_PIPE] |60| 
$C$DW$41	.dwtag  DW_TAG_TI_branch
	.dwattr $C$DW$41, DW_AT_low_pc(0x00)
	.dwattr $C$DW$41, DW_AT_name("UARTCharPut")
	.dwattr $C$DW$41, DW_AT_TI_call
        BL        UARTCharPut           ; [DPU_3_PIPE] |60| 
        ; CALL OCCURS {UARTCharPut }     ; [] |60| 
	.dwpsn	file "../esp8266.c",line 61,column 2,is_stmt,isa 1
;----------------------------------------------------------------------
;  61 | UARTCharPut(UART5_BASE, 10);                                           
;----------------------------------------------------------------------
        LDR       A1, $C$CON1           ; [DPU_3_PIPE] |61| 
        MOVS      A2, #10               ; [DPU_3_PIPE] |61| 
$C$DW$42	.dwtag  DW_TAG_TI_branch
	.dwattr $C$DW$42, DW_AT_low_pc(0x00)
	.dwattr $C$DW$42, DW_AT_name("UARTCharPut")
	.dwattr $C$DW$42, DW_AT_TI_call
        BL        UARTCharPut           ; [DPU_3_PIPE] |61| 
        ; CALL OCCURS {UARTCharPut }     ; [] |61| 
	.dwpsn	file "../esp8266.c",line 62,column 1,is_stmt,isa 1
$C$DW$43	.dwtag  DW_TAG_TI_branch
	.dwattr $C$DW$43, DW_AT_low_pc(0x00)
	.dwattr $C$DW$43, DW_AT_TI_return
        POP       {A4, PC}              ; [DPU_3_PIPE] 
	.dwcfi	cfa_offset, 0
        ; BRANCH OCCURS                  ; [] 
	.dwattr $C$DW$37, DW_AT_TI_end_file("../esp8266.c")
	.dwattr $C$DW$37, DW_AT_TI_end_line(0x3e)
	.dwattr $C$DW$37, DW_AT_TI_end_column(0x01)
	.dwendentry
	.dwendtag $C$DW$37

	.sect	".text:esp8266_send"
	.clink
	.thumbfunc esp8266_send
	.thumb
	.global	esp8266_send

$C$DW$44	.dwtag  DW_TAG_subprogram, DW_AT_name("esp8266_send")
	.dwattr $C$DW$44, DW_AT_low_pc(esp8266_send)
	.dwattr $C$DW$44, DW_AT_high_pc(0x00)
	.dwattr $C$DW$44, DW_AT_TI_symbol_name("esp8266_send")
	.dwattr $C$DW$44, DW_AT_external
	.dwattr $C$DW$44, DW_AT_type(*$C$DW$T$25)
	.dwattr $C$DW$44, DW_AT_TI_begin_file("../esp8266.c")
	.dwattr $C$DW$44, DW_AT_TI_begin_line(0x40)
	.dwattr $C$DW$44, DW_AT_TI_begin_column(0x09)
	.dwattr $C$DW$44, DW_AT_decl_file("../esp8266.c")
	.dwattr $C$DW$44, DW_AT_decl_line(0x40)
	.dwattr $C$DW$44, DW_AT_decl_column(0x09)
	.dwattr $C$DW$44, DW_AT_TI_max_frame_size(0x18)
	.dwpsn	file "../esp8266.c",line 65,column 1,is_stmt,address esp8266_send,isa 1

	.dwfde $C$DW$CIE, esp8266_send
$C$DW$45	.dwtag  DW_TAG_variable, DW_AT_name("dummy")
	.dwattr $C$DW$45, DW_AT_TI_symbol_name("dummy$1")
	.dwattr $C$DW$45, DW_AT_type(*$C$DW$T$6)
	.dwattr $C$DW$45, DW_AT_location[DW_OP_addr dummy$1]
$C$DW$46	.dwtag  DW_TAG_formal_parameter, DW_AT_name("str")
	.dwattr $C$DW$46, DW_AT_TI_symbol_name("str")
	.dwattr $C$DW$46, DW_AT_type(*$C$DW$T$33)
	.dwattr $C$DW$46, DW_AT_location[DW_OP_reg0]
$C$DW$47	.dwtag  DW_TAG_formal_parameter, DW_AT_name("confirmation")
	.dwattr $C$DW$47, DW_AT_TI_symbol_name("confirmation")
	.dwattr $C$DW$47, DW_AT_type(*$C$DW$T$33)
	.dwattr $C$DW$47, DW_AT_location[DW_OP_reg1]
;----------------------------------------------------------------------
;  64 | uint8_t esp8266_send(char* str, char* confirmation)                    
;----------------------------------------------------------------------

;*****************************************************************************
;* FUNCTION NAME: esp8266_send                                               *
;*                                                                           *
;*   Regs Modified     : A1,A2,A3,A4,V1,V9,SP,LR,SR,D0,D0_hi,D1,D1_hi,D2,    *
;*                           D2_hi,D3,D3_hi,D4,D4_hi,D5,D5_hi,D6,D6_hi,D7,   *
;*                           D7_hi,FPEXC,FPSCR                               *
;*   Regs Used         : A1,A2,A3,A4,V1,V9,SP,LR,SR,D0,D0_hi,D1,D1_hi,D2,    *
;*                           D2_hi,D3,D3_hi,D4,D4_hi,D5,D5_hi,D6,D6_hi,D7,   *
;*                           D7_hi,FPEXC,FPSCR                               *
;*   Local Frame Size  : 0 Args + 16 Auto + 8 Save = 24 byte                 *
;*****************************************************************************
esp8266_send:
;* --------------------------------------------------------------------------*
	.dwcfi	cfa_offset, 0
        PUSH      {A1, A2, A3, A4, V1, LR} ; [DPU_3_PIPE] 
	.dwcfi	cfa_offset, 24
	.dwcfi	save_reg_to_mem, 14, -4
	.dwcfi	save_reg_to_mem, 4, -8
	.dwcfi	save_reg_to_mem, 3, -12
	.dwcfi	save_reg_to_mem, 2, -16
	.dwcfi	save_reg_to_mem, 1, -20
	.dwcfi	save_reg_to_mem, 0, -24
$C$DW$48	.dwtag  DW_TAG_variable, DW_AT_name("str")
	.dwattr $C$DW$48, DW_AT_TI_symbol_name("str")
	.dwattr $C$DW$48, DW_AT_type(*$C$DW$T$33)
	.dwattr $C$DW$48, DW_AT_location[DW_OP_breg13 0]
$C$DW$49	.dwtag  DW_TAG_variable, DW_AT_name("confirmation")
	.dwattr $C$DW$49, DW_AT_TI_symbol_name("confirmation")
	.dwattr $C$DW$49, DW_AT_type(*$C$DW$T$33)
	.dwattr $C$DW$49, DW_AT_location[DW_OP_breg13 4]
$C$DW$50	.dwtag  DW_TAG_variable, DW_AT_name("timeout")
	.dwattr $C$DW$50, DW_AT_TI_symbol_name("timeout")
	.dwattr $C$DW$50, DW_AT_type(*$C$DW$T$22)
	.dwattr $C$DW$50, DW_AT_location[DW_OP_breg13 8]
$C$DW$51	.dwtag  DW_TAG_variable, DW_AT_name("result")
	.dwattr $C$DW$51, DW_AT_TI_symbol_name("result")
	.dwattr $C$DW$51, DW_AT_type(*$C$DW$T$25)
	.dwattr $C$DW$51, DW_AT_location[DW_OP_breg13 12]
        STR       A2, [SP, #4]          ; [DPU_3_PIPE] |65| 
        STR       A1, [SP, #0]          ; [DPU_3_PIPE] |65| 
	.dwpsn	file "../esp8266.c",line 66,column 19,is_stmt,isa 1
;----------------------------------------------------------------------
;  66 | uint32_t timeout = 0;                                                  
;----------------------------------------------------------------------
        MOVS      A1, #0                ; [DPU_3_PIPE] |66| 
        STR       A1, [SP, #8]          ; [DPU_3_PIPE] |66| 
	.dwpsn	file "../esp8266.c",line 67,column 17,is_stmt,isa 1
;----------------------------------------------------------------------
;  67 | uint8_t result = 0;                                                    
;  69 | static char dummy;                                                     
;  70 | //memset ((void*)uart_data,'\0',255);                                  
;----------------------------------------------------------------------
        MOVS      A1, #0                ; [DPU_3_PIPE] |67| 
        STRB      A1, [SP, #12]         ; [DPU_3_PIPE] |67| 
	.dwpsn	file "../esp8266.c",line 71,column 6,is_stmt,isa 1
;----------------------------------------------------------------------
;  71 | for(uart_data_counter = 0; uart_data_counter < 30; uart_data_counter++)
;----------------------------------------------------------------------
        LDR       A2, $C$CON2           ; [DPU_3_PIPE] |71| 
        MOVS      A1, #0                ; [DPU_3_PIPE] |71| 
        STRB      A1, [A2, #0]          ; [DPU_3_PIPE] |71| 
	.dwpsn	file "../esp8266.c",line 71,column 29,is_stmt,isa 1
        LDR       A1, $C$CON2           ; [DPU_3_PIPE] |71| 
        LDRB      A1, [A1, #0]          ; [DPU_3_PIPE] |71| 
        CMP       A1, #30               ; [DPU_3_PIPE] |71| 
        BGE       ||$C$L5||             ; [DPU_3_PIPE] |71| 
        ; BRANCHCC OCCURS {||$C$L5||}    ; [] |71| 
;* --------------------------------------------------------------------------*
;*   BEGIN LOOP ||$C$L3||
;*
;*   Loop source line                : 71
;*   Loop closing brace source line  : 74
;*   Known Minimum Trip Count        : 1
;*   Known Maximum Trip Count        : 4294967295
;*   Known Max Trip Count Factor     : 1
;* --------------------------------------------------------------------------*
||$C$L3||:    
	.dwpsn	file "../esp8266.c",line 73,column 3,is_stmt,isa 1
;----------------------------------------------------------------------
;  73 | uart_data[uart_data_counter] = 0;                                      
;----------------------------------------------------------------------
        LDR       A1, $C$CON2           ; [DPU_3_PIPE] |73| 
        LDR       A3, $C$CON3           ; [DPU_3_PIPE] |73| 
        LDRB      A1, [A1, #0]          ; [DPU_3_PIPE] |73| 
        MOVS      A2, #0                ; [DPU_3_PIPE] |73| 
        STRB      A2, [A3, +A1]         ; [DPU_3_PIPE] |73| 
	.dwpsn	file "../esp8266.c",line 71,column 53,is_stmt,isa 1
        LDR       A2, $C$CON2           ; [DPU_3_PIPE] |71| 
        LDRB      A1, [A2, #0]          ; [DPU_3_PIPE] |71| 
        ADDS      A1, A1, #1            ; [DPU_3_PIPE] |71| 
        STRB      A1, [A2, #0]          ; [DPU_3_PIPE] |71| 
	.dwpsn	file "../esp8266.c",line 71,column 29,is_stmt,isa 1
        LDR       A1, $C$CON2           ; [DPU_3_PIPE] |71| 
        LDRB      A1, [A1, #0]          ; [DPU_3_PIPE] |71| 
        CMP       A1, #30               ; [DPU_3_PIPE] |71| 
        BLT       ||$C$L3||             ; [DPU_3_PIPE] |71| 
        ; BRANCHCC OCCURS {||$C$L3||}    ; [] |71| 
;* --------------------------------------------------------------------------*
	.dwpsn	file "../esp8266.c",line 75,column 2,is_stmt,isa 1
;----------------------------------------------------------------------
;  75 | while(UARTCharsAvail(UART5_BASE))                                      
;----------------------------------------------------------------------
        B         ||$C$L5||             ; [DPU_3_PIPE] |75| 
        ; BRANCH OCCURS {||$C$L5||}      ; [] |75| 
;* --------------------------------------------------------------------------*
||$C$L4||:    
	.dwpsn	file "../esp8266.c",line 77,column 3,is_stmt,isa 1
;----------------------------------------------------------------------
;  77 | dummy = UARTCharGet(UART5_BASE);                                       
;----------------------------------------------------------------------
        LDR       A1, $C$CON5           ; [DPU_3_PIPE] |77| 
$C$DW$52	.dwtag  DW_TAG_TI_branch
	.dwattr $C$DW$52, DW_AT_low_pc(0x00)
	.dwattr $C$DW$52, DW_AT_name("UARTCharGet")
	.dwattr $C$DW$52, DW_AT_TI_call
        BL        UARTCharGet           ; [DPU_3_PIPE] |77| 
        ; CALL OCCURS {UARTCharGet }     ; [] |77| 
        LDR       A2, $C$CON4           ; [DPU_3_PIPE] |77| 
        STRB      A1, [A2, #0]          ; [DPU_3_PIPE] |77| 
;* --------------------------------------------------------------------------*
;*   BEGIN LOOP ||$C$L5||
;* --------------------------------------------------------------------------*
||$C$L5||:    
	.dwpsn	file "../esp8266.c",line 75,column 2,is_stmt,isa 1
        LDR       A1, $C$CON5           ; [DPU_3_PIPE] |75| 
$C$DW$53	.dwtag  DW_TAG_TI_branch
	.dwattr $C$DW$53, DW_AT_low_pc(0x00)
	.dwattr $C$DW$53, DW_AT_name("UARTCharsAvail")
	.dwattr $C$DW$53, DW_AT_TI_call
        BL        UARTCharsAvail        ; [DPU_3_PIPE] |75| 
        ; CALL OCCURS {UARTCharsAvail }  ; [] |75| 
        CMP       A1, #0                ; [DPU_3_PIPE] |75| 
        BNE       ||$C$L4||             ; [DPU_3_PIPE] |75| 
        ; BRANCHCC OCCURS {||$C$L4||}    ; [] |75| 
;* --------------------------------------------------------------------------*
	.dwpsn	file "../esp8266.c",line 79,column 2,is_stmt,isa 1
;----------------------------------------------------------------------
;  79 | uart_data_counter = 0;                                                 
;----------------------------------------------------------------------
        LDR       A2, $C$CON2           ; [DPU_3_PIPE] |79| 
        MOVS      A1, #0                ; [DPU_3_PIPE] |79| 
        STRB      A1, [A2, #0]          ; [DPU_3_PIPE] |79| 
	.dwpsn	file "../esp8266.c",line 80,column 2,is_stmt,isa 1
;----------------------------------------------------------------------
;  80 | uart_send(str);                                                        
;----------------------------------------------------------------------
        LDR       A1, [SP, #0]          ; [DPU_3_PIPE] |80| 
$C$DW$54	.dwtag  DW_TAG_TI_branch
	.dwattr $C$DW$54, DW_AT_low_pc(0x00)
	.dwattr $C$DW$54, DW_AT_name("uart_send")
	.dwattr $C$DW$54, DW_AT_TI_call
        BL        uart_send             ; [DPU_3_PIPE] |80| 
        ; CALL OCCURS {uart_send }       ; [] |80| 
	.dwpsn	file "../esp8266.c",line 82,column 2,is_stmt,isa 1
;----------------------------------------------------------------------
;  82 | while(!result)                                                         
;----------------------------------------------------------------------
        B         ||$C$L9||             ; [DPU_3_PIPE] |82| 
        ; BRANCH OCCURS {||$C$L9||}      ; [] |82| 
;* --------------------------------------------------------------------------*
||$C$L6||:    
	.dwpsn	file "../esp8266.c",line 84,column 3,is_stmt,isa 1
;----------------------------------------------------------------------
;  84 | dummy = UARTCharGetNonBlocking(UART5_BASE);                            
;----------------------------------------------------------------------
        LDR       A1, $C$CON5           ; [DPU_3_PIPE] |84| 
$C$DW$55	.dwtag  DW_TAG_TI_branch
	.dwattr $C$DW$55, DW_AT_low_pc(0x00)
	.dwattr $C$DW$55, DW_AT_name("UARTCharGetNonBlocking")
	.dwattr $C$DW$55, DW_AT_TI_call
        BL        UARTCharGetNonBlocking ; [DPU_3_PIPE] |84| 
        ; CALL OCCURS {UARTCharGetNonBlocking }  ; [] |84| 
        LDR       A2, $C$CON4           ; [DPU_3_PIPE] |84| 
        STRB      A1, [A2, #0]          ; [DPU_3_PIPE] |84| 
	.dwpsn	file "../esp8266.c",line 85,column 3,is_stmt,isa 1
;----------------------------------------------------------------------
;  85 | if((dummy>'!') && (dummy < '}'))                                       
;----------------------------------------------------------------------
        LDR       A1, $C$CON4           ; [DPU_3_PIPE] |85| 
        LDRB      A1, [A1, #0]          ; [DPU_3_PIPE] |85| 
        CMP       A1, #33               ; [DPU_3_PIPE] |85| 
        BLE       ||$C$L8||             ; [DPU_3_PIPE] |85| 
        ; BRANCHCC OCCURS {||$C$L8||}    ; [] |85| 
;* --------------------------------------------------------------------------*
        LDR       A1, $C$CON4           ; [DPU_3_PIPE] |85| 
        LDRB      A1, [A1, #0]          ; [DPU_3_PIPE] |85| 
        CMP       A1, #125              ; [DPU_3_PIPE] |85| 
        BGE       ||$C$L8||             ; [DPU_3_PIPE] |85| 
        ; BRANCHCC OCCURS {||$C$L8||}    ; [] |85| 
;* --------------------------------------------------------------------------*
	.dwpsn	file "../esp8266.c",line 87,column 4,is_stmt,isa 1
;----------------------------------------------------------------------
;  87 | uart_data[uart_data_counter++] = dummy;                                
;----------------------------------------------------------------------
        LDR       A3, $C$CON2           ; [DPU_3_PIPE] |87| 
        LDR       A4, $C$CON4           ; [DPU_3_PIPE] |87| 
        LDRB      A1, [A3, #0]          ; [DPU_3_PIPE] |87| 
        LDR       V1, $C$CON3           ; [DPU_3_PIPE] |87| 
        ADDS      A2, A1, #1            ; [DPU_3_PIPE] |87| 
        STRB      A2, [A3, #0]          ; [DPU_3_PIPE] |87| 
        LDRB      A2, [A4, #0]          ; [DPU_3_PIPE] |87| 
        STRB      A2, [V1, +A1]         ; [DPU_3_PIPE] |87| 
	.dwpsn	file "../esp8266.c",line 88,column 4,is_stmt,isa 1
;----------------------------------------------------------------------
;  88 | if(uart_data_counter == 254)                                           
;----------------------------------------------------------------------
        LDR       A1, $C$CON2           ; [DPU_3_PIPE] |88| 
        LDRB      A1, [A1, #0]          ; [DPU_3_PIPE] |88| 
        CMP       A1, #254              ; [DPU_3_PIPE] |88| 
        BNE       ||$C$L7||             ; [DPU_3_PIPE] |88| 
        ; BRANCHCC OCCURS {||$C$L7||}    ; [] |88| 
;* --------------------------------------------------------------------------*
	.dwpsn	file "../esp8266.c",line 89,column 7,is_stmt,isa 1
;----------------------------------------------------------------------
;  89 | uart_data_counter = 0;                                                 
;----------------------------------------------------------------------
        LDR       A2, $C$CON2           ; [DPU_3_PIPE] |89| 
        MOVS      A1, #0                ; [DPU_3_PIPE] |89| 
        STRB      A1, [A2, #0]          ; [DPU_3_PIPE] |89| 
;* --------------------------------------------------------------------------*
||$C$L7||:    
	.dwpsn	file "../esp8266.c",line 90,column 4,is_stmt,isa 1
;----------------------------------------------------------------------
;  90 | if(strstr((const char*)uart_data, confirmation))                       
;----------------------------------------------------------------------
        LDR       A1, $C$CON3           ; [DPU_3_PIPE] |90| 
        LDR       A2, [SP, #4]          ; [DPU_3_PIPE] |90| 
$C$DW$56	.dwtag  DW_TAG_TI_branch
	.dwattr $C$DW$56, DW_AT_low_pc(0x00)
	.dwattr $C$DW$56, DW_AT_name("strstr")
	.dwattr $C$DW$56, DW_AT_TI_call
        BL        strstr                ; [DPU_3_PIPE] |90| 
        ; CALL OCCURS {strstr }          ; [] |90| 
        CBZ       A1, ||$C$L8||         ; [] 
        ; BRANCHCC OCCURS {||$C$L8||}    ; [] |90| 
;* --------------------------------------------------------------------------*
	.dwpsn	file "../esp8266.c",line 92,column 5,is_stmt,isa 1
;----------------------------------------------------------------------
;  92 | return 1;                                                              
;----------------------------------------------------------------------
        MOVS      A1, #1                ; [DPU_3_PIPE] |92| 
        B         ||$C$L10||            ; [DPU_3_PIPE] |92| 
        ; BRANCH OCCURS {||$C$L10||}     ; [] |92| 
;* --------------------------------------------------------------------------*
||$C$L8||:    
	.dwpsn	file "../esp8266.c",line 96,column 3,is_stmt,isa 1
;----------------------------------------------------------------------
;  96 | timeout++;                                                             
;----------------------------------------------------------------------
        LDR       A1, [SP, #8]          ; [DPU_3_PIPE] |96| 
        ADDS      A1, A1, #1            ; [DPU_3_PIPE] |96| 
        STR       A1, [SP, #8]          ; [DPU_3_PIPE] |96| 
	.dwpsn	file "../esp8266.c",line 97,column 3,is_stmt,isa 1
;----------------------------------------------------------------------
;  97 | if(timeout>10000000)                                                   
;----------------------------------------------------------------------
        LDR       A2, $C$CON6           ; [DPU_3_PIPE] |97| 
        LDR       A1, [SP, #8]          ; [DPU_3_PIPE] |97| 
        CMP       A2, A1                ; [DPU_3_PIPE] |97| 
        BCS       ||$C$L9||             ; [DPU_3_PIPE] |97| 
        ; BRANCHCC OCCURS {||$C$L9||}    ; [] |97| 
;* --------------------------------------------------------------------------*
	.dwpsn	file "../esp8266.c",line 99,column 4,is_stmt,isa 1
;----------------------------------------------------------------------
;  99 | return 0;                                                              
;----------------------------------------------------------------------
        MOVS      A1, #0                ; [DPU_3_PIPE] |99| 
        B         ||$C$L10||            ; [DPU_3_PIPE] |99| 
        ; BRANCH OCCURS {||$C$L10||}     ; [] |99| 
;* --------------------------------------------------------------------------*
;*   BEGIN LOOP ||$C$L9||
;* --------------------------------------------------------------------------*
||$C$L9||:    
	.dwpsn	file "../esp8266.c",line 82,column 8,is_stmt,isa 1
        LDRB      A1, [SP, #12]         ; [DPU_3_PIPE] |82| 
        CMP       A1, #0                ; [DPU_3_PIPE] |82| 
        BEQ       ||$C$L6||             ; [DPU_3_PIPE] |82| 
        ; BRANCHCC OCCURS {||$C$L6||}    ; [] |82| 
;* --------------------------------------------------------------------------*
	.dwpsn	file "../esp8266.c",line 102,column 2,is_stmt,isa 1
;----------------------------------------------------------------------
; 102 | return result;                                                         
;----------------------------------------------------------------------
        LDRB      A1, [SP, #12]         ; [DPU_3_PIPE] |102| 
;* --------------------------------------------------------------------------*
||$C$L10||:    
	.dwpsn	file "../esp8266.c",line 103,column 1,is_stmt,isa 1
        STR       A1, [SP, #0]          ; [DPU_3_PIPE] 
$C$DW$57	.dwtag  DW_TAG_TI_branch
	.dwattr $C$DW$57, DW_AT_low_pc(0x00)
	.dwattr $C$DW$57, DW_AT_TI_return
        POP       {A1, A2, A3, A4, V1, PC} ; [DPU_3_PIPE] 
	.dwcfi	cfa_offset, 0
        ; BRANCH OCCURS                  ; [] 
	.dwattr $C$DW$44, DW_AT_TI_end_file("../esp8266.c")
	.dwattr $C$DW$44, DW_AT_TI_end_line(0x67)
	.dwattr $C$DW$44, DW_AT_TI_end_column(0x01)
	.dwendentry
	.dwendtag $C$DW$44

	.sect	".text:esp8266_reset"
	.clink
	.thumbfunc esp8266_reset
	.thumb
	.global	esp8266_reset

$C$DW$58	.dwtag  DW_TAG_subprogram, DW_AT_name("esp8266_reset")
	.dwattr $C$DW$58, DW_AT_low_pc(esp8266_reset)
	.dwattr $C$DW$58, DW_AT_high_pc(0x00)
	.dwattr $C$DW$58, DW_AT_TI_symbol_name("esp8266_reset")
	.dwattr $C$DW$58, DW_AT_external
	.dwattr $C$DW$58, DW_AT_TI_begin_file("../esp8266.c")
	.dwattr $C$DW$58, DW_AT_TI_begin_line(0x69)
	.dwattr $C$DW$58, DW_AT_TI_begin_column(0x06)
	.dwattr $C$DW$58, DW_AT_decl_file("../esp8266.c")
	.dwattr $C$DW$58, DW_AT_decl_line(0x69)
	.dwattr $C$DW$58, DW_AT_decl_column(0x06)
	.dwattr $C$DW$58, DW_AT_TI_max_frame_size(0x08)
	.dwpsn	file "../esp8266.c",line 106,column 1,is_stmt,address esp8266_reset,isa 1

	.dwfde $C$DW$CIE, esp8266_reset
;----------------------------------------------------------------------
; 105 | void esp8266_reset()                                                   
;----------------------------------------------------------------------

;*****************************************************************************
;* FUNCTION NAME: esp8266_reset                                              *
;*                                                                           *
;*   Regs Modified     : A1,A2,A3,A4,V9,SP,LR,SR,D0,D0_hi,D1,D1_hi,D2,D2_hi, *
;*                           D3,D3_hi,D4,D4_hi,D5,D5_hi,D6,D6_hi,D7,D7_hi,   *
;*                           FPEXC,FPSCR                                     *
;*   Regs Used         : A1,A2,A3,A4,V9,SP,LR,SR,D0,D0_hi,D1,D1_hi,D2,D2_hi, *
;*                           D3,D3_hi,D4,D4_hi,D5,D5_hi,D6,D6_hi,D7,D7_hi,   *
;*                           FPEXC,FPSCR                                     *
;*   Local Frame Size  : 0 Args + 0 Auto + 4 Save = 4 byte                   *
;*****************************************************************************
esp8266_reset:
;* --------------------------------------------------------------------------*
	.dwcfi	cfa_offset, 0
        PUSH      {A4, LR}              ; [DPU_3_PIPE] 
	.dwcfi	cfa_offset, 8
	.dwcfi	save_reg_to_mem, 14, -4
	.dwcfi	save_reg_to_mem, 3, -8
	.dwpsn	file "../esp8266.c",line 107,column 2,is_stmt,isa 1
;----------------------------------------------------------------------
; 107 | uart_send(RESET_ESP8266);                                              
;----------------------------------------------------------------------
        ADR       A1, $C$SL1            ; [DPU_3_PIPE] |107| 
$C$DW$59	.dwtag  DW_TAG_TI_branch
	.dwattr $C$DW$59, DW_AT_low_pc(0x00)
	.dwattr $C$DW$59, DW_AT_name("uart_send")
	.dwattr $C$DW$59, DW_AT_TI_call
        BL        uart_send             ; [DPU_3_PIPE] |107| 
        ; CALL OCCURS {uart_send }       ; [] |107| 
	.dwpsn	file "../esp8266.c",line 108,column 2,is_stmt,isa 1
;----------------------------------------------------------------------
; 108 | SysCtlDelay(SysCtlClockGet());                                         
;----------------------------------------------------------------------
$C$DW$60	.dwtag  DW_TAG_TI_branch
	.dwattr $C$DW$60, DW_AT_low_pc(0x00)
	.dwattr $C$DW$60, DW_AT_name("SysCtlClockGet")
	.dwattr $C$DW$60, DW_AT_TI_call
        BL        SysCtlClockGet        ; [DPU_3_PIPE] |108| 
        ; CALL OCCURS {SysCtlClockGet }  ; [] |108| 
$C$DW$61	.dwtag  DW_TAG_TI_branch
	.dwattr $C$DW$61, DW_AT_low_pc(0x00)
	.dwattr $C$DW$61, DW_AT_name("SysCtlDelay")
	.dwattr $C$DW$61, DW_AT_TI_call
        BL        SysCtlDelay           ; [DPU_3_PIPE] |108| 
        ; CALL OCCURS {SysCtlDelay }     ; [] |108| 
	.dwpsn	file "../esp8266.c",line 109,column 2,is_stmt,isa 1
;----------------------------------------------------------------------
; 109 | SysCtlDelay(SysCtlClockGet());                                         
;----------------------------------------------------------------------
$C$DW$62	.dwtag  DW_TAG_TI_branch
	.dwattr $C$DW$62, DW_AT_low_pc(0x00)
	.dwattr $C$DW$62, DW_AT_name("SysCtlClockGet")
	.dwattr $C$DW$62, DW_AT_TI_call
        BL        SysCtlClockGet        ; [DPU_3_PIPE] |109| 
        ; CALL OCCURS {SysCtlClockGet }  ; [] |109| 
$C$DW$63	.dwtag  DW_TAG_TI_branch
	.dwattr $C$DW$63, DW_AT_low_pc(0x00)
	.dwattr $C$DW$63, DW_AT_name("SysCtlDelay")
	.dwattr $C$DW$63, DW_AT_TI_call
        BL        SysCtlDelay           ; [DPU_3_PIPE] |109| 
        ; CALL OCCURS {SysCtlDelay }     ; [] |109| 
	.dwpsn	file "../esp8266.c",line 110,column 2,is_stmt,isa 1
;----------------------------------------------------------------------
; 110 | uart_send(CONNECT_TO_AP);                                              
;----------------------------------------------------------------------
        ADR       A1, $C$SL2            ; [DPU_3_PIPE] |110| 
$C$DW$64	.dwtag  DW_TAG_TI_branch
	.dwattr $C$DW$64, DW_AT_low_pc(0x00)
	.dwattr $C$DW$64, DW_AT_name("uart_send")
	.dwattr $C$DW$64, DW_AT_TI_call
        BL        uart_send             ; [DPU_3_PIPE] |110| 
        ; CALL OCCURS {uart_send }       ; [] |110| 
	.dwpsn	file "../esp8266.c",line 111,column 1,is_stmt,isa 1
$C$DW$65	.dwtag  DW_TAG_TI_branch
	.dwattr $C$DW$65, DW_AT_low_pc(0x00)
	.dwattr $C$DW$65, DW_AT_TI_return
        POP       {A4, PC}              ; [DPU_3_PIPE] 
	.dwcfi	cfa_offset, 0
        ; BRANCH OCCURS                  ; [] 
	.dwattr $C$DW$58, DW_AT_TI_end_file("../esp8266.c")
	.dwattr $C$DW$58, DW_AT_TI_end_line(0x6f)
	.dwattr $C$DW$58, DW_AT_TI_end_column(0x01)
	.dwendentry
	.dwendtag $C$DW$58

	.sect	".text:send_esp8266"
	.clink
	.thumbfunc send_esp8266
	.thumb
	.global	send_esp8266

$C$DW$66	.dwtag  DW_TAG_subprogram, DW_AT_name("send_esp8266")
	.dwattr $C$DW$66, DW_AT_low_pc(send_esp8266)
	.dwattr $C$DW$66, DW_AT_high_pc(0x00)
	.dwattr $C$DW$66, DW_AT_TI_symbol_name("send_esp8266")
	.dwattr $C$DW$66, DW_AT_external
	.dwattr $C$DW$66, DW_AT_type(*$C$DW$T$25)
	.dwattr $C$DW$66, DW_AT_TI_begin_file("../esp8266.c")
	.dwattr $C$DW$66, DW_AT_TI_begin_line(0x71)
	.dwattr $C$DW$66, DW_AT_TI_begin_column(0x09)
	.dwattr $C$DW$66, DW_AT_decl_file("../esp8266.c")
	.dwattr $C$DW$66, DW_AT_decl_line(0x71)
	.dwattr $C$DW$66, DW_AT_decl_column(0x09)
	.dwattr $C$DW$66, DW_AT_TI_max_frame_size(0x88)
	.dwpsn	file "../esp8266.c",line 120,column 1,is_stmt,address send_esp8266,isa 1

	.dwfde $C$DW$CIE, send_esp8266
$C$DW$67	.dwtag  DW_TAG_formal_parameter, DW_AT_name("humidity_data")
	.dwattr $C$DW$67, DW_AT_TI_symbol_name("humidity_data")
	.dwattr $C$DW$67, DW_AT_type(*$C$DW$T$22)
	.dwattr $C$DW$67, DW_AT_location[DW_OP_reg0]
$C$DW$68	.dwtag  DW_TAG_formal_parameter, DW_AT_name("temperature_data_1")
	.dwattr $C$DW$68, DW_AT_TI_symbol_name("temperature_data_1")
	.dwattr $C$DW$68, DW_AT_type(*$C$DW$T$22)
	.dwattr $C$DW$68, DW_AT_location[DW_OP_reg1]
$C$DW$69	.dwtag  DW_TAG_formal_parameter, DW_AT_name("temperature_data_2")
	.dwattr $C$DW$69, DW_AT_TI_symbol_name("temperature_data_2")
	.dwattr $C$DW$69, DW_AT_type(*$C$DW$T$22)
	.dwattr $C$DW$69, DW_AT_location[DW_OP_reg2]
$C$DW$70	.dwtag  DW_TAG_formal_parameter, DW_AT_name("temperature_data_3")
	.dwattr $C$DW$70, DW_AT_TI_symbol_name("temperature_data_3")
	.dwattr $C$DW$70, DW_AT_type(*$C$DW$T$22)
	.dwattr $C$DW$70, DW_AT_location[DW_OP_reg3]
$C$DW$71	.dwtag  DW_TAG_formal_parameter, DW_AT_name("temperature_data_4")
	.dwattr $C$DW$71, DW_AT_TI_symbol_name("temperature_data_4")
	.dwattr $C$DW$71, DW_AT_type(*$C$DW$T$22)
	.dwattr $C$DW$71, DW_AT_location[DW_OP_breg13 136]
$C$DW$72	.dwtag  DW_TAG_formal_parameter, DW_AT_name("water_relay")
	.dwattr $C$DW$72, DW_AT_TI_symbol_name("water_relay")
	.dwattr $C$DW$72, DW_AT_type(*$C$DW$T$22)
	.dwattr $C$DW$72, DW_AT_location[DW_OP_breg13 140]
$C$DW$73	.dwtag  DW_TAG_formal_parameter, DW_AT_name("fan_relay")
	.dwattr $C$DW$73, DW_AT_TI_symbol_name("fan_relay")
	.dwattr $C$DW$73, DW_AT_type(*$C$DW$T$22)
	.dwattr $C$DW$73, DW_AT_location[DW_OP_breg13 144]
;----------------------------------------------------------------------
; 113 | uint8_t send_esp8266(   uint32_t humidity_data,//field1                
; 114 | uint32_t temperature_data_1, //field2                                  
; 115 | uint32_t temperature_data_2,  //field3                                 
; 116 | uint32_t temperature_data_3, //field4                                  
; 117 | uint32_t temperature_data_4,  //field5                                 
; 118 | uint32_t water_relay, //field6                                         
; 119 | uint32_t fan_relay)//field7                                            
;----------------------------------------------------------------------

;*****************************************************************************
;* FUNCTION NAME: send_esp8266                                               *
;*                                                                           *
;*   Regs Modified     : A1,A2,A3,A4,V4,V9,SP,LR,SR,D0,D0_hi,D1,D1_hi,D2,    *
;*                           D2_hi,D3,D3_hi,D4,D4_hi,D5,D5_hi,D6,D6_hi,D7,   *
;*                           D7_hi,FPEXC,FPSCR                               *
;*   Regs Used         : A1,A2,A3,A4,V4,V9,SP,LR,SR,D0,D0_hi,D1,D1_hi,D2,    *
;*                           D2_hi,D3,D3_hi,D4,D4_hi,D5,D5_hi,D6,D6_hi,D7,   *
;*                           D7_hi,FPEXC,FPSCR                               *
;*   Local Frame Size  : 0 Args + 128 Auto + 8 Save = 136 byte               *
;*****************************************************************************
send_esp8266:
;* --------------------------------------------------------------------------*
	.dwcfi	cfa_offset, 0
        PUSH      {V4, LR}              ; [DPU_3_PIPE] 
	.dwcfi	cfa_offset, 8
	.dwcfi	save_reg_to_mem, 14, -4
	.dwcfi	save_reg_to_mem, 7, -8
        ADD       V4, SP, #8            ; [DPU_3_PIPE] 
        SUB       SP, SP, #128          ; [DPU_3_PIPE] 
	.dwcfi	cfa_offset, 136
$C$DW$74	.dwtag  DW_TAG_variable, DW_AT_name("humidity_data")
	.dwattr $C$DW$74, DW_AT_TI_symbol_name("humidity_data")
	.dwattr $C$DW$74, DW_AT_type(*$C$DW$T$22)
	.dwattr $C$DW$74, DW_AT_location[DW_OP_breg13 0]
$C$DW$75	.dwtag  DW_TAG_variable, DW_AT_name("temperature_data_1")
	.dwattr $C$DW$75, DW_AT_TI_symbol_name("temperature_data_1")
	.dwattr $C$DW$75, DW_AT_type(*$C$DW$T$22)
	.dwattr $C$DW$75, DW_AT_location[DW_OP_breg13 4]
$C$DW$76	.dwtag  DW_TAG_variable, DW_AT_name("temperature_data_2")
	.dwattr $C$DW$76, DW_AT_TI_symbol_name("temperature_data_2")
	.dwattr $C$DW$76, DW_AT_type(*$C$DW$T$22)
	.dwattr $C$DW$76, DW_AT_location[DW_OP_breg13 8]
$C$DW$77	.dwtag  DW_TAG_variable, DW_AT_name("temperature_data_3")
	.dwattr $C$DW$77, DW_AT_TI_symbol_name("temperature_data_3")
	.dwattr $C$DW$77, DW_AT_type(*$C$DW$T$22)
	.dwattr $C$DW$77, DW_AT_location[DW_OP_breg13 12]
$C$DW$78	.dwtag  DW_TAG_variable, DW_AT_name("cmnd")
	.dwattr $C$DW$78, DW_AT_TI_symbol_name("cmnd")
	.dwattr $C$DW$78, DW_AT_type(*$C$DW$T$93)
	.dwattr $C$DW$78, DW_AT_location[DW_OP_breg13 16]
$C$DW$79	.dwtag  DW_TAG_variable, DW_AT_name("buffer")
	.dwattr $C$DW$79, DW_AT_TI_symbol_name("buffer")
	.dwattr $C$DW$79, DW_AT_type(*$C$DW$T$94)
	.dwattr $C$DW$79, DW_AT_location[DW_OP_breg13 120]
$C$DW$80	.dwtag  DW_TAG_variable, DW_AT_name("result")
	.dwattr $C$DW$80, DW_AT_TI_symbol_name("result")
	.dwattr $C$DW$80, DW_AT_type(*$C$DW$T$25)
	.dwattr $C$DW$80, DW_AT_location[DW_OP_breg13 124]
;----------------------------------------------------------------------
; 121 | char cmnd[102];                                                        
;----------------------------------------------------------------------
        STR       A4, [SP, #12]         ; [DPU_3_PIPE] |120| 
        STR       A3, [SP, #8]          ; [DPU_3_PIPE] |120| 
        STR       A2, [SP, #4]          ; [DPU_3_PIPE] |120| 
        STR       A1, [SP, #0]          ; [DPU_3_PIPE] |120| 
	.dwpsn	file "../esp8266.c",line 122,column 16,is_stmt,isa 1
;----------------------------------------------------------------------
; 122 | char buffer[2]={0,0};                                                  
;----------------------------------------------------------------------
        MOVS      A2, #0                ; [DPU_3_PIPE] |122| 
        MOVS      A3, #2                ; [DPU_3_PIPE] |122| 
        ADD       A1, SP, #120          ; [DPU_3_PIPE] |122| 
$C$DW$81	.dwtag  DW_TAG_TI_branch
	.dwattr $C$DW$81, DW_AT_low_pc(0x00)
	.dwattr $C$DW$81, DW_AT_name("memset")
	.dwattr $C$DW$81, DW_AT_TI_call
        BL        memset                ; [DPU_3_PIPE] |122| 
        ; CALL OCCURS {memset }          ; [] |122| 
	.dwpsn	file "../esp8266.c",line 123,column 16,is_stmt,isa 1
;----------------------------------------------------------------------
; 123 | uint8_t result=1;                                                      
; 125 | // result = esp8266_send(CONNECT_TO_THINGSPEAK, CONNECT_TO_THINGSPEAK_C
;     | ONFIRMATION);                                                          
;----------------------------------------------------------------------
        MOVS      A1, #1                ; [DPU_3_PIPE] |123| 
        STRB      A1, [SP, #124]        ; [DPU_3_PIPE] |123| 
	.dwpsn	file "../esp8266.c",line 126,column 5,is_stmt,isa 1
;----------------------------------------------------------------------
; 126 | uart_send(CONNECT_TO_THINGSPEAK);                                      
; 127 | //SysCtlDelay(SysCtlClockGet());                                       
;----------------------------------------------------------------------
        ADR       A1, $C$SL3            ; [DPU_3_PIPE] |126| 
$C$DW$82	.dwtag  DW_TAG_TI_branch
	.dwattr $C$DW$82, DW_AT_low_pc(0x00)
	.dwattr $C$DW$82, DW_AT_name("uart_send")
	.dwattr $C$DW$82, DW_AT_TI_call
        BL        uart_send             ; [DPU_3_PIPE] |126| 
        ; CALL OCCURS {uart_send }       ; [] |126| 
	.dwpsn	file "../esp8266.c",line 129,column 2,is_stmt,isa 1
;----------------------------------------------------------------------
; 129 | SysCtlDelay(SysCtlClockGet()/3);                                       
; 130 | //field1 humidity                                                      
;----------------------------------------------------------------------
$C$DW$83	.dwtag  DW_TAG_TI_branch
	.dwattr $C$DW$83, DW_AT_low_pc(0x00)
	.dwattr $C$DW$83, DW_AT_name("SysCtlClockGet")
	.dwattr $C$DW$83, DW_AT_TI_call
        BL        SysCtlClockGet        ; [DPU_3_PIPE] |129| 
        ; CALL OCCURS {SysCtlClockGet }  ; [] |129| 
        MOVS      A2, #3                ; [DPU_3_PIPE] |129| 
        UDIV      A1, A1, A2            ; [DPU_3_PIPE] |129| 
$C$DW$84	.dwtag  DW_TAG_TI_branch
	.dwattr $C$DW$84, DW_AT_low_pc(0x00)
	.dwattr $C$DW$84, DW_AT_name("SysCtlDelay")
	.dwattr $C$DW$84, DW_AT_TI_call
        BL        SysCtlDelay           ; [DPU_3_PIPE] |129| 
        ; CALL OCCURS {SysCtlDelay }     ; [] |129| 
	.dwpsn	file "../esp8266.c",line 131,column 2,is_stmt,isa 1
;----------------------------------------------------------------------
; 131 | strcpy(cmnd,SEND_DATA);                                                
;----------------------------------------------------------------------
        ADR       A2, $C$SL4            ; [DPU_3_PIPE] |131| 
        ADD       A1, SP, #16           ; [DPU_3_PIPE] |131| 
$C$DW$85	.dwtag  DW_TAG_TI_branch
	.dwattr $C$DW$85, DW_AT_low_pc(0x00)
	.dwattr $C$DW$85, DW_AT_name("strcpy")
	.dwattr $C$DW$85, DW_AT_TI_call
        BL        strcpy                ; [DPU_3_PIPE] |131| 
        ; CALL OCCURS {strcpy }          ; [] |131| 
	.dwpsn	file "../esp8266.c",line 132,column 2,is_stmt,isa 1
;----------------------------------------------------------------------
; 132 | buffer[0] = (char)(humidity_data / 10)+'0';//decimal                   
;----------------------------------------------------------------------
        LDR       A2, [SP, #0]          ; [DPU_3_PIPE] |132| 
        MOVS      A1, #10               ; [DPU_3_PIPE] |132| 
        UDIV      A1, A2, A1            ; [DPU_3_PIPE] |132| 
        UXTB      A1, A1                ; [DPU_3_PIPE] |132| 
        ADDS      A1, A1, #48           ; [DPU_3_PIPE] |132| 
        STRB      A1, [SP, #120]        ; [DPU_3_PIPE] |132| 
	.dwpsn	file "../esp8266.c",line 133,column 2,is_stmt,isa 1
;----------------------------------------------------------------------
; 133 | buffer[1] = (char)(humidity_data % 10)+'0';//unit                      
;----------------------------------------------------------------------
        LDR       A1, [SP, #0]          ; [DPU_3_PIPE] |133| 
        MOVS      A3, #10               ; [DPU_3_PIPE] |133| 
        UDIV      A2, A1, A3            ; [DPU_3_PIPE] |133| 
        MULS      A2, A2, A3            ; [DPU_3_PIPE] |133| 
        SUBS      A1, A1, A2            ; [DPU_3_PIPE] |133| 
        UXTB      A1, A1                ; [DPU_3_PIPE] |133| 
        ADDS      A1, A1, #48           ; [DPU_3_PIPE] |133| 
        STRB      A1, [SP, #121]        ; [DPU_3_PIPE] |133| 
	.dwpsn	file "../esp8266.c",line 134,column 2,is_stmt,isa 1
;----------------------------------------------------------------------
; 134 | strcat(cmnd, buffer);                                                  
; 135 | //field2 temperature 1                                                 
;----------------------------------------------------------------------
        ADD       A1, SP, #16           ; [DPU_3_PIPE] |134| 
        ADD       A2, SP, #120          ; [DPU_3_PIPE] |134| 
$C$DW$86	.dwtag  DW_TAG_TI_branch
	.dwattr $C$DW$86, DW_AT_low_pc(0x00)
	.dwattr $C$DW$86, DW_AT_name("strcat")
	.dwattr $C$DW$86, DW_AT_TI_call
        BL        strcat                ; [DPU_3_PIPE] |134| 
        ; CALL OCCURS {strcat }          ; [] |134| 
	.dwpsn	file "../esp8266.c",line 136,column 2,is_stmt,isa 1
;----------------------------------------------------------------------
; 136 | strcat(cmnd,SEND_DATA_FIELD2);                                         
;----------------------------------------------------------------------
        ADR       A2, $C$SL5            ; [DPU_3_PIPE] |136| 
        ADD       A1, SP, #16           ; [DPU_3_PIPE] |136| 
$C$DW$87	.dwtag  DW_TAG_TI_branch
	.dwattr $C$DW$87, DW_AT_low_pc(0x00)
	.dwattr $C$DW$87, DW_AT_name("strcat")
	.dwattr $C$DW$87, DW_AT_TI_call
        BL        strcat                ; [DPU_3_PIPE] |136| 
        ; CALL OCCURS {strcat }          ; [] |136| 
	.dwpsn	file "../esp8266.c",line 137,column 2,is_stmt,isa 1
;----------------------------------------------------------------------
; 137 | buffer[0] = (char)(temperature_data_1 / 10)+'0';//decimal              
;----------------------------------------------------------------------
        LDR       A2, [SP, #4]          ; [DPU_3_PIPE] |137| 
        MOVS      A1, #10               ; [DPU_3_PIPE] |137| 
        UDIV      A1, A2, A1            ; [DPU_3_PIPE] |137| 
        UXTB      A1, A1                ; [DPU_3_PIPE] |137| 
        ADDS      A1, A1, #48           ; [DPU_3_PIPE] |137| 
        STRB      A1, [SP, #120]        ; [DPU_3_PIPE] |137| 
	.dwpsn	file "../esp8266.c",line 138,column 2,is_stmt,isa 1
;----------------------------------------------------------------------
; 138 | buffer[1] = (char)(temperature_data_1 % 10)+'0';//unit                 
;----------------------------------------------------------------------
        LDR       A1, [SP, #4]          ; [DPU_3_PIPE] |138| 
        MOVS      A3, #10               ; [DPU_3_PIPE] |138| 
        UDIV      A2, A1, A3            ; [DPU_3_PIPE] |138| 
        MULS      A2, A2, A3            ; [DPU_3_PIPE] |138| 
        SUBS      A1, A1, A2            ; [DPU_3_PIPE] |138| 
        UXTB      A1, A1                ; [DPU_3_PIPE] |138| 
        ADDS      A1, A1, #48           ; [DPU_3_PIPE] |138| 
        STRB      A1, [SP, #121]        ; [DPU_3_PIPE] |138| 
	.dwpsn	file "../esp8266.c",line 139,column 2,is_stmt,isa 1
;----------------------------------------------------------------------
; 139 | strcat(cmnd, buffer);                                                  
; 140 | //field3 temperature 2                                                 
;----------------------------------------------------------------------
        ADD       A1, SP, #16           ; [DPU_3_PIPE] |139| 
        ADD       A2, SP, #120          ; [DPU_3_PIPE] |139| 
$C$DW$88	.dwtag  DW_TAG_TI_branch
	.dwattr $C$DW$88, DW_AT_low_pc(0x00)
	.dwattr $C$DW$88, DW_AT_name("strcat")
	.dwattr $C$DW$88, DW_AT_TI_call
        BL        strcat                ; [DPU_3_PIPE] |139| 
        ; CALL OCCURS {strcat }          ; [] |139| 
	.dwpsn	file "../esp8266.c",line 141,column 2,is_stmt,isa 1
;----------------------------------------------------------------------
; 141 | strcat(cmnd,SEND_DATA_FIELD3);                                         
;----------------------------------------------------------------------
        ADR       A2, $C$SL6            ; [DPU_3_PIPE] |141| 
        ADD       A1, SP, #16           ; [DPU_3_PIPE] |141| 
$C$DW$89	.dwtag  DW_TAG_TI_branch
	.dwattr $C$DW$89, DW_AT_low_pc(0x00)
	.dwattr $C$DW$89, DW_AT_name("strcat")
	.dwattr $C$DW$89, DW_AT_TI_call
        BL        strcat                ; [DPU_3_PIPE] |141| 
        ; CALL OCCURS {strcat }          ; [] |141| 
	.dwpsn	file "../esp8266.c",line 142,column 2,is_stmt,isa 1
;----------------------------------------------------------------------
; 142 | buffer[0] = (char)(temperature_data_2 / 10)+'0';//decimal              
;----------------------------------------------------------------------
        LDR       A2, [SP, #8]          ; [DPU_3_PIPE] |142| 
        MOVS      A1, #10               ; [DPU_3_PIPE] |142| 
        UDIV      A1, A2, A1            ; [DPU_3_PIPE] |142| 
        UXTB      A1, A1                ; [DPU_3_PIPE] |142| 
        ADDS      A1, A1, #48           ; [DPU_3_PIPE] |142| 
        STRB      A1, [SP, #120]        ; [DPU_3_PIPE] |142| 
	.dwpsn	file "../esp8266.c",line 143,column 2,is_stmt,isa 1
;----------------------------------------------------------------------
; 143 | buffer[1] = (char)(temperature_data_2 % 10)+'0';//unit                 
;----------------------------------------------------------------------
        LDR       A1, [SP, #8]          ; [DPU_3_PIPE] |143| 
        MOVS      A3, #10               ; [DPU_3_PIPE] |143| 
        UDIV      A2, A1, A3            ; [DPU_3_PIPE] |143| 
        MULS      A2, A2, A3            ; [DPU_3_PIPE] |143| 
        SUBS      A1, A1, A2            ; [DPU_3_PIPE] |143| 
        UXTB      A1, A1                ; [DPU_3_PIPE] |143| 
        ADDS      A1, A1, #48           ; [DPU_3_PIPE] |143| 
        STRB      A1, [SP, #121]        ; [DPU_3_PIPE] |143| 
	.dwpsn	file "../esp8266.c",line 144,column 2,is_stmt,isa 1
;----------------------------------------------------------------------
; 144 | strcat(cmnd, buffer);                                                  
; 145 | //field4 temperature 3                                                 
;----------------------------------------------------------------------
        ADD       A1, SP, #16           ; [DPU_3_PIPE] |144| 
        ADD       A2, SP, #120          ; [DPU_3_PIPE] |144| 
$C$DW$90	.dwtag  DW_TAG_TI_branch
	.dwattr $C$DW$90, DW_AT_low_pc(0x00)
	.dwattr $C$DW$90, DW_AT_name("strcat")
	.dwattr $C$DW$90, DW_AT_TI_call
        BL        strcat                ; [DPU_3_PIPE] |144| 
        ; CALL OCCURS {strcat }          ; [] |144| 
	.dwpsn	file "../esp8266.c",line 146,column 2,is_stmt,isa 1
;----------------------------------------------------------------------
; 146 | strcat(cmnd,SEND_DATA_FIELD4);                                         
;----------------------------------------------------------------------
        ADR       A2, $C$SL7            ; [DPU_3_PIPE] |146| 
        ADD       A1, SP, #16           ; [DPU_3_PIPE] |146| 
$C$DW$91	.dwtag  DW_TAG_TI_branch
	.dwattr $C$DW$91, DW_AT_low_pc(0x00)
	.dwattr $C$DW$91, DW_AT_name("strcat")
	.dwattr $C$DW$91, DW_AT_TI_call
        BL        strcat                ; [DPU_3_PIPE] |146| 
        ; CALL OCCURS {strcat }          ; [] |146| 
;* --------------------------------------------------------------------------*
	.dwpsn	file "../esp8266.c",line 147,column 2,is_stmt,isa 1
;----------------------------------------------------------------------
; 147 | buffer[0] = (char)(temperature_data_3 / 10)+'0';//decimal              
;----------------------------------------------------------------------
        LDR       A2, [SP, #12]         ; [DPU_3_PIPE] |147| 
        MOVS      A1, #10               ; [DPU_3_PIPE] |147| 
        UDIV      A1, A2, A1            ; [DPU_3_PIPE] |147| 
        UXTB      A1, A1                ; [DPU_3_PIPE] |147| 
        ADDS      A1, A1, #48           ; [DPU_3_PIPE] |147| 
        STRB      A1, [SP, #120]        ; [DPU_3_PIPE] |147| 
	.dwpsn	file "../esp8266.c",line 148,column 2,is_stmt,isa 1
;----------------------------------------------------------------------
; 148 | buffer[1] = (char)(temperature_data_3 % 10)+'0';//unit                 
;----------------------------------------------------------------------
        LDR       A1, [SP, #12]         ; [DPU_3_PIPE] |148| 
        MOVS      A3, #10               ; [DPU_3_PIPE] |148| 
        UDIV      A2, A1, A3            ; [DPU_3_PIPE] |148| 
        MULS      A2, A2, A3            ; [DPU_3_PIPE] |148| 
        SUBS      A1, A1, A2            ; [DPU_3_PIPE] |148| 
        UXTB      A1, A1                ; [DPU_3_PIPE] |148| 
        ADDS      A1, A1, #48           ; [DPU_3_PIPE] |148| 
        STRB      A1, [SP, #121]        ; [DPU_3_PIPE] |148| 
	.dwpsn	file "../esp8266.c",line 149,column 2,is_stmt,isa 1
;----------------------------------------------------------------------
; 149 | strcat(cmnd, buffer);                                                  
; 150 | //field5 temperature 4                                                 
;----------------------------------------------------------------------
        ADD       A1, SP, #16           ; [DPU_3_PIPE] |149| 
        ADD       A2, SP, #120          ; [DPU_3_PIPE] |149| 
$C$DW$92	.dwtag  DW_TAG_TI_branch
	.dwattr $C$DW$92, DW_AT_low_pc(0x00)
	.dwattr $C$DW$92, DW_AT_name("strcat")
	.dwattr $C$DW$92, DW_AT_TI_call
        BL        strcat                ; [DPU_3_PIPE] |149| 
        ; CALL OCCURS {strcat }          ; [] |149| 
	.dwpsn	file "../esp8266.c",line 151,column 2,is_stmt,isa 1
;----------------------------------------------------------------------
; 151 | strcat(cmnd,SEND_DATA_FIELD5);                                         
;----------------------------------------------------------------------
        ADD       A1, SP, #16           ; [DPU_3_PIPE] |151| 
        ADR       A2, $C$SL8            ; [DPU_3_PIPE] |151| 
$C$DW$93	.dwtag  DW_TAG_TI_branch
	.dwattr $C$DW$93, DW_AT_low_pc(0x00)
	.dwattr $C$DW$93, DW_AT_name("strcat")
	.dwattr $C$DW$93, DW_AT_TI_call
        BL        strcat                ; [DPU_3_PIPE] |151| 
        ; CALL OCCURS {strcat }          ; [] |151| 
	.dwpsn	file "../esp8266.c",line 152,column 2,is_stmt,isa 1
;----------------------------------------------------------------------
; 152 | buffer[0] = (char)(temperature_data_4 / 10)+'0';//decimal              
;----------------------------------------------------------------------
        LDR       A2, [V4, #0]          ; [DPU_3_PIPE] |152| 
        MOVS      A1, #10               ; [DPU_3_PIPE] |152| 
        UDIV      A1, A2, A1            ; [DPU_3_PIPE] |152| 
        UXTB      A1, A1                ; [DPU_3_PIPE] |152| 
        ADDS      A1, A1, #48           ; [DPU_3_PIPE] |152| 
        STRB      A1, [SP, #120]        ; [DPU_3_PIPE] |152| 
	.dwpsn	file "../esp8266.c",line 153,column 2,is_stmt,isa 1
;----------------------------------------------------------------------
; 153 | buffer[1] = (char)(temperature_data_4 % 10)+'0';//unit                 
;----------------------------------------------------------------------
        LDR       A1, [V4, #0]          ; [DPU_3_PIPE] |153| 
        MOVS      A3, #10               ; [DPU_3_PIPE] |153| 
        UDIV      A2, A1, A3            ; [DPU_3_PIPE] |153| 
        MULS      A2, A2, A3            ; [DPU_3_PIPE] |153| 
        SUBS      A1, A1, A2            ; [DPU_3_PIPE] |153| 
        UXTB      A1, A1                ; [DPU_3_PIPE] |153| 
        ADDS      A1, A1, #48           ; [DPU_3_PIPE] |153| 
        STRB      A1, [SP, #121]        ; [DPU_3_PIPE] |153| 
	.dwpsn	file "../esp8266.c",line 154,column 2,is_stmt,isa 1
;----------------------------------------------------------------------
; 154 | strcat(cmnd, buffer);                                                  
; 155 | //field6 Water relay                                                   
;----------------------------------------------------------------------
        ADD       A1, SP, #16           ; [DPU_3_PIPE] |154| 
        ADD       A2, SP, #120          ; [DPU_3_PIPE] |154| 
$C$DW$94	.dwtag  DW_TAG_TI_branch
	.dwattr $C$DW$94, DW_AT_low_pc(0x00)
	.dwattr $C$DW$94, DW_AT_name("strcat")
	.dwattr $C$DW$94, DW_AT_TI_call
        BL        strcat                ; [DPU_3_PIPE] |154| 
        ; CALL OCCURS {strcat }          ; [] |154| 
	.dwpsn	file "../esp8266.c",line 156,column 2,is_stmt,isa 1
;----------------------------------------------------------------------
; 156 | strcat(cmnd,SEND_DATA_FIELD6);                                         
;----------------------------------------------------------------------
        ADD       A1, SP, #16           ; [DPU_3_PIPE] |156| 
        ADR       A2, $C$SL9            ; [DPU_3_PIPE] |156| 
$C$DW$95	.dwtag  DW_TAG_TI_branch
	.dwattr $C$DW$95, DW_AT_low_pc(0x00)
	.dwattr $C$DW$95, DW_AT_name("strcat")
	.dwattr $C$DW$95, DW_AT_TI_call
        BL        strcat                ; [DPU_3_PIPE] |156| 
        ; CALL OCCURS {strcat }          ; [] |156| 
	.dwpsn	file "../esp8266.c",line 157,column 2,is_stmt,isa 1
;----------------------------------------------------------------------
; 157 | buffer[0] = (char)(water_relay)+'0';//decimal                          
;----------------------------------------------------------------------
        LDRB      A1, [V4, #4]          ; [DPU_3_PIPE] |157| 
        ADDS      A1, A1, #48           ; [DPU_3_PIPE] |157| 
        STRB      A1, [SP, #120]        ; [DPU_3_PIPE] |157| 
	.dwpsn	file "../esp8266.c",line 158,column 2,is_stmt,isa 1
;----------------------------------------------------------------------
; 158 | buffer[1] = '0';//unit                                                 
;----------------------------------------------------------------------
        MOVS      A1, #48               ; [DPU_3_PIPE] |158| 
        STRB      A1, [SP, #121]        ; [DPU_3_PIPE] |158| 
	.dwpsn	file "../esp8266.c",line 159,column 2,is_stmt,isa 1
;----------------------------------------------------------------------
; 159 | strcat(cmnd, buffer);                                                  
; 160 | //field7 Fan relay                                                     
;----------------------------------------------------------------------
        ADD       A2, SP, #120          ; [DPU_3_PIPE] |159| 
        ADD       A1, SP, #16           ; [DPU_3_PIPE] |159| 
$C$DW$96	.dwtag  DW_TAG_TI_branch
	.dwattr $C$DW$96, DW_AT_low_pc(0x00)
	.dwattr $C$DW$96, DW_AT_name("strcat")
	.dwattr $C$DW$96, DW_AT_TI_call
        BL        strcat                ; [DPU_3_PIPE] |159| 
        ; CALL OCCURS {strcat }          ; [] |159| 
	.dwpsn	file "../esp8266.c",line 161,column 2,is_stmt,isa 1
;----------------------------------------------------------------------
; 161 | strcat(cmnd,SEND_DATA_FIELD7);                                         
;----------------------------------------------------------------------
        ADD       A1, SP, #16           ; [DPU_3_PIPE] |161| 
        ADR       A2, $C$SL10           ; [DPU_3_PIPE] |161| 
$C$DW$97	.dwtag  DW_TAG_TI_branch
	.dwattr $C$DW$97, DW_AT_low_pc(0x00)
	.dwattr $C$DW$97, DW_AT_name("strcat")
	.dwattr $C$DW$97, DW_AT_TI_call
        BL        strcat                ; [DPU_3_PIPE] |161| 
        ; CALL OCCURS {strcat }          ; [] |161| 
	.dwpsn	file "../esp8266.c",line 162,column 2,is_stmt,isa 1
;----------------------------------------------------------------------
; 162 | buffer[0] = (char)(fan_relay)+'0';//decimal                            
;----------------------------------------------------------------------
        LDRB      A1, [V4, #8]          ; [DPU_3_PIPE] |162| 
        ADDS      A1, A1, #48           ; [DPU_3_PIPE] |162| 
        STRB      A1, [SP, #120]        ; [DPU_3_PIPE] |162| 
	.dwpsn	file "../esp8266.c",line 163,column 2,is_stmt,isa 1
;----------------------------------------------------------------------
; 163 | buffer[1] = '0';//unit                                                 
;----------------------------------------------------------------------
        MOVS      A1, #48               ; [DPU_3_PIPE] |163| 
        STRB      A1, [SP, #121]        ; [DPU_3_PIPE] |163| 
	.dwpsn	file "../esp8266.c",line 164,column 2,is_stmt,isa 1
;----------------------------------------------------------------------
; 164 | strcat(cmnd, buffer);                                                  
; 167 | //uart_send(SEND_CMD_LENGTH);                                          
;----------------------------------------------------------------------
        ADD       A2, SP, #120          ; [DPU_3_PIPE] |164| 
        ADD       A1, SP, #16           ; [DPU_3_PIPE] |164| 
$C$DW$98	.dwtag  DW_TAG_TI_branch
	.dwattr $C$DW$98, DW_AT_low_pc(0x00)
	.dwattr $C$DW$98, DW_AT_name("strcat")
	.dwattr $C$DW$98, DW_AT_TI_call
        BL        strcat                ; [DPU_3_PIPE] |164| 
        ; CALL OCCURS {strcat }          ; [] |164| 
	.dwpsn	file "../esp8266.c",line 168,column 2,is_stmt,isa 1
;----------------------------------------------------------------------
; 168 | result = esp8266_send(SEND_CMD_LENGTH, CMD_LENGTH_CONFIRMATION);       
;----------------------------------------------------------------------
        ADR       A1, $C$SL11           ; [DPU_3_PIPE] |168| 
        ADR       A2, $C$SL12           ; [DPU_3_PIPE] |168| 
$C$DW$99	.dwtag  DW_TAG_TI_branch
	.dwattr $C$DW$99, DW_AT_low_pc(0x00)
	.dwattr $C$DW$99, DW_AT_name("esp8266_send")
	.dwattr $C$DW$99, DW_AT_TI_call
        BL        esp8266_send          ; [DPU_3_PIPE] |168| 
        ; CALL OCCURS {esp8266_send }    ; [] |168| 
        STRB      A1, [SP, #124]        ; [DPU_3_PIPE] |168| 
	.dwpsn	file "../esp8266.c",line 169,column 2,is_stmt,isa 1
;----------------------------------------------------------------------
; 169 | if(!result)                                                            
;----------------------------------------------------------------------
        LDRB      A1, [SP, #124]        ; [DPU_3_PIPE] |169| 
        CBNZ      A1, ||$C$L11||        ; [] 
        ; BRANCHCC OCCURS {||$C$L11||}   ; [] |169| 
;* --------------------------------------------------------------------------*
	.dwpsn	file "../esp8266.c",line 171,column 6,is_stmt,isa 1
;----------------------------------------------------------------------
; 171 | esp8266_reset();                                                       
;----------------------------------------------------------------------
$C$DW$100	.dwtag  DW_TAG_TI_branch
	.dwattr $C$DW$100, DW_AT_low_pc(0x00)
	.dwattr $C$DW$100, DW_AT_name("esp8266_reset")
	.dwattr $C$DW$100, DW_AT_TI_call
        BL        esp8266_reset         ; [DPU_3_PIPE] |171| 
        ; CALL OCCURS {esp8266_reset }   ; [] |171| 
	.dwpsn	file "../esp8266.c",line 172,column 5,is_stmt,isa 1
;----------------------------------------------------------------------
; 172 | return 0;                                                              
;----------------------------------------------------------------------
        MOVS      A1, #0                ; [DPU_3_PIPE] |172| 
        B         ||$C$L12||            ; [DPU_3_PIPE] |172| 
        ; BRANCH OCCURS {||$C$L12||}     ; [] |172| 
;* --------------------------------------------------------------------------*
||$C$L11||:    
	.dwpsn	file "../esp8266.c",line 174,column 2,is_stmt,isa 1
;----------------------------------------------------------------------
; 174 | SysCtlDelay(SysCtlClockGet()/3);                                       
;----------------------------------------------------------------------
$C$DW$101	.dwtag  DW_TAG_TI_branch
	.dwattr $C$DW$101, DW_AT_low_pc(0x00)
	.dwattr $C$DW$101, DW_AT_name("SysCtlClockGet")
	.dwattr $C$DW$101, DW_AT_TI_call
        BL        SysCtlClockGet        ; [DPU_3_PIPE] |174| 
        ; CALL OCCURS {SysCtlClockGet }  ; [] |174| 
        MOVS      A2, #3                ; [DPU_3_PIPE] |174| 
        UDIV      A1, A1, A2            ; [DPU_3_PIPE] |174| 
$C$DW$102	.dwtag  DW_TAG_TI_branch
	.dwattr $C$DW$102, DW_AT_low_pc(0x00)
	.dwattr $C$DW$102, DW_AT_name("SysCtlDelay")
	.dwattr $C$DW$102, DW_AT_TI_call
        BL        SysCtlDelay           ; [DPU_3_PIPE] |174| 
        ; CALL OCCURS {SysCtlDelay }     ; [] |174| 
	.dwpsn	file "../esp8266.c",line 176,column 2,is_stmt,isa 1
;----------------------------------------------------------------------
; 176 | uart_send(cmnd);                                                       
;----------------------------------------------------------------------
        ADD       A1, SP, #16           ; [DPU_3_PIPE] |176| 
$C$DW$103	.dwtag  DW_TAG_TI_branch
	.dwattr $C$DW$103, DW_AT_low_pc(0x00)
	.dwattr $C$DW$103, DW_AT_name("uart_send")
	.dwattr $C$DW$103, DW_AT_TI_call
        BL        uart_send             ; [DPU_3_PIPE] |176| 
        ; CALL OCCURS {uart_send }       ; [] |176| 
	.dwpsn	file "../esp8266.c",line 177,column 2,is_stmt,isa 1
;----------------------------------------------------------------------
; 177 | return 1;                                                              
;----------------------------------------------------------------------
        MOVS      A1, #1                ; [DPU_3_PIPE] |177| 
;* --------------------------------------------------------------------------*
||$C$L12||:    
	.dwpsn	file "../esp8266.c",line 178,column 1,is_stmt,isa 1
        ADD       SP, SP, #128          ; [DPU_3_PIPE] 
	.dwcfi	cfa_offset, 8
$C$DW$104	.dwtag  DW_TAG_TI_branch
	.dwattr $C$DW$104, DW_AT_low_pc(0x00)
	.dwattr $C$DW$104, DW_AT_TI_return
        POP       {V4, PC}              ; [DPU_3_PIPE] 
	.dwcfi	cfa_offset, 0
        ; BRANCH OCCURS                  ; [] 
	.dwattr $C$DW$66, DW_AT_TI_end_file("../esp8266.c")
	.dwattr $C$DW$66, DW_AT_TI_end_line(0xb2)
	.dwattr $C$DW$66, DW_AT_TI_end_column(0x01)
	.dwendentry
	.dwendtag $C$DW$66

	.sect	".text:list_ap"
	.clink
	.thumbfunc list_ap
	.thumb
	.global	list_ap

$C$DW$105	.dwtag  DW_TAG_subprogram, DW_AT_name("list_ap")
	.dwattr $C$DW$105, DW_AT_low_pc(list_ap)
	.dwattr $C$DW$105, DW_AT_high_pc(0x00)
	.dwattr $C$DW$105, DW_AT_TI_symbol_name("list_ap")
	.dwattr $C$DW$105, DW_AT_external
	.dwattr $C$DW$105, DW_AT_TI_begin_file("../esp8266.c")
	.dwattr $C$DW$105, DW_AT_TI_begin_line(0xb4)
	.dwattr $C$DW$105, DW_AT_TI_begin_column(0x06)
	.dwattr $C$DW$105, DW_AT_decl_file("../esp8266.c")
	.dwattr $C$DW$105, DW_AT_decl_line(0xb4)
	.dwattr $C$DW$105, DW_AT_decl_column(0x06)
	.dwattr $C$DW$105, DW_AT_TI_max_frame_size(0x00)
	.dwpsn	file "../esp8266.c",line 181,column 1,is_stmt,address list_ap,isa 1

	.dwfde $C$DW$CIE, list_ap
;----------------------------------------------------------------------
; 180 | void list_ap()                                                         
; 182 | //uart_send(LIST_AP);                                                  
; 183 | //esp8266_send(LIST_AP,LIST_AP_CONFIRMATION);                          
;----------------------------------------------------------------------

;*****************************************************************************
;* FUNCTION NAME: list_ap                                                    *
;*                                                                           *
;*   Regs Modified     :                                                     *
;*   Regs Used         : LR                                                  *
;*   Local Frame Size  : 0 Args + 0 Auto + 0 Save = 0 byte                   *
;*****************************************************************************
list_ap:
;* --------------------------------------------------------------------------*
	.dwcfi	cfa_offset, 0
	.dwpsn	file "../esp8266.c",line 184,column 1,is_stmt,isa 1
$C$DW$106	.dwtag  DW_TAG_TI_branch
	.dwattr $C$DW$106, DW_AT_low_pc(0x00)
	.dwattr $C$DW$106, DW_AT_TI_return
        BX        LR                    ; [DPU_3_PIPE] 
        ; BRANCH OCCURS                  ; [] 
	.dwattr $C$DW$105, DW_AT_TI_end_file("../esp8266.c")
	.dwattr $C$DW$105, DW_AT_TI_end_line(0xb8)
	.dwattr $C$DW$105, DW_AT_TI_end_column(0x01)
	.dwendentry
	.dwendtag $C$DW$105

	.sect	".text:init_esp8266"
	.clink
	.thumbfunc init_esp8266
	.thumb
	.global	init_esp8266

$C$DW$107	.dwtag  DW_TAG_subprogram, DW_AT_name("init_esp8266")
	.dwattr $C$DW$107, DW_AT_low_pc(init_esp8266)
	.dwattr $C$DW$107, DW_AT_high_pc(0x00)
	.dwattr $C$DW$107, DW_AT_TI_symbol_name("init_esp8266")
	.dwattr $C$DW$107, DW_AT_external
	.dwattr $C$DW$107, DW_AT_type(*$C$DW$T$25)
	.dwattr $C$DW$107, DW_AT_TI_begin_file("../esp8266.c")
	.dwattr $C$DW$107, DW_AT_TI_begin_line(0xba)
	.dwattr $C$DW$107, DW_AT_TI_begin_column(0x09)
	.dwattr $C$DW$107, DW_AT_decl_file("../esp8266.c")
	.dwattr $C$DW$107, DW_AT_decl_line(0xba)
	.dwattr $C$DW$107, DW_AT_decl_column(0x09)
	.dwattr $C$DW$107, DW_AT_TI_max_frame_size(0x08)
	.dwpsn	file "../esp8266.c",line 187,column 1,is_stmt,address init_esp8266,isa 1

	.dwfde $C$DW$CIE, init_esp8266
;----------------------------------------------------------------------
; 186 | uint8_t init_esp8266()                                                 
;----------------------------------------------------------------------

;*****************************************************************************
;* FUNCTION NAME: init_esp8266                                               *
;*                                                                           *
;*   Regs Modified     : A1,A2,A3,A4,V9,SP,LR,SR,D0,D0_hi,D1,D1_hi,D2,D2_hi, *
;*                           D3,D3_hi,D4,D4_hi,D5,D5_hi,D6,D6_hi,D7,D7_hi,   *
;*                           FPEXC,FPSCR                                     *
;*   Regs Used         : A1,A2,A3,A4,V9,SP,LR,SR,D0,D0_hi,D1,D1_hi,D2,D2_hi, *
;*                           D3,D3_hi,D4,D4_hi,D5,D5_hi,D6,D6_hi,D7,D7_hi,   *
;*                           FPEXC,FPSCR                                     *
;*   Local Frame Size  : 0 Args + 4 Auto + 4 Save = 8 byte                   *
;*****************************************************************************
init_esp8266:
;* --------------------------------------------------------------------------*
	.dwcfi	cfa_offset, 0
        PUSH      {A4, LR}              ; [DPU_3_PIPE] 
	.dwcfi	cfa_offset, 8
	.dwcfi	save_reg_to_mem, 14, -4
	.dwcfi	save_reg_to_mem, 3, -8
$C$DW$108	.dwtag  DW_TAG_variable, DW_AT_name("result")
	.dwattr $C$DW$108, DW_AT_TI_symbol_name("result")
	.dwattr $C$DW$108, DW_AT_type(*$C$DW$T$10)
	.dwattr $C$DW$108, DW_AT_location[DW_OP_breg13 0]
	.dwpsn	file "../esp8266.c",line 188,column 12,is_stmt,isa 1
;----------------------------------------------------------------------
; 188 | int result=1;                                                          
;----------------------------------------------------------------------
        MOVS      A1, #1                ; [DPU_3_PIPE] |188| 
        STR       A1, [SP, #0]          ; [DPU_3_PIPE] |188| 
	.dwpsn	file "../esp8266.c",line 189,column 5,is_stmt,isa 1
;----------------------------------------------------------------------
; 189 | SysCtlPeripheralEnable(SYSCTL_PERIPH_UART5);                           
;----------------------------------------------------------------------
        LDR       A1, $C$CON7           ; [DPU_3_PIPE] |189| 
$C$DW$109	.dwtag  DW_TAG_TI_branch
	.dwattr $C$DW$109, DW_AT_low_pc(0x00)
	.dwattr $C$DW$109, DW_AT_name("SysCtlPeripheralEnable")
	.dwattr $C$DW$109, DW_AT_TI_call
        BL        SysCtlPeripheralEnable ; [DPU_3_PIPE] |189| 
        ; CALL OCCURS {SysCtlPeripheralEnable }  ; [] |189| 
	.dwpsn	file "../esp8266.c",line 190,column 5,is_stmt,isa 1
;----------------------------------------------------------------------
; 190 | SysCtlPeripheralEnable(SYSCTL_PERIPH_GPIOE);                           
;----------------------------------------------------------------------
        LDR       A1, $C$CON8           ; [DPU_3_PIPE] |190| 
$C$DW$110	.dwtag  DW_TAG_TI_branch
	.dwattr $C$DW$110, DW_AT_low_pc(0x00)
	.dwattr $C$DW$110, DW_AT_name("SysCtlPeripheralEnable")
	.dwattr $C$DW$110, DW_AT_TI_call
        BL        SysCtlPeripheralEnable ; [DPU_3_PIPE] |190| 
        ; CALL OCCURS {SysCtlPeripheralEnable }  ; [] |190| 
	.dwpsn	file "../esp8266.c",line 191,column 5,is_stmt,isa 1
;----------------------------------------------------------------------
; 191 | GPIOPinConfigure(GPIO_PE4_U5RX);                                       
;----------------------------------------------------------------------
        LDR       A1, $C$CON9           ; [DPU_3_PIPE] |191| 
$C$DW$111	.dwtag  DW_TAG_TI_branch
	.dwattr $C$DW$111, DW_AT_low_pc(0x00)
	.dwattr $C$DW$111, DW_AT_name("GPIOPinConfigure")
	.dwattr $C$DW$111, DW_AT_TI_call
        BL        GPIOPinConfigure      ; [DPU_3_PIPE] |191| 
        ; CALL OCCURS {GPIOPinConfigure }  ; [] |191| 
	.dwpsn	file "../esp8266.c",line 192,column 5,is_stmt,isa 1
;----------------------------------------------------------------------
; 192 | GPIOPinConfigure(GPIO_PE5_U5TX);                                       
;----------------------------------------------------------------------
        LDR       A1, $C$CON10          ; [DPU_3_PIPE] |192| 
$C$DW$112	.dwtag  DW_TAG_TI_branch
	.dwattr $C$DW$112, DW_AT_low_pc(0x00)
	.dwattr $C$DW$112, DW_AT_name("GPIOPinConfigure")
	.dwattr $C$DW$112, DW_AT_TI_call
        BL        GPIOPinConfigure      ; [DPU_3_PIPE] |192| 
        ; CALL OCCURS {GPIOPinConfigure }  ; [] |192| 
	.dwpsn	file "../esp8266.c",line 193,column 5,is_stmt,isa 1
;----------------------------------------------------------------------
; 193 | GPIOPinTypeUART(GPIO_PORTE_BASE, GPIO_PIN_4 | GPIO_PIN_5);             
;----------------------------------------------------------------------
        LDR       A1, $C$CON11          ; [DPU_3_PIPE] |193| 
        MOVS      A2, #48               ; [DPU_3_PIPE] |193| 
$C$DW$113	.dwtag  DW_TAG_TI_branch
	.dwattr $C$DW$113, DW_AT_low_pc(0x00)
	.dwattr $C$DW$113, DW_AT_name("GPIOPinTypeUART")
	.dwattr $C$DW$113, DW_AT_TI_call
        BL        GPIOPinTypeUART       ; [DPU_3_PIPE] |193| 
        ; CALL OCCURS {GPIOPinTypeUART }  ; [] |193| 
	.dwpsn	file "../esp8266.c",line 194,column 5,is_stmt,isa 1
;----------------------------------------------------------------------
; 194 | UARTConfigSetExpClk(UART5_BASE, SysCtlClockGet(), 9600,                
; 195 |                         (UART_CONFIG_WLEN_8 | UART_CONFIG_STOP_ONE |   
; 196 |                          UART_CONFIG_PAR_NONE));                       
; 198 | // IntEnable(INT_UART5);                                               
; 199 | //    UARTIntEnable(UART5_BASE, UART_INT_OE | UART_INT_BE | UART_INT_PE
;     |  |                                                                     
; 200 |        //           UART_INT_FE | UART_INT_RT /*|   UART_INT_TX*/ | UAR
;     | T_INT_RX);                                                             
;----------------------------------------------------------------------
$C$DW$114	.dwtag  DW_TAG_TI_branch
	.dwattr $C$DW$114, DW_AT_low_pc(0x00)
	.dwattr $C$DW$114, DW_AT_name("SysCtlClockGet")
	.dwattr $C$DW$114, DW_AT_TI_call
        BL        SysCtlClockGet        ; [DPU_3_PIPE] |194| 
        ; CALL OCCURS {SysCtlClockGet }  ; [] |194| 
        MOV       A2, A1                ; [DPU_3_PIPE] |194| 
        LDR       A1, $C$CON12          ; [DPU_3_PIPE] |194| 
        MOV       A3, #9600             ; [DPU_3_PIPE] |194| 
        MOVS      A4, #96               ; [DPU_3_PIPE] |194| 
$C$DW$115	.dwtag  DW_TAG_TI_branch
	.dwattr $C$DW$115, DW_AT_low_pc(0x00)
	.dwattr $C$DW$115, DW_AT_name("UARTConfigSetExpClk")
	.dwattr $C$DW$115, DW_AT_TI_call
        BL        UARTConfigSetExpClk   ; [DPU_3_PIPE] |194| 
        ; CALL OCCURS {UARTConfigSetExpClk }  ; [] |194| 
	.dwpsn	file "../esp8266.c",line 202,column 5,is_stmt,isa 1
;----------------------------------------------------------------------
; 202 | uart_send(CLIENT_MODE_CMD);                                            
;----------------------------------------------------------------------
        ADR       A1, $C$SL13           ; [DPU_3_PIPE] |202| 
$C$DW$116	.dwtag  DW_TAG_TI_branch
	.dwattr $C$DW$116, DW_AT_low_pc(0x00)
	.dwattr $C$DW$116, DW_AT_name("uart_send")
	.dwattr $C$DW$116, DW_AT_TI_call
        BL        uart_send             ; [DPU_3_PIPE] |202| 
        ; CALL OCCURS {uart_send }       ; [] |202| 
	.dwpsn	file "../esp8266.c",line 204,column 2,is_stmt,isa 1
;----------------------------------------------------------------------
; 204 | SysCtlDelay(SysCtlClockGet()/3);                                       
;----------------------------------------------------------------------
$C$DW$117	.dwtag  DW_TAG_TI_branch
	.dwattr $C$DW$117, DW_AT_low_pc(0x00)
	.dwattr $C$DW$117, DW_AT_name("SysCtlClockGet")
	.dwattr $C$DW$117, DW_AT_TI_call
        BL        SysCtlClockGet        ; [DPU_3_PIPE] |204| 
        ; CALL OCCURS {SysCtlClockGet }  ; [] |204| 
        MOVS      A2, #3                ; [DPU_3_PIPE] |204| 
        UDIV      A1, A1, A2            ; [DPU_3_PIPE] |204| 
$C$DW$118	.dwtag  DW_TAG_TI_branch
	.dwattr $C$DW$118, DW_AT_low_pc(0x00)
	.dwattr $C$DW$118, DW_AT_name("SysCtlDelay")
	.dwattr $C$DW$118, DW_AT_TI_call
        BL        SysCtlDelay           ; [DPU_3_PIPE] |204| 
        ; CALL OCCURS {SysCtlDelay }     ; [] |204| 
	.dwpsn	file "../esp8266.c",line 205,column 2,is_stmt,isa 1
;----------------------------------------------------------------------
; 205 | uart_send(CONNECT_TO_AP);                                              
;----------------------------------------------------------------------
        ADR       A1, $C$SL14           ; [DPU_3_PIPE] |205| 
$C$DW$119	.dwtag  DW_TAG_TI_branch
	.dwattr $C$DW$119, DW_AT_low_pc(0x00)
	.dwattr $C$DW$119, DW_AT_name("uart_send")
	.dwattr $C$DW$119, DW_AT_TI_call
        BL        uart_send             ; [DPU_3_PIPE] |205| 
        ; CALL OCCURS {uart_send }       ; [] |205| 
;* --------------------------------------------------------------------------*
	.dwpsn	file "../esp8266.c",line 206,column 2,is_stmt,isa 1
;----------------------------------------------------------------------
; 206 | SysCtlDelay(SysCtlClockGet());                                         
;----------------------------------------------------------------------
$C$DW$120	.dwtag  DW_TAG_TI_branch
	.dwattr $C$DW$120, DW_AT_low_pc(0x00)
	.dwattr $C$DW$120, DW_AT_name("SysCtlClockGet")
	.dwattr $C$DW$120, DW_AT_TI_call
        BL        SysCtlClockGet        ; [DPU_3_PIPE] |206| 
        ; CALL OCCURS {SysCtlClockGet }  ; [] |206| 
$C$DW$121	.dwtag  DW_TAG_TI_branch
	.dwattr $C$DW$121, DW_AT_low_pc(0x00)
	.dwattr $C$DW$121, DW_AT_name("SysCtlDelay")
	.dwattr $C$DW$121, DW_AT_TI_call
        BL        SysCtlDelay           ; [DPU_3_PIPE] |206| 
        ; CALL OCCURS {SysCtlDelay }     ; [] |206| 
	.dwpsn	file "../esp8266.c",line 207,column 2,is_stmt,isa 1
;----------------------------------------------------------------------
; 207 | return result;                                                         
;----------------------------------------------------------------------
        LDRB      A1, [SP, #0]          ; [DPU_3_PIPE] |207| 
	.dwpsn	file "../esp8266.c",line 208,column 1,is_stmt,isa 1
$C$DW$122	.dwtag  DW_TAG_TI_branch
	.dwattr $C$DW$122, DW_AT_low_pc(0x00)
	.dwattr $C$DW$122, DW_AT_TI_return
        POP       {A4, PC}              ; [DPU_3_PIPE] 
	.dwcfi	cfa_offset, 0
        ; BRANCH OCCURS                  ; [] 
	.dwattr $C$DW$107, DW_AT_TI_end_file("../esp8266.c")
	.dwattr $C$DW$107, DW_AT_TI_end_line(0xd0)
	.dwattr $C$DW$107, DW_AT_TI_end_column(0x01)
	.dwendentry
	.dwendtag $C$DW$107

	.sect	".text:esp8266_test"
	.clink
	.thumbfunc esp8266_test
	.thumb
	.global	esp8266_test

$C$DW$123	.dwtag  DW_TAG_subprogram, DW_AT_name("esp8266_test")
	.dwattr $C$DW$123, DW_AT_low_pc(esp8266_test)
	.dwattr $C$DW$123, DW_AT_high_pc(0x00)
	.dwattr $C$DW$123, DW_AT_TI_symbol_name("esp8266_test")
	.dwattr $C$DW$123, DW_AT_external
	.dwattr $C$DW$123, DW_AT_TI_begin_file("../esp8266.c")
	.dwattr $C$DW$123, DW_AT_TI_begin_line(0xd2)
	.dwattr $C$DW$123, DW_AT_TI_begin_column(0x06)
	.dwattr $C$DW$123, DW_AT_decl_file("../esp8266.c")
	.dwattr $C$DW$123, DW_AT_decl_line(0xd2)
	.dwattr $C$DW$123, DW_AT_decl_column(0x06)
	.dwattr $C$DW$123, DW_AT_TI_max_frame_size(0x08)
	.dwpsn	file "../esp8266.c",line 211,column 1,is_stmt,address esp8266_test,isa 1

	.dwfde $C$DW$CIE, esp8266_test
;----------------------------------------------------------------------
; 210 | void esp8266_test()                                                    
;----------------------------------------------------------------------

;*****************************************************************************
;* FUNCTION NAME: esp8266_test                                               *
;*                                                                           *
;*   Regs Modified     : A1,A2,A3,A4,V9,SP,LR,SR,D0,D0_hi,D1,D1_hi,D2,D2_hi, *
;*                           D3,D3_hi,D4,D4_hi,D5,D5_hi,D6,D6_hi,D7,D7_hi,   *
;*                           FPEXC,FPSCR                                     *
;*   Regs Used         : A1,A2,A3,A4,V9,SP,LR,SR,D0,D0_hi,D1,D1_hi,D2,D2_hi, *
;*                           D3,D3_hi,D4,D4_hi,D5,D5_hi,D6,D6_hi,D7,D7_hi,   *
;*                           FPEXC,FPSCR                                     *
;*   Local Frame Size  : 0 Args + 4 Auto + 4 Save = 8 byte                   *
;*****************************************************************************
esp8266_test:
;* --------------------------------------------------------------------------*
	.dwcfi	cfa_offset, 0
        PUSH      {A4, LR}              ; [DPU_3_PIPE] 
	.dwcfi	cfa_offset, 8
	.dwcfi	save_reg_to_mem, 14, -4
	.dwcfi	save_reg_to_mem, 3, -8
$C$DW$124	.dwtag  DW_TAG_variable, DW_AT_name("result")
	.dwattr $C$DW$124, DW_AT_TI_symbol_name("result")
	.dwattr $C$DW$124, DW_AT_type(*$C$DW$T$25)
	.dwattr $C$DW$124, DW_AT_location[DW_OP_breg13 0]
	.dwpsn	file "../esp8266.c",line 212,column 17,is_stmt,isa 1
;----------------------------------------------------------------------
; 212 | uint8_t result = 1;                                                    
;----------------------------------------------------------------------
        MOVS      A1, #1                ; [DPU_3_PIPE] |212| 
        STRB      A1, [SP, #0]          ; [DPU_3_PIPE] |212| 
	.dwpsn	file "../esp8266.c",line 213,column 2,is_stmt,isa 1
;----------------------------------------------------------------------
; 213 | SysCtlDelay(SysCtlClockGet());                                         
; 214 | //  result = esp8266_send(CONNECT_TO_THINGSPEAK, CONNECT_TO_THINGSPEAK_
;     | CONFIRMATION);                                                         
;----------------------------------------------------------------------
$C$DW$125	.dwtag  DW_TAG_TI_branch
	.dwattr $C$DW$125, DW_AT_low_pc(0x00)
	.dwattr $C$DW$125, DW_AT_name("SysCtlClockGet")
	.dwattr $C$DW$125, DW_AT_TI_call
        BL        SysCtlClockGet        ; [DPU_3_PIPE] |213| 
        ; CALL OCCURS {SysCtlClockGet }  ; [] |213| 
$C$DW$126	.dwtag  DW_TAG_TI_branch
	.dwattr $C$DW$126, DW_AT_low_pc(0x00)
	.dwattr $C$DW$126, DW_AT_name("SysCtlDelay")
	.dwattr $C$DW$126, DW_AT_TI_call
        BL        SysCtlDelay           ; [DPU_3_PIPE] |213| 
        ; CALL OCCURS {SysCtlDelay }     ; [] |213| 
	.dwpsn	file "../esp8266.c",line 215,column 5,is_stmt,isa 1
;----------------------------------------------------------------------
; 215 | SysCtlDelay(SysCtlClockGet());                                         
; 216 |     //uart_send(CONNECT_TO_THINGSPEAK);                                
;----------------------------------------------------------------------
$C$DW$127	.dwtag  DW_TAG_TI_branch
	.dwattr $C$DW$127, DW_AT_low_pc(0x00)
	.dwattr $C$DW$127, DW_AT_name("SysCtlClockGet")
	.dwattr $C$DW$127, DW_AT_TI_call
        BL        SysCtlClockGet        ; [DPU_3_PIPE] |215| 
        ; CALL OCCURS {SysCtlClockGet }  ; [] |215| 
$C$DW$128	.dwtag  DW_TAG_TI_branch
	.dwattr $C$DW$128, DW_AT_low_pc(0x00)
	.dwattr $C$DW$128, DW_AT_name("SysCtlDelay")
	.dwattr $C$DW$128, DW_AT_TI_call
        BL        SysCtlDelay           ; [DPU_3_PIPE] |215| 
        ; CALL OCCURS {SysCtlDelay }     ; [] |215| 
	.dwpsn	file "../esp8266.c",line 217,column 5,is_stmt,isa 1
;----------------------------------------------------------------------
; 217 | if(!result)                                                            
;----------------------------------------------------------------------
        LDRB      A1, [SP, #0]          ; [DPU_3_PIPE] |217| 
        CBNZ      A1, ||$C$L13||        ; [] 
        ; BRANCHCC OCCURS {||$C$L13||}   ; [] |217| 
;* --------------------------------------------------------------------------*
	.dwpsn	file "../esp8266.c",line 219,column 9,is_stmt,isa 1
;----------------------------------------------------------------------
; 219 | esp8266_reset();                                                       
;----------------------------------------------------------------------
$C$DW$129	.dwtag  DW_TAG_TI_branch
	.dwattr $C$DW$129, DW_AT_low_pc(0x00)
	.dwattr $C$DW$129, DW_AT_name("esp8266_reset")
	.dwattr $C$DW$129, DW_AT_TI_call
        BL        esp8266_reset         ; [DPU_3_PIPE] |219| 
        ; CALL OCCURS {esp8266_reset }   ; [] |219| 
	.dwpsn	file "../esp8266.c",line 220,column 9,is_stmt,isa 1
;----------------------------------------------------------------------
; 220 | return;                                                                
;----------------------------------------------------------------------
        B         ||$C$L14||            ; [DPU_3_PIPE] |220| 
        ; BRANCH OCCURS {||$C$L14||}     ; [] |220| 
;* --------------------------------------------------------------------------*
||$C$L13||:    
	.dwpsn	file "../esp8266.c",line 222,column 5,is_stmt,isa 1
;----------------------------------------------------------------------
; 222 | uart_send(SEND_TEST_CMD_LENGTH);                                       
;----------------------------------------------------------------------
        ADR       A1, $C$SL15           ; [DPU_3_PIPE] |222| 
$C$DW$130	.dwtag  DW_TAG_TI_branch
	.dwattr $C$DW$130, DW_AT_low_pc(0x00)
	.dwattr $C$DW$130, DW_AT_name("uart_send")
	.dwattr $C$DW$130, DW_AT_TI_call
        BL        uart_send             ; [DPU_3_PIPE] |222| 
        ; CALL OCCURS {uart_send }       ; [] |222| 
	.dwpsn	file "../esp8266.c",line 223,column 5,is_stmt,isa 1
;----------------------------------------------------------------------
; 223 | SysCtlDelay(SysCtlClockGet());                                         
;----------------------------------------------------------------------
$C$DW$131	.dwtag  DW_TAG_TI_branch
	.dwattr $C$DW$131, DW_AT_low_pc(0x00)
	.dwattr $C$DW$131, DW_AT_name("SysCtlClockGet")
	.dwattr $C$DW$131, DW_AT_TI_call
        BL        SysCtlClockGet        ; [DPU_3_PIPE] |223| 
        ; CALL OCCURS {SysCtlClockGet }  ; [] |223| 
$C$DW$132	.dwtag  DW_TAG_TI_branch
	.dwattr $C$DW$132, DW_AT_low_pc(0x00)
	.dwattr $C$DW$132, DW_AT_name("SysCtlDelay")
	.dwattr $C$DW$132, DW_AT_TI_call
        BL        SysCtlDelay           ; [DPU_3_PIPE] |223| 
        ; CALL OCCURS {SysCtlDelay }     ; [] |223| 
	.dwpsn	file "../esp8266.c",line 224,column 5,is_stmt,isa 1
;----------------------------------------------------------------------
; 224 | uart_send(SEND_TEST_DATA);                                             
;----------------------------------------------------------------------
        ADR       A1, $C$SL16           ; [DPU_3_PIPE] |224| 
$C$DW$133	.dwtag  DW_TAG_TI_branch
	.dwattr $C$DW$133, DW_AT_low_pc(0x00)
	.dwattr $C$DW$133, DW_AT_name("uart_send")
	.dwattr $C$DW$133, DW_AT_TI_call
        BL        uart_send             ; [DPU_3_PIPE] |224| 
        ; CALL OCCURS {uart_send }       ; [] |224| 
	.dwpsn	file "../esp8266.c",line 225,column 5,is_stmt,isa 1
;----------------------------------------------------------------------
; 225 | SysCtlDelay(SysCtlClockGet());                                         
;----------------------------------------------------------------------
$C$DW$134	.dwtag  DW_TAG_TI_branch
	.dwattr $C$DW$134, DW_AT_low_pc(0x00)
	.dwattr $C$DW$134, DW_AT_name("SysCtlClockGet")
	.dwattr $C$DW$134, DW_AT_TI_call
        BL        SysCtlClockGet        ; [DPU_3_PIPE] |225| 
        ; CALL OCCURS {SysCtlClockGet }  ; [] |225| 
$C$DW$135	.dwtag  DW_TAG_TI_branch
	.dwattr $C$DW$135, DW_AT_low_pc(0x00)
	.dwattr $C$DW$135, DW_AT_name("SysCtlDelay")
	.dwattr $C$DW$135, DW_AT_TI_call
        BL        SysCtlDelay           ; [DPU_3_PIPE] |225| 
        ; CALL OCCURS {SysCtlDelay }     ; [] |225| 
	.dwpsn	file "../esp8266.c",line 226,column 1,is_stmt,isa 1
;* --------------------------------------------------------------------------*
||$C$L14||:    
$C$DW$136	.dwtag  DW_TAG_TI_branch
	.dwattr $C$DW$136, DW_AT_low_pc(0x00)
	.dwattr $C$DW$136, DW_AT_TI_return
        POP       {A4, PC}              ; [DPU_3_PIPE] 
	.dwcfi	cfa_offset, 0
        ; BRANCH OCCURS                  ; [] 
	.dwattr $C$DW$123, DW_AT_TI_end_file("../esp8266.c")
	.dwattr $C$DW$123, DW_AT_TI_end_line(0xe2)
	.dwattr $C$DW$123, DW_AT_TI_end_column(0x01)
	.dwendentry
	.dwendtag $C$DW$123

;******************************************************************************
;* CONSTANT TABLE                                                             *
;******************************************************************************
	.sect	".text:uart_send"
	.align	4
||$C$CON1||:	.bits	1073811456,32
;******************************************************************************
;* CONSTANT TABLE                                                             *
;******************************************************************************
	.sect	".text:esp8266_send"
	.align	4
||$C$CON2||:	.bits	uart_data_counter,32
	.align	4
||$C$CON3||:	.bits	uart_data,32
	.align	4
||$C$CON4||:	.bits	dummy$1,32
	.align	4
||$C$CON5||:	.bits	1073811456,32
	.align	4
||$C$CON6||:	.bits	10000000,32
;******************************************************************************
;* STRINGS                                                                    *
;******************************************************************************
	.sect	".text:esp8266_reset"
	.align	4
||$C$SL1||:	.string	"AT+RST",0
	.align	4
||$C$SL2||:	.string	"AT+CWJAP=",34,"dlink",34,",",34,"aspire1000",34,0
;******************************************************************************
;* STRINGS                                                                    *
;******************************************************************************
	.sect	".text:send_esp8266"
	.align	4
||$C$SL3||:	.string	"AT+CIPSTART=",34,"TCP",34,",",34,"184.106.153.149",34,",80",0
	.align	4
||$C$SL4||:	.string	"GET /update?key=VW5223XR8EZEL6A3&field1=",0
	.align	4
||$C$SL5||:	.string	"&field2=",0
	.align	4
||$C$SL6||:	.string	"&field3=",0
	.align	4
||$C$SL7||:	.string	"&field4=",0
	.align	4
||$C$SL8||:	.string	"&field5=",0
	.align	4
||$C$SL9||:	.string	"&field6=",0
	.align	4
||$C$SL10||:	.string	"&field7=",0
	.align	4
||$C$SL11||:	.string	"AT+CIPSEND=104",0
	.align	4
||$C$SL12||:	.string	">",0
;******************************************************************************
;* STRINGS                                                                    *
;******************************************************************************
	.sect	".text:init_esp8266"
	.align	4
||$C$SL13||:	.string	"AT+CWMODE=1",0
	.align	4
||$C$SL14||:	.string	"AT+CWJAP=",34,"dlink",34,",",34,"aspire1000",34,0
;******************************************************************************
;* CONSTANT TABLE                                                             *
;******************************************************************************
	.sect	".text:init_esp8266"
	.align	4
||$C$CON7||:	.bits	-268429307,32
	.align	4
||$C$CON8||:	.bits	-268433404,32
	.align	4
||$C$CON9||:	.bits	266241,32
	.align	4
||$C$CON10||:	.bits	267265,32
	.align	4
||$C$CON11||:	.bits	1073889280,32
	.align	4
||$C$CON12||:	.bits	1073811456,32
;******************************************************************************
;* STRINGS                                                                    *
;******************************************************************************
	.sect	".text:esp8266_test"
	.align	4
||$C$SL15||:	.string	"AT+CIPSEND=44",0
	.align	4
||$C$SL16||:	.string	"GET /update?key=DJGH4273J29TEUBH&field1=22",0
;*****************************************************************************
;* UNDEFINED EXTERNAL REFERENCES                                             *
;*****************************************************************************
	.global	strcpy
	.global	strcat
	.global	strstr
	.global	GPIOPinConfigure
	.global	GPIOPinTypeUART
	.global	SysCtlPeripheralEnable
	.global	SysCtlDelay
	.global	SysCtlClockGet
	.global	UARTConfigSetExpClk
	.global	UARTCharsAvail
	.global	UARTCharGetNonBlocking
	.global	UARTCharGet
	.global	UARTCharPut
	.global	memset

;******************************************************************************
;* BUILD ATTRIBUTES                                                           *
;******************************************************************************
	.battr "aeabi", Tag_File, 1, Tag_ABI_PCS_wchar_t(2)
	.battr "aeabi", Tag_File, 1, Tag_ABI_FP_rounding(0)
	.battr "aeabi", Tag_File, 1, Tag_ABI_FP_denormal(0)
	.battr "aeabi", Tag_File, 1, Tag_ABI_FP_exceptions(0)
	.battr "aeabi", Tag_File, 1, Tag_ABI_FP_number_model(1)
	.battr "aeabi", Tag_File, 1, Tag_ABI_enum_size(0)
	.battr "aeabi", Tag_File, 1, Tag_ABI_optimization_goals(5)
	.battr "aeabi", Tag_File, 1, Tag_ABI_FP_optimization_goals(0)
	.battr "TI", Tag_File, 1, Tag_Bitfield_layout(2)
	.battr "TI", Tag_File, 1, Tag_FP_interface(1)

;******************************************************************************
;* TYPE INFORMATION                                                           *
;******************************************************************************
$C$DW$T$2	.dwtag  DW_TAG_unspecified_type
	.dwattr $C$DW$T$2, DW_AT_name("void")
$C$DW$T$3	.dwtag  DW_TAG_pointer_type
	.dwattr $C$DW$T$3, DW_AT_type(*$C$DW$T$2)
	.dwattr $C$DW$T$3, DW_AT_address_class(0x20)
$C$DW$T$4	.dwtag  DW_TAG_base_type
	.dwattr $C$DW$T$4, DW_AT_encoding(DW_ATE_boolean)
	.dwattr $C$DW$T$4, DW_AT_name("bool")
	.dwattr $C$DW$T$4, DW_AT_byte_size(0x01)
$C$DW$T$5	.dwtag  DW_TAG_base_type
	.dwattr $C$DW$T$5, DW_AT_encoding(DW_ATE_signed_char)
	.dwattr $C$DW$T$5, DW_AT_name("signed char")
	.dwattr $C$DW$T$5, DW_AT_byte_size(0x01)
$C$DW$T$38	.dwtag  DW_TAG_typedef, DW_AT_name("int8_t")
	.dwattr $C$DW$T$38, DW_AT_type(*$C$DW$T$5)
	.dwattr $C$DW$T$38, DW_AT_language(DW_LANG_C)
	.dwattr $C$DW$T$38, DW_AT_decl_file("C:/ti/ccsv6/tools/compiler/ti-cgt-arm_5.2.5/include/stdint.h")
	.dwattr $C$DW$T$38, DW_AT_decl_line(0x2a)
	.dwattr $C$DW$T$38, DW_AT_decl_column(0x1d)
$C$DW$T$39	.dwtag  DW_TAG_typedef, DW_AT_name("int_least8_t")
	.dwattr $C$DW$T$39, DW_AT_type(*$C$DW$T$38)
	.dwattr $C$DW$T$39, DW_AT_language(DW_LANG_C)
	.dwattr $C$DW$T$39, DW_AT_decl_file("C:/ti/ccsv6/tools/compiler/ti-cgt-arm_5.2.5/include/stdint.h")
	.dwattr $C$DW$T$39, DW_AT_decl_line(0x37)
	.dwattr $C$DW$T$39, DW_AT_decl_column(0x17)
$C$DW$T$6	.dwtag  DW_TAG_base_type
	.dwattr $C$DW$T$6, DW_AT_encoding(DW_ATE_unsigned_char)
	.dwattr $C$DW$T$6, DW_AT_name("unsigned char")
	.dwattr $C$DW$T$6, DW_AT_byte_size(0x01)
$C$DW$T$25	.dwtag  DW_TAG_typedef, DW_AT_name("uint8_t")
	.dwattr $C$DW$T$25, DW_AT_type(*$C$DW$T$6)
	.dwattr $C$DW$T$25, DW_AT_language(DW_LANG_C)
	.dwattr $C$DW$T$25, DW_AT_decl_file("C:/ti/ccsv6/tools/compiler/ti-cgt-arm_5.2.5/include/stdint.h")
	.dwattr $C$DW$T$25, DW_AT_decl_line(0x2b)
	.dwattr $C$DW$T$25, DW_AT_decl_column(0x1c)
$C$DW$T$44	.dwtag  DW_TAG_typedef, DW_AT_name("uint_least8_t")
	.dwattr $C$DW$T$44, DW_AT_type(*$C$DW$T$25)
	.dwattr $C$DW$T$44, DW_AT_language(DW_LANG_C)
	.dwattr $C$DW$T$44, DW_AT_decl_file("C:/ti/ccsv6/tools/compiler/ti-cgt-arm_5.2.5/include/stdint.h")
	.dwattr $C$DW$T$44, DW_AT_decl_line(0x38)
	.dwattr $C$DW$T$44, DW_AT_decl_column(0x16)
$C$DW$T$7	.dwtag  DW_TAG_base_type
	.dwattr $C$DW$T$7, DW_AT_encoding(DW_ATE_signed_char)
	.dwattr $C$DW$T$7, DW_AT_name("wchar_t")
	.dwattr $C$DW$T$7, DW_AT_byte_size(0x02)
$C$DW$T$8	.dwtag  DW_TAG_base_type
	.dwattr $C$DW$T$8, DW_AT_encoding(DW_ATE_signed)
	.dwattr $C$DW$T$8, DW_AT_name("short")
	.dwattr $C$DW$T$8, DW_AT_byte_size(0x02)
$C$DW$T$45	.dwtag  DW_TAG_typedef, DW_AT_name("int16_t")
	.dwattr $C$DW$T$45, DW_AT_type(*$C$DW$T$8)
	.dwattr $C$DW$T$45, DW_AT_language(DW_LANG_C)
	.dwattr $C$DW$T$45, DW_AT_decl_file("C:/ti/ccsv6/tools/compiler/ti-cgt-arm_5.2.5/include/stdint.h")
	.dwattr $C$DW$T$45, DW_AT_decl_line(0x2c)
	.dwattr $C$DW$T$45, DW_AT_decl_column(0x1d)
$C$DW$T$46	.dwtag  DW_TAG_typedef, DW_AT_name("int_least16_t")
	.dwattr $C$DW$T$46, DW_AT_type(*$C$DW$T$45)
	.dwattr $C$DW$T$46, DW_AT_language(DW_LANG_C)
	.dwattr $C$DW$T$46, DW_AT_decl_file("C:/ti/ccsv6/tools/compiler/ti-cgt-arm_5.2.5/include/stdint.h")
	.dwattr $C$DW$T$46, DW_AT_decl_line(0x3a)
	.dwattr $C$DW$T$46, DW_AT_decl_column(0x17)
$C$DW$T$9	.dwtag  DW_TAG_base_type
	.dwattr $C$DW$T$9, DW_AT_encoding(DW_ATE_unsigned)
	.dwattr $C$DW$T$9, DW_AT_name("unsigned short")
	.dwattr $C$DW$T$9, DW_AT_byte_size(0x02)
$C$DW$T$47	.dwtag  DW_TAG_typedef, DW_AT_name("_Wchart")
	.dwattr $C$DW$T$47, DW_AT_type(*$C$DW$T$9)
	.dwattr $C$DW$T$47, DW_AT_language(DW_LANG_C)
	.dwattr $C$DW$T$47, DW_AT_decl_file("C:/ti/ccsv6/tools/compiler/ti-cgt-arm_5.2.5/include/yvals.h")
	.dwattr $C$DW$T$47, DW_AT_decl_line(0x1e5)
	.dwattr $C$DW$T$47, DW_AT_decl_column(0x21)
$C$DW$T$48	.dwtag  DW_TAG_typedef, DW_AT_name("_Wintt")
	.dwattr $C$DW$T$48, DW_AT_type(*$C$DW$T$9)
	.dwattr $C$DW$T$48, DW_AT_language(DW_LANG_C)
	.dwattr $C$DW$T$48, DW_AT_decl_file("C:/ti/ccsv6/tools/compiler/ti-cgt-arm_5.2.5/include/yvals.h")
	.dwattr $C$DW$T$48, DW_AT_decl_line(0x1e6)
	.dwattr $C$DW$T$48, DW_AT_decl_column(0x21)
$C$DW$T$49	.dwtag  DW_TAG_typedef, DW_AT_name("uint16_t")
	.dwattr $C$DW$T$49, DW_AT_type(*$C$DW$T$9)
	.dwattr $C$DW$T$49, DW_AT_language(DW_LANG_C)
	.dwattr $C$DW$T$49, DW_AT_decl_file("C:/ti/ccsv6/tools/compiler/ti-cgt-arm_5.2.5/include/stdint.h")
	.dwattr $C$DW$T$49, DW_AT_decl_line(0x2d)
	.dwattr $C$DW$T$49, DW_AT_decl_column(0x1c)
$C$DW$T$50	.dwtag  DW_TAG_typedef, DW_AT_name("uint_least16_t")
	.dwattr $C$DW$T$50, DW_AT_type(*$C$DW$T$49)
	.dwattr $C$DW$T$50, DW_AT_language(DW_LANG_C)
	.dwattr $C$DW$T$50, DW_AT_decl_file("C:/ti/ccsv6/tools/compiler/ti-cgt-arm_5.2.5/include/stdint.h")
	.dwattr $C$DW$T$50, DW_AT_decl_line(0x3b)
	.dwattr $C$DW$T$50, DW_AT_decl_column(0x16)
$C$DW$T$10	.dwtag  DW_TAG_base_type
	.dwattr $C$DW$T$10, DW_AT_encoding(DW_ATE_signed)
	.dwattr $C$DW$T$10, DW_AT_name("int")
	.dwattr $C$DW$T$10, DW_AT_byte_size(0x04)
$C$DW$T$51	.dwtag  DW_TAG_typedef, DW_AT_name("_Ptrdifft")
	.dwattr $C$DW$T$51, DW_AT_type(*$C$DW$T$10)
	.dwattr $C$DW$T$51, DW_AT_language(DW_LANG_C)
	.dwattr $C$DW$T$51, DW_AT_decl_file("C:/ti/ccsv6/tools/compiler/ti-cgt-arm_5.2.5/include/yvals.h")
	.dwattr $C$DW$T$51, DW_AT_decl_line(0xa9)
	.dwattr $C$DW$T$51, DW_AT_decl_column(0x1e)
$C$DW$T$52	.dwtag  DW_TAG_typedef, DW_AT_name("int32_t")
	.dwattr $C$DW$T$52, DW_AT_type(*$C$DW$T$10)
	.dwattr $C$DW$T$52, DW_AT_language(DW_LANG_C)
	.dwattr $C$DW$T$52, DW_AT_decl_file("C:/ti/ccsv6/tools/compiler/ti-cgt-arm_5.2.5/include/stdint.h")
	.dwattr $C$DW$T$52, DW_AT_decl_line(0x2e)
	.dwattr $C$DW$T$52, DW_AT_decl_column(0x1d)
$C$DW$T$55	.dwtag  DW_TAG_typedef, DW_AT_name("int_fast16_t")
	.dwattr $C$DW$T$55, DW_AT_type(*$C$DW$T$52)
	.dwattr $C$DW$T$55, DW_AT_language(DW_LANG_C)
	.dwattr $C$DW$T$55, DW_AT_decl_file("C:/ti/ccsv6/tools/compiler/ti-cgt-arm_5.2.5/include/stdint.h")
	.dwattr $C$DW$T$55, DW_AT_decl_line(0x47)
	.dwattr $C$DW$T$55, DW_AT_decl_column(0x17)
$C$DW$T$56	.dwtag  DW_TAG_typedef, DW_AT_name("int_fast32_t")
	.dwattr $C$DW$T$56, DW_AT_type(*$C$DW$T$52)
	.dwattr $C$DW$T$56, DW_AT_language(DW_LANG_C)
	.dwattr $C$DW$T$56, DW_AT_decl_file("C:/ti/ccsv6/tools/compiler/ti-cgt-arm_5.2.5/include/stdint.h")
	.dwattr $C$DW$T$56, DW_AT_decl_line(0x4a)
	.dwattr $C$DW$T$56, DW_AT_decl_column(0x17)
$C$DW$T$57	.dwtag  DW_TAG_typedef, DW_AT_name("int_fast8_t")
	.dwattr $C$DW$T$57, DW_AT_type(*$C$DW$T$52)
	.dwattr $C$DW$T$57, DW_AT_language(DW_LANG_C)
	.dwattr $C$DW$T$57, DW_AT_decl_file("C:/ti/ccsv6/tools/compiler/ti-cgt-arm_5.2.5/include/stdint.h")
	.dwattr $C$DW$T$57, DW_AT_decl_line(0x45)
	.dwattr $C$DW$T$57, DW_AT_decl_column(0x17)
$C$DW$T$58	.dwtag  DW_TAG_typedef, DW_AT_name("int_least32_t")
	.dwattr $C$DW$T$58, DW_AT_type(*$C$DW$T$52)
	.dwattr $C$DW$T$58, DW_AT_language(DW_LANG_C)
	.dwattr $C$DW$T$58, DW_AT_decl_file("C:/ti/ccsv6/tools/compiler/ti-cgt-arm_5.2.5/include/stdint.h")
	.dwattr $C$DW$T$58, DW_AT_decl_line(0x3c)
	.dwattr $C$DW$T$58, DW_AT_decl_column(0x17)
$C$DW$T$59	.dwtag  DW_TAG_typedef, DW_AT_name("intptr_t")
	.dwattr $C$DW$T$59, DW_AT_type(*$C$DW$T$10)
	.dwattr $C$DW$T$59, DW_AT_language(DW_LANG_C)
	.dwattr $C$DW$T$59, DW_AT_decl_file("C:/ti/ccsv6/tools/compiler/ti-cgt-arm_5.2.5/include/stdint.h")
	.dwattr $C$DW$T$59, DW_AT_decl_line(0x52)
	.dwattr $C$DW$T$59, DW_AT_decl_column(0x1a)
$C$DW$T$11	.dwtag  DW_TAG_base_type
	.dwattr $C$DW$T$11, DW_AT_encoding(DW_ATE_unsigned)
	.dwattr $C$DW$T$11, DW_AT_name("unsigned int")
	.dwattr $C$DW$T$11, DW_AT_byte_size(0x04)
$C$DW$T$60	.dwtag  DW_TAG_typedef, DW_AT_name("_Sizet")
	.dwattr $C$DW$T$60, DW_AT_type(*$C$DW$T$11)
	.dwattr $C$DW$T$60, DW_AT_language(DW_LANG_C)
	.dwattr $C$DW$T$60, DW_AT_decl_file("C:/ti/ccsv6/tools/compiler/ti-cgt-arm_5.2.5/include/yvals.h")
	.dwattr $C$DW$T$60, DW_AT_decl_line(0xab)
	.dwattr $C$DW$T$60, DW_AT_decl_column(0x1a)
$C$DW$T$61	.dwtag  DW_TAG_typedef, DW_AT_name("size_t")
	.dwattr $C$DW$T$61, DW_AT_type(*$C$DW$T$11)
	.dwattr $C$DW$T$61, DW_AT_language(DW_LANG_C)
	.dwattr $C$DW$T$61, DW_AT_decl_file("C:/ti/ccsv6/tools/compiler/ti-cgt-arm_5.2.5/include/string.h")
	.dwattr $C$DW$T$61, DW_AT_decl_line(0x3d)
	.dwattr $C$DW$T$61, DW_AT_decl_column(0x19)
$C$DW$T$22	.dwtag  DW_TAG_typedef, DW_AT_name("uint32_t")
	.dwattr $C$DW$T$22, DW_AT_type(*$C$DW$T$11)
	.dwattr $C$DW$T$22, DW_AT_language(DW_LANG_C)
	.dwattr $C$DW$T$22, DW_AT_decl_file("C:/ti/ccsv6/tools/compiler/ti-cgt-arm_5.2.5/include/stdint.h")
	.dwattr $C$DW$T$22, DW_AT_decl_line(0x2f)
	.dwattr $C$DW$T$22, DW_AT_decl_column(0x1c)
$C$DW$T$64	.dwtag  DW_TAG_typedef, DW_AT_name("uint_fast16_t")
	.dwattr $C$DW$T$64, DW_AT_type(*$C$DW$T$22)
	.dwattr $C$DW$T$64, DW_AT_language(DW_LANG_C)
	.dwattr $C$DW$T$64, DW_AT_decl_file("C:/ti/ccsv6/tools/compiler/ti-cgt-arm_5.2.5/include/stdint.h")
	.dwattr $C$DW$T$64, DW_AT_decl_line(0x48)
	.dwattr $C$DW$T$64, DW_AT_decl_column(0x16)
$C$DW$T$65	.dwtag  DW_TAG_typedef, DW_AT_name("uint_fast32_t")
	.dwattr $C$DW$T$65, DW_AT_type(*$C$DW$T$22)
	.dwattr $C$DW$T$65, DW_AT_language(DW_LANG_C)
	.dwattr $C$DW$T$65, DW_AT_decl_file("C:/ti/ccsv6/tools/compiler/ti-cgt-arm_5.2.5/include/stdint.h")
	.dwattr $C$DW$T$65, DW_AT_decl_line(0x4b)
	.dwattr $C$DW$T$65, DW_AT_decl_column(0x16)
$C$DW$T$66	.dwtag  DW_TAG_typedef, DW_AT_name("uint_fast8_t")
	.dwattr $C$DW$T$66, DW_AT_type(*$C$DW$T$22)
	.dwattr $C$DW$T$66, DW_AT_language(DW_LANG_C)
	.dwattr $C$DW$T$66, DW_AT_decl_file("C:/ti/ccsv6/tools/compiler/ti-cgt-arm_5.2.5/include/stdint.h")
	.dwattr $C$DW$T$66, DW_AT_decl_line(0x46)
	.dwattr $C$DW$T$66, DW_AT_decl_column(0x16)
$C$DW$T$67	.dwtag  DW_TAG_typedef, DW_AT_name("uint_least32_t")
	.dwattr $C$DW$T$67, DW_AT_type(*$C$DW$T$22)
	.dwattr $C$DW$T$67, DW_AT_language(DW_LANG_C)
	.dwattr $C$DW$T$67, DW_AT_decl_file("C:/ti/ccsv6/tools/compiler/ti-cgt-arm_5.2.5/include/stdint.h")
	.dwattr $C$DW$T$67, DW_AT_decl_line(0x3d)
	.dwattr $C$DW$T$67, DW_AT_decl_column(0x16)
$C$DW$T$68	.dwtag  DW_TAG_typedef, DW_AT_name("uintptr_t")
	.dwattr $C$DW$T$68, DW_AT_type(*$C$DW$T$11)
	.dwattr $C$DW$T$68, DW_AT_language(DW_LANG_C)
	.dwattr $C$DW$T$68, DW_AT_decl_file("C:/ti/ccsv6/tools/compiler/ti-cgt-arm_5.2.5/include/stdint.h")
	.dwattr $C$DW$T$68, DW_AT_decl_line(0x53)
	.dwattr $C$DW$T$68, DW_AT_decl_column(0x1a)
$C$DW$T$12	.dwtag  DW_TAG_base_type
	.dwattr $C$DW$T$12, DW_AT_encoding(DW_ATE_signed)
	.dwattr $C$DW$T$12, DW_AT_name("long")
	.dwattr $C$DW$T$12, DW_AT_byte_size(0x04)
$C$DW$T$69	.dwtag  DW_TAG_typedef, DW_AT_name("_Int32t")
	.dwattr $C$DW$T$69, DW_AT_type(*$C$DW$T$12)
	.dwattr $C$DW$T$69, DW_AT_language(DW_LANG_C)
	.dwattr $C$DW$T$69, DW_AT_decl_file("C:/ti/ccsv6/tools/compiler/ti-cgt-arm_5.2.5/include/yvals.h")
	.dwattr $C$DW$T$69, DW_AT_decl_line(0xa6)
	.dwattr $C$DW$T$69, DW_AT_decl_column(0x0e)
$C$DW$T$13	.dwtag  DW_TAG_base_type
	.dwattr $C$DW$T$13, DW_AT_encoding(DW_ATE_unsigned)
	.dwattr $C$DW$T$13, DW_AT_name("unsigned long")
	.dwattr $C$DW$T$13, DW_AT_byte_size(0x04)
$C$DW$T$70	.dwtag  DW_TAG_typedef, DW_AT_name("_Uint32t")
	.dwattr $C$DW$T$70, DW_AT_type(*$C$DW$T$13)
	.dwattr $C$DW$T$70, DW_AT_language(DW_LANG_C)
	.dwattr $C$DW$T$70, DW_AT_decl_file("C:/ti/ccsv6/tools/compiler/ti-cgt-arm_5.2.5/include/yvals.h")
	.dwattr $C$DW$T$70, DW_AT_decl_line(0xa7)
	.dwattr $C$DW$T$70, DW_AT_decl_column(0x17)
$C$DW$T$14	.dwtag  DW_TAG_base_type
	.dwattr $C$DW$T$14, DW_AT_encoding(DW_ATE_signed)
	.dwattr $C$DW$T$14, DW_AT_name("long long")
	.dwattr $C$DW$T$14, DW_AT_byte_size(0x08)
$C$DW$T$71	.dwtag  DW_TAG_typedef, DW_AT_name("_Longlong")
	.dwattr $C$DW$T$71, DW_AT_type(*$C$DW$T$14)
	.dwattr $C$DW$T$71, DW_AT_language(DW_LANG_C)
	.dwattr $C$DW$T$71, DW_AT_decl_file("C:/ti/ccsv6/tools/compiler/ti-cgt-arm_5.2.5/include/yvals.h")
	.dwattr $C$DW$T$71, DW_AT_decl_line(0x1b5)
	.dwattr $C$DW$T$71, DW_AT_decl_column(0x13)
$C$DW$T$72	.dwtag  DW_TAG_typedef, DW_AT_name("int64_t")
	.dwattr $C$DW$T$72, DW_AT_type(*$C$DW$T$14)
	.dwattr $C$DW$T$72, DW_AT_language(DW_LANG_C)
	.dwattr $C$DW$T$72, DW_AT_decl_file("C:/ti/ccsv6/tools/compiler/ti-cgt-arm_5.2.5/include/stdint.h")
	.dwattr $C$DW$T$72, DW_AT_decl_line(0x32)
	.dwattr $C$DW$T$72, DW_AT_decl_column(0x21)
$C$DW$T$73	.dwtag  DW_TAG_typedef, DW_AT_name("int_fast64_t")
	.dwattr $C$DW$T$73, DW_AT_type(*$C$DW$T$72)
	.dwattr $C$DW$T$73, DW_AT_language(DW_LANG_C)
	.dwattr $C$DW$T$73, DW_AT_decl_file("C:/ti/ccsv6/tools/compiler/ti-cgt-arm_5.2.5/include/stdint.h")
	.dwattr $C$DW$T$73, DW_AT_decl_line(0x4e)
	.dwattr $C$DW$T$73, DW_AT_decl_column(0x17)
$C$DW$T$74	.dwtag  DW_TAG_typedef, DW_AT_name("int_least64_t")
	.dwattr $C$DW$T$74, DW_AT_type(*$C$DW$T$72)
	.dwattr $C$DW$T$74, DW_AT_language(DW_LANG_C)
	.dwattr $C$DW$T$74, DW_AT_decl_file("C:/ti/ccsv6/tools/compiler/ti-cgt-arm_5.2.5/include/stdint.h")
	.dwattr $C$DW$T$74, DW_AT_decl_line(0x40)
	.dwattr $C$DW$T$74, DW_AT_decl_column(0x17)
$C$DW$T$75	.dwtag  DW_TAG_typedef, DW_AT_name("intmax_t")
	.dwattr $C$DW$T$75, DW_AT_type(*$C$DW$T$14)
	.dwattr $C$DW$T$75, DW_AT_language(DW_LANG_C)
	.dwattr $C$DW$T$75, DW_AT_decl_file("C:/ti/ccsv6/tools/compiler/ti-cgt-arm_5.2.5/include/stdint.h")
	.dwattr $C$DW$T$75, DW_AT_decl_line(0x56)
	.dwattr $C$DW$T$75, DW_AT_decl_column(0x20)
$C$DW$T$15	.dwtag  DW_TAG_base_type
	.dwattr $C$DW$T$15, DW_AT_encoding(DW_ATE_unsigned)
	.dwattr $C$DW$T$15, DW_AT_name("unsigned long long")
	.dwattr $C$DW$T$15, DW_AT_byte_size(0x08)
$C$DW$T$76	.dwtag  DW_TAG_typedef, DW_AT_name("_ULonglong")
	.dwattr $C$DW$T$76, DW_AT_type(*$C$DW$T$15)
	.dwattr $C$DW$T$76, DW_AT_language(DW_LANG_C)
	.dwattr $C$DW$T$76, DW_AT_decl_file("C:/ti/ccsv6/tools/compiler/ti-cgt-arm_5.2.5/include/yvals.h")
	.dwattr $C$DW$T$76, DW_AT_decl_line(0x1b6)
	.dwattr $C$DW$T$76, DW_AT_decl_column(0x14)
$C$DW$T$77	.dwtag  DW_TAG_typedef, DW_AT_name("uint64_t")
	.dwattr $C$DW$T$77, DW_AT_type(*$C$DW$T$15)
	.dwattr $C$DW$T$77, DW_AT_language(DW_LANG_C)
	.dwattr $C$DW$T$77, DW_AT_decl_file("C:/ti/ccsv6/tools/compiler/ti-cgt-arm_5.2.5/include/stdint.h")
	.dwattr $C$DW$T$77, DW_AT_decl_line(0x33)
	.dwattr $C$DW$T$77, DW_AT_decl_column(0x20)
$C$DW$T$78	.dwtag  DW_TAG_typedef, DW_AT_name("uint_fast64_t")
	.dwattr $C$DW$T$78, DW_AT_type(*$C$DW$T$77)
	.dwattr $C$DW$T$78, DW_AT_language(DW_LANG_C)
	.dwattr $C$DW$T$78, DW_AT_decl_file("C:/ti/ccsv6/tools/compiler/ti-cgt-arm_5.2.5/include/stdint.h")
	.dwattr $C$DW$T$78, DW_AT_decl_line(0x4f)
	.dwattr $C$DW$T$78, DW_AT_decl_column(0x16)
$C$DW$T$79	.dwtag  DW_TAG_typedef, DW_AT_name("uint_least64_t")
	.dwattr $C$DW$T$79, DW_AT_type(*$C$DW$T$77)
	.dwattr $C$DW$T$79, DW_AT_language(DW_LANG_C)
	.dwattr $C$DW$T$79, DW_AT_decl_file("C:/ti/ccsv6/tools/compiler/ti-cgt-arm_5.2.5/include/stdint.h")
	.dwattr $C$DW$T$79, DW_AT_decl_line(0x41)
	.dwattr $C$DW$T$79, DW_AT_decl_column(0x16)
$C$DW$T$80	.dwtag  DW_TAG_typedef, DW_AT_name("uintmax_t")
	.dwattr $C$DW$T$80, DW_AT_type(*$C$DW$T$15)
	.dwattr $C$DW$T$80, DW_AT_language(DW_LANG_C)
	.dwattr $C$DW$T$80, DW_AT_decl_file("C:/ti/ccsv6/tools/compiler/ti-cgt-arm_5.2.5/include/stdint.h")
	.dwattr $C$DW$T$80, DW_AT_decl_line(0x57)
	.dwattr $C$DW$T$80, DW_AT_decl_column(0x20)
$C$DW$T$16	.dwtag  DW_TAG_base_type
	.dwattr $C$DW$T$16, DW_AT_encoding(DW_ATE_float)
	.dwattr $C$DW$T$16, DW_AT_name("float")
	.dwattr $C$DW$T$16, DW_AT_byte_size(0x04)
$C$DW$T$17	.dwtag  DW_TAG_base_type
	.dwattr $C$DW$T$17, DW_AT_encoding(DW_ATE_float)
	.dwattr $C$DW$T$17, DW_AT_name("double")
	.dwattr $C$DW$T$17, DW_AT_byte_size(0x08)
$C$DW$T$18	.dwtag  DW_TAG_base_type
	.dwattr $C$DW$T$18, DW_AT_encoding(DW_ATE_float)
	.dwattr $C$DW$T$18, DW_AT_name("long double")
	.dwattr $C$DW$T$18, DW_AT_byte_size(0x08)
$C$DW$T$81	.dwtag  DW_TAG_typedef, DW_AT_name("_Sysch_t")
	.dwattr $C$DW$T$81, DW_AT_type(*$C$DW$T$6)
	.dwattr $C$DW$T$81, DW_AT_language(DW_LANG_C)
	.dwattr $C$DW$T$81, DW_AT_decl_file("C:/ti/ccsv6/tools/compiler/ti-cgt-arm_5.2.5/include/yvals.h")
	.dwattr $C$DW$T$81, DW_AT_decl_line(0x218)
	.dwattr $C$DW$T$81, DW_AT_decl_column(0x0e)
$C$DW$T$33	.dwtag  DW_TAG_pointer_type
	.dwattr $C$DW$T$33, DW_AT_type(*$C$DW$T$6)
	.dwattr $C$DW$T$33, DW_AT_address_class(0x20)
$C$DW$T$88	.dwtag  DW_TAG_typedef, DW_AT_name("__builtin_va_list")
	.dwattr $C$DW$T$88, DW_AT_type(*$C$DW$T$33)
	.dwattr $C$DW$T$88, DW_AT_language(DW_LANG_C)
	.dwattr $C$DW$T$88, DW_AT_decl_file("../esp8266.c")
	.dwattr $C$DW$T$88, DW_AT_decl_line(0xe2)
	.dwattr $C$DW$T$88, DW_AT_decl_column(0x01)
$C$DW$T$82	.dwtag  DW_TAG_const_type
	.dwattr $C$DW$T$82, DW_AT_type(*$C$DW$T$6)
$C$DW$T$83	.dwtag  DW_TAG_pointer_type
	.dwattr $C$DW$T$83, DW_AT_type(*$C$DW$T$82)
	.dwattr $C$DW$T$83, DW_AT_address_class(0x20)
$C$DW$T$89	.dwtag  DW_TAG_volatile_type
	.dwattr $C$DW$T$89, DW_AT_type(*$C$DW$T$6)

$C$DW$T$90	.dwtag  DW_TAG_array_type
	.dwattr $C$DW$T$90, DW_AT_type(*$C$DW$T$89)
	.dwattr $C$DW$T$90, DW_AT_language(DW_LANG_C)
	.dwattr $C$DW$T$90, DW_AT_byte_size(0x1e)
$C$DW$137	.dwtag  DW_TAG_subrange_type
	.dwattr $C$DW$137, DW_AT_upper_bound(0x1d)
	.dwendtag $C$DW$T$90


$C$DW$T$93	.dwtag  DW_TAG_array_type
	.dwattr $C$DW$T$93, DW_AT_type(*$C$DW$T$6)
	.dwattr $C$DW$T$93, DW_AT_language(DW_LANG_C)
	.dwattr $C$DW$T$93, DW_AT_byte_size(0x66)
$C$DW$138	.dwtag  DW_TAG_subrange_type
	.dwattr $C$DW$138, DW_AT_upper_bound(0x65)
	.dwendtag $C$DW$T$93


$C$DW$T$94	.dwtag  DW_TAG_array_type
	.dwattr $C$DW$T$94, DW_AT_type(*$C$DW$T$6)
	.dwattr $C$DW$T$94, DW_AT_language(DW_LANG_C)
	.dwattr $C$DW$T$94, DW_AT_byte_size(0x02)
$C$DW$139	.dwtag  DW_TAG_subrange_type
	.dwattr $C$DW$139, DW_AT_upper_bound(0x01)
	.dwendtag $C$DW$T$94

$C$DW$T$100	.dwtag  DW_TAG_base_type
	.dwattr $C$DW$T$100, DW_AT_encoding(DW_ATE_unsigned_char)
	.dwattr $C$DW$T$100, DW_AT_name("unsigned char")
	.dwattr $C$DW$T$100, DW_AT_byte_size(0x01)

$C$DW$T$19	.dwtag  DW_TAG_structure_type
	.dwattr $C$DW$T$19, DW_AT_name("__va_list")
	.dwattr $C$DW$T$19, DW_AT_byte_size(0x04)
$C$DW$140	.dwtag  DW_TAG_member
	.dwattr $C$DW$140, DW_AT_type(*$C$DW$T$3)
	.dwattr $C$DW$140, DW_AT_name("__ap")
	.dwattr $C$DW$140, DW_AT_TI_symbol_name("__ap")
	.dwattr $C$DW$140, DW_AT_data_member_location[DW_OP_plus_uconst 0x0]
	.dwattr $C$DW$140, DW_AT_accessibility(DW_ACCESS_public)
	.dwattr $C$DW$140, DW_AT_decl_file("C:/ti/ccsv6/tools/compiler/ti-cgt-arm_5.2.5/include/stdarg.h")
	.dwattr $C$DW$140, DW_AT_decl_line(0x36)
	.dwattr $C$DW$140, DW_AT_decl_column(0x0c)
	.dwendtag $C$DW$T$19

	.dwattr $C$DW$T$19, DW_AT_decl_file("C:/ti/ccsv6/tools/compiler/ti-cgt-arm_5.2.5/include/stdarg.h")
	.dwattr $C$DW$T$19, DW_AT_decl_line(0x35)
	.dwattr $C$DW$T$19, DW_AT_decl_column(0x10)
$C$DW$T$103	.dwtag  DW_TAG_typedef, DW_AT_name("va_list")
	.dwattr $C$DW$T$103, DW_AT_type(*$C$DW$T$19)
	.dwattr $C$DW$T$103, DW_AT_language(DW_LANG_C)
	.dwattr $C$DW$T$103, DW_AT_decl_file("C:/ti/ccsv6/tools/compiler/ti-cgt-arm_5.2.5/include/stdarg.h")
	.dwattr $C$DW$T$103, DW_AT_decl_line(0x37)
	.dwattr $C$DW$T$103, DW_AT_decl_column(0x03)
$C$DW$T$104	.dwtag  DW_TAG_typedef, DW_AT_name("_Va_list")
	.dwattr $C$DW$T$104, DW_AT_type(*$C$DW$T$103)
	.dwattr $C$DW$T$104, DW_AT_language(DW_LANG_C)
	.dwattr $C$DW$T$104, DW_AT_decl_file("C:/ti/ccsv6/tools/compiler/ti-cgt-arm_5.2.5/include/yvals.h")
	.dwattr $C$DW$T$104, DW_AT_decl_line(0x1f6)
	.dwattr $C$DW$T$104, DW_AT_decl_column(0x17)
	.dwattr $C$DW$CU, DW_AT_language(DW_LANG_C)

;***************************************************************
;* DWARF CIE ENTRIES                                           *
;***************************************************************

$C$DW$CIE	.dwcie 14
	.dwcfi	cfa_register, 13
	.dwcfi	cfa_offset, 0
	.dwcfi	undefined, 0
	.dwcfi	undefined, 1
	.dwcfi	undefined, 2
	.dwcfi	undefined, 3
	.dwcfi	same_value, 4
	.dwcfi	same_value, 5
	.dwcfi	same_value, 6
	.dwcfi	same_value, 7
	.dwcfi	same_value, 8
	.dwcfi	same_value, 9
	.dwcfi	same_value, 10
	.dwcfi	same_value, 11
	.dwcfi	undefined, 12
	.dwcfi	undefined, 13
	.dwcfi	undefined, 14
	.dwcfi	undefined, 14
	.dwcfi	undefined, 7
	.dwcfi	undefined, 64
	.dwcfi	undefined, 65
	.dwcfi	undefined, 66
	.dwcfi	undefined, 67
	.dwcfi	undefined, 68
	.dwcfi	undefined, 69
	.dwcfi	undefined, 70
	.dwcfi	undefined, 71
	.dwcfi	undefined, 72
	.dwcfi	undefined, 73
	.dwcfi	undefined, 74
	.dwcfi	undefined, 75
	.dwcfi	undefined, 76
	.dwcfi	undefined, 77
	.dwcfi	undefined, 78
	.dwcfi	undefined, 79
	.dwcfi	same_value, 80
	.dwcfi	same_value, 81
	.dwcfi	same_value, 82
	.dwcfi	same_value, 83
	.dwcfi	same_value, 84
	.dwcfi	same_value, 85
	.dwcfi	same_value, 86
	.dwcfi	same_value, 87
	.dwcfi	same_value, 88
	.dwcfi	same_value, 89
	.dwcfi	same_value, 90
	.dwcfi	same_value, 91
	.dwcfi	same_value, 92
	.dwcfi	same_value, 93
	.dwcfi	same_value, 94
	.dwcfi	same_value, 95
	.dwendentry
	.dwendtag $C$DW$CU

