;******************************************************************************
;* TI ARM C/C++ Codegen                                             PC v5.2.5 *
;* Date/Time created: Sat Nov 07 12:29:29 2015                                *
;******************************************************************************
	.compiler_opts --abi=eabi --arm_vmrs_si_workaround=off --code_state=16 --diag_wrap=off --disable_dual_state --embedded_constants=on --endian=little --float_support=FPv4SPD16 --hll_source=on --object_format=elf --silicon_version=7M4 --symdebug:dwarf --symdebug:dwarf_version=3 --unaligned_access=on 
	.thumb

$C$DW$CU	.dwtag  DW_TAG_compile_unit
	.dwattr $C$DW$CU, DW_AT_name("E:/Dev/Ti/TivaWare/third_party/fatfs/src/ff.c")
	.dwattr $C$DW$CU, DW_AT_producer("TI TI ARM C/C++ Codegen PC v5.2.5 Copyright (c) 1996-2015 Texas Instruments Incorporated")
	.dwattr $C$DW$CU, DW_AT_TI_version(0x01)
	.dwattr $C$DW$CU, DW_AT_comp_dir("E:\Dev\Ti\Code\GIT\LaunchpadRoomControl\LaunchpadRoomControl\timers\Debug")

$C$DW$1	.dwtag  DW_TAG_subprogram, DW_AT_name("get_fattime")
	.dwattr $C$DW$1, DW_AT_TI_symbol_name("get_fattime")
	.dwattr $C$DW$1, DW_AT_type(*$C$DW$T$21)
	.dwattr $C$DW$1, DW_AT_declaration
	.dwattr $C$DW$1, DW_AT_external
	.dwattr $C$DW$1, DW_AT_decl_file("E:\Dev\Ti\TivaWare\third_party\fatfs\src\ff.h")
	.dwattr $C$DW$1, DW_AT_decl_line(0xfd)
	.dwattr $C$DW$1, DW_AT_decl_column(0x07)

$C$DW$2	.dwtag  DW_TAG_subprogram, DW_AT_name("disk_initialize")
	.dwattr $C$DW$2, DW_AT_TI_symbol_name("disk_initialize")
	.dwattr $C$DW$2, DW_AT_type(*$C$DW$T$109)
	.dwattr $C$DW$2, DW_AT_declaration
	.dwattr $C$DW$2, DW_AT_external
	.dwattr $C$DW$2, DW_AT_decl_file("E:\Dev\Ti\TivaWare\third_party\fatfs\src\diskio.h")
	.dwattr $C$DW$2, DW_AT_decl_line(0x23)
	.dwattr $C$DW$2, DW_AT_decl_column(0x09)
$C$DW$3	.dwtag  DW_TAG_formal_parameter
	.dwattr $C$DW$3, DW_AT_type(*$C$DW$T$19)
	.dwendtag $C$DW$2


$C$DW$4	.dwtag  DW_TAG_subprogram, DW_AT_name("disk_status")
	.dwattr $C$DW$4, DW_AT_TI_symbol_name("disk_status")
	.dwattr $C$DW$4, DW_AT_type(*$C$DW$T$109)
	.dwattr $C$DW$4, DW_AT_declaration
	.dwattr $C$DW$4, DW_AT_external
	.dwattr $C$DW$4, DW_AT_decl_file("E:\Dev\Ti\TivaWare\third_party\fatfs\src\diskio.h")
	.dwattr $C$DW$4, DW_AT_decl_line(0x24)
	.dwattr $C$DW$4, DW_AT_decl_column(0x09)
$C$DW$5	.dwtag  DW_TAG_formal_parameter
	.dwattr $C$DW$5, DW_AT_type(*$C$DW$T$19)
	.dwendtag $C$DW$4


$C$DW$6	.dwtag  DW_TAG_subprogram, DW_AT_name("disk_read")
	.dwattr $C$DW$6, DW_AT_TI_symbol_name("disk_read")
	.dwattr $C$DW$6, DW_AT_type(*$C$DW$T$34)
	.dwattr $C$DW$6, DW_AT_declaration
	.dwattr $C$DW$6, DW_AT_external
	.dwattr $C$DW$6, DW_AT_decl_file("E:\Dev\Ti\TivaWare\third_party\fatfs\src\diskio.h")
	.dwattr $C$DW$6, DW_AT_decl_line(0x25)
	.dwattr $C$DW$6, DW_AT_decl_column(0x09)
$C$DW$7	.dwtag  DW_TAG_formal_parameter
	.dwattr $C$DW$7, DW_AT_type(*$C$DW$T$19)
$C$DW$8	.dwtag  DW_TAG_formal_parameter
	.dwattr $C$DW$8, DW_AT_type(*$C$DW$T$26)
$C$DW$9	.dwtag  DW_TAG_formal_parameter
	.dwattr $C$DW$9, DW_AT_type(*$C$DW$T$21)
$C$DW$10	.dwtag  DW_TAG_formal_parameter
	.dwattr $C$DW$10, DW_AT_type(*$C$DW$T$19)
	.dwendtag $C$DW$6


$C$DW$11	.dwtag  DW_TAG_subprogram, DW_AT_name("disk_write")
	.dwattr $C$DW$11, DW_AT_TI_symbol_name("disk_write")
	.dwattr $C$DW$11, DW_AT_type(*$C$DW$T$34)
	.dwattr $C$DW$11, DW_AT_declaration
	.dwattr $C$DW$11, DW_AT_external
	.dwattr $C$DW$11, DW_AT_decl_file("E:\Dev\Ti\TivaWare\third_party\fatfs\src\diskio.h")
	.dwattr $C$DW$11, DW_AT_decl_line(0x26)
	.dwattr $C$DW$11, DW_AT_decl_column(0x09)
$C$DW$12	.dwtag  DW_TAG_formal_parameter
	.dwattr $C$DW$12, DW_AT_type(*$C$DW$T$19)
$C$DW$13	.dwtag  DW_TAG_formal_parameter
	.dwattr $C$DW$13, DW_AT_type(*$C$DW$T$38)
$C$DW$14	.dwtag  DW_TAG_formal_parameter
	.dwattr $C$DW$14, DW_AT_type(*$C$DW$T$21)
$C$DW$15	.dwtag  DW_TAG_formal_parameter
	.dwattr $C$DW$15, DW_AT_type(*$C$DW$T$19)
	.dwendtag $C$DW$11


$C$DW$16	.dwtag  DW_TAG_subprogram, DW_AT_name("disk_ioctl")
	.dwattr $C$DW$16, DW_AT_TI_symbol_name("disk_ioctl")
	.dwattr $C$DW$16, DW_AT_type(*$C$DW$T$34)
	.dwattr $C$DW$16, DW_AT_declaration
	.dwattr $C$DW$16, DW_AT_external
	.dwattr $C$DW$16, DW_AT_decl_file("E:\Dev\Ti\TivaWare\third_party\fatfs\src\diskio.h")
	.dwattr $C$DW$16, DW_AT_decl_line(0x27)
	.dwattr $C$DW$16, DW_AT_decl_column(0x09)
$C$DW$17	.dwtag  DW_TAG_formal_parameter
	.dwattr $C$DW$17, DW_AT_type(*$C$DW$T$19)
$C$DW$18	.dwtag  DW_TAG_formal_parameter
	.dwattr $C$DW$18, DW_AT_type(*$C$DW$T$19)
$C$DW$19	.dwtag  DW_TAG_formal_parameter
	.dwattr $C$DW$19, DW_AT_type(*$C$DW$T$3)
	.dwendtag $C$DW$16

	.common	FatFs,4,4
$C$DW$20	.dwtag  DW_TAG_variable, DW_AT_name("FatFs")
	.dwattr $C$DW$20, DW_AT_TI_symbol_name("FatFs")
	.dwattr $C$DW$20, DW_AT_type(*$C$DW$T$100)
	.dwattr $C$DW$20, DW_AT_location[DW_OP_addr FatFs]
	.dwattr $C$DW$20, DW_AT_decl_file("E:/Dev/Ti/TivaWare/third_party/fatfs/src/ff.c")
	.dwattr $C$DW$20, DW_AT_decl_line(0x1d6)
	.dwattr $C$DW$20, DW_AT_decl_column(0x08)
	.common	Fsid,2,2
$C$DW$21	.dwtag  DW_TAG_variable, DW_AT_name("Fsid")
	.dwattr $C$DW$21, DW_AT_TI_symbol_name("Fsid")
	.dwattr $C$DW$21, DW_AT_type(*$C$DW$T$20)
	.dwattr $C$DW$21, DW_AT_location[DW_OP_addr Fsid]
	.dwattr $C$DW$21, DW_AT_decl_file("E:/Dev/Ti/TivaWare/third_party/fatfs/src/ff.c")
	.dwattr $C$DW$21, DW_AT_decl_line(0x1dc)
	.dwattr $C$DW$21, DW_AT_decl_column(0x06)
;	C:\ti\ccsv6\tools\compiler\ti-cgt-arm_5.2.5\bin\armacpia.exe -@C:\\Users\\DCOSAS~1.SAG\\AppData\\Local\\Temp\\0152812 
	.sect	".text:mem_cpy"
	.clink
	.thumbfunc mem_cpy
	.thumb

$C$DW$22	.dwtag  DW_TAG_subprogram, DW_AT_name("mem_cpy")
	.dwattr $C$DW$22, DW_AT_low_pc(mem_cpy)
	.dwattr $C$DW$22, DW_AT_high_pc(0x00)
	.dwattr $C$DW$22, DW_AT_TI_symbol_name("mem_cpy")
	.dwattr $C$DW$22, DW_AT_TI_begin_file("E:/Dev/Ti/TivaWare/third_party/fatfs/src/ff.c")
	.dwattr $C$DW$22, DW_AT_TI_begin_line(0x21b)
	.dwattr $C$DW$22, DW_AT_TI_begin_column(0x06)
	.dwattr $C$DW$22, DW_AT_decl_file("E:/Dev/Ti/TivaWare/third_party/fatfs/src/ff.c")
	.dwattr $C$DW$22, DW_AT_decl_line(0x21b)
	.dwattr $C$DW$22, DW_AT_decl_column(0x06)
	.dwattr $C$DW$22, DW_AT_TI_max_frame_size(0x18)
	.dwpsn	file "E:/Dev/Ti/TivaWare/third_party/fatfs/src/ff.c",line 539,column 53,is_stmt,address mem_cpy,isa 1

	.dwfde $C$DW$CIE, mem_cpy
$C$DW$23	.dwtag  DW_TAG_formal_parameter, DW_AT_name("dst")
	.dwattr $C$DW$23, DW_AT_TI_symbol_name("dst")
	.dwattr $C$DW$23, DW_AT_type(*$C$DW$T$3)
	.dwattr $C$DW$23, DW_AT_location[DW_OP_reg0]
$C$DW$24	.dwtag  DW_TAG_formal_parameter, DW_AT_name("src")
	.dwattr $C$DW$24, DW_AT_TI_symbol_name("src")
	.dwattr $C$DW$24, DW_AT_type(*$C$DW$T$81)
	.dwattr $C$DW$24, DW_AT_location[DW_OP_reg1]
$C$DW$25	.dwtag  DW_TAG_formal_parameter, DW_AT_name("cnt")
	.dwattr $C$DW$25, DW_AT_TI_symbol_name("cnt")
	.dwattr $C$DW$25, DW_AT_type(*$C$DW$T$57)
	.dwattr $C$DW$25, DW_AT_location[DW_OP_reg2]

;*****************************************************************************
;* FUNCTION NAME: mem_cpy                                                    *
;*                                                                           *
;*   Regs Modified     : A1,A2,A3,SP,SR                                      *
;*   Regs Used         : A1,A2,A3,SP,LR,SR                                   *
;*   Local Frame Size  : 0 Args + 20 Auto + 0 Save = 20 byte                 *
;*****************************************************************************
mem_cpy:
;* --------------------------------------------------------------------------*
	.dwcfi	cfa_offset, 0
        SUB       SP, SP, #24           ; [DPU_3_PIPE] 
	.dwcfi	cfa_offset, 24
$C$DW$26	.dwtag  DW_TAG_variable, DW_AT_name("dst")
	.dwattr $C$DW$26, DW_AT_TI_symbol_name("dst")
	.dwattr $C$DW$26, DW_AT_type(*$C$DW$T$3)
	.dwattr $C$DW$26, DW_AT_location[DW_OP_breg13 0]
$C$DW$27	.dwtag  DW_TAG_variable, DW_AT_name("src")
	.dwattr $C$DW$27, DW_AT_TI_symbol_name("src")
	.dwattr $C$DW$27, DW_AT_type(*$C$DW$T$81)
	.dwattr $C$DW$27, DW_AT_location[DW_OP_breg13 4]
$C$DW$28	.dwtag  DW_TAG_variable, DW_AT_name("cnt")
	.dwattr $C$DW$28, DW_AT_TI_symbol_name("cnt")
	.dwattr $C$DW$28, DW_AT_type(*$C$DW$T$57)
	.dwattr $C$DW$28, DW_AT_location[DW_OP_breg13 8]
$C$DW$29	.dwtag  DW_TAG_variable, DW_AT_name("d")
	.dwattr $C$DW$29, DW_AT_TI_symbol_name("d")
	.dwattr $C$DW$29, DW_AT_type(*$C$DW$T$26)
	.dwattr $C$DW$29, DW_AT_location[DW_OP_breg13 12]
$C$DW$30	.dwtag  DW_TAG_variable, DW_AT_name("s")
	.dwattr $C$DW$30, DW_AT_TI_symbol_name("s")
	.dwattr $C$DW$30, DW_AT_type(*$C$DW$T$38)
	.dwattr $C$DW$30, DW_AT_location[DW_OP_breg13 16]
;----------------------------------------------------------------------
; 539 | void mem_cpy (void* dst, const void* src, UINT cnt) {                  
;----------------------------------------------------------------------
        STR       A3, [SP, #8]          ; [DPU_3_PIPE] |539| 
        STR       A2, [SP, #4]          ; [DPU_3_PIPE] |539| 
        STR       A1, [SP, #0]          ; [DPU_3_PIPE] |539| 
	.dwpsn	file "E:/Dev/Ti/TivaWare/third_party/fatfs/src/ff.c",line 540,column 10,is_stmt,isa 1
;----------------------------------------------------------------------
; 540 | BYTE *d = (BYTE*)dst;                                                  
;----------------------------------------------------------------------
        LDR       A1, [SP, #0]          ; [DPU_3_PIPE] |540| 
        STR       A1, [SP, #12]         ; [DPU_3_PIPE] |540| 
	.dwpsn	file "E:/Dev/Ti/TivaWare/third_party/fatfs/src/ff.c",line 541,column 16,is_stmt,isa 1
;----------------------------------------------------------------------
; 541 | const BYTE *s = (const BYTE*)src;                                      
; 543 | #if _WORD_ACCESS == 1                                                  
; 544 | while (cnt >= sizeof (int)) {                                          
; 545 |         *(int*)d = *(int*)s;                                           
; 546 |         d += sizeof (int); s += sizeof (int);                          
; 547 |         cnt -= sizeof (int);                                           
; 549 | #endif                                                                 
;----------------------------------------------------------------------
        LDR       A1, [SP, #4]          ; [DPU_3_PIPE] |541| 
        STR       A1, [SP, #16]         ; [DPU_3_PIPE] |541| 
	.dwpsn	file "E:/Dev/Ti/TivaWare/third_party/fatfs/src/ff.c",line 550,column 2,is_stmt,isa 1
;----------------------------------------------------------------------
; 550 | while (cnt--)                                                          
;----------------------------------------------------------------------
        LDR       A1, [SP, #8]          ; [DPU_3_PIPE] |550| 
        SUBS      A2, A1, #1            ; [DPU_3_PIPE] |550| 
        STR       A2, [SP, #8]          ; [DPU_3_PIPE] |550| 
        CBZ       A1, ||$C$L2||         ; [] 
        ; BRANCHCC OCCURS {||$C$L2||}    ; [] |550| 
;* --------------------------------------------------------------------------*
;*   BEGIN LOOP ||$C$L1||
;*
;*   Loop source line                : 550
;*   Loop closing brace source line  : 551
;*   Known Minimum Trip Count        : 1
;*   Known Maximum Trip Count        : 4294967295
;*   Known Max Trip Count Factor     : 1
;* --------------------------------------------------------------------------*
||$C$L1||:    
	.dwpsn	file "E:/Dev/Ti/TivaWare/third_party/fatfs/src/ff.c",line 551,column 3,is_stmt,isa 1
;----------------------------------------------------------------------
; 551 | *d++ = *s++;                                                           
;----------------------------------------------------------------------
        LDR       A2, [SP, #16]         ; [DPU_3_PIPE] |551| 
        LDR       A1, [SP, #12]         ; [DPU_3_PIPE] |551| 
        LDRB      A3, [A2], #1          ; [DPU_3_PIPE] |551| 
        STR       A2, [SP, #16]         ; [DPU_3_PIPE] |551| 
        ADDS      A2, A1, #1            ; [DPU_3_PIPE] |551| 
        STR       A2, [SP, #12]         ; [DPU_3_PIPE] |551| 
        STRB      A3, [A1, #0]          ; [DPU_3_PIPE] |551| 
	.dwpsn	file "E:/Dev/Ti/TivaWare/third_party/fatfs/src/ff.c",line 550,column 2,is_stmt,isa 1
        LDR       A1, [SP, #8]          ; [DPU_3_PIPE] |550| 
        CMP       A1, #0                ; [DPU_3_PIPE] |550| 
        SUB       A2, A1, #1            ; [DPU_3_PIPE] |550| 
        STR       A2, [SP, #8]          ; [DPU_3_PIPE] |550| 
        BNE       ||$C$L1||             ; [DPU_3_PIPE] |550| 
        ; BRANCHCC OCCURS {||$C$L1||}    ; [] |550| 
;* --------------------------------------------------------------------------*
	.dwpsn	file "E:/Dev/Ti/TivaWare/third_party/fatfs/src/ff.c",line 552,column 1,is_stmt,isa 1
;* --------------------------------------------------------------------------*
||$C$L2||:    
        ADD       SP, SP, #24           ; [DPU_3_PIPE] 
	.dwcfi	cfa_offset, 0
$C$DW$31	.dwtag  DW_TAG_TI_branch
	.dwattr $C$DW$31, DW_AT_low_pc(0x00)
	.dwattr $C$DW$31, DW_AT_TI_return
        BX        LR                    ; [DPU_3_PIPE] 
        ; BRANCH OCCURS                  ; [] 
	.dwattr $C$DW$22, DW_AT_TI_end_file("E:/Dev/Ti/TivaWare/third_party/fatfs/src/ff.c")
	.dwattr $C$DW$22, DW_AT_TI_end_line(0x228)
	.dwattr $C$DW$22, DW_AT_TI_end_column(0x01)
	.dwendentry
	.dwendtag $C$DW$22

	.sect	".text:mem_set"
	.clink
	.thumbfunc mem_set
	.thumb

$C$DW$32	.dwtag  DW_TAG_subprogram, DW_AT_name("mem_set")
	.dwattr $C$DW$32, DW_AT_low_pc(mem_set)
	.dwattr $C$DW$32, DW_AT_high_pc(0x00)
	.dwattr $C$DW$32, DW_AT_TI_symbol_name("mem_set")
	.dwattr $C$DW$32, DW_AT_TI_begin_file("E:/Dev/Ti/TivaWare/third_party/fatfs/src/ff.c")
	.dwattr $C$DW$32, DW_AT_TI_begin_line(0x22c)
	.dwattr $C$DW$32, DW_AT_TI_begin_column(0x06)
	.dwattr $C$DW$32, DW_AT_decl_file("E:/Dev/Ti/TivaWare/third_party/fatfs/src/ff.c")
	.dwattr $C$DW$32, DW_AT_decl_line(0x22c)
	.dwattr $C$DW$32, DW_AT_decl_column(0x06)
	.dwattr $C$DW$32, DW_AT_TI_max_frame_size(0x10)
	.dwpsn	file "E:/Dev/Ti/TivaWare/third_party/fatfs/src/ff.c",line 556,column 45,is_stmt,address mem_set,isa 1

	.dwfde $C$DW$CIE, mem_set
$C$DW$33	.dwtag  DW_TAG_formal_parameter, DW_AT_name("dst")
	.dwattr $C$DW$33, DW_AT_TI_symbol_name("dst")
	.dwattr $C$DW$33, DW_AT_type(*$C$DW$T$3)
	.dwattr $C$DW$33, DW_AT_location[DW_OP_reg0]
$C$DW$34	.dwtag  DW_TAG_formal_parameter, DW_AT_name("val")
	.dwattr $C$DW$34, DW_AT_TI_symbol_name("val")
	.dwattr $C$DW$34, DW_AT_type(*$C$DW$T$10)
	.dwattr $C$DW$34, DW_AT_location[DW_OP_reg1]
$C$DW$35	.dwtag  DW_TAG_formal_parameter, DW_AT_name("cnt")
	.dwattr $C$DW$35, DW_AT_TI_symbol_name("cnt")
	.dwattr $C$DW$35, DW_AT_type(*$C$DW$T$57)
	.dwattr $C$DW$35, DW_AT_location[DW_OP_reg2]

;*****************************************************************************
;* FUNCTION NAME: mem_set                                                    *
;*                                                                           *
;*   Regs Modified     : A1,A2,SP,SR                                         *
;*   Regs Used         : A1,A2,A3,SP,LR,SR                                   *
;*   Local Frame Size  : 0 Args + 16 Auto + 0 Save = 16 byte                 *
;*****************************************************************************
mem_set:
;* --------------------------------------------------------------------------*
	.dwcfi	cfa_offset, 0
        SUB       SP, SP, #16           ; [DPU_3_PIPE] 
	.dwcfi	cfa_offset, 16
$C$DW$36	.dwtag  DW_TAG_variable, DW_AT_name("dst")
	.dwattr $C$DW$36, DW_AT_TI_symbol_name("dst")
	.dwattr $C$DW$36, DW_AT_type(*$C$DW$T$3)
	.dwattr $C$DW$36, DW_AT_location[DW_OP_breg13 0]
$C$DW$37	.dwtag  DW_TAG_variable, DW_AT_name("val")
	.dwattr $C$DW$37, DW_AT_TI_symbol_name("val")
	.dwattr $C$DW$37, DW_AT_type(*$C$DW$T$10)
	.dwattr $C$DW$37, DW_AT_location[DW_OP_breg13 4]
$C$DW$38	.dwtag  DW_TAG_variable, DW_AT_name("cnt")
	.dwattr $C$DW$38, DW_AT_TI_symbol_name("cnt")
	.dwattr $C$DW$38, DW_AT_type(*$C$DW$T$57)
	.dwattr $C$DW$38, DW_AT_location[DW_OP_breg13 8]
$C$DW$39	.dwtag  DW_TAG_variable, DW_AT_name("d")
	.dwattr $C$DW$39, DW_AT_TI_symbol_name("d")
	.dwattr $C$DW$39, DW_AT_type(*$C$DW$T$26)
	.dwattr $C$DW$39, DW_AT_location[DW_OP_breg13 12]
;----------------------------------------------------------------------
; 556 | void mem_set (void* dst, int val, UINT cnt) {                          
;----------------------------------------------------------------------
        STR       A3, [SP, #8]          ; [DPU_3_PIPE] |556| 
        STR       A2, [SP, #4]          ; [DPU_3_PIPE] |556| 
        STR       A1, [SP, #0]          ; [DPU_3_PIPE] |556| 
	.dwpsn	file "E:/Dev/Ti/TivaWare/third_party/fatfs/src/ff.c",line 557,column 10,is_stmt,isa 1
;----------------------------------------------------------------------
; 557 | BYTE *d = (BYTE*)dst;                                                  
;----------------------------------------------------------------------
        LDR       A1, [SP, #0]          ; [DPU_3_PIPE] |557| 
        STR       A1, [SP, #12]         ; [DPU_3_PIPE] |557| 
	.dwpsn	file "E:/Dev/Ti/TivaWare/third_party/fatfs/src/ff.c",line 559,column 2,is_stmt,isa 1
;----------------------------------------------------------------------
; 559 | while (cnt--)                                                          
;----------------------------------------------------------------------
        LDR       A1, [SP, #8]          ; [DPU_3_PIPE] |559| 
        SUBS      A2, A1, #1            ; [DPU_3_PIPE] |559| 
        STR       A2, [SP, #8]          ; [DPU_3_PIPE] |559| 
        CBZ       A1, ||$C$L4||         ; [] 
        ; BRANCHCC OCCURS {||$C$L4||}    ; [] |559| 
;* --------------------------------------------------------------------------*
;*   BEGIN LOOP ||$C$L3||
;*
;*   Loop source line                : 559
;*   Loop closing brace source line  : 560
;*   Known Minimum Trip Count        : 1
;*   Known Maximum Trip Count        : 4294967295
;*   Known Max Trip Count Factor     : 1
;* --------------------------------------------------------------------------*
||$C$L3||:    
	.dwpsn	file "E:/Dev/Ti/TivaWare/third_party/fatfs/src/ff.c",line 560,column 3,is_stmt,isa 1
;----------------------------------------------------------------------
; 560 | *d++ = (BYTE)val;                                                      
;----------------------------------------------------------------------
        LDR       A1, [SP, #12]         ; [DPU_3_PIPE] |560| 
        ADDS      A2, A1, #1            ; [DPU_3_PIPE] |560| 
        STR       A2, [SP, #12]         ; [DPU_3_PIPE] |560| 
        LDRB      A2, [SP, #4]          ; [DPU_3_PIPE] |560| 
        STRB      A2, [A1, #0]          ; [DPU_3_PIPE] |560| 
	.dwpsn	file "E:/Dev/Ti/TivaWare/third_party/fatfs/src/ff.c",line 559,column 2,is_stmt,isa 1
        LDR       A1, [SP, #8]          ; [DPU_3_PIPE] |559| 
        CMP       A1, #0                ; [DPU_3_PIPE] |559| 
        SUB       A2, A1, #1            ; [DPU_3_PIPE] |559| 
        STR       A2, [SP, #8]          ; [DPU_3_PIPE] |559| 
        BNE       ||$C$L3||             ; [DPU_3_PIPE] |559| 
        ; BRANCHCC OCCURS {||$C$L3||}    ; [] |559| 
;* --------------------------------------------------------------------------*
	.dwpsn	file "E:/Dev/Ti/TivaWare/third_party/fatfs/src/ff.c",line 561,column 1,is_stmt,isa 1
;* --------------------------------------------------------------------------*
||$C$L4||:    
        ADD       SP, SP, #16           ; [DPU_3_PIPE] 
	.dwcfi	cfa_offset, 0
$C$DW$40	.dwtag  DW_TAG_TI_branch
	.dwattr $C$DW$40, DW_AT_low_pc(0x00)
	.dwattr $C$DW$40, DW_AT_TI_return
        BX        LR                    ; [DPU_3_PIPE] 
        ; BRANCH OCCURS                  ; [] 
	.dwattr $C$DW$32, DW_AT_TI_end_file("E:/Dev/Ti/TivaWare/third_party/fatfs/src/ff.c")
	.dwattr $C$DW$32, DW_AT_TI_end_line(0x231)
	.dwattr $C$DW$32, DW_AT_TI_end_column(0x01)
	.dwendentry
	.dwendtag $C$DW$32

	.sect	".text:mem_cmp"
	.clink
	.thumbfunc mem_cmp
	.thumb

$C$DW$41	.dwtag  DW_TAG_subprogram, DW_AT_name("mem_cmp")
	.dwattr $C$DW$41, DW_AT_low_pc(mem_cmp)
	.dwattr $C$DW$41, DW_AT_high_pc(0x00)
	.dwattr $C$DW$41, DW_AT_TI_symbol_name("mem_cmp")
	.dwattr $C$DW$41, DW_AT_type(*$C$DW$T$10)
	.dwattr $C$DW$41, DW_AT_TI_begin_file("E:/Dev/Ti/TivaWare/third_party/fatfs/src/ff.c")
	.dwattr $C$DW$41, DW_AT_TI_begin_line(0x235)
	.dwattr $C$DW$41, DW_AT_TI_begin_column(0x05)
	.dwattr $C$DW$41, DW_AT_decl_file("E:/Dev/Ti/TivaWare/third_party/fatfs/src/ff.c")
	.dwattr $C$DW$41, DW_AT_decl_line(0x235)
	.dwattr $C$DW$41, DW_AT_decl_column(0x05)
	.dwattr $C$DW$41, DW_AT_TI_max_frame_size(0x18)
	.dwpsn	file "E:/Dev/Ti/TivaWare/third_party/fatfs/src/ff.c",line 565,column 58,is_stmt,address mem_cmp,isa 1

	.dwfde $C$DW$CIE, mem_cmp
$C$DW$42	.dwtag  DW_TAG_formal_parameter, DW_AT_name("dst")
	.dwattr $C$DW$42, DW_AT_TI_symbol_name("dst")
	.dwattr $C$DW$42, DW_AT_type(*$C$DW$T$81)
	.dwattr $C$DW$42, DW_AT_location[DW_OP_reg0]
$C$DW$43	.dwtag  DW_TAG_formal_parameter, DW_AT_name("src")
	.dwattr $C$DW$43, DW_AT_TI_symbol_name("src")
	.dwattr $C$DW$43, DW_AT_type(*$C$DW$T$81)
	.dwattr $C$DW$43, DW_AT_location[DW_OP_reg1]
$C$DW$44	.dwtag  DW_TAG_formal_parameter, DW_AT_name("cnt")
	.dwattr $C$DW$44, DW_AT_TI_symbol_name("cnt")
	.dwattr $C$DW$44, DW_AT_type(*$C$DW$T$57)
	.dwattr $C$DW$44, DW_AT_location[DW_OP_reg2]

;*****************************************************************************
;* FUNCTION NAME: mem_cmp                                                    *
;*                                                                           *
;*   Regs Modified     : A1,A2,A3,SP,SR                                      *
;*   Regs Used         : A1,A2,A3,SP,LR,SR                                   *
;*   Local Frame Size  : 0 Args + 24 Auto + 0 Save = 24 byte                 *
;*****************************************************************************
mem_cmp:
;* --------------------------------------------------------------------------*
	.dwcfi	cfa_offset, 0
        SUB       SP, SP, #24           ; [DPU_3_PIPE] 
	.dwcfi	cfa_offset, 24
$C$DW$45	.dwtag  DW_TAG_variable, DW_AT_name("dst")
	.dwattr $C$DW$45, DW_AT_TI_symbol_name("dst")
	.dwattr $C$DW$45, DW_AT_type(*$C$DW$T$81)
	.dwattr $C$DW$45, DW_AT_location[DW_OP_breg13 0]
$C$DW$46	.dwtag  DW_TAG_variable, DW_AT_name("src")
	.dwattr $C$DW$46, DW_AT_TI_symbol_name("src")
	.dwattr $C$DW$46, DW_AT_type(*$C$DW$T$81)
	.dwattr $C$DW$46, DW_AT_location[DW_OP_breg13 4]
$C$DW$47	.dwtag  DW_TAG_variable, DW_AT_name("cnt")
	.dwattr $C$DW$47, DW_AT_TI_symbol_name("cnt")
	.dwattr $C$DW$47, DW_AT_type(*$C$DW$T$57)
	.dwattr $C$DW$47, DW_AT_location[DW_OP_breg13 8]
$C$DW$48	.dwtag  DW_TAG_variable, DW_AT_name("d")
	.dwattr $C$DW$48, DW_AT_TI_symbol_name("d")
	.dwattr $C$DW$48, DW_AT_type(*$C$DW$T$38)
	.dwattr $C$DW$48, DW_AT_location[DW_OP_breg13 12]
$C$DW$49	.dwtag  DW_TAG_variable, DW_AT_name("s")
	.dwattr $C$DW$49, DW_AT_TI_symbol_name("s")
	.dwattr $C$DW$49, DW_AT_type(*$C$DW$T$38)
	.dwattr $C$DW$49, DW_AT_location[DW_OP_breg13 16]
$C$DW$50	.dwtag  DW_TAG_variable, DW_AT_name("r")
	.dwattr $C$DW$50, DW_AT_TI_symbol_name("r")
	.dwattr $C$DW$50, DW_AT_type(*$C$DW$T$10)
	.dwattr $C$DW$50, DW_AT_location[DW_OP_breg13 20]
;----------------------------------------------------------------------
; 565 | int mem_cmp (const void* dst, const void* src, UINT cnt) {             
;----------------------------------------------------------------------
        STR       A3, [SP, #8]          ; [DPU_3_PIPE] |565| 
        STR       A2, [SP, #4]          ; [DPU_3_PIPE] |565| 
        STR       A1, [SP, #0]          ; [DPU_3_PIPE] |565| 
	.dwpsn	file "E:/Dev/Ti/TivaWare/third_party/fatfs/src/ff.c",line 566,column 16,is_stmt,isa 1
;----------------------------------------------------------------------
; 566 | const BYTE *d = (const BYTE *)dst, *s = (const BYTE *)src;             
;----------------------------------------------------------------------
        LDR       A1, [SP, #0]          ; [DPU_3_PIPE] |566| 
        STR       A1, [SP, #12]         ; [DPU_3_PIPE] |566| 
	.dwpsn	file "E:/Dev/Ti/TivaWare/third_party/fatfs/src/ff.c",line 566,column 40,is_stmt,isa 1
        LDR       A1, [SP, #4]          ; [DPU_3_PIPE] |566| 
        STR       A1, [SP, #16]         ; [DPU_3_PIPE] |566| 
	.dwpsn	file "E:/Dev/Ti/TivaWare/third_party/fatfs/src/ff.c",line 567,column 8,is_stmt,isa 1
;----------------------------------------------------------------------
; 567 | int r = 0;                                                             
;----------------------------------------------------------------------
        MOVS      A1, #0                ; [DPU_3_PIPE] |567| 
        STR       A1, [SP, #20]         ; [DPU_3_PIPE] |567| 
	.dwpsn	file "E:/Dev/Ti/TivaWare/third_party/fatfs/src/ff.c",line 569,column 2,is_stmt,isa 1
;----------------------------------------------------------------------
; 569 | while (cnt-- && (r = *d++ - *s++) == 0) ;                              
;----------------------------------------------------------------------
;* --------------------------------------------------------------------------*
;*   BEGIN LOOP ||$C$L5||
;*
;*   Loop source line                : 569
;*   Loop closing brace source line  : 569
;*   Known Minimum Trip Count        : 1
;*   Known Maximum Trip Count        : 4294967295
;*   Known Max Trip Count Factor     : 1
;* --------------------------------------------------------------------------*
||$C$L5||:    
	.dwpsn	file "E:/Dev/Ti/TivaWare/third_party/fatfs/src/ff.c",line 569,column 9,is_stmt,isa 1
        LDR       A1, [SP, #8]          ; [DPU_3_PIPE] |569| 
        SUBS      A2, A1, #1            ; [DPU_3_PIPE] |569| 
        STR       A2, [SP, #8]          ; [DPU_3_PIPE] |569| 
        CBZ       A1, ||$C$L6||         ; [] 
        ; BRANCHCC OCCURS {||$C$L6||}    ; [] |569| 
;* --------------------------------------------------------------------------*
        LDR       A1, [SP, #16]         ; [DPU_3_PIPE] |569| 
        LDR       A3, [SP, #12]         ; [DPU_3_PIPE] |569| 
        LDRB      A2, [A1], #1          ; [DPU_3_PIPE] |569| 
        STR       A1, [SP, #16]         ; [DPU_3_PIPE] |569| 
        LDRB      A1, [A3], #1          ; [DPU_3_PIPE] |569| 
        STR       A3, [SP, #12]         ; [DPU_3_PIPE] |569| 
        SUBS      A1, A1, A2            ; [DPU_3_PIPE] |569| 
        STR       A1, [SP, #20]         ; [DPU_3_PIPE] |569| 
        BEQ       ||$C$L5||             ; [DPU_3_PIPE] |569| 
        ; BRANCHCC OCCURS {||$C$L5||}    ; [] |569| 
;* --------------------------------------------------------------------------*
||$C$L6||:    
	.dwpsn	file "E:/Dev/Ti/TivaWare/third_party/fatfs/src/ff.c",line 570,column 2,is_stmt,isa 1
;----------------------------------------------------------------------
; 570 | return r;                                                              
;----------------------------------------------------------------------
        LDR       A1, [SP, #20]         ; [DPU_3_PIPE] |570| 
	.dwpsn	file "E:/Dev/Ti/TivaWare/third_party/fatfs/src/ff.c",line 571,column 1,is_stmt,isa 1
        ADD       SP, SP, #24           ; [DPU_3_PIPE] 
	.dwcfi	cfa_offset, 0
$C$DW$51	.dwtag  DW_TAG_TI_branch
	.dwattr $C$DW$51, DW_AT_low_pc(0x00)
	.dwattr $C$DW$51, DW_AT_TI_return
        BX        LR                    ; [DPU_3_PIPE] 
        ; BRANCH OCCURS                  ; [] 
	.dwattr $C$DW$41, DW_AT_TI_end_file("E:/Dev/Ti/TivaWare/third_party/fatfs/src/ff.c")
	.dwattr $C$DW$41, DW_AT_TI_end_line(0x23b)
	.dwattr $C$DW$41, DW_AT_TI_end_column(0x01)
	.dwendentry
	.dwendtag $C$DW$41

	.sect	".text:chk_chr"
	.clink
	.thumbfunc chk_chr
	.thumb

$C$DW$52	.dwtag  DW_TAG_subprogram, DW_AT_name("chk_chr")
	.dwattr $C$DW$52, DW_AT_low_pc(chk_chr)
	.dwattr $C$DW$52, DW_AT_high_pc(0x00)
	.dwattr $C$DW$52, DW_AT_TI_symbol_name("chk_chr")
	.dwattr $C$DW$52, DW_AT_type(*$C$DW$T$10)
	.dwattr $C$DW$52, DW_AT_TI_begin_file("E:/Dev/Ti/TivaWare/third_party/fatfs/src/ff.c")
	.dwattr $C$DW$52, DW_AT_TI_begin_line(0x23f)
	.dwattr $C$DW$52, DW_AT_TI_begin_column(0x05)
	.dwattr $C$DW$52, DW_AT_decl_file("E:/Dev/Ti/TivaWare/third_party/fatfs/src/ff.c")
	.dwattr $C$DW$52, DW_AT_decl_line(0x23f)
	.dwattr $C$DW$52, DW_AT_decl_column(0x05)
	.dwattr $C$DW$52, DW_AT_TI_max_frame_size(0x08)
	.dwpsn	file "E:/Dev/Ti/TivaWare/third_party/fatfs/src/ff.c",line 575,column 40,is_stmt,address chk_chr,isa 1

	.dwfde $C$DW$CIE, chk_chr
$C$DW$53	.dwtag  DW_TAG_formal_parameter, DW_AT_name("str")
	.dwattr $C$DW$53, DW_AT_TI_symbol_name("str")
	.dwattr $C$DW$53, DW_AT_type(*$C$DW$T$125)
	.dwattr $C$DW$53, DW_AT_location[DW_OP_reg0]
$C$DW$54	.dwtag  DW_TAG_formal_parameter, DW_AT_name("chr")
	.dwattr $C$DW$54, DW_AT_TI_symbol_name("chr")
	.dwattr $C$DW$54, DW_AT_type(*$C$DW$T$10)
	.dwattr $C$DW$54, DW_AT_location[DW_OP_reg1]

;*****************************************************************************
;* FUNCTION NAME: chk_chr                                                    *
;*                                                                           *
;*   Regs Modified     : A1,A2,SP,SR                                         *
;*   Regs Used         : A1,A2,SP,LR,SR                                      *
;*   Local Frame Size  : 0 Args + 8 Auto + 0 Save = 8 byte                   *
;*****************************************************************************
chk_chr:
;* --------------------------------------------------------------------------*
	.dwcfi	cfa_offset, 0
        SUB       SP, SP, #8            ; [DPU_3_PIPE] 
	.dwcfi	cfa_offset, 8
$C$DW$55	.dwtag  DW_TAG_variable, DW_AT_name("str")
	.dwattr $C$DW$55, DW_AT_TI_symbol_name("str")
	.dwattr $C$DW$55, DW_AT_type(*$C$DW$T$125)
	.dwattr $C$DW$55, DW_AT_location[DW_OP_breg13 0]
$C$DW$56	.dwtag  DW_TAG_variable, DW_AT_name("chr")
	.dwattr $C$DW$56, DW_AT_TI_symbol_name("chr")
	.dwattr $C$DW$56, DW_AT_type(*$C$DW$T$10)
	.dwattr $C$DW$56, DW_AT_location[DW_OP_breg13 4]
;----------------------------------------------------------------------
; 575 | int chk_chr (const char* str, int chr) {                               
;----------------------------------------------------------------------
        STR       A2, [SP, #4]          ; [DPU_3_PIPE] |575| 
        STR       A1, [SP, #0]          ; [DPU_3_PIPE] |575| 
	.dwpsn	file "E:/Dev/Ti/TivaWare/third_party/fatfs/src/ff.c",line 576,column 2,is_stmt,isa 1
;----------------------------------------------------------------------
; 576 | while (*str && *str != chr) str++;                                     
;----------------------------------------------------------------------
        B         ||$C$L8||             ; [DPU_3_PIPE] |576| 
        ; BRANCH OCCURS {||$C$L8||}      ; [] |576| 
;* --------------------------------------------------------------------------*
||$C$L7||:    
	.dwpsn	file "E:/Dev/Ti/TivaWare/third_party/fatfs/src/ff.c",line 576,column 30,is_stmt,isa 1
        LDR       A1, [SP, #0]          ; [DPU_3_PIPE] |576| 
        ADDS      A1, A1, #1            ; [DPU_3_PIPE] |576| 
        STR       A1, [SP, #0]          ; [DPU_3_PIPE] |576| 
;* --------------------------------------------------------------------------*
;*   BEGIN LOOP ||$C$L8||
;* --------------------------------------------------------------------------*
||$C$L8||:    
	.dwpsn	file "E:/Dev/Ti/TivaWare/third_party/fatfs/src/ff.c",line 576,column 9,is_stmt,isa 1
        LDR       A1, [SP, #0]          ; [DPU_3_PIPE] |576| 
        LDRB      A1, [A1, #0]          ; [DPU_3_PIPE] |576| 
        CBZ       A1, ||$C$L9||         ; [] 
        ; BRANCHCC OCCURS {||$C$L9||}    ; [] |576| 
;* --------------------------------------------------------------------------*
        LDR       A2, [SP, #0]          ; [DPU_3_PIPE] |576| 
        LDR       A1, [SP, #4]          ; [DPU_3_PIPE] |576| 
        LDRB      A2, [A2, #0]          ; [DPU_3_PIPE] |576| 
        CMP       A1, A2                ; [DPU_3_PIPE] |576| 
        BNE       ||$C$L7||             ; [DPU_3_PIPE] |576| 
        ; BRANCHCC OCCURS {||$C$L7||}    ; [] |576| 
;* --------------------------------------------------------------------------*
||$C$L9||:    
	.dwpsn	file "E:/Dev/Ti/TivaWare/third_party/fatfs/src/ff.c",line 577,column 2,is_stmt,isa 1
;----------------------------------------------------------------------
; 577 | return *str;                                                           
;----------------------------------------------------------------------
        LDR       A1, [SP, #0]          ; [DPU_3_PIPE] |577| 
        LDRB      A1, [A1, #0]          ; [DPU_3_PIPE] |577| 
	.dwpsn	file "E:/Dev/Ti/TivaWare/third_party/fatfs/src/ff.c",line 578,column 1,is_stmt,isa 1
        ADD       SP, SP, #8            ; [DPU_3_PIPE] 
	.dwcfi	cfa_offset, 0
$C$DW$57	.dwtag  DW_TAG_TI_branch
	.dwattr $C$DW$57, DW_AT_low_pc(0x00)
	.dwattr $C$DW$57, DW_AT_TI_return
        BX        LR                    ; [DPU_3_PIPE] 
        ; BRANCH OCCURS                  ; [] 
	.dwattr $C$DW$52, DW_AT_TI_end_file("E:/Dev/Ti/TivaWare/third_party/fatfs/src/ff.c")
	.dwattr $C$DW$52, DW_AT_TI_end_line(0x242)
	.dwattr $C$DW$52, DW_AT_TI_end_column(0x01)
	.dwendentry
	.dwendtag $C$DW$52

	.sect	".text:sync_window"
	.clink
	.thumbfunc sync_window
	.thumb

$C$DW$58	.dwtag  DW_TAG_subprogram, DW_AT_name("sync_window")
	.dwattr $C$DW$58, DW_AT_low_pc(sync_window)
	.dwattr $C$DW$58, DW_AT_high_pc(0x00)
	.dwattr $C$DW$58, DW_AT_TI_symbol_name("sync_window")
	.dwattr $C$DW$58, DW_AT_type(*$C$DW$T$44)
	.dwattr $C$DW$58, DW_AT_TI_begin_file("E:/Dev/Ti/TivaWare/third_party/fatfs/src/ff.c")
	.dwattr $C$DW$58, DW_AT_TI_begin_line(0x2dc)
	.dwattr $C$DW$58, DW_AT_TI_begin_column(0x09)
	.dwattr $C$DW$58, DW_AT_decl_file("E:/Dev/Ti/TivaWare/third_party/fatfs/src/ff.c")
	.dwattr $C$DW$58, DW_AT_decl_line(0x2dc)
	.dwattr $C$DW$58, DW_AT_decl_column(0x09)
	.dwattr $C$DW$58, DW_AT_TI_max_frame_size(0x10)
	.dwpsn	file "E:/Dev/Ti/TivaWare/third_party/fatfs/src/ff.c",line 735,column 1,is_stmt,address sync_window,isa 1

	.dwfde $C$DW$CIE, sync_window
$C$DW$59	.dwtag  DW_TAG_formal_parameter, DW_AT_name("fs")
	.dwattr $C$DW$59, DW_AT_TI_symbol_name("fs")
	.dwattr $C$DW$59, DW_AT_type(*$C$DW$T$25)
	.dwattr $C$DW$59, DW_AT_location[DW_OP_reg0]
;----------------------------------------------------------------------
; 732 | FRESULT sync_window (                                                  
; 733 | FATFS *fs               /* File system object */                       
; 734 | )                                                                      
;----------------------------------------------------------------------

;*****************************************************************************
;* FUNCTION NAME: sync_window                                                *
;*                                                                           *
;*   Regs Modified     : A1,A2,A3,A4,V9,SP,LR,SR,D0,D0_hi,D1,D1_hi,D2,D2_hi, *
;*                           D3,D3_hi,D4,D4_hi,D5,D5_hi,D6,D6_hi,D7,D7_hi,   *
;*                           FPEXC,FPSCR                                     *
;*   Regs Used         : A1,A2,A3,A4,V9,SP,LR,SR,D0,D0_hi,D1,D1_hi,D2,D2_hi, *
;*                           D3,D3_hi,D4,D4_hi,D5,D5_hi,D6,D6_hi,D7,D7_hi,   *
;*                           FPEXC,FPSCR                                     *
;*   Local Frame Size  : 0 Args + 12 Auto + 4 Save = 16 byte                 *
;*****************************************************************************
sync_window:
;* --------------------------------------------------------------------------*
	.dwcfi	cfa_offset, 0
        PUSH      {A2, A3, A4, LR}      ; [DPU_3_PIPE] 
	.dwcfi	cfa_offset, 16
	.dwcfi	save_reg_to_mem, 14, -4
	.dwcfi	save_reg_to_mem, 3, -8
	.dwcfi	save_reg_to_mem, 2, -12
	.dwcfi	save_reg_to_mem, 1, -16
$C$DW$60	.dwtag  DW_TAG_variable, DW_AT_name("fs")
	.dwattr $C$DW$60, DW_AT_TI_symbol_name("fs")
	.dwattr $C$DW$60, DW_AT_type(*$C$DW$T$25)
	.dwattr $C$DW$60, DW_AT_location[DW_OP_breg13 0]
$C$DW$61	.dwtag  DW_TAG_variable, DW_AT_name("wsect")
	.dwattr $C$DW$61, DW_AT_TI_symbol_name("wsect")
	.dwattr $C$DW$61, DW_AT_type(*$C$DW$T$21)
	.dwattr $C$DW$61, DW_AT_location[DW_OP_breg13 4]
$C$DW$62	.dwtag  DW_TAG_variable, DW_AT_name("nf")
	.dwattr $C$DW$62, DW_AT_TI_symbol_name("nf")
	.dwattr $C$DW$62, DW_AT_type(*$C$DW$T$57)
	.dwattr $C$DW$62, DW_AT_location[DW_OP_breg13 8]
;----------------------------------------------------------------------
; 736 | DWORD wsect;                                                           
; 737 | UINT nf;                                                               
;----------------------------------------------------------------------
        STR       A1, [SP, #0]          ; [DPU_3_PIPE] |735| 
	.dwpsn	file "E:/Dev/Ti/TivaWare/third_party/fatfs/src/ff.c",line 740,column 2,is_stmt,isa 1
;----------------------------------------------------------------------
; 740 | if (fs->wflag) {        /* Write back the sector if it is dirty */     
;----------------------------------------------------------------------
        LDR       A1, [SP, #0]          ; [DPU_3_PIPE] |740| 
        LDRB      A1, [A1, #4]          ; [DPU_3_PIPE] |740| 
        CMP       A1, #0                ; [DPU_3_PIPE] |740| 
        BEQ       ||$C$L12||            ; [DPU_3_PIPE] |740| 
        ; BRANCHCC OCCURS {||$C$L12||}   ; [] |740| 
;* --------------------------------------------------------------------------*
	.dwpsn	file "E:/Dev/Ti/TivaWare/third_party/fatfs/src/ff.c",line 741,column 3,is_stmt,isa 1
;----------------------------------------------------------------------
; 741 | wsect = fs->winsect;    /* Current sector number */                    
;----------------------------------------------------------------------
        LDR       A1, [SP, #0]          ; [DPU_3_PIPE] |741| 
        LDR       A1, [A1, #48]         ; [DPU_3_PIPE] |741| 
        STR       A1, [SP, #4]          ; [DPU_3_PIPE] |741| 
	.dwpsn	file "E:/Dev/Ti/TivaWare/third_party/fatfs/src/ff.c",line 742,column 3,is_stmt,isa 1
;----------------------------------------------------------------------
; 742 | if (disk_write(fs->drv, fs->win, wsect, 1) != RES_OK)                  
;----------------------------------------------------------------------
        LDR       A2, [SP, #0]          ; [DPU_3_PIPE] |742| 
        LDR       A1, [SP, #0]          ; [DPU_3_PIPE] |742| 
        LDR       A3, [SP, #4]          ; [DPU_3_PIPE] |742| 
        LDRB      A1, [A1, #1]          ; [DPU_3_PIPE] |742| 
        MOVS      A4, #1                ; [DPU_3_PIPE] |742| 
        ADDS      A2, A2, #52           ; [DPU_3_PIPE] |742| 
$C$DW$63	.dwtag  DW_TAG_TI_branch
	.dwattr $C$DW$63, DW_AT_low_pc(0x00)
	.dwattr $C$DW$63, DW_AT_name("disk_write")
	.dwattr $C$DW$63, DW_AT_TI_call
        BL        disk_write            ; [DPU_3_PIPE] |742| 
        ; CALL OCCURS {disk_write }      ; [] |742| 
        CBZ       A1, ||$C$L10||        ; [] 
        ; BRANCHCC OCCURS {||$C$L10||}   ; [] |742| 
;* --------------------------------------------------------------------------*
	.dwpsn	file "E:/Dev/Ti/TivaWare/third_party/fatfs/src/ff.c",line 743,column 4,is_stmt,isa 1
;----------------------------------------------------------------------
; 743 | return FR_DISK_ERR;                                                    
;----------------------------------------------------------------------
        MOVS      A1, #1                ; [DPU_3_PIPE] |743| 
        B         ||$C$L13||            ; [DPU_3_PIPE] |743| 
        ; BRANCH OCCURS {||$C$L13||}     ; [] |743| 
;* --------------------------------------------------------------------------*
||$C$L10||:    
	.dwpsn	file "E:/Dev/Ti/TivaWare/third_party/fatfs/src/ff.c",line 744,column 3,is_stmt,isa 1
;----------------------------------------------------------------------
; 744 | fs->wflag = 0;                                                         
;----------------------------------------------------------------------
        LDR       A1, [SP, #0]          ; [DPU_3_PIPE] |744| 
        MOVS      A2, #0                ; [DPU_3_PIPE] |744| 
        STRB      A2, [A1, #4]          ; [DPU_3_PIPE] |744| 
	.dwpsn	file "E:/Dev/Ti/TivaWare/third_party/fatfs/src/ff.c",line 745,column 3,is_stmt,isa 1
;----------------------------------------------------------------------
; 745 | if (wsect >= fs->fatbase && wsect < (fs->fatbase + fs->fsize)) {
;     |  /* In FAT area? */                                                    
;----------------------------------------------------------------------
        LDR       A1, [SP, #0]          ; [DPU_3_PIPE] |745| 
        LDR       A2, [SP, #4]          ; [DPU_3_PIPE] |745| 
        LDR       A1, [A1, #36]         ; [DPU_3_PIPE] |745| 
        CMP       A1, A2                ; [DPU_3_PIPE] |745| 
        BHI       ||$C$L12||            ; [DPU_3_PIPE] |745| 
        ; BRANCHCC OCCURS {||$C$L12||}   ; [] |745| 
;* --------------------------------------------------------------------------*
        LDR       A2, [SP, #0]          ; [DPU_3_PIPE] |745| 
        LDR       A1, [SP, #0]          ; [DPU_3_PIPE] |745| 
        LDR       A3, [A2, #36]         ; [DPU_3_PIPE] |745| 
        LDR       A1, [A1, #28]         ; [DPU_3_PIPE] |745| 
        LDR       A2, [SP, #4]          ; [DPU_3_PIPE] |745| 
        ADDS      A1, A1, A3            ; [DPU_3_PIPE] |745| 
        CMP       A1, A2                ; [DPU_3_PIPE] |745| 
        BLS       ||$C$L12||            ; [DPU_3_PIPE] |745| 
        ; BRANCHCC OCCURS {||$C$L12||}   ; [] |745| 
;* --------------------------------------------------------------------------*
	.dwpsn	file "E:/Dev/Ti/TivaWare/third_party/fatfs/src/ff.c",line 746,column 9,is_stmt,isa 1
;----------------------------------------------------------------------
; 746 | for (nf = fs->n_fats; nf >= 2; nf--) {  /* Reflect the change to all FA
;     | T copies */                                                            
;----------------------------------------------------------------------
        LDR       A1, [SP, #0]          ; [DPU_3_PIPE] |746| 
        LDRB      A1, [A1, #3]          ; [DPU_3_PIPE] |746| 
        STR       A1, [SP, #8]          ; [DPU_3_PIPE] |746| 
	.dwpsn	file "E:/Dev/Ti/TivaWare/third_party/fatfs/src/ff.c",line 746,column 26,is_stmt,isa 1
        LDR       A1, [SP, #8]          ; [DPU_3_PIPE] |746| 
        CMP       A1, #2                ; [DPU_3_PIPE] |746| 
        BCC       ||$C$L12||            ; [DPU_3_PIPE] |746| 
        ; BRANCHCC OCCURS {||$C$L12||}   ; [] |746| 
;* --------------------------------------------------------------------------*
;*   BEGIN LOOP ||$C$L11||
;*
;*   Loop source line                : 746
;*   Loop closing brace source line  : 749
;*   Known Minimum Trip Count        : 1
;*   Known Maximum Trip Count        : 4294967295
;*   Known Max Trip Count Factor     : 1
;* --------------------------------------------------------------------------*
||$C$L11||:    
	.dwpsn	file "E:/Dev/Ti/TivaWare/third_party/fatfs/src/ff.c",line 747,column 5,is_stmt,isa 1
;----------------------------------------------------------------------
; 747 | wsect += fs->fsize;                                                    
;----------------------------------------------------------------------
        LDR       A1, [SP, #0]          ; [DPU_3_PIPE] |747| 
        LDR       A2, [SP, #4]          ; [DPU_3_PIPE] |747| 
        LDR       A1, [A1, #28]         ; [DPU_3_PIPE] |747| 
        ADDS      A1, A1, A2            ; [DPU_3_PIPE] |747| 
        STR       A1, [SP, #4]          ; [DPU_3_PIPE] |747| 
	.dwpsn	file "E:/Dev/Ti/TivaWare/third_party/fatfs/src/ff.c",line 748,column 5,is_stmt,isa 1
;----------------------------------------------------------------------
; 748 | disk_write(fs->drv, fs->win, wsect, 1);                                
;----------------------------------------------------------------------
        LDR       A1, [SP, #0]          ; [DPU_3_PIPE] |748| 
        LDR       A2, [SP, #0]          ; [DPU_3_PIPE] |748| 
        LDR       A3, [SP, #4]          ; [DPU_3_PIPE] |748| 
        LDRB      A1, [A1, #1]          ; [DPU_3_PIPE] |748| 
        MOVS      A4, #1                ; [DPU_3_PIPE] |748| 
        ADDS      A2, A2, #52           ; [DPU_3_PIPE] |748| 
$C$DW$64	.dwtag  DW_TAG_TI_branch
	.dwattr $C$DW$64, DW_AT_low_pc(0x00)
	.dwattr $C$DW$64, DW_AT_name("disk_write")
	.dwattr $C$DW$64, DW_AT_TI_call
        BL        disk_write            ; [DPU_3_PIPE] |748| 
        ; CALL OCCURS {disk_write }      ; [] |748| 
	.dwpsn	file "E:/Dev/Ti/TivaWare/third_party/fatfs/src/ff.c",line 746,column 35,is_stmt,isa 1
        LDR       A1, [SP, #8]          ; [DPU_3_PIPE] |746| 
        SUBS      A1, A1, #1            ; [DPU_3_PIPE] |746| 
        STR       A1, [SP, #8]          ; [DPU_3_PIPE] |746| 
	.dwpsn	file "E:/Dev/Ti/TivaWare/third_party/fatfs/src/ff.c",line 746,column 26,is_stmt,isa 1
        LDR       A1, [SP, #8]          ; [DPU_3_PIPE] |746| 
        CMP       A1, #2                ; [DPU_3_PIPE] |746| 
        BCS       ||$C$L11||            ; [DPU_3_PIPE] |746| 
        ; BRANCHCC OCCURS {||$C$L11||}   ; [] |746| 
;* --------------------------------------------------------------------------*
||$C$L12||:    
	.dwpsn	file "E:/Dev/Ti/TivaWare/third_party/fatfs/src/ff.c",line 752,column 2,is_stmt,isa 1
;----------------------------------------------------------------------
; 752 | return FR_OK;                                                          
;----------------------------------------------------------------------
        MOVS      A1, #0                ; [DPU_3_PIPE] |752| 
;* --------------------------------------------------------------------------*
||$C$L13||:    
	.dwpsn	file "E:/Dev/Ti/TivaWare/third_party/fatfs/src/ff.c",line 753,column 1,is_stmt,isa 1
$C$DW$65	.dwtag  DW_TAG_TI_branch
	.dwattr $C$DW$65, DW_AT_low_pc(0x00)
	.dwattr $C$DW$65, DW_AT_TI_return
        POP       {A2, A3, A4, PC}      ; [DPU_3_PIPE] 
	.dwcfi	cfa_offset, 0
        ; BRANCH OCCURS                  ; [] 
	.dwattr $C$DW$58, DW_AT_TI_end_file("E:/Dev/Ti/TivaWare/third_party/fatfs/src/ff.c")
	.dwattr $C$DW$58, DW_AT_TI_end_line(0x2f1)
	.dwattr $C$DW$58, DW_AT_TI_end_column(0x01)
	.dwendentry
	.dwendtag $C$DW$58

	.sect	".text:move_window"
	.clink
	.thumbfunc move_window
	.thumb

$C$DW$66	.dwtag  DW_TAG_subprogram, DW_AT_name("move_window")
	.dwattr $C$DW$66, DW_AT_low_pc(move_window)
	.dwattr $C$DW$66, DW_AT_high_pc(0x00)
	.dwattr $C$DW$66, DW_AT_TI_symbol_name("move_window")
	.dwattr $C$DW$66, DW_AT_type(*$C$DW$T$44)
	.dwattr $C$DW$66, DW_AT_TI_begin_file("E:/Dev/Ti/TivaWare/third_party/fatfs/src/ff.c")
	.dwattr $C$DW$66, DW_AT_TI_begin_line(0x2f6)
	.dwattr $C$DW$66, DW_AT_TI_begin_column(0x09)
	.dwattr $C$DW$66, DW_AT_decl_file("E:/Dev/Ti/TivaWare/third_party/fatfs/src/ff.c")
	.dwattr $C$DW$66, DW_AT_decl_line(0x2f6)
	.dwattr $C$DW$66, DW_AT_decl_column(0x09)
	.dwattr $C$DW$66, DW_AT_TI_max_frame_size(0x10)
	.dwpsn	file "E:/Dev/Ti/TivaWare/third_party/fatfs/src/ff.c",line 762,column 1,is_stmt,address move_window,isa 1

	.dwfde $C$DW$CIE, move_window
$C$DW$67	.dwtag  DW_TAG_formal_parameter, DW_AT_name("fs")
	.dwattr $C$DW$67, DW_AT_TI_symbol_name("fs")
	.dwattr $C$DW$67, DW_AT_type(*$C$DW$T$25)
	.dwattr $C$DW$67, DW_AT_location[DW_OP_reg0]
$C$DW$68	.dwtag  DW_TAG_formal_parameter, DW_AT_name("sector")
	.dwattr $C$DW$68, DW_AT_TI_symbol_name("sector")
	.dwattr $C$DW$68, DW_AT_type(*$C$DW$T$21)
	.dwattr $C$DW$68, DW_AT_location[DW_OP_reg1]
;----------------------------------------------------------------------
; 758 | FRESULT move_window (                                                  
; 759 | FATFS *fs,              /* File system object */                       
; 760 | DWORD sector    /* Sector number to make appearance in the fs->win[] */
; 761 | )                                                                      
;----------------------------------------------------------------------

;*****************************************************************************
;* FUNCTION NAME: move_window                                                *
;*                                                                           *
;*   Regs Modified     : A1,A2,A3,A4,V9,SP,LR,SR,D0,D0_hi,D1,D1_hi,D2,D2_hi, *
;*                           D3,D3_hi,D4,D4_hi,D5,D5_hi,D6,D6_hi,D7,D7_hi,   *
;*                           FPEXC,FPSCR                                     *
;*   Regs Used         : A1,A2,A3,A4,V9,SP,LR,SR,D0,D0_hi,D1,D1_hi,D2,D2_hi, *
;*                           D3,D3_hi,D4,D4_hi,D5,D5_hi,D6,D6_hi,D7,D7_hi,   *
;*                           FPEXC,FPSCR                                     *
;*   Local Frame Size  : 0 Args + 8 Auto + 4 Save = 12 byte                  *
;*****************************************************************************
move_window:
;* --------------------------------------------------------------------------*
	.dwcfi	cfa_offset, 0
        PUSH      {A2, A3, A4, LR}      ; [DPU_3_PIPE] 
	.dwcfi	cfa_offset, 16
	.dwcfi	save_reg_to_mem, 14, -4
	.dwcfi	save_reg_to_mem, 3, -8
	.dwcfi	save_reg_to_mem, 2, -12
	.dwcfi	save_reg_to_mem, 1, -16
$C$DW$69	.dwtag  DW_TAG_variable, DW_AT_name("fs")
	.dwattr $C$DW$69, DW_AT_TI_symbol_name("fs")
	.dwattr $C$DW$69, DW_AT_type(*$C$DW$T$25)
	.dwattr $C$DW$69, DW_AT_location[DW_OP_breg13 0]
$C$DW$70	.dwtag  DW_TAG_variable, DW_AT_name("sector")
	.dwattr $C$DW$70, DW_AT_TI_symbol_name("sector")
	.dwattr $C$DW$70, DW_AT_type(*$C$DW$T$21)
	.dwattr $C$DW$70, DW_AT_location[DW_OP_breg13 4]
        STR       A2, [SP, #4]          ; [DPU_3_PIPE] |762| 
        STR       A1, [SP, #0]          ; [DPU_3_PIPE] |762| 
	.dwpsn	file "E:/Dev/Ti/TivaWare/third_party/fatfs/src/ff.c",line 763,column 2,is_stmt,isa 1
;----------------------------------------------------------------------
; 763 | if (sector != fs->winsect) {    /* Changed current window */           
; 764 | #if !_FS_READONLY                                                      
;----------------------------------------------------------------------
        LDR       A1, [SP, #0]          ; [DPU_3_PIPE] |763| 
        LDR       A2, [SP, #4]          ; [DPU_3_PIPE] |763| 
        LDR       A1, [A1, #48]         ; [DPU_3_PIPE] |763| 
        CMP       A1, A2                ; [DPU_3_PIPE] |763| 
        BEQ       ||$C$L16||            ; [DPU_3_PIPE] |763| 
        ; BRANCHCC OCCURS {||$C$L16||}   ; [] |763| 
;* --------------------------------------------------------------------------*
	.dwpsn	file "E:/Dev/Ti/TivaWare/third_party/fatfs/src/ff.c",line 765,column 3,is_stmt,isa 1
;----------------------------------------------------------------------
; 765 | if (sync_window(fs) != FR_OK)                                          
;----------------------------------------------------------------------
        LDR       A1, [SP, #0]          ; [DPU_3_PIPE] |765| 
$C$DW$71	.dwtag  DW_TAG_TI_branch
	.dwattr $C$DW$71, DW_AT_low_pc(0x00)
	.dwattr $C$DW$71, DW_AT_name("sync_window")
	.dwattr $C$DW$71, DW_AT_TI_call
        BL        sync_window           ; [DPU_3_PIPE] |765| 
        ; CALL OCCURS {sync_window }     ; [] |765| 
        CBZ       A1, ||$C$L14||        ; [] 
        ; BRANCHCC OCCURS {||$C$L14||}   ; [] |765| 
;* --------------------------------------------------------------------------*
	.dwpsn	file "E:/Dev/Ti/TivaWare/third_party/fatfs/src/ff.c",line 766,column 4,is_stmt,isa 1
;----------------------------------------------------------------------
; 766 | return FR_DISK_ERR;                                                    
; 767 | #endif                                                                 
;----------------------------------------------------------------------
        MOVS      A1, #1                ; [DPU_3_PIPE] |766| 
        B         ||$C$L17||            ; [DPU_3_PIPE] |766| 
        ; BRANCH OCCURS {||$C$L17||}     ; [] |766| 
;* --------------------------------------------------------------------------*
||$C$L14||:    
	.dwpsn	file "E:/Dev/Ti/TivaWare/third_party/fatfs/src/ff.c",line 768,column 3,is_stmt,isa 1
;----------------------------------------------------------------------
; 768 | if (disk_read(fs->drv, fs->win, sector, 1) != RES_OK)                  
;----------------------------------------------------------------------
        LDR       A1, [SP, #0]          ; [DPU_3_PIPE] |768| 
        LDR       A2, [SP, #0]          ; [DPU_3_PIPE] |768| 
        LDR       A3, [SP, #4]          ; [DPU_3_PIPE] |768| 
        LDRB      A1, [A1, #1]          ; [DPU_3_PIPE] |768| 
        MOVS      A4, #1                ; [DPU_3_PIPE] |768| 
        ADDS      A2, A2, #52           ; [DPU_3_PIPE] |768| 
$C$DW$72	.dwtag  DW_TAG_TI_branch
	.dwattr $C$DW$72, DW_AT_low_pc(0x00)
	.dwattr $C$DW$72, DW_AT_name("disk_read")
	.dwattr $C$DW$72, DW_AT_TI_call
        BL        disk_read             ; [DPU_3_PIPE] |768| 
        ; CALL OCCURS {disk_read }       ; [] |768| 
        CBZ       A1, ||$C$L15||        ; [] 
        ; BRANCHCC OCCURS {||$C$L15||}   ; [] |768| 
;* --------------------------------------------------------------------------*
	.dwpsn	file "E:/Dev/Ti/TivaWare/third_party/fatfs/src/ff.c",line 769,column 4,is_stmt,isa 1
;----------------------------------------------------------------------
; 769 | return FR_DISK_ERR;                                                    
;----------------------------------------------------------------------
        MOVS      A1, #1                ; [DPU_3_PIPE] |769| 
        B         ||$C$L17||            ; [DPU_3_PIPE] |769| 
        ; BRANCH OCCURS {||$C$L17||}     ; [] |769| 
;* --------------------------------------------------------------------------*
||$C$L15||:    
	.dwpsn	file "E:/Dev/Ti/TivaWare/third_party/fatfs/src/ff.c",line 770,column 3,is_stmt,isa 1
;----------------------------------------------------------------------
; 770 | fs->winsect = sector;                                                  
;----------------------------------------------------------------------
        LDR       A1, [SP, #4]          ; [DPU_3_PIPE] |770| 
        LDR       A2, [SP, #0]          ; [DPU_3_PIPE] |770| 
        STR       A1, [A2, #48]         ; [DPU_3_PIPE] |770| 
;* --------------------------------------------------------------------------*
||$C$L16||:    
	.dwpsn	file "E:/Dev/Ti/TivaWare/third_party/fatfs/src/ff.c",line 773,column 2,is_stmt,isa 1
;----------------------------------------------------------------------
; 773 | return FR_OK;                                                          
;----------------------------------------------------------------------
        MOVS      A1, #0                ; [DPU_3_PIPE] |773| 
;* --------------------------------------------------------------------------*
||$C$L17||:    
	.dwpsn	file "E:/Dev/Ti/TivaWare/third_party/fatfs/src/ff.c",line 774,column 1,is_stmt,isa 1
$C$DW$73	.dwtag  DW_TAG_TI_branch
	.dwattr $C$DW$73, DW_AT_low_pc(0x00)
	.dwattr $C$DW$73, DW_AT_TI_return
        POP       {A2, A3, A4, PC}      ; [DPU_3_PIPE] 
	.dwcfi	cfa_offset, 0
        ; BRANCH OCCURS                  ; [] 
	.dwattr $C$DW$66, DW_AT_TI_end_file("E:/Dev/Ti/TivaWare/third_party/fatfs/src/ff.c")
	.dwattr $C$DW$66, DW_AT_TI_end_line(0x306)
	.dwattr $C$DW$66, DW_AT_TI_end_column(0x01)
	.dwendentry
	.dwendtag $C$DW$66

	.sect	".text:sync_fs"
	.clink
	.thumbfunc sync_fs
	.thumb

$C$DW$74	.dwtag  DW_TAG_subprogram, DW_AT_name("sync_fs")
	.dwattr $C$DW$74, DW_AT_low_pc(sync_fs)
	.dwattr $C$DW$74, DW_AT_high_pc(0x00)
	.dwattr $C$DW$74, DW_AT_TI_symbol_name("sync_fs")
	.dwattr $C$DW$74, DW_AT_type(*$C$DW$T$44)
	.dwattr $C$DW$74, DW_AT_TI_begin_file("E:/Dev/Ti/TivaWare/third_party/fatfs/src/ff.c")
	.dwattr $C$DW$74, DW_AT_TI_begin_line(0x310)
	.dwattr $C$DW$74, DW_AT_TI_begin_column(0x09)
	.dwattr $C$DW$74, DW_AT_decl_file("E:/Dev/Ti/TivaWare/third_party/fatfs/src/ff.c")
	.dwattr $C$DW$74, DW_AT_decl_line(0x310)
	.dwattr $C$DW$74, DW_AT_decl_column(0x09)
	.dwattr $C$DW$74, DW_AT_TI_max_frame_size(0x10)
	.dwpsn	file "E:/Dev/Ti/TivaWare/third_party/fatfs/src/ff.c",line 787,column 1,is_stmt,address sync_fs,isa 1

	.dwfde $C$DW$CIE, sync_fs
$C$DW$75	.dwtag  DW_TAG_formal_parameter, DW_AT_name("fs")
	.dwattr $C$DW$75, DW_AT_TI_symbol_name("fs")
	.dwattr $C$DW$75, DW_AT_type(*$C$DW$T$25)
	.dwattr $C$DW$75, DW_AT_location[DW_OP_reg0]
;----------------------------------------------------------------------
; 784 | FRESULT sync_fs (       /* FR_OK: successful, FR_DISK_ERR: failed */   
; 785 | FATFS *fs               /* File system object */                       
; 786 | )                                                                      
;----------------------------------------------------------------------

;*****************************************************************************
;* FUNCTION NAME: sync_fs                                                    *
;*                                                                           *
;*   Regs Modified     : A1,A2,A3,A4,V9,SP,LR,SR,D0,D0_hi,D1,D1_hi,D2,D2_hi, *
;*                           D3,D3_hi,D4,D4_hi,D5,D5_hi,D6,D6_hi,D7,D7_hi,   *
;*                           FPEXC,FPSCR                                     *
;*   Regs Used         : A1,A2,A3,A4,V9,SP,LR,SR,D0,D0_hi,D1,D1_hi,D2,D2_hi, *
;*                           D3,D3_hi,D4,D4_hi,D5,D5_hi,D6,D6_hi,D7,D7_hi,   *
;*                           FPEXC,FPSCR                                     *
;*   Local Frame Size  : 0 Args + 8 Auto + 4 Save = 12 byte                  *
;*****************************************************************************
sync_fs:
;* --------------------------------------------------------------------------*
	.dwcfi	cfa_offset, 0
        PUSH      {A2, A3, A4, LR}      ; [DPU_3_PIPE] 
	.dwcfi	cfa_offset, 16
	.dwcfi	save_reg_to_mem, 14, -4
	.dwcfi	save_reg_to_mem, 3, -8
	.dwcfi	save_reg_to_mem, 2, -12
	.dwcfi	save_reg_to_mem, 1, -16
$C$DW$76	.dwtag  DW_TAG_variable, DW_AT_name("fs")
	.dwattr $C$DW$76, DW_AT_TI_symbol_name("fs")
	.dwattr $C$DW$76, DW_AT_type(*$C$DW$T$25)
	.dwattr $C$DW$76, DW_AT_location[DW_OP_breg13 0]
$C$DW$77	.dwtag  DW_TAG_variable, DW_AT_name("res")
	.dwattr $C$DW$77, DW_AT_TI_symbol_name("res")
	.dwattr $C$DW$77, DW_AT_type(*$C$DW$T$44)
	.dwattr $C$DW$77, DW_AT_location[DW_OP_breg13 4]
;----------------------------------------------------------------------
; 788 | FRESULT res;                                                           
;----------------------------------------------------------------------
        STR       A1, [SP, #0]          ; [DPU_3_PIPE] |787| 
	.dwpsn	file "E:/Dev/Ti/TivaWare/third_party/fatfs/src/ff.c",line 791,column 2,is_stmt,isa 1
;----------------------------------------------------------------------
; 791 | res = sync_window(fs);                                                 
;----------------------------------------------------------------------
        LDR       A1, [SP, #0]          ; [DPU_3_PIPE] |791| 
$C$DW$78	.dwtag  DW_TAG_TI_branch
	.dwattr $C$DW$78, DW_AT_low_pc(0x00)
	.dwattr $C$DW$78, DW_AT_name("sync_window")
	.dwattr $C$DW$78, DW_AT_TI_call
        BL        sync_window           ; [DPU_3_PIPE] |791| 
        ; CALL OCCURS {sync_window }     ; [] |791| 
        STRB      A1, [SP, #4]          ; [DPU_3_PIPE] |791| 
	.dwpsn	file "E:/Dev/Ti/TivaWare/third_party/fatfs/src/ff.c",line 792,column 2,is_stmt,isa 1
;----------------------------------------------------------------------
; 792 | if (res == FR_OK) {                                                    
;----------------------------------------------------------------------
        LDRB      A1, [SP, #4]          ; [DPU_3_PIPE] |792| 
        CMP       A1, #0                ; [DPU_3_PIPE] |792| 
        BNE       ||$C$L19||            ; [DPU_3_PIPE] |792| 
        ; BRANCHCC OCCURS {||$C$L19||}   ; [] |792| 
;* --------------------------------------------------------------------------*
	.dwpsn	file "E:/Dev/Ti/TivaWare/third_party/fatfs/src/ff.c",line 794,column 3,is_stmt,isa 1
;----------------------------------------------------------------------
; 794 | if (fs->fs_type == FS_FAT32 && fs->fsi_flag) {                         
;----------------------------------------------------------------------
        LDR       A1, [SP, #0]          ; [DPU_3_PIPE] |794| 
        LDRB      A1, [A1, #0]          ; [DPU_3_PIPE] |794| 
        CMP       A1, #3                ; [DPU_3_PIPE] |794| 
        BNE       ||$C$L18||            ; [DPU_3_PIPE] |794| 
        ; BRANCHCC OCCURS {||$C$L18||}   ; [] |794| 
;* --------------------------------------------------------------------------*
        LDR       A1, [SP, #0]          ; [DPU_3_PIPE] |794| 
        LDRB      A1, [A1, #5]          ; [DPU_3_PIPE] |794| 
        CMP       A1, #0                ; [DPU_3_PIPE] |794| 
        BEQ       ||$C$L18||            ; [DPU_3_PIPE] |794| 
        ; BRANCHCC OCCURS {||$C$L18||}   ; [] |794| 
;* --------------------------------------------------------------------------*
	.dwpsn	file "E:/Dev/Ti/TivaWare/third_party/fatfs/src/ff.c",line 795,column 4,is_stmt,isa 1
;----------------------------------------------------------------------
; 795 | fs->winsect = 0;                                                       
;----------------------------------------------------------------------
        LDR       A1, [SP, #0]          ; [DPU_3_PIPE] |795| 
        MOVS      A2, #0                ; [DPU_3_PIPE] |795| 
        STR       A2, [A1, #48]         ; [DPU_3_PIPE] |795| 
	.dwpsn	file "E:/Dev/Ti/TivaWare/third_party/fatfs/src/ff.c",line 797,column 4,is_stmt,isa 1
;----------------------------------------------------------------------
; 797 | mem_set(fs->win, 0, 512);                                              
;----------------------------------------------------------------------
        LDR       A1, [SP, #0]          ; [DPU_3_PIPE] |797| 
        MOV       A3, #512              ; [DPU_3_PIPE] |797| 
        MOVS      A2, #0                ; [DPU_3_PIPE] |797| 
        ADDS      A1, A1, #52           ; [DPU_3_PIPE] |797| 
$C$DW$79	.dwtag  DW_TAG_TI_branch
	.dwattr $C$DW$79, DW_AT_low_pc(0x00)
	.dwattr $C$DW$79, DW_AT_name("mem_set")
	.dwattr $C$DW$79, DW_AT_TI_call
        BL        mem_set               ; [DPU_3_PIPE] |797| 
        ; CALL OCCURS {mem_set }         ; [] |797| 
	.dwpsn	file "E:/Dev/Ti/TivaWare/third_party/fatfs/src/ff.c",line 798,column 4,is_stmt,isa 1
;----------------------------------------------------------------------
; 798 | ST_WORD(fs->win+BS_55AA, 0xAA55);                                      
;----------------------------------------------------------------------
        LDR       A2, [SP, #0]          ; [DPU_3_PIPE] |798| 
        MOVS      A1, #85               ; [DPU_3_PIPE] |798| 
        STRB      A1, [A2, #562]        ; [DPU_3_PIPE] |798| 
        LDR       A2, [SP, #0]          ; [DPU_3_PIPE] |798| 
        MOVS      A1, #170              ; [DPU_3_PIPE] |798| 
        STRB      A1, [A2, #563]        ; [DPU_3_PIPE] |798| 
	.dwpsn	file "E:/Dev/Ti/TivaWare/third_party/fatfs/src/ff.c",line 799,column 4,is_stmt,isa 1
;----------------------------------------------------------------------
; 799 | ST_DWORD(fs->win+FSI_LeadSig, 0x41615252);                             
;----------------------------------------------------------------------
        LDR       A2, [SP, #0]          ; [DPU_3_PIPE] |799| 
        MOVS      A1, #82               ; [DPU_3_PIPE] |799| 
        STRB      A1, [A2, #52]         ; [DPU_3_PIPE] |799| 
        LDR       A2, [SP, #0]          ; [DPU_3_PIPE] |799| 
        MOVS      A1, #82               ; [DPU_3_PIPE] |799| 
        STRB      A1, [A2, #53]         ; [DPU_3_PIPE] |799| 
        LDR       A2, [SP, #0]          ; [DPU_3_PIPE] |799| 
        MOVS      A1, #97               ; [DPU_3_PIPE] |799| 
        STRB      A1, [A2, #54]         ; [DPU_3_PIPE] |799| 
        LDR       A2, [SP, #0]          ; [DPU_3_PIPE] |799| 
        MOVS      A1, #65               ; [DPU_3_PIPE] |799| 
        STRB      A1, [A2, #55]         ; [DPU_3_PIPE] |799| 
	.dwpsn	file "E:/Dev/Ti/TivaWare/third_party/fatfs/src/ff.c",line 800,column 4,is_stmt,isa 1
;----------------------------------------------------------------------
; 800 | ST_DWORD(fs->win+FSI_StrucSig, 0x61417272);                            
;----------------------------------------------------------------------
        LDR       A2, [SP, #0]          ; [DPU_3_PIPE] |800| 
        MOVS      A1, #114              ; [DPU_3_PIPE] |800| 
        STRB      A1, [A2, #536]        ; [DPU_3_PIPE] |800| 
        LDR       A2, [SP, #0]          ; [DPU_3_PIPE] |800| 
        MOVS      A1, #114              ; [DPU_3_PIPE] |800| 
        STRB      A1, [A2, #537]        ; [DPU_3_PIPE] |800| 
        LDR       A2, [SP, #0]          ; [DPU_3_PIPE] |800| 
        MOVS      A1, #65               ; [DPU_3_PIPE] |800| 
        STRB      A1, [A2, #538]        ; [DPU_3_PIPE] |800| 
        LDR       A2, [SP, #0]          ; [DPU_3_PIPE] |800| 
        MOVS      A1, #97               ; [DPU_3_PIPE] |800| 
        STRB      A1, [A2, #539]        ; [DPU_3_PIPE] |800| 
	.dwpsn	file "E:/Dev/Ti/TivaWare/third_party/fatfs/src/ff.c",line 801,column 4,is_stmt,isa 1
;----------------------------------------------------------------------
; 801 | ST_DWORD(fs->win+FSI_Free_Count, fs->free_clust);                      
;----------------------------------------------------------------------
        LDR       A1, [SP, #0]          ; [DPU_3_PIPE] |801| 
        LDR       A2, [SP, #0]          ; [DPU_3_PIPE] |801| 
        LDRB      A1, [A1, #16]         ; [DPU_3_PIPE] |801| 
        STRB      A1, [A2, #540]        ; [DPU_3_PIPE] |801| 
        LDR       A1, [SP, #0]          ; [DPU_3_PIPE] |801| 
        LDR       A2, [SP, #0]          ; [DPU_3_PIPE] |801| 
        LDRH      A1, [A1, #16]         ; [DPU_3_PIPE] |801| 
        ASRS      A1, A1, #8            ; [DPU_3_PIPE] |801| 
        STRB      A1, [A2, #541]        ; [DPU_3_PIPE] |801| 
        LDR       A1, [SP, #0]          ; [DPU_3_PIPE] |801| 
        LDR       A2, [SP, #0]          ; [DPU_3_PIPE] |801| 
        LDRB      A1, [A1, #18]         ; [DPU_3_PIPE] |801| 
        STRB      A1, [A2, #542]        ; [DPU_3_PIPE] |801| 
        LDR       A1, [SP, #0]          ; [DPU_3_PIPE] |801| 
        LDR       A2, [SP, #0]          ; [DPU_3_PIPE] |801| 
        LDRB      A1, [A1, #19]         ; [DPU_3_PIPE] |801| 
        STRB      A1, [A2, #543]        ; [DPU_3_PIPE] |801| 
	.dwpsn	file "E:/Dev/Ti/TivaWare/third_party/fatfs/src/ff.c",line 802,column 4,is_stmt,isa 1
;----------------------------------------------------------------------
; 802 | ST_DWORD(fs->win+FSI_Nxt_Free, fs->last_clust);                        
;----------------------------------------------------------------------
        LDR       A1, [SP, #0]          ; [DPU_3_PIPE] |802| 
        LDR       A2, [SP, #0]          ; [DPU_3_PIPE] |802| 
        LDRB      A1, [A1, #12]         ; [DPU_3_PIPE] |802| 
        STRB      A1, [A2, #544]        ; [DPU_3_PIPE] |802| 
        LDR       A1, [SP, #0]          ; [DPU_3_PIPE] |802| 
        LDR       A2, [SP, #0]          ; [DPU_3_PIPE] |802| 
        LDRH      A1, [A1, #12]         ; [DPU_3_PIPE] |802| 
        ASRS      A1, A1, #8            ; [DPU_3_PIPE] |802| 
        STRB      A1, [A2, #545]        ; [DPU_3_PIPE] |802| 
        LDR       A1, [SP, #0]          ; [DPU_3_PIPE] |802| 
        LDR       A2, [SP, #0]          ; [DPU_3_PIPE] |802| 
        LDRB      A1, [A1, #14]         ; [DPU_3_PIPE] |802| 
        STRB      A1, [A2, #546]        ; [DPU_3_PIPE] |802| 
        LDR       A1, [SP, #0]          ; [DPU_3_PIPE] |802| 
        LDR       A2, [SP, #0]          ; [DPU_3_PIPE] |802| 
        LDRB      A1, [A1, #15]         ; [DPU_3_PIPE] |802| 
        STRB      A1, [A2, #547]        ; [DPU_3_PIPE] |802| 
	.dwpsn	file "E:/Dev/Ti/TivaWare/third_party/fatfs/src/ff.c",line 804,column 4,is_stmt,isa 1
;----------------------------------------------------------------------
; 804 | disk_write(fs->drv, fs->win, fs->fsi_sector, 1);                       
;----------------------------------------------------------------------
        LDR       A1, [SP, #0]          ; [DPU_3_PIPE] |804| 
        LDR       A3, [SP, #0]          ; [DPU_3_PIPE] |804| 
        LDR       A2, [SP, #0]          ; [DPU_3_PIPE] |804| 
        LDRB      A1, [A1, #1]          ; [DPU_3_PIPE] |804| 
        LDR       A3, [A3, #20]         ; [DPU_3_PIPE] |804| 
        MOVS      A4, #1                ; [DPU_3_PIPE] |804| 
        ADDS      A2, A2, #52           ; [DPU_3_PIPE] |804| 
$C$DW$80	.dwtag  DW_TAG_TI_branch
	.dwattr $C$DW$80, DW_AT_low_pc(0x00)
	.dwattr $C$DW$80, DW_AT_name("disk_write")
	.dwattr $C$DW$80, DW_AT_TI_call
        BL        disk_write            ; [DPU_3_PIPE] |804| 
        ; CALL OCCURS {disk_write }      ; [] |804| 
	.dwpsn	file "E:/Dev/Ti/TivaWare/third_party/fatfs/src/ff.c",line 805,column 4,is_stmt,isa 1
;----------------------------------------------------------------------
; 805 | fs->fsi_flag = 0;                                                      
;----------------------------------------------------------------------
        LDR       A1, [SP, #0]          ; [DPU_3_PIPE] |805| 
        MOVS      A2, #0                ; [DPU_3_PIPE] |805| 
        STRB      A2, [A1, #5]          ; [DPU_3_PIPE] |805| 
;* --------------------------------------------------------------------------*
||$C$L18||:    
	.dwpsn	file "E:/Dev/Ti/TivaWare/third_party/fatfs/src/ff.c",line 808,column 3,is_stmt,isa 1
;----------------------------------------------------------------------
; 808 | if (disk_ioctl(fs->drv, CTRL_SYNC, 0) != RES_OK)                       
;----------------------------------------------------------------------
        LDR       A1, [SP, #0]          ; [DPU_3_PIPE] |808| 
        LDRB      A1, [A1, #1]          ; [DPU_3_PIPE] |808| 
        MOVS      A2, #0                ; [DPU_3_PIPE] |808| 
        MOVS      A3, #0                ; [DPU_3_PIPE] |808| 
$C$DW$81	.dwtag  DW_TAG_TI_branch
	.dwattr $C$DW$81, DW_AT_low_pc(0x00)
	.dwattr $C$DW$81, DW_AT_name("disk_ioctl")
	.dwattr $C$DW$81, DW_AT_TI_call
        BL        disk_ioctl            ; [DPU_3_PIPE] |808| 
        ; CALL OCCURS {disk_ioctl }      ; [] |808| 
        CBZ       A1, ||$C$L19||        ; [] 
        ; BRANCHCC OCCURS {||$C$L19||}   ; [] |808| 
;* --------------------------------------------------------------------------*
	.dwpsn	file "E:/Dev/Ti/TivaWare/third_party/fatfs/src/ff.c",line 809,column 4,is_stmt,isa 1
;----------------------------------------------------------------------
; 809 | res = FR_DISK_ERR;                                                     
;----------------------------------------------------------------------
        MOVS      A1, #1                ; [DPU_3_PIPE] |809| 
        STRB      A1, [SP, #4]          ; [DPU_3_PIPE] |809| 
;* --------------------------------------------------------------------------*
||$C$L19||:    
	.dwpsn	file "E:/Dev/Ti/TivaWare/third_party/fatfs/src/ff.c",line 812,column 2,is_stmt,isa 1
;----------------------------------------------------------------------
; 812 | return res;                                                            
;----------------------------------------------------------------------
        LDRB      A1, [SP, #4]          ; [DPU_3_PIPE] |812| 
	.dwpsn	file "E:/Dev/Ti/TivaWare/third_party/fatfs/src/ff.c",line 813,column 1,is_stmt,isa 1
$C$DW$82	.dwtag  DW_TAG_TI_branch
	.dwattr $C$DW$82, DW_AT_low_pc(0x00)
	.dwattr $C$DW$82, DW_AT_TI_return
        POP       {A2, A3, A4, PC}      ; [DPU_3_PIPE] 
	.dwcfi	cfa_offset, 0
        ; BRANCH OCCURS                  ; [] 
	.dwattr $C$DW$74, DW_AT_TI_end_file("E:/Dev/Ti/TivaWare/third_party/fatfs/src/ff.c")
	.dwattr $C$DW$74, DW_AT_TI_end_line(0x32d)
	.dwattr $C$DW$74, DW_AT_TI_end_column(0x01)
	.dwendentry
	.dwendtag $C$DW$74

	.sect	".text:clust2sect"
	.clink
	.thumbfunc clust2sect
	.thumb
	.global	clust2sect

$C$DW$83	.dwtag  DW_TAG_subprogram, DW_AT_name("clust2sect")
	.dwattr $C$DW$83, DW_AT_low_pc(clust2sect)
	.dwattr $C$DW$83, DW_AT_high_pc(0x00)
	.dwattr $C$DW$83, DW_AT_TI_symbol_name("clust2sect")
	.dwattr $C$DW$83, DW_AT_external
	.dwattr $C$DW$83, DW_AT_type(*$C$DW$T$21)
	.dwattr $C$DW$83, DW_AT_TI_begin_file("E:/Dev/Ti/TivaWare/third_party/fatfs/src/ff.c")
	.dwattr $C$DW$83, DW_AT_TI_begin_line(0x338)
	.dwattr $C$DW$83, DW_AT_TI_begin_column(0x07)
	.dwattr $C$DW$83, DW_AT_decl_file("E:/Dev/Ti/TivaWare/third_party/fatfs/src/ff.c")
	.dwattr $C$DW$83, DW_AT_decl_line(0x338)
	.dwattr $C$DW$83, DW_AT_decl_column(0x07)
	.dwattr $C$DW$83, DW_AT_TI_max_frame_size(0x08)
	.dwpsn	file "E:/Dev/Ti/TivaWare/third_party/fatfs/src/ff.c",line 828,column 1,is_stmt,address clust2sect,isa 1

	.dwfde $C$DW$CIE, clust2sect
$C$DW$84	.dwtag  DW_TAG_formal_parameter, DW_AT_name("fs")
	.dwattr $C$DW$84, DW_AT_TI_symbol_name("fs")
	.dwattr $C$DW$84, DW_AT_type(*$C$DW$T$25)
	.dwattr $C$DW$84, DW_AT_location[DW_OP_reg0]
$C$DW$85	.dwtag  DW_TAG_formal_parameter, DW_AT_name("clst")
	.dwattr $C$DW$85, DW_AT_TI_symbol_name("clst")
	.dwattr $C$DW$85, DW_AT_type(*$C$DW$T$21)
	.dwattr $C$DW$85, DW_AT_location[DW_OP_reg1]
;----------------------------------------------------------------------
; 824 | DWORD clust2sect (      /* !=0: Sector number, 0: Failed - invalid clus
;     | ter# */                                                                
; 825 | FATFS *fs,              /* File system object */                       
; 826 | DWORD clst              /* Cluster# to be converted */                 
; 827 | )                                                                      
;----------------------------------------------------------------------

;*****************************************************************************
;* FUNCTION NAME: clust2sect                                                 *
;*                                                                           *
;*   Regs Modified     : A1,A2,A3,SP,SR                                      *
;*   Regs Used         : A1,A2,A3,SP,LR,SR                                   *
;*   Local Frame Size  : 0 Args + 8 Auto + 0 Save = 8 byte                   *
;*****************************************************************************
clust2sect:
;* --------------------------------------------------------------------------*
	.dwcfi	cfa_offset, 0
        SUB       SP, SP, #8            ; [DPU_3_PIPE] 
	.dwcfi	cfa_offset, 8
$C$DW$86	.dwtag  DW_TAG_variable, DW_AT_name("fs")
	.dwattr $C$DW$86, DW_AT_TI_symbol_name("fs")
	.dwattr $C$DW$86, DW_AT_type(*$C$DW$T$25)
	.dwattr $C$DW$86, DW_AT_location[DW_OP_breg13 0]
$C$DW$87	.dwtag  DW_TAG_variable, DW_AT_name("clst")
	.dwattr $C$DW$87, DW_AT_TI_symbol_name("clst")
	.dwattr $C$DW$87, DW_AT_type(*$C$DW$T$21)
	.dwattr $C$DW$87, DW_AT_location[DW_OP_breg13 4]
        STR       A2, [SP, #4]          ; [DPU_3_PIPE] |828| 
        STR       A1, [SP, #0]          ; [DPU_3_PIPE] |828| 
	.dwpsn	file "E:/Dev/Ti/TivaWare/third_party/fatfs/src/ff.c",line 829,column 2,is_stmt,isa 1
;----------------------------------------------------------------------
; 829 | clst -= 2;                                                             
;----------------------------------------------------------------------
        LDR       A1, [SP, #4]          ; [DPU_3_PIPE] |829| 
        SUBS      A1, A1, #2            ; [DPU_3_PIPE] |829| 
        STR       A1, [SP, #4]          ; [DPU_3_PIPE] |829| 
	.dwpsn	file "E:/Dev/Ti/TivaWare/third_party/fatfs/src/ff.c",line 830,column 2,is_stmt,isa 1
;----------------------------------------------------------------------
; 830 | if (clst >= (fs->n_fatent - 2)) return 0;               /* Invalid clus
;     | ter# */                                                                
;----------------------------------------------------------------------
        LDR       A1, [SP, #0]          ; [DPU_3_PIPE] |830| 
        LDR       A2, [SP, #4]          ; [DPU_3_PIPE] |830| 
        LDR       A1, [A1, #24]         ; [DPU_3_PIPE] |830| 
        SUBS      A1, A1, #2            ; [DPU_3_PIPE] |830| 
        CMP       A1, A2                ; [DPU_3_PIPE] |830| 
        BHI       ||$C$L20||            ; [DPU_3_PIPE] |830| 
        ; BRANCHCC OCCURS {||$C$L20||}   ; [] |830| 
;* --------------------------------------------------------------------------*
	.dwpsn	file "E:/Dev/Ti/TivaWare/third_party/fatfs/src/ff.c",line 830,column 34,is_stmt,isa 1
        MOVS      A1, #0                ; [DPU_3_PIPE] |830| 
        B         ||$C$L21||            ; [DPU_3_PIPE] |830| 
        ; BRANCH OCCURS {||$C$L21||}     ; [] |830| 
;* --------------------------------------------------------------------------*
||$C$L20||:    
	.dwpsn	file "E:/Dev/Ti/TivaWare/third_party/fatfs/src/ff.c",line 831,column 2,is_stmt,isa 1
;----------------------------------------------------------------------
; 831 | return clst * fs->csize + fs->database;                                
;----------------------------------------------------------------------
        LDR       A2, [SP, #0]          ; [DPU_3_PIPE] |831| 
        LDR       A1, [SP, #0]          ; [DPU_3_PIPE] |831| 
        LDR       A3, [SP, #4]          ; [DPU_3_PIPE] |831| 
        LDRB      A2, [A2, #2]          ; [DPU_3_PIPE] |831| 
        LDR       A1, [A1, #44]         ; [DPU_3_PIPE] |831| 
        MLA       A1, A2, A3, A1        ; [DPU_3_PIPE] |831| 
;* --------------------------------------------------------------------------*
||$C$L21||:    
	.dwpsn	file "E:/Dev/Ti/TivaWare/third_party/fatfs/src/ff.c",line 832,column 1,is_stmt,isa 1
        ADD       SP, SP, #8            ; [DPU_3_PIPE] 
	.dwcfi	cfa_offset, 0
$C$DW$88	.dwtag  DW_TAG_TI_branch
	.dwattr $C$DW$88, DW_AT_low_pc(0x00)
	.dwattr $C$DW$88, DW_AT_TI_return
        BX        LR                    ; [DPU_3_PIPE] 
        ; BRANCH OCCURS                  ; [] 
	.dwattr $C$DW$83, DW_AT_TI_end_file("E:/Dev/Ti/TivaWare/third_party/fatfs/src/ff.c")
	.dwattr $C$DW$83, DW_AT_TI_end_line(0x340)
	.dwattr $C$DW$83, DW_AT_TI_end_column(0x01)
	.dwendentry
	.dwendtag $C$DW$83

	.sect	".text:get_fat"
	.clink
	.thumbfunc get_fat
	.thumb
	.global	get_fat

$C$DW$89	.dwtag  DW_TAG_subprogram, DW_AT_name("get_fat")
	.dwattr $C$DW$89, DW_AT_low_pc(get_fat)
	.dwattr $C$DW$89, DW_AT_high_pc(0x00)
	.dwattr $C$DW$89, DW_AT_TI_symbol_name("get_fat")
	.dwattr $C$DW$89, DW_AT_external
	.dwattr $C$DW$89, DW_AT_type(*$C$DW$T$21)
	.dwattr $C$DW$89, DW_AT_TI_begin_file("E:/Dev/Ti/TivaWare/third_party/fatfs/src/ff.c")
	.dwattr $C$DW$89, DW_AT_TI_begin_line(0x34a)
	.dwattr $C$DW$89, DW_AT_TI_begin_column(0x07)
	.dwattr $C$DW$89, DW_AT_decl_file("E:/Dev/Ti/TivaWare/third_party/fatfs/src/ff.c")
	.dwattr $C$DW$89, DW_AT_decl_line(0x34a)
	.dwattr $C$DW$89, DW_AT_decl_column(0x07)
	.dwattr $C$DW$89, DW_AT_TI_max_frame_size(0x18)
	.dwpsn	file "E:/Dev/Ti/TivaWare/third_party/fatfs/src/ff.c",line 846,column 1,is_stmt,address get_fat,isa 1

	.dwfde $C$DW$CIE, get_fat
$C$DW$90	.dwtag  DW_TAG_formal_parameter, DW_AT_name("fs")
	.dwattr $C$DW$90, DW_AT_TI_symbol_name("fs")
	.dwattr $C$DW$90, DW_AT_type(*$C$DW$T$25)
	.dwattr $C$DW$90, DW_AT_location[DW_OP_reg0]
$C$DW$91	.dwtag  DW_TAG_formal_parameter, DW_AT_name("clst")
	.dwattr $C$DW$91, DW_AT_TI_symbol_name("clst")
	.dwattr $C$DW$91, DW_AT_type(*$C$DW$T$21)
	.dwattr $C$DW$91, DW_AT_location[DW_OP_reg1]
;----------------------------------------------------------------------
; 842 | DWORD get_fat ( /* 0xFFFFFFFF:Disk error, 1:Internal error, Else:Cluste
;     | r status */                                                            
; 843 | FATFS *fs,      /* File system object */                               
; 844 | DWORD clst      /* Cluster# to get the link information */             
; 845 | )                                                                      
;----------------------------------------------------------------------

;*****************************************************************************
;* FUNCTION NAME: get_fat                                                    *
;*                                                                           *
;*   Regs Modified     : A1,A2,A3,A4,V9,SP,LR,SR,D0,D0_hi,D1,D1_hi,D2,D2_hi, *
;*                           D3,D3_hi,D4,D4_hi,D5,D5_hi,D6,D6_hi,D7,D7_hi,   *
;*                           FPEXC,FPSCR                                     *
;*   Regs Used         : A1,A2,A3,A4,V9,SP,LR,SR,D0,D0_hi,D1,D1_hi,D2,D2_hi, *
;*                           D3,D3_hi,D4,D4_hi,D5,D5_hi,D6,D6_hi,D7,D7_hi,   *
;*                           FPEXC,FPSCR                                     *
;*   Local Frame Size  : 0 Args + 20 Auto + 4 Save = 24 byte                 *
;*****************************************************************************
get_fat:
;* --------------------------------------------------------------------------*
	.dwcfi	cfa_offset, 0
        PUSH      {LR}                  ; [DPU_3_PIPE] 
	.dwcfi	cfa_offset, 4
	.dwcfi	save_reg_to_mem, 14, -4
        SUB       SP, SP, #20           ; [DPU_3_PIPE] 
	.dwcfi	cfa_offset, 24
$C$DW$92	.dwtag  DW_TAG_variable, DW_AT_name("fs")
	.dwattr $C$DW$92, DW_AT_TI_symbol_name("fs")
	.dwattr $C$DW$92, DW_AT_type(*$C$DW$T$25)
	.dwattr $C$DW$92, DW_AT_location[DW_OP_breg13 0]
$C$DW$93	.dwtag  DW_TAG_variable, DW_AT_name("clst")
	.dwattr $C$DW$93, DW_AT_TI_symbol_name("clst")
	.dwattr $C$DW$93, DW_AT_type(*$C$DW$T$21)
	.dwattr $C$DW$93, DW_AT_location[DW_OP_breg13 4]
$C$DW$94	.dwtag  DW_TAG_variable, DW_AT_name("wc")
	.dwattr $C$DW$94, DW_AT_TI_symbol_name("wc")
	.dwattr $C$DW$94, DW_AT_type(*$C$DW$T$57)
	.dwattr $C$DW$94, DW_AT_location[DW_OP_breg13 8]
$C$DW$95	.dwtag  DW_TAG_variable, DW_AT_name("bc")
	.dwattr $C$DW$95, DW_AT_TI_symbol_name("bc")
	.dwattr $C$DW$95, DW_AT_type(*$C$DW$T$57)
	.dwattr $C$DW$95, DW_AT_location[DW_OP_breg13 12]
$C$DW$96	.dwtag  DW_TAG_variable, DW_AT_name("p")
	.dwattr $C$DW$96, DW_AT_TI_symbol_name("p")
	.dwattr $C$DW$96, DW_AT_type(*$C$DW$T$26)
	.dwattr $C$DW$96, DW_AT_location[DW_OP_breg13 16]
;----------------------------------------------------------------------
; 847 | UINT wc, bc;                                                           
; 848 | BYTE *p;                                                               
;----------------------------------------------------------------------
        STR       A2, [SP, #4]          ; [DPU_3_PIPE] |846| 
        STR       A1, [SP, #0]          ; [DPU_3_PIPE] |846| 
	.dwpsn	file "E:/Dev/Ti/TivaWare/third_party/fatfs/src/ff.c",line 851,column 2,is_stmt,isa 1
;----------------------------------------------------------------------
; 851 | if (clst < 2 || clst >= fs->n_fatent)   /* Check range */              
;----------------------------------------------------------------------
        LDR       A1, [SP, #4]          ; [DPU_3_PIPE] |851| 
        CMP       A1, #2                ; [DPU_3_PIPE] |851| 
        BCC       ||$C$L22||            ; [DPU_3_PIPE] |851| 
        ; BRANCHCC OCCURS {||$C$L22||}   ; [] |851| 
;* --------------------------------------------------------------------------*
        LDR       A1, [SP, #0]          ; [DPU_3_PIPE] |851| 
        LDR       A2, [SP, #4]          ; [DPU_3_PIPE] |851| 
        LDR       A1, [A1, #24]         ; [DPU_3_PIPE] |851| 
        CMP       A1, A2                ; [DPU_3_PIPE] |851| 
        BHI       ||$C$L27||            ; [DPU_3_PIPE] |851| 
        ; BRANCHCC OCCURS {||$C$L27||}   ; [] |851| 
;* --------------------------------------------------------------------------*
||$C$L22||:    
	.dwpsn	file "E:/Dev/Ti/TivaWare/third_party/fatfs/src/ff.c",line 852,column 3,is_stmt,isa 1
;----------------------------------------------------------------------
; 852 | return 1;                                                              
; 854 | switch (fs->fs_type) {                                                 
; 855 | case FS_FAT12 :                                                        
;----------------------------------------------------------------------
        MOVS      A1, #1                ; [DPU_3_PIPE] |852| 
        B         ||$C$L29||            ; [DPU_3_PIPE] |852| 
        ; BRANCH OCCURS {||$C$L29||}     ; [] |852| 
;* --------------------------------------------------------------------------*
;* --------------------------------------------------------------------------*
||$C$L23||:    
	.dwpsn	file "E:/Dev/Ti/TivaWare/third_party/fatfs/src/ff.c",line 856,column 3,is_stmt,isa 1
;----------------------------------------------------------------------
; 856 | bc = (UINT)clst; bc += bc / 2;                                         
;----------------------------------------------------------------------
        LDR       A1, [SP, #4]          ; [DPU_3_PIPE] |856| 
        STR       A1, [SP, #12]         ; [DPU_3_PIPE] |856| 
	.dwpsn	file "E:/Dev/Ti/TivaWare/third_party/fatfs/src/ff.c",line 856,column 20,is_stmt,isa 1
        LDR       A2, [SP, #12]         ; [DPU_3_PIPE] |856| 
        LDR       A1, [SP, #12]         ; [DPU_3_PIPE] |856| 
        ADD       A1, A1, A2, LSR #1    ; [DPU_3_PIPE] |856| 
        STR       A1, [SP, #12]         ; [DPU_3_PIPE] |856| 
	.dwpsn	file "E:/Dev/Ti/TivaWare/third_party/fatfs/src/ff.c",line 857,column 3,is_stmt,isa 1
;----------------------------------------------------------------------
; 857 | if (move_window(fs, fs->fatbase + (bc / SS(fs)))) break;               
;----------------------------------------------------------------------
        LDR       A1, [SP, #0]          ; [DPU_3_PIPE] |857| 
        LDR       A3, [SP, #12]         ; [DPU_3_PIPE] |857| 
        LDR       A2, [A1, #36]         ; [DPU_3_PIPE] |857| 
        LDR       A1, [SP, #0]          ; [DPU_3_PIPE] |857| 
        ADD       A2, A2, A3, LSR #9    ; [DPU_3_PIPE] |857| 
$C$DW$97	.dwtag  DW_TAG_TI_branch
	.dwattr $C$DW$97, DW_AT_low_pc(0x00)
	.dwattr $C$DW$97, DW_AT_name("move_window")
	.dwattr $C$DW$97, DW_AT_TI_call
        BL        move_window           ; [DPU_3_PIPE] |857| 
        ; CALL OCCURS {move_window }     ; [] |857| 
        CMP       A1, #0                ; [DPU_3_PIPE] |857| 
        BNE       ||$C$L28||            ; [DPU_3_PIPE] |857| 
        ; BRANCHCC OCCURS {||$C$L28||}   ; [] |857| 
;* --------------------------------------------------------------------------*
	.dwpsn	file "E:/Dev/Ti/TivaWare/third_party/fatfs/src/ff.c",line 857,column 53,is_stmt,isa 1
	.dwpsn	file "E:/Dev/Ti/TivaWare/third_party/fatfs/src/ff.c",line 858,column 3,is_stmt,isa 1
;----------------------------------------------------------------------
; 858 | wc = fs->win[bc % SS(fs)]; bc++;                                       
;----------------------------------------------------------------------
        LDR       A1, [SP, #12]         ; [DPU_3_PIPE] |858| 
        LDR       A2, [SP, #0]          ; [DPU_3_PIPE] |858| 
        BFC       A1, #9, #23           ; [DPU_3_PIPE] |858| 
        ADDS      A1, A1, A2            ; [DPU_3_PIPE] |858| 
        LDRB      A1, [A1, #52]         ; [DPU_3_PIPE] |858| 
        STR       A1, [SP, #8]          ; [DPU_3_PIPE] |858| 
	.dwpsn	file "E:/Dev/Ti/TivaWare/third_party/fatfs/src/ff.c",line 858,column 30,is_stmt,isa 1
        LDR       A1, [SP, #12]         ; [DPU_3_PIPE] |858| 
        ADDS      A1, A1, #1            ; [DPU_3_PIPE] |858| 
        STR       A1, [SP, #12]         ; [DPU_3_PIPE] |858| 
	.dwpsn	file "E:/Dev/Ti/TivaWare/third_party/fatfs/src/ff.c",line 859,column 3,is_stmt,isa 1
;----------------------------------------------------------------------
; 859 | if (move_window(fs, fs->fatbase + (bc / SS(fs)))) break;               
;----------------------------------------------------------------------
        LDR       A1, [SP, #0]          ; [DPU_3_PIPE] |859| 
        LDR       A3, [SP, #12]         ; [DPU_3_PIPE] |859| 
        LDR       A2, [A1, #36]         ; [DPU_3_PIPE] |859| 
        LDR       A1, [SP, #0]          ; [DPU_3_PIPE] |859| 
        ADD       A2, A2, A3, LSR #9    ; [DPU_3_PIPE] |859| 
$C$DW$98	.dwtag  DW_TAG_TI_branch
	.dwattr $C$DW$98, DW_AT_low_pc(0x00)
	.dwattr $C$DW$98, DW_AT_name("move_window")
	.dwattr $C$DW$98, DW_AT_TI_call
        BL        move_window           ; [DPU_3_PIPE] |859| 
        ; CALL OCCURS {move_window }     ; [] |859| 
        CMP       A1, #0                ; [DPU_3_PIPE] |859| 
        BNE       ||$C$L28||            ; [DPU_3_PIPE] |859| 
        ; BRANCHCC OCCURS {||$C$L28||}   ; [] |859| 
;* --------------------------------------------------------------------------*
	.dwpsn	file "E:/Dev/Ti/TivaWare/third_party/fatfs/src/ff.c",line 859,column 53,is_stmt,isa 1
	.dwpsn	file "E:/Dev/Ti/TivaWare/third_party/fatfs/src/ff.c",line 860,column 3,is_stmt,isa 1
;----------------------------------------------------------------------
; 860 | wc |= fs->win[bc % SS(fs)] << 8;                                       
;----------------------------------------------------------------------
        LDR       A1, [SP, #12]         ; [DPU_3_PIPE] |860| 
        LDR       A2, [SP, #0]          ; [DPU_3_PIPE] |860| 
        BFC       A1, #9, #23           ; [DPU_3_PIPE] |860| 
        ADDS      A1, A1, A2            ; [DPU_3_PIPE] |860| 
        LDR       A2, [SP, #8]          ; [DPU_3_PIPE] |860| 
        LDRB      A1, [A1, #52]         ; [DPU_3_PIPE] |860| 
        ORR       A2, A2, A1, LSL #8    ; [DPU_3_PIPE] |860| 
        STR       A2, [SP, #8]          ; [DPU_3_PIPE] |860| 
	.dwpsn	file "E:/Dev/Ti/TivaWare/third_party/fatfs/src/ff.c",line 861,column 3,is_stmt,isa 1
;----------------------------------------------------------------------
; 861 | return (clst & 1) ? (wc >> 4) : (wc & 0xFFF);                          
; 863 | case FS_FAT16 :                                                        
;----------------------------------------------------------------------
        LDR       A1, [SP, #4]          ; [DPU_3_PIPE] |861| 
        LSRS      A1, A1, #1            ; [DPU_3_PIPE] |861| 
        BCC       ||$C$L24||            ; [DPU_3_PIPE] |861| 
        ; BRANCHCC OCCURS {||$C$L24||}   ; [] |861| 
;* --------------------------------------------------------------------------*
        LDR       A1, [SP, #8]          ; [DPU_3_PIPE] |861| 
        LSRS      A1, A1, #4            ; [DPU_3_PIPE] |861| 
        B         ||$C$L29||            ; [DPU_3_PIPE] |861| 
        ; BRANCH OCCURS {||$C$L29||}     ; [] |861| 
;* --------------------------------------------------------------------------*
||$C$L24||:    
        LDR       A1, [SP, #8]          ; [DPU_3_PIPE] |861| 
        UBFX      A1, A1, #0, #12       ; [DPU_3_PIPE] |861| 
        B         ||$C$L29||            ; [DPU_3_PIPE] |861| 
        ; BRANCH OCCURS {||$C$L29||}     ; [] |861| 
;* --------------------------------------------------------------------------*
||$C$L25||:    
	.dwpsn	file "E:/Dev/Ti/TivaWare/third_party/fatfs/src/ff.c",line 864,column 3,is_stmt,isa 1
;----------------------------------------------------------------------
; 864 | if (move_window(fs, fs->fatbase + (clst / (SS(fs) / 2)))) break;       
;----------------------------------------------------------------------
        LDR       A1, [SP, #0]          ; [DPU_3_PIPE] |864| 
        LDR       A3, [SP, #4]          ; [DPU_3_PIPE] |864| 
        LDR       A2, [A1, #36]         ; [DPU_3_PIPE] |864| 
        LDR       A1, [SP, #0]          ; [DPU_3_PIPE] |864| 
        ADD       A2, A2, A3, LSR #8    ; [DPU_3_PIPE] |864| 
$C$DW$99	.dwtag  DW_TAG_TI_branch
	.dwattr $C$DW$99, DW_AT_low_pc(0x00)
	.dwattr $C$DW$99, DW_AT_name("move_window")
	.dwattr $C$DW$99, DW_AT_TI_call
        BL        move_window           ; [DPU_3_PIPE] |864| 
        ; CALL OCCURS {move_window }     ; [] |864| 
        CMP       A1, #0                ; [DPU_3_PIPE] |864| 
        BNE       ||$C$L28||            ; [DPU_3_PIPE] |864| 
        ; BRANCHCC OCCURS {||$C$L28||}   ; [] |864| 
;* --------------------------------------------------------------------------*
	.dwpsn	file "E:/Dev/Ti/TivaWare/third_party/fatfs/src/ff.c",line 864,column 61,is_stmt,isa 1
	.dwpsn	file "E:/Dev/Ti/TivaWare/third_party/fatfs/src/ff.c",line 865,column 3,is_stmt,isa 1
;----------------------------------------------------------------------
; 865 | p = &fs->win[clst * 2 % SS(fs)];                                       
;----------------------------------------------------------------------
        LDR       A1, [SP, #4]          ; [DPU_3_PIPE] |865| 
        LDR       A2, [SP, #0]          ; [DPU_3_PIPE] |865| 
        LSLS      A1, A1, #1            ; [DPU_3_PIPE] |865| 
        BFC       A1, #9, #23           ; [DPU_3_PIPE] |865| 
        ADDS      A1, A1, A2            ; [DPU_3_PIPE] |865| 
        ADDS      A1, A1, #52           ; [DPU_3_PIPE] |865| 
        STR       A1, [SP, #16]         ; [DPU_3_PIPE] |865| 
	.dwpsn	file "E:/Dev/Ti/TivaWare/third_party/fatfs/src/ff.c",line 866,column 3,is_stmt,isa 1
;----------------------------------------------------------------------
; 866 | return LD_WORD(p);                                                     
; 868 | case FS_FAT32 :                                                        
;----------------------------------------------------------------------
        LDR       A1, [SP, #16]         ; [DPU_3_PIPE] |866| 
        LDR       A2, [SP, #16]         ; [DPU_3_PIPE] |866| 
        LDRB      A1, [A1, #0]          ; [DPU_3_PIPE] |866| 
        LDRB      A2, [A2, #1]          ; [DPU_3_PIPE] |866| 
        ORR       A1, A1, A2, LSL #8    ; [DPU_3_PIPE] |866| 
        UXTH      A1, A1                ; [DPU_3_PIPE] |866| 
        B         ||$C$L29||            ; [DPU_3_PIPE] |866| 
        ; BRANCH OCCURS {||$C$L29||}     ; [] |866| 
;* --------------------------------------------------------------------------*
||$C$L26||:    
	.dwpsn	file "E:/Dev/Ti/TivaWare/third_party/fatfs/src/ff.c",line 869,column 3,is_stmt,isa 1
;----------------------------------------------------------------------
; 869 | if (move_window(fs, fs->fatbase + (clst / (SS(fs) / 4)))) break;       
;----------------------------------------------------------------------
        LDR       A1, [SP, #0]          ; [DPU_3_PIPE] |869| 
        LDR       A3, [SP, #4]          ; [DPU_3_PIPE] |869| 
        LDR       A2, [A1, #36]         ; [DPU_3_PIPE] |869| 
        LDR       A1, [SP, #0]          ; [DPU_3_PIPE] |869| 
        ADD       A2, A2, A3, LSR #7    ; [DPU_3_PIPE] |869| 
$C$DW$100	.dwtag  DW_TAG_TI_branch
	.dwattr $C$DW$100, DW_AT_low_pc(0x00)
	.dwattr $C$DW$100, DW_AT_name("move_window")
	.dwattr $C$DW$100, DW_AT_TI_call
        BL        move_window           ; [DPU_3_PIPE] |869| 
        ; CALL OCCURS {move_window }     ; [] |869| 
        CBNZ      A1, ||$C$L28||        ; [] 
        ; BRANCHCC OCCURS {||$C$L28||}   ; [] |869| 
;* --------------------------------------------------------------------------*
	.dwpsn	file "E:/Dev/Ti/TivaWare/third_party/fatfs/src/ff.c",line 869,column 61,is_stmt,isa 1
	.dwpsn	file "E:/Dev/Ti/TivaWare/third_party/fatfs/src/ff.c",line 870,column 3,is_stmt,isa 1
;----------------------------------------------------------------------
; 870 | p = &fs->win[clst * 4 % SS(fs)];                                       
;----------------------------------------------------------------------
        LDR       A1, [SP, #4]          ; [DPU_3_PIPE] |870| 
        LDR       A2, [SP, #0]          ; [DPU_3_PIPE] |870| 
        LSLS      A1, A1, #2            ; [DPU_3_PIPE] |870| 
        BFC       A1, #9, #23           ; [DPU_3_PIPE] |870| 
        ADDS      A1, A1, A2            ; [DPU_3_PIPE] |870| 
        ADDS      A1, A1, #52           ; [DPU_3_PIPE] |870| 
        STR       A1, [SP, #16]         ; [DPU_3_PIPE] |870| 
	.dwpsn	file "E:/Dev/Ti/TivaWare/third_party/fatfs/src/ff.c",line 871,column 3,is_stmt,isa 1
;----------------------------------------------------------------------
; 871 | return LD_DWORD(p) & 0x0FFFFFFF;                                       
;----------------------------------------------------------------------
        LDR       A4, [SP, #16]         ; [DPU_3_PIPE] |871| 
        LDR       A3, [SP, #16]         ; [DPU_3_PIPE] |871| 
        LDR       A2, [SP, #16]         ; [DPU_3_PIPE] |871| 
        LDR       A1, [SP, #16]         ; [DPU_3_PIPE] |871| 
        LDRB      A4, [A4, #2]          ; [DPU_3_PIPE] |871| 
        LDRB      A3, [A3, #1]          ; [DPU_3_PIPE] |871| 
        LDRB      A2, [A2, #3]          ; [DPU_3_PIPE] |871| 
        LDRB      A1, [A1, #0]          ; [DPU_3_PIPE] |871| 
        LSLS      A2, A2, #24           ; [DPU_3_PIPE] |871| 
        ORR       A2, A2, A4, LSL #16   ; [DPU_3_PIPE] |871| 
        ORR       A2, A2, A3, LSL #8    ; [DPU_3_PIPE] |871| 
        ORRS      A1, A1, A2            ; [DPU_3_PIPE] |871| 
        BIC       A1, A1, #-268435456   ; [DPU_3_PIPE] |871| 
        B         ||$C$L29||            ; [DPU_3_PIPE] |871| 
        ; BRANCH OCCURS {||$C$L29||}     ; [] |871| 
;* --------------------------------------------------------------------------*
;* --------------------------------------------------------------------------*
||$C$L27||:    
	.dwpsn	file "E:/Dev/Ti/TivaWare/third_party/fatfs/src/ff.c",line 854,column 2,is_stmt,isa 1
        LDR       A1, [SP, #0]          ; [DPU_3_PIPE] |854| 
        LDRB      A1, [A1, #0]          ; [DPU_3_PIPE] |854| 
        SUBS      A1, A1, #1            ; [DPU_3_PIPE] |854| 
        BEQ       ||$C$L23||            ; [DPU_3_PIPE] |854| 
        ; BRANCHCC OCCURS {||$C$L23||}   ; [] |854| 
;* --------------------------------------------------------------------------*
        SUBS      A1, A1, #1            ; [DPU_3_PIPE] |854| 
        BEQ       ||$C$L25||            ; [DPU_3_PIPE] |854| 
        ; BRANCHCC OCCURS {||$C$L25||}   ; [] |854| 
;* --------------------------------------------------------------------------*
        SUBS      A1, A1, #1            ; [DPU_3_PIPE] |854| 
        BEQ       ||$C$L26||            ; [DPU_3_PIPE] |854| 
        ; BRANCHCC OCCURS {||$C$L26||}   ; [] |854| 
;* --------------------------------------------------------------------------*
||$C$L28||:    
	.dwpsn	file "E:/Dev/Ti/TivaWare/third_party/fatfs/src/ff.c",line 874,column 2,is_stmt,isa 1
;----------------------------------------------------------------------
; 874 | return 0xFFFFFFFF;      /* An error occurred at the disk I/O layer */  
;----------------------------------------------------------------------
        MOV       A1, #-1               ; [DPU_3_PIPE] |874| 
;* --------------------------------------------------------------------------*
||$C$L29||:    
	.dwpsn	file "E:/Dev/Ti/TivaWare/third_party/fatfs/src/ff.c",line 875,column 1,is_stmt,isa 1
        ADD       SP, SP, #20           ; [DPU_3_PIPE] 
	.dwcfi	cfa_offset, 4
$C$DW$101	.dwtag  DW_TAG_TI_branch
	.dwattr $C$DW$101, DW_AT_low_pc(0x00)
	.dwattr $C$DW$101, DW_AT_TI_return
        POP       {PC}                  ; [DPU_3_PIPE] 
	.dwcfi	cfa_offset, 0
        ; BRANCH OCCURS                  ; [] 
	.dwattr $C$DW$89, DW_AT_TI_end_file("E:/Dev/Ti/TivaWare/third_party/fatfs/src/ff.c")
	.dwattr $C$DW$89, DW_AT_TI_end_line(0x36b)
	.dwattr $C$DW$89, DW_AT_TI_end_column(0x01)
	.dwendentry
	.dwendtag $C$DW$89

	.sect	".text:put_fat"
	.clink
	.thumbfunc put_fat
	.thumb
	.global	put_fat

$C$DW$102	.dwtag  DW_TAG_subprogram, DW_AT_name("put_fat")
	.dwattr $C$DW$102, DW_AT_low_pc(put_fat)
	.dwattr $C$DW$102, DW_AT_high_pc(0x00)
	.dwattr $C$DW$102, DW_AT_TI_symbol_name("put_fat")
	.dwattr $C$DW$102, DW_AT_external
	.dwattr $C$DW$102, DW_AT_type(*$C$DW$T$44)
	.dwattr $C$DW$102, DW_AT_TI_begin_file("E:/Dev/Ti/TivaWare/third_party/fatfs/src/ff.c")
	.dwattr $C$DW$102, DW_AT_TI_begin_line(0x375)
	.dwattr $C$DW$102, DW_AT_TI_begin_column(0x09)
	.dwattr $C$DW$102, DW_AT_decl_file("E:/Dev/Ti/TivaWare/third_party/fatfs/src/ff.c")
	.dwattr $C$DW$102, DW_AT_decl_line(0x375)
	.dwattr $C$DW$102, DW_AT_decl_column(0x09)
	.dwattr $C$DW$102, DW_AT_TI_max_frame_size(0x20)
	.dwpsn	file "E:/Dev/Ti/TivaWare/third_party/fatfs/src/ff.c",line 890,column 1,is_stmt,address put_fat,isa 1

	.dwfde $C$DW$CIE, put_fat
$C$DW$103	.dwtag  DW_TAG_formal_parameter, DW_AT_name("fs")
	.dwattr $C$DW$103, DW_AT_TI_symbol_name("fs")
	.dwattr $C$DW$103, DW_AT_type(*$C$DW$T$25)
	.dwattr $C$DW$103, DW_AT_location[DW_OP_reg0]
$C$DW$104	.dwtag  DW_TAG_formal_parameter, DW_AT_name("clst")
	.dwattr $C$DW$104, DW_AT_TI_symbol_name("clst")
	.dwattr $C$DW$104, DW_AT_type(*$C$DW$T$21)
	.dwattr $C$DW$104, DW_AT_location[DW_OP_reg1]
$C$DW$105	.dwtag  DW_TAG_formal_parameter, DW_AT_name("val")
	.dwattr $C$DW$105, DW_AT_TI_symbol_name("val")
	.dwattr $C$DW$105, DW_AT_type(*$C$DW$T$21)
	.dwattr $C$DW$105, DW_AT_location[DW_OP_reg2]
;----------------------------------------------------------------------
; 885 | FRESULT put_fat (                                                      
; 886 | FATFS *fs,      /* File system object */                               
; 887 | DWORD clst,     /* Cluster# to be changed in range of 2 to fs->n_fatent
;     |  - 1 */                                                                
; 888 | DWORD val       /* New value to mark the cluster */                    
; 889 | )                                                                      
;----------------------------------------------------------------------

;*****************************************************************************
;* FUNCTION NAME: put_fat                                                    *
;*                                                                           *
;*   Regs Modified     : A1,A2,A3,A4,V1,V9,SP,LR,SR,D0,D0_hi,D1,D1_hi,D2,    *
;*                           D2_hi,D3,D3_hi,D4,D4_hi,D5,D5_hi,D6,D6_hi,D7,   *
;*                           D7_hi,FPEXC,FPSCR                               *
;*   Regs Used         : A1,A2,A3,A4,V1,V9,SP,LR,SR,D0,D0_hi,D1,D1_hi,D2,    *
;*                           D2_hi,D3,D3_hi,D4,D4_hi,D5,D5_hi,D6,D6_hi,D7,   *
;*                           D7_hi,FPEXC,FPSCR                               *
;*   Local Frame Size  : 0 Args + 24 Auto + 8 Save = 32 byte                 *
;*****************************************************************************
put_fat:
;* --------------------------------------------------------------------------*
	.dwcfi	cfa_offset, 0
        PUSH      {V1, LR}              ; [DPU_3_PIPE] 
	.dwcfi	cfa_offset, 8
	.dwcfi	save_reg_to_mem, 14, -4
	.dwcfi	save_reg_to_mem, 4, -8
        SUB       SP, SP, #24           ; [DPU_3_PIPE] 
	.dwcfi	cfa_offset, 32
$C$DW$106	.dwtag  DW_TAG_variable, DW_AT_name("fs")
	.dwattr $C$DW$106, DW_AT_TI_symbol_name("fs")
	.dwattr $C$DW$106, DW_AT_type(*$C$DW$T$25)
	.dwattr $C$DW$106, DW_AT_location[DW_OP_breg13 0]
$C$DW$107	.dwtag  DW_TAG_variable, DW_AT_name("clst")
	.dwattr $C$DW$107, DW_AT_TI_symbol_name("clst")
	.dwattr $C$DW$107, DW_AT_type(*$C$DW$T$21)
	.dwattr $C$DW$107, DW_AT_location[DW_OP_breg13 4]
$C$DW$108	.dwtag  DW_TAG_variable, DW_AT_name("val")
	.dwattr $C$DW$108, DW_AT_TI_symbol_name("val")
	.dwattr $C$DW$108, DW_AT_type(*$C$DW$T$21)
	.dwattr $C$DW$108, DW_AT_location[DW_OP_breg13 8]
$C$DW$109	.dwtag  DW_TAG_variable, DW_AT_name("bc")
	.dwattr $C$DW$109, DW_AT_TI_symbol_name("bc")
	.dwattr $C$DW$109, DW_AT_type(*$C$DW$T$57)
	.dwattr $C$DW$109, DW_AT_location[DW_OP_breg13 12]
$C$DW$110	.dwtag  DW_TAG_variable, DW_AT_name("p")
	.dwattr $C$DW$110, DW_AT_TI_symbol_name("p")
	.dwattr $C$DW$110, DW_AT_type(*$C$DW$T$26)
	.dwattr $C$DW$110, DW_AT_location[DW_OP_breg13 16]
$C$DW$111	.dwtag  DW_TAG_variable, DW_AT_name("res")
	.dwattr $C$DW$111, DW_AT_TI_symbol_name("res")
	.dwattr $C$DW$111, DW_AT_type(*$C$DW$T$44)
	.dwattr $C$DW$111, DW_AT_location[DW_OP_breg13 20]
;----------------------------------------------------------------------
; 891 | UINT bc;                                                               
; 892 | BYTE *p;                                                               
; 893 | FRESULT res;                                                           
;----------------------------------------------------------------------
        STR       A3, [SP, #8]          ; [DPU_3_PIPE] |890| 
        STR       A2, [SP, #4]          ; [DPU_3_PIPE] |890| 
        STR       A1, [SP, #0]          ; [DPU_3_PIPE] |890| 
	.dwpsn	file "E:/Dev/Ti/TivaWare/third_party/fatfs/src/ff.c",line 896,column 2,is_stmt,isa 1
;----------------------------------------------------------------------
; 896 | if (clst < 2 || clst >= fs->n_fatent) { /* Check range */              
;----------------------------------------------------------------------
        LDR       A1, [SP, #4]          ; [DPU_3_PIPE] |896| 
        CMP       A1, #2                ; [DPU_3_PIPE] |896| 
        BCC       ||$C$L30||            ; [DPU_3_PIPE] |896| 
        ; BRANCHCC OCCURS {||$C$L30||}   ; [] |896| 
;* --------------------------------------------------------------------------*
        LDR       A1, [SP, #0]          ; [DPU_3_PIPE] |896| 
        LDR       A2, [SP, #4]          ; [DPU_3_PIPE] |896| 
        LDR       A1, [A1, #24]         ; [DPU_3_PIPE] |896| 
        CMP       A1, A2                ; [DPU_3_PIPE] |896| 
        BHI       ||$C$L39||            ; [DPU_3_PIPE] |896| 
        ; BRANCHCC OCCURS {||$C$L39||}   ; [] |896| 
;* --------------------------------------------------------------------------*
||$C$L30||:    
	.dwpsn	file "E:/Dev/Ti/TivaWare/third_party/fatfs/src/ff.c",line 897,column 3,is_stmt,isa 1
;----------------------------------------------------------------------
; 897 | res = FR_INT_ERR;                                                      
;----------------------------------------------------------------------
        MOVS      A1, #2                ; [DPU_3_PIPE] |897| 
        STRB      A1, [SP, #20]         ; [DPU_3_PIPE] |897| 
	.dwpsn	file "E:/Dev/Ti/TivaWare/third_party/fatfs/src/ff.c",line 899,column 2,is_stmt,isa 1
;----------------------------------------------------------------------
; 899 | } else {                                                               
; 900 |         switch (fs->fs_type) {                                         
; 901 |         case FS_FAT12 :                                                
;----------------------------------------------------------------------
        B         ||$C$L41||            ; [DPU_3_PIPE] |899| 
        ; BRANCH OCCURS {||$C$L41||}     ; [] |899| 
;* --------------------------------------------------------------------------*
;* --------------------------------------------------------------------------*
||$C$L31||:    
	.dwpsn	file "E:/Dev/Ti/TivaWare/third_party/fatfs/src/ff.c",line 902,column 4,is_stmt,isa 1
;----------------------------------------------------------------------
; 902 | bc = (UINT)clst; bc += bc / 2;                                         
;----------------------------------------------------------------------
        LDR       A1, [SP, #4]          ; [DPU_3_PIPE] |902| 
        STR       A1, [SP, #12]         ; [DPU_3_PIPE] |902| 
	.dwpsn	file "E:/Dev/Ti/TivaWare/third_party/fatfs/src/ff.c",line 902,column 21,is_stmt,isa 1
        LDR       A2, [SP, #12]         ; [DPU_3_PIPE] |902| 
        LDR       A1, [SP, #12]         ; [DPU_3_PIPE] |902| 
        ADD       A1, A1, A2, LSR #1    ; [DPU_3_PIPE] |902| 
        STR       A1, [SP, #12]         ; [DPU_3_PIPE] |902| 
	.dwpsn	file "E:/Dev/Ti/TivaWare/third_party/fatfs/src/ff.c",line 903,column 4,is_stmt,isa 1
;----------------------------------------------------------------------
; 903 | res = move_window(fs, fs->fatbase + (bc / SS(fs)));                    
;----------------------------------------------------------------------
        LDR       A1, [SP, #0]          ; [DPU_3_PIPE] |903| 
        LDR       A3, [SP, #12]         ; [DPU_3_PIPE] |903| 
        LDR       A2, [A1, #36]         ; [DPU_3_PIPE] |903| 
        LDR       A1, [SP, #0]          ; [DPU_3_PIPE] |903| 
        ADD       A2, A2, A3, LSR #9    ; [DPU_3_PIPE] |903| 
$C$DW$112	.dwtag  DW_TAG_TI_branch
	.dwattr $C$DW$112, DW_AT_low_pc(0x00)
	.dwattr $C$DW$112, DW_AT_name("move_window")
	.dwattr $C$DW$112, DW_AT_TI_call
        BL        move_window           ; [DPU_3_PIPE] |903| 
        ; CALL OCCURS {move_window }     ; [] |903| 
        STRB      A1, [SP, #20]         ; [DPU_3_PIPE] |903| 
	.dwpsn	file "E:/Dev/Ti/TivaWare/third_party/fatfs/src/ff.c",line 904,column 4,is_stmt,isa 1
;----------------------------------------------------------------------
; 904 | if (res != FR_OK) break;                                               
;----------------------------------------------------------------------
        LDRB      A1, [SP, #20]         ; [DPU_3_PIPE] |904| 
        CMP       A1, #0                ; [DPU_3_PIPE] |904| 
        BNE       ||$C$L40||            ; [DPU_3_PIPE] |904| 
        ; BRANCHCC OCCURS {||$C$L40||}   ; [] |904| 
;* --------------------------------------------------------------------------*
	.dwpsn	file "E:/Dev/Ti/TivaWare/third_party/fatfs/src/ff.c",line 904,column 22,is_stmt,isa 1
	.dwpsn	file "E:/Dev/Ti/TivaWare/third_party/fatfs/src/ff.c",line 905,column 4,is_stmt,isa 1
;----------------------------------------------------------------------
; 905 | p = &fs->win[bc % SS(fs)];                                             
;----------------------------------------------------------------------
        LDR       A1, [SP, #12]         ; [DPU_3_PIPE] |905| 
        LDR       A2, [SP, #0]          ; [DPU_3_PIPE] |905| 
        BFC       A1, #9, #23           ; [DPU_3_PIPE] |905| 
        ADDS      A1, A1, A2            ; [DPU_3_PIPE] |905| 
        ADDS      A1, A1, #52           ; [DPU_3_PIPE] |905| 
        STR       A1, [SP, #16]         ; [DPU_3_PIPE] |905| 
	.dwpsn	file "E:/Dev/Ti/TivaWare/third_party/fatfs/src/ff.c",line 906,column 4,is_stmt,isa 1
;----------------------------------------------------------------------
; 906 | *p = (clst & 1) ? ((*p & 0x0F) | ((BYTE)val << 4)) : (BYTE)val;        
;----------------------------------------------------------------------
        LDR       A1, [SP, #4]          ; [DPU_3_PIPE] |906| 
        LSRS      A1, A1, #1            ; [DPU_3_PIPE] |906| 
        BCC       ||$C$L32||            ; [DPU_3_PIPE] |906| 
        ; BRANCHCC OCCURS {||$C$L32||}   ; [] |906| 
;* --------------------------------------------------------------------------*
        LDR       A1, [SP, #16]         ; [DPU_3_PIPE] |906| 
        LDRB      A2, [SP, #8]          ; [DPU_3_PIPE] |906| 
        LDRB      A1, [A1, #0]          ; [DPU_3_PIPE] |906| 
        AND       A1, A1, #15           ; [DPU_3_PIPE] |906| 
        ORR       A1, A1, A2, LSL #4    ; [DPU_3_PIPE] |906| 
        B         ||$C$L33||            ; [DPU_3_PIPE] |906| 
        ; BRANCH OCCURS {||$C$L33||}     ; [] |906| 
;* --------------------------------------------------------------------------*
||$C$L32||:    
        LDRB      A1, [SP, #8]          ; [DPU_3_PIPE] |906| 
;* --------------------------------------------------------------------------*
||$C$L33||:    
        LDR       A2, [SP, #16]         ; [DPU_3_PIPE] |906| 
        STRB      A1, [A2, #0]          ; [DPU_3_PIPE] |906| 
	.dwpsn	file "E:/Dev/Ti/TivaWare/third_party/fatfs/src/ff.c",line 907,column 4,is_stmt,isa 1
;----------------------------------------------------------------------
; 907 | bc++;                                                                  
;----------------------------------------------------------------------
        LDR       A1, [SP, #12]         ; [DPU_3_PIPE] |907| 
        ADDS      A1, A1, #1            ; [DPU_3_PIPE] |907| 
        STR       A1, [SP, #12]         ; [DPU_3_PIPE] |907| 
	.dwpsn	file "E:/Dev/Ti/TivaWare/third_party/fatfs/src/ff.c",line 908,column 4,is_stmt,isa 1
;----------------------------------------------------------------------
; 908 | fs->wflag = 1;                                                         
;----------------------------------------------------------------------
        LDR       A1, [SP, #0]          ; [DPU_3_PIPE] |908| 
        MOVS      A2, #1                ; [DPU_3_PIPE] |908| 
        STRB      A2, [A1, #4]          ; [DPU_3_PIPE] |908| 
	.dwpsn	file "E:/Dev/Ti/TivaWare/third_party/fatfs/src/ff.c",line 909,column 4,is_stmt,isa 1
;----------------------------------------------------------------------
; 909 | res = move_window(fs, fs->fatbase + (bc / SS(fs)));                    
;----------------------------------------------------------------------
        LDR       A1, [SP, #0]          ; [DPU_3_PIPE] |909| 
        LDR       A3, [SP, #12]         ; [DPU_3_PIPE] |909| 
        LDR       A2, [A1, #36]         ; [DPU_3_PIPE] |909| 
        LDR       A1, [SP, #0]          ; [DPU_3_PIPE] |909| 
        ADD       A2, A2, A3, LSR #9    ; [DPU_3_PIPE] |909| 
$C$DW$113	.dwtag  DW_TAG_TI_branch
	.dwattr $C$DW$113, DW_AT_low_pc(0x00)
	.dwattr $C$DW$113, DW_AT_name("move_window")
	.dwattr $C$DW$113, DW_AT_TI_call
        BL        move_window           ; [DPU_3_PIPE] |909| 
        ; CALL OCCURS {move_window }     ; [] |909| 
        STRB      A1, [SP, #20]         ; [DPU_3_PIPE] |909| 
	.dwpsn	file "E:/Dev/Ti/TivaWare/third_party/fatfs/src/ff.c",line 910,column 4,is_stmt,isa 1
;----------------------------------------------------------------------
; 910 | if (res != FR_OK) break;                                               
;----------------------------------------------------------------------
        LDRB      A1, [SP, #20]         ; [DPU_3_PIPE] |910| 
        CMP       A1, #0                ; [DPU_3_PIPE] |910| 
        BNE       ||$C$L40||            ; [DPU_3_PIPE] |910| 
        ; BRANCHCC OCCURS {||$C$L40||}   ; [] |910| 
;* --------------------------------------------------------------------------*
	.dwpsn	file "E:/Dev/Ti/TivaWare/third_party/fatfs/src/ff.c",line 910,column 22,is_stmt,isa 1
	.dwpsn	file "E:/Dev/Ti/TivaWare/third_party/fatfs/src/ff.c",line 911,column 4,is_stmt,isa 1
;----------------------------------------------------------------------
; 911 | p = &fs->win[bc % SS(fs)];                                             
;----------------------------------------------------------------------
        LDR       A1, [SP, #12]         ; [DPU_3_PIPE] |911| 
        LDR       A2, [SP, #0]          ; [DPU_3_PIPE] |911| 
        BFC       A1, #9, #23           ; [DPU_3_PIPE] |911| 
        ADDS      A1, A1, A2            ; [DPU_3_PIPE] |911| 
        ADDS      A1, A1, #52           ; [DPU_3_PIPE] |911| 
        STR       A1, [SP, #16]         ; [DPU_3_PIPE] |911| 
	.dwpsn	file "E:/Dev/Ti/TivaWare/third_party/fatfs/src/ff.c",line 912,column 4,is_stmt,isa 1
;----------------------------------------------------------------------
; 912 | *p = (clst & 1) ? (BYTE)(val >> 4) : ((*p & 0xF0) | ((BYTE)(val >> 8) &
;     |  0x0F));                                                               
;----------------------------------------------------------------------
        LDR       A1, [SP, #4]          ; [DPU_3_PIPE] |912| 
        LSRS      A1, A1, #1            ; [DPU_3_PIPE] |912| 
        BCC       ||$C$L34||            ; [DPU_3_PIPE] |912| 
        ; BRANCHCC OCCURS {||$C$L34||}   ; [] |912| 
;* --------------------------------------------------------------------------*
        LDR       A1, [SP, #8]          ; [DPU_3_PIPE] |912| 
        LSRS      A1, A1, #4            ; [DPU_3_PIPE] |912| 
        UXTB      A2, A1                ; [DPU_3_PIPE] |912| 
        B         ||$C$L35||            ; [DPU_3_PIPE] |912| 
        ; BRANCH OCCURS {||$C$L35||}     ; [] |912| 
;* --------------------------------------------------------------------------*
||$C$L34||:    
        LDR       A1, [SP, #16]         ; [DPU_3_PIPE] |912| 
        LDRB      A2, [SP, #9]          ; [DPU_3_PIPE] |912| 
        LDRB      A1, [A1, #0]          ; [DPU_3_PIPE] |912| 
        AND       A2, A2, #15           ; [DPU_3_PIPE] |912| 
        AND       A1, A1, #240          ; [DPU_3_PIPE] |912| 
        ORRS      A2, A2, A1            ; [DPU_3_PIPE] |912| 
;* --------------------------------------------------------------------------*
||$C$L35||:    
        LDR       A1, [SP, #16]         ; [DPU_3_PIPE] |912| 
        STRB      A2, [A1, #0]          ; [DPU_3_PIPE] |912| 
	.dwpsn	file "E:/Dev/Ti/TivaWare/third_party/fatfs/src/ff.c",line 913,column 4,is_stmt,isa 1
;----------------------------------------------------------------------
; 913 | break;                                                                 
; 915 | case FS_FAT16 :                                                        
;----------------------------------------------------------------------
        B         ||$C$L40||            ; [DPU_3_PIPE] |913| 
        ; BRANCH OCCURS {||$C$L40||}     ; [] |913| 
;* --------------------------------------------------------------------------*
||$C$L36||:    
	.dwpsn	file "E:/Dev/Ti/TivaWare/third_party/fatfs/src/ff.c",line 916,column 4,is_stmt,isa 1
;----------------------------------------------------------------------
; 916 | res = move_window(fs, fs->fatbase + (clst / (SS(fs) / 2)));            
;----------------------------------------------------------------------
        LDR       A1, [SP, #0]          ; [DPU_3_PIPE] |916| 
        LDR       A3, [SP, #4]          ; [DPU_3_PIPE] |916| 
        LDR       A2, [A1, #36]         ; [DPU_3_PIPE] |916| 
        LDR       A1, [SP, #0]          ; [DPU_3_PIPE] |916| 
        ADD       A2, A2, A3, LSR #8    ; [DPU_3_PIPE] |916| 
$C$DW$114	.dwtag  DW_TAG_TI_branch
	.dwattr $C$DW$114, DW_AT_low_pc(0x00)
	.dwattr $C$DW$114, DW_AT_name("move_window")
	.dwattr $C$DW$114, DW_AT_TI_call
        BL        move_window           ; [DPU_3_PIPE] |916| 
        ; CALL OCCURS {move_window }     ; [] |916| 
        STRB      A1, [SP, #20]         ; [DPU_3_PIPE] |916| 
	.dwpsn	file "E:/Dev/Ti/TivaWare/third_party/fatfs/src/ff.c",line 917,column 4,is_stmt,isa 1
;----------------------------------------------------------------------
; 917 | if (res != FR_OK) break;                                               
;----------------------------------------------------------------------
        LDRB      A1, [SP, #20]         ; [DPU_3_PIPE] |917| 
        CMP       A1, #0                ; [DPU_3_PIPE] |917| 
        BNE       ||$C$L40||            ; [DPU_3_PIPE] |917| 
        ; BRANCHCC OCCURS {||$C$L40||}   ; [] |917| 
;* --------------------------------------------------------------------------*
	.dwpsn	file "E:/Dev/Ti/TivaWare/third_party/fatfs/src/ff.c",line 917,column 22,is_stmt,isa 1
	.dwpsn	file "E:/Dev/Ti/TivaWare/third_party/fatfs/src/ff.c",line 918,column 4,is_stmt,isa 1
;----------------------------------------------------------------------
; 918 | p = &fs->win[clst * 2 % SS(fs)];                                       
;----------------------------------------------------------------------
        LDR       A1, [SP, #4]          ; [DPU_3_PIPE] |918| 
        LDR       A2, [SP, #0]          ; [DPU_3_PIPE] |918| 
        LSLS      A1, A1, #1            ; [DPU_3_PIPE] |918| 
        BFC       A1, #9, #23           ; [DPU_3_PIPE] |918| 
        ADDS      A1, A1, A2            ; [DPU_3_PIPE] |918| 
        ADDS      A1, A1, #52           ; [DPU_3_PIPE] |918| 
        STR       A1, [SP, #16]         ; [DPU_3_PIPE] |918| 
	.dwpsn	file "E:/Dev/Ti/TivaWare/third_party/fatfs/src/ff.c",line 919,column 4,is_stmt,isa 1
;----------------------------------------------------------------------
; 919 | ST_WORD(p, (WORD)val);                                                 
;----------------------------------------------------------------------
        LDRB      A1, [SP, #8]          ; [DPU_3_PIPE] |919| 
        LDR       A2, [SP, #16]         ; [DPU_3_PIPE] |919| 
        STRB      A1, [A2, #0]          ; [DPU_3_PIPE] |919| 
        LDRH      A1, [SP, #8]          ; [DPU_3_PIPE] |919| 
        LDR       A2, [SP, #16]         ; [DPU_3_PIPE] |919| 
        ASRS      A1, A1, #8            ; [DPU_3_PIPE] |919| 
        STRB      A1, [A2, #1]          ; [DPU_3_PIPE] |919| 
	.dwpsn	file "E:/Dev/Ti/TivaWare/third_party/fatfs/src/ff.c",line 920,column 4,is_stmt,isa 1
;----------------------------------------------------------------------
; 920 | break;                                                                 
; 922 | case FS_FAT32 :                                                        
;----------------------------------------------------------------------
        B         ||$C$L40||            ; [DPU_3_PIPE] |920| 
        ; BRANCH OCCURS {||$C$L40||}     ; [] |920| 
;* --------------------------------------------------------------------------*
||$C$L37||:    
	.dwpsn	file "E:/Dev/Ti/TivaWare/third_party/fatfs/src/ff.c",line 923,column 4,is_stmt,isa 1
;----------------------------------------------------------------------
; 923 | res = move_window(fs, fs->fatbase + (clst / (SS(fs) / 4)));            
;----------------------------------------------------------------------
        LDR       A1, [SP, #0]          ; [DPU_3_PIPE] |923| 
        LDR       A3, [SP, #4]          ; [DPU_3_PIPE] |923| 
        LDR       A2, [A1, #36]         ; [DPU_3_PIPE] |923| 
        LDR       A1, [SP, #0]          ; [DPU_3_PIPE] |923| 
        ADD       A2, A2, A3, LSR #7    ; [DPU_3_PIPE] |923| 
$C$DW$115	.dwtag  DW_TAG_TI_branch
	.dwattr $C$DW$115, DW_AT_low_pc(0x00)
	.dwattr $C$DW$115, DW_AT_name("move_window")
	.dwattr $C$DW$115, DW_AT_TI_call
        BL        move_window           ; [DPU_3_PIPE] |923| 
        ; CALL OCCURS {move_window }     ; [] |923| 
        STRB      A1, [SP, #20]         ; [DPU_3_PIPE] |923| 
	.dwpsn	file "E:/Dev/Ti/TivaWare/third_party/fatfs/src/ff.c",line 924,column 4,is_stmt,isa 1
;----------------------------------------------------------------------
; 924 | if (res != FR_OK) break;                                               
;----------------------------------------------------------------------
        LDRB      A1, [SP, #20]         ; [DPU_3_PIPE] |924| 
        CMP       A1, #0                ; [DPU_3_PIPE] |924| 
        BNE       ||$C$L40||            ; [DPU_3_PIPE] |924| 
        ; BRANCHCC OCCURS {||$C$L40||}   ; [] |924| 
;* --------------------------------------------------------------------------*
	.dwpsn	file "E:/Dev/Ti/TivaWare/third_party/fatfs/src/ff.c",line 924,column 22,is_stmt,isa 1
	.dwpsn	file "E:/Dev/Ti/TivaWare/third_party/fatfs/src/ff.c",line 925,column 4,is_stmt,isa 1
;----------------------------------------------------------------------
; 925 | p = &fs->win[clst * 4 % SS(fs)];                                       
;----------------------------------------------------------------------
        LDR       A1, [SP, #4]          ; [DPU_3_PIPE] |925| 
        LDR       A2, [SP, #0]          ; [DPU_3_PIPE] |925| 
        LSLS      A1, A1, #2            ; [DPU_3_PIPE] |925| 
        BFC       A1, #9, #23           ; [DPU_3_PIPE] |925| 
        ADDS      A1, A1, A2            ; [DPU_3_PIPE] |925| 
        ADDS      A1, A1, #52           ; [DPU_3_PIPE] |925| 
        STR       A1, [SP, #16]         ; [DPU_3_PIPE] |925| 
	.dwpsn	file "E:/Dev/Ti/TivaWare/third_party/fatfs/src/ff.c",line 926,column 4,is_stmt,isa 1
;----------------------------------------------------------------------
; 926 | val |= LD_DWORD(p) & 0xF0000000;                                       
;----------------------------------------------------------------------
        LDR       A4, [SP, #16]         ; [DPU_3_PIPE] |926| 
        LDR       A3, [SP, #16]         ; [DPU_3_PIPE] |926| 
        LDR       A1, [SP, #16]         ; [DPU_3_PIPE] |926| 
        LDR       A2, [SP, #16]         ; [DPU_3_PIPE] |926| 
        LDRB      V1, [A4, #2]          ; [DPU_3_PIPE] |926| 
        LDRB      A1, [A1, #3]          ; [DPU_3_PIPE] |926| 
        LDRB      A4, [A3, #1]          ; [DPU_3_PIPE] |926| 
        LDRB      A2, [A2, #0]          ; [DPU_3_PIPE] |926| 
        LDR       A3, [SP, #8]          ; [DPU_3_PIPE] |926| 
        LSLS      A1, A1, #24           ; [DPU_3_PIPE] |926| 
        ORR       A1, A1, V1, LSL #16   ; [DPU_3_PIPE] |926| 
        ORR       A1, A1, A4, LSL #8    ; [DPU_3_PIPE] |926| 
        ORRS      A1, A2, A1            ; [DPU_3_PIPE] |926| 
        AND       A1, A1, #-268435456   ; [DPU_3_PIPE] |926| 
        ORRS      A1, A1, A3            ; [DPU_3_PIPE] |926| 
        STR       A1, [SP, #8]          ; [DPU_3_PIPE] |926| 
	.dwpsn	file "E:/Dev/Ti/TivaWare/third_party/fatfs/src/ff.c",line 927,column 4,is_stmt,isa 1
;----------------------------------------------------------------------
; 927 | ST_DWORD(p, val);                                                      
;----------------------------------------------------------------------
        LDRB      A1, [SP, #8]          ; [DPU_3_PIPE] |927| 
        LDR       A2, [SP, #16]         ; [DPU_3_PIPE] |927| 
        STRB      A1, [A2, #0]          ; [DPU_3_PIPE] |927| 
        LDRH      A1, [SP, #8]          ; [DPU_3_PIPE] |927| 
        LDR       A2, [SP, #16]         ; [DPU_3_PIPE] |927| 
        ASRS      A1, A1, #8            ; [DPU_3_PIPE] |927| 
        STRB      A1, [A2, #1]          ; [DPU_3_PIPE] |927| 
        LDRB      A1, [SP, #10]         ; [DPU_3_PIPE] |927| 
        LDR       A2, [SP, #16]         ; [DPU_3_PIPE] |927| 
        STRB      A1, [A2, #2]          ; [DPU_3_PIPE] |927| 
        LDRB      A1, [SP, #11]         ; [DPU_3_PIPE] |927| 
        LDR       A2, [SP, #16]         ; [DPU_3_PIPE] |927| 
        STRB      A1, [A2, #3]          ; [DPU_3_PIPE] |927| 
	.dwpsn	file "E:/Dev/Ti/TivaWare/third_party/fatfs/src/ff.c",line 928,column 4,is_stmt,isa 1
;----------------------------------------------------------------------
; 928 | break;                                                                 
; 930 | default :                                                              
;----------------------------------------------------------------------
        B         ||$C$L40||            ; [DPU_3_PIPE] |928| 
        ; BRANCH OCCURS {||$C$L40||}     ; [] |928| 
;* --------------------------------------------------------------------------*
||$C$L38||:    
	.dwpsn	file "E:/Dev/Ti/TivaWare/third_party/fatfs/src/ff.c",line 931,column 4,is_stmt,isa 1
;----------------------------------------------------------------------
; 931 | res = FR_INT_ERR;                                                      
;----------------------------------------------------------------------
        MOVS      A1, #2                ; [DPU_3_PIPE] |931| 
        STRB      A1, [SP, #20]         ; [DPU_3_PIPE] |931| 
	.dwpsn	file "E:/Dev/Ti/TivaWare/third_party/fatfs/src/ff.c",line 932,column 3,is_stmt,isa 1
        B         ||$C$L40||            ; [DPU_3_PIPE] |932| 
        ; BRANCH OCCURS {||$C$L40||}     ; [] |932| 
;* --------------------------------------------------------------------------*
||$C$L39||:    
	.dwpsn	file "E:/Dev/Ti/TivaWare/third_party/fatfs/src/ff.c",line 900,column 3,is_stmt,isa 1
        LDR       A1, [SP, #0]          ; [DPU_3_PIPE] |900| 
        LDRB      A1, [A1, #0]          ; [DPU_3_PIPE] |900| 
        SUBS      A1, A1, #1            ; [DPU_3_PIPE] |900| 
        BEQ       ||$C$L31||            ; [DPU_3_PIPE] |900| 
        ; BRANCHCC OCCURS {||$C$L31||}   ; [] |900| 
;* --------------------------------------------------------------------------*
        SUBS      A1, A1, #1            ; [DPU_3_PIPE] |900| 
        BEQ       ||$C$L36||            ; [DPU_3_PIPE] |900| 
        ; BRANCHCC OCCURS {||$C$L36||}   ; [] |900| 
;* --------------------------------------------------------------------------*
        SUBS      A1, A1, #1            ; [DPU_3_PIPE] |900| 
        BEQ       ||$C$L37||            ; [DPU_3_PIPE] |900| 
        ; BRANCHCC OCCURS {||$C$L37||}   ; [] |900| 
;* --------------------------------------------------------------------------*
        B         ||$C$L38||            ; [DPU_3_PIPE] |900| 
        ; BRANCH OCCURS {||$C$L38||}     ; [] |900| 
;* --------------------------------------------------------------------------*
||$C$L40||:    
	.dwpsn	file "E:/Dev/Ti/TivaWare/third_party/fatfs/src/ff.c",line 933,column 3,is_stmt,isa 1
;----------------------------------------------------------------------
; 933 | fs->wflag = 1;                                                         
;----------------------------------------------------------------------
        LDR       A1, [SP, #0]          ; [DPU_3_PIPE] |933| 
        MOVS      A2, #1                ; [DPU_3_PIPE] |933| 
        STRB      A2, [A1, #4]          ; [DPU_3_PIPE] |933| 
;* --------------------------------------------------------------------------*
||$C$L41||:    
	.dwpsn	file "E:/Dev/Ti/TivaWare/third_party/fatfs/src/ff.c",line 936,column 2,is_stmt,isa 1
;----------------------------------------------------------------------
; 936 | return res;                                                            
;----------------------------------------------------------------------
        LDRB      A1, [SP, #20]         ; [DPU_3_PIPE] |936| 
	.dwpsn	file "E:/Dev/Ti/TivaWare/third_party/fatfs/src/ff.c",line 937,column 1,is_stmt,isa 1
        ADD       SP, SP, #24           ; [DPU_3_PIPE] 
	.dwcfi	cfa_offset, 8
$C$DW$116	.dwtag  DW_TAG_TI_branch
	.dwattr $C$DW$116, DW_AT_low_pc(0x00)
	.dwattr $C$DW$116, DW_AT_TI_return
        POP       {V1, PC}              ; [DPU_3_PIPE] 
	.dwcfi	cfa_offset, 0
        ; BRANCH OCCURS                  ; [] 
	.dwattr $C$DW$102, DW_AT_TI_end_file("E:/Dev/Ti/TivaWare/third_party/fatfs/src/ff.c")
	.dwattr $C$DW$102, DW_AT_TI_end_line(0x3a9)
	.dwattr $C$DW$102, DW_AT_TI_end_column(0x01)
	.dwendentry
	.dwendtag $C$DW$102

	.sect	".text:remove_chain"
	.clink
	.thumbfunc remove_chain
	.thumb

$C$DW$117	.dwtag  DW_TAG_subprogram, DW_AT_name("remove_chain")
	.dwattr $C$DW$117, DW_AT_low_pc(remove_chain)
	.dwattr $C$DW$117, DW_AT_high_pc(0x00)
	.dwattr $C$DW$117, DW_AT_TI_symbol_name("remove_chain")
	.dwattr $C$DW$117, DW_AT_type(*$C$DW$T$44)
	.dwattr $C$DW$117, DW_AT_TI_begin_file("E:/Dev/Ti/TivaWare/third_party/fatfs/src/ff.c")
	.dwattr $C$DW$117, DW_AT_TI_begin_line(0x3b4)
	.dwattr $C$DW$117, DW_AT_TI_begin_column(0x09)
	.dwattr $C$DW$117, DW_AT_decl_file("E:/Dev/Ti/TivaWare/third_party/fatfs/src/ff.c")
	.dwattr $C$DW$117, DW_AT_decl_line(0x3b4)
	.dwattr $C$DW$117, DW_AT_decl_column(0x09)
	.dwattr $C$DW$117, DW_AT_TI_max_frame_size(0x18)
	.dwpsn	file "E:/Dev/Ti/TivaWare/third_party/fatfs/src/ff.c",line 952,column 1,is_stmt,address remove_chain,isa 1

	.dwfde $C$DW$CIE, remove_chain
$C$DW$118	.dwtag  DW_TAG_formal_parameter, DW_AT_name("fs")
	.dwattr $C$DW$118, DW_AT_TI_symbol_name("fs")
	.dwattr $C$DW$118, DW_AT_type(*$C$DW$T$25)
	.dwattr $C$DW$118, DW_AT_location[DW_OP_reg0]
$C$DW$119	.dwtag  DW_TAG_formal_parameter, DW_AT_name("clst")
	.dwattr $C$DW$119, DW_AT_TI_symbol_name("clst")
	.dwattr $C$DW$119, DW_AT_type(*$C$DW$T$21)
	.dwattr $C$DW$119, DW_AT_location[DW_OP_reg1]
;----------------------------------------------------------------------
; 948 | FRESULT remove_chain (                                                 
; 949 | FATFS *fs,                      /* File system object */               
; 950 | DWORD clst                      /* Cluster# to remove a chain from */  
; 951 | )                                                                      
;----------------------------------------------------------------------

;*****************************************************************************
;* FUNCTION NAME: remove_chain                                               *
;*                                                                           *
;*   Regs Modified     : A1,A2,A3,A4,V9,SP,LR,SR,D0,D0_hi,D1,D1_hi,D2,D2_hi, *
;*                           D3,D3_hi,D4,D4_hi,D5,D5_hi,D6,D6_hi,D7,D7_hi,   *
;*                           FPEXC,FPSCR                                     *
;*   Regs Used         : A1,A2,A3,A4,V9,SP,LR,SR,D0,D0_hi,D1,D1_hi,D2,D2_hi, *
;*                           D3,D3_hi,D4,D4_hi,D5,D5_hi,D6,D6_hi,D7,D7_hi,   *
;*                           FPEXC,FPSCR                                     *
;*   Local Frame Size  : 0 Args + 16 Auto + 4 Save = 20 byte                 *
;*****************************************************************************
remove_chain:
;* --------------------------------------------------------------------------*
	.dwcfi	cfa_offset, 0
        PUSH      {LR}                  ; [DPU_3_PIPE] 
	.dwcfi	cfa_offset, 4
	.dwcfi	save_reg_to_mem, 14, -4
        SUB       SP, SP, #20           ; [DPU_3_PIPE] 
	.dwcfi	cfa_offset, 24
$C$DW$120	.dwtag  DW_TAG_variable, DW_AT_name("fs")
	.dwattr $C$DW$120, DW_AT_TI_symbol_name("fs")
	.dwattr $C$DW$120, DW_AT_type(*$C$DW$T$25)
	.dwattr $C$DW$120, DW_AT_location[DW_OP_breg13 0]
$C$DW$121	.dwtag  DW_TAG_variable, DW_AT_name("clst")
	.dwattr $C$DW$121, DW_AT_TI_symbol_name("clst")
	.dwattr $C$DW$121, DW_AT_type(*$C$DW$T$21)
	.dwattr $C$DW$121, DW_AT_location[DW_OP_breg13 4]
$C$DW$122	.dwtag  DW_TAG_variable, DW_AT_name("res")
	.dwattr $C$DW$122, DW_AT_TI_symbol_name("res")
	.dwattr $C$DW$122, DW_AT_type(*$C$DW$T$44)
	.dwattr $C$DW$122, DW_AT_location[DW_OP_breg13 8]
$C$DW$123	.dwtag  DW_TAG_variable, DW_AT_name("nxt")
	.dwattr $C$DW$123, DW_AT_TI_symbol_name("nxt")
	.dwattr $C$DW$123, DW_AT_type(*$C$DW$T$21)
	.dwattr $C$DW$123, DW_AT_location[DW_OP_breg13 12]
;----------------------------------------------------------------------
; 953 | FRESULT res;                                                           
; 954 | DWORD nxt;                                                             
; 955 | #if _USE_ERASE                                                         
; 956 | DWORD scl = clst, ecl = clst, rt[2];                                   
; 957 | #endif                                                                 
;----------------------------------------------------------------------
        STR       A2, [SP, #4]          ; [DPU_3_PIPE] |952| 
        STR       A1, [SP, #0]          ; [DPU_3_PIPE] |952| 
	.dwpsn	file "E:/Dev/Ti/TivaWare/third_party/fatfs/src/ff.c",line 959,column 2,is_stmt,isa 1
;----------------------------------------------------------------------
; 959 | if (clst < 2 || clst >= fs->n_fatent) { /* Check range */              
;----------------------------------------------------------------------
        LDR       A1, [SP, #4]          ; [DPU_3_PIPE] |959| 
        CMP       A1, #2                ; [DPU_3_PIPE] |959| 
        BCC       ||$C$L42||            ; [DPU_3_PIPE] |959| 
        ; BRANCHCC OCCURS {||$C$L42||}   ; [] |959| 
;* --------------------------------------------------------------------------*
        LDR       A1, [SP, #0]          ; [DPU_3_PIPE] |959| 
        LDR       A2, [SP, #4]          ; [DPU_3_PIPE] |959| 
        LDR       A1, [A1, #24]         ; [DPU_3_PIPE] |959| 
        CMP       A1, A2                ; [DPU_3_PIPE] |959| 
        BHI       ||$C$L43||            ; [DPU_3_PIPE] |959| 
        ; BRANCHCC OCCURS {||$C$L43||}   ; [] |959| 
;* --------------------------------------------------------------------------*
||$C$L42||:    
	.dwpsn	file "E:/Dev/Ti/TivaWare/third_party/fatfs/src/ff.c",line 960,column 3,is_stmt,isa 1
;----------------------------------------------------------------------
; 960 | res = FR_INT_ERR;                                                      
;----------------------------------------------------------------------
        MOVS      A1, #2                ; [DPU_3_PIPE] |960| 
        STRB      A1, [SP, #8]          ; [DPU_3_PIPE] |960| 
	.dwpsn	file "E:/Dev/Ti/TivaWare/third_party/fatfs/src/ff.c",line 962,column 2,is_stmt,isa 1
;----------------------------------------------------------------------
; 962 | } else {                                                               
;----------------------------------------------------------------------
        B         ||$C$L49||            ; [DPU_3_PIPE] |962| 
        ; BRANCH OCCURS {||$C$L49||}     ; [] |962| 
;* --------------------------------------------------------------------------*
||$C$L43||:    
	.dwpsn	file "E:/Dev/Ti/TivaWare/third_party/fatfs/src/ff.c",line 963,column 3,is_stmt,isa 1
;----------------------------------------------------------------------
; 963 | res = FR_OK;                                                           
;----------------------------------------------------------------------
        MOVS      A1, #0                ; [DPU_3_PIPE] |963| 
        STRB      A1, [SP, #8]          ; [DPU_3_PIPE] |963| 
	.dwpsn	file "E:/Dev/Ti/TivaWare/third_party/fatfs/src/ff.c",line 964,column 3,is_stmt,isa 1
;----------------------------------------------------------------------
; 964 | while (clst < fs->n_fatent) {                   /* Not a last link? */ 
;----------------------------------------------------------------------
        B         ||$C$L48||            ; [DPU_3_PIPE] |964| 
        ; BRANCH OCCURS {||$C$L48||}     ; [] |964| 
;* --------------------------------------------------------------------------*
||$C$L44||:    
	.dwpsn	file "E:/Dev/Ti/TivaWare/third_party/fatfs/src/ff.c",line 965,column 4,is_stmt,isa 1
;----------------------------------------------------------------------
; 965 | nxt = get_fat(fs, clst);                        /* Get cluster status *
;     | /                                                                      
;----------------------------------------------------------------------
        LDR       A1, [SP, #0]          ; [DPU_3_PIPE] |965| 
        LDR       A2, [SP, #4]          ; [DPU_3_PIPE] |965| 
$C$DW$124	.dwtag  DW_TAG_TI_branch
	.dwattr $C$DW$124, DW_AT_low_pc(0x00)
	.dwattr $C$DW$124, DW_AT_name("get_fat")
	.dwattr $C$DW$124, DW_AT_TI_call
        BL        get_fat               ; [DPU_3_PIPE] |965| 
        ; CALL OCCURS {get_fat }         ; [] |965| 
        STR       A1, [SP, #12]         ; [DPU_3_PIPE] |965| 
	.dwpsn	file "E:/Dev/Ti/TivaWare/third_party/fatfs/src/ff.c",line 966,column 4,is_stmt,isa 1
;----------------------------------------------------------------------
; 966 | if (nxt == 0) break;                            /* Empty cluster? */   
;----------------------------------------------------------------------
        LDR       A1, [SP, #12]         ; [DPU_3_PIPE] |966| 
        CMP       A1, #0                ; [DPU_3_PIPE] |966| 
        BEQ       ||$C$L49||            ; [DPU_3_PIPE] |966| 
        ; BRANCHCC OCCURS {||$C$L49||}   ; [] |966| 
;* --------------------------------------------------------------------------*
	.dwpsn	file "E:/Dev/Ti/TivaWare/third_party/fatfs/src/ff.c",line 966,column 18,is_stmt,isa 1
	.dwpsn	file "E:/Dev/Ti/TivaWare/third_party/fatfs/src/ff.c",line 967,column 4,is_stmt,isa 1
;----------------------------------------------------------------------
; 967 | if (nxt == 1) { res = FR_INT_ERR; break; }      /* Internal error? */  
;----------------------------------------------------------------------
        LDR       A1, [SP, #12]         ; [DPU_3_PIPE] |967| 
        CMP       A1, #1                ; [DPU_3_PIPE] |967| 
        BNE       ||$C$L45||            ; [DPU_3_PIPE] |967| 
        ; BRANCHCC OCCURS {||$C$L45||}   ; [] |967| 
;* --------------------------------------------------------------------------*
	.dwpsn	file "E:/Dev/Ti/TivaWare/third_party/fatfs/src/ff.c",line 967,column 20,is_stmt,isa 1
        MOVS      A1, #2                ; [DPU_3_PIPE] |967| 
        STRB      A1, [SP, #8]          ; [DPU_3_PIPE] |967| 
	.dwpsn	file "E:/Dev/Ti/TivaWare/third_party/fatfs/src/ff.c",line 967,column 38,is_stmt,isa 1
        B         ||$C$L49||            ; [DPU_3_PIPE] |967| 
        ; BRANCH OCCURS {||$C$L49||}     ; [] |967| 
;* --------------------------------------------------------------------------*
||$C$L45||:    
	.dwpsn	file "E:/Dev/Ti/TivaWare/third_party/fatfs/src/ff.c",line 968,column 4,is_stmt,isa 1
;----------------------------------------------------------------------
; 968 | if (nxt == 0xFFFFFFFF) { res = FR_DISK_ERR; break; }    /* Disk error?
;     | */                                                                     
;----------------------------------------------------------------------
        LDR       A1, [SP, #12]         ; [DPU_3_PIPE] |968| 
        CMP       A1, #-1               ; [DPU_3_PIPE] |968| 
        BNE       ||$C$L46||            ; [DPU_3_PIPE] |968| 
        ; BRANCHCC OCCURS {||$C$L46||}   ; [] |968| 
;* --------------------------------------------------------------------------*
	.dwpsn	file "E:/Dev/Ti/TivaWare/third_party/fatfs/src/ff.c",line 968,column 29,is_stmt,isa 1
        MOVS      A1, #1                ; [DPU_3_PIPE] |968| 
        STRB      A1, [SP, #8]          ; [DPU_3_PIPE] |968| 
	.dwpsn	file "E:/Dev/Ti/TivaWare/third_party/fatfs/src/ff.c",line 968,column 48,is_stmt,isa 1
        B         ||$C$L49||            ; [DPU_3_PIPE] |968| 
        ; BRANCH OCCURS {||$C$L49||}     ; [] |968| 
;* --------------------------------------------------------------------------*
||$C$L46||:    
	.dwpsn	file "E:/Dev/Ti/TivaWare/third_party/fatfs/src/ff.c",line 969,column 4,is_stmt,isa 1
;----------------------------------------------------------------------
; 969 | res = put_fat(fs, clst, 0);                     /* Mark the cluster "em
;     | pty" */                                                                
;----------------------------------------------------------------------
        LDR       A1, [SP, #0]          ; [DPU_3_PIPE] |969| 
        LDR       A2, [SP, #4]          ; [DPU_3_PIPE] |969| 
        MOVS      A3, #0                ; [DPU_3_PIPE] |969| 
$C$DW$125	.dwtag  DW_TAG_TI_branch
	.dwattr $C$DW$125, DW_AT_low_pc(0x00)
	.dwattr $C$DW$125, DW_AT_name("put_fat")
	.dwattr $C$DW$125, DW_AT_TI_call
        BL        put_fat               ; [DPU_3_PIPE] |969| 
        ; CALL OCCURS {put_fat }         ; [] |969| 
        STRB      A1, [SP, #8]          ; [DPU_3_PIPE] |969| 
	.dwpsn	file "E:/Dev/Ti/TivaWare/third_party/fatfs/src/ff.c",line 970,column 4,is_stmt,isa 1
;----------------------------------------------------------------------
; 970 | if (res != FR_OK) break;                                               
;----------------------------------------------------------------------
        LDRB      A1, [SP, #8]          ; [DPU_3_PIPE] |970| 
        CBNZ      A1, ||$C$L49||        ; [] 
        ; BRANCHCC OCCURS {||$C$L49||}   ; [] |970| 
;* --------------------------------------------------------------------------*
	.dwpsn	file "E:/Dev/Ti/TivaWare/third_party/fatfs/src/ff.c",line 970,column 22,is_stmt,isa 1
	.dwpsn	file "E:/Dev/Ti/TivaWare/third_party/fatfs/src/ff.c",line 971,column 4,is_stmt,isa 1
;----------------------------------------------------------------------
; 971 | if (fs->free_clust != 0xFFFFFFFF) {     /* Update FSInfo */            
;----------------------------------------------------------------------
        LDR       A1, [SP, #0]          ; [DPU_3_PIPE] |971| 
        LDR       A1, [A1, #16]         ; [DPU_3_PIPE] |971| 
        CMP       A1, #-1               ; [DPU_3_PIPE] |971| 
        BEQ       ||$C$L47||            ; [DPU_3_PIPE] |971| 
        ; BRANCHCC OCCURS {||$C$L47||}   ; [] |971| 
;* --------------------------------------------------------------------------*
	.dwpsn	file "E:/Dev/Ti/TivaWare/third_party/fatfs/src/ff.c",line 972,column 5,is_stmt,isa 1
;----------------------------------------------------------------------
; 972 | fs->free_clust++;                                                      
;----------------------------------------------------------------------
        LDR       A2, [SP, #0]          ; [DPU_3_PIPE] |972| 
        LDR       A1, [A2, #16]         ; [DPU_3_PIPE] |972| 
        ADDS      A1, A1, #1            ; [DPU_3_PIPE] |972| 
        STR       A1, [A2, #16]         ; [DPU_3_PIPE] |972| 
	.dwpsn	file "E:/Dev/Ti/TivaWare/third_party/fatfs/src/ff.c",line 973,column 5,is_stmt,isa 1
;----------------------------------------------------------------------
; 973 | fs->fsi_flag = 1;                                                      
; 975 | #if _USE_ERASE                                                         
; 976 | if (ecl + 1 == nxt) {   /* Is next cluster contiguous? */              
; 977 | ecl = nxt;                                                             
; 978 | } else {                                /* End of contiguous clusters *
;     | /                                                                      
; 979 | rt[0] = clust2sect(fs, scl);                                    /* Star
;     | t sector */                                                            
; 980 | rt[1] = clust2sect(fs, ecl) + fs->csize - 1;    /* End sector */       
; 981 | disk_ioctl(fs->drv, CTRL_ERASE_SECTOR, rt);             /* Erase the bl
;     | ock */                                                                 
; 982 | scl = ecl = nxt;                                                       
; 984 | #endif                                                                 
;----------------------------------------------------------------------
        LDR       A1, [SP, #0]          ; [DPU_3_PIPE] |973| 
        MOVS      A2, #1                ; [DPU_3_PIPE] |973| 
        STRB      A2, [A1, #5]          ; [DPU_3_PIPE] |973| 
;* --------------------------------------------------------------------------*
||$C$L47||:    
	.dwpsn	file "E:/Dev/Ti/TivaWare/third_party/fatfs/src/ff.c",line 985,column 4,is_stmt,isa 1
;----------------------------------------------------------------------
; 985 | clst = nxt;     /* Next cluster */                                     
;----------------------------------------------------------------------
        LDR       A1, [SP, #12]         ; [DPU_3_PIPE] |985| 
        STR       A1, [SP, #4]          ; [DPU_3_PIPE] |985| 
;* --------------------------------------------------------------------------*
;*   BEGIN LOOP ||$C$L48||
;* --------------------------------------------------------------------------*
||$C$L48||:    
	.dwpsn	file "E:/Dev/Ti/TivaWare/third_party/fatfs/src/ff.c",line 964,column 10,is_stmt,isa 1
        LDR       A1, [SP, #0]          ; [DPU_3_PIPE] |964| 
        LDR       A2, [SP, #4]          ; [DPU_3_PIPE] |964| 
        LDR       A1, [A1, #24]         ; [DPU_3_PIPE] |964| 
        CMP       A1, A2                ; [DPU_3_PIPE] |964| 
        BHI       ||$C$L44||            ; [DPU_3_PIPE] |964| 
        ; BRANCHCC OCCURS {||$C$L44||}   ; [] |964| 
;* --------------------------------------------------------------------------*
||$C$L49||:    
	.dwpsn	file "E:/Dev/Ti/TivaWare/third_party/fatfs/src/ff.c",line 989,column 2,is_stmt,isa 1
;----------------------------------------------------------------------
; 989 | return res;                                                            
;----------------------------------------------------------------------
        LDRB      A1, [SP, #8]          ; [DPU_3_PIPE] |989| 
	.dwpsn	file "E:/Dev/Ti/TivaWare/third_party/fatfs/src/ff.c",line 990,column 1,is_stmt,isa 1
        ADD       SP, SP, #20           ; [DPU_3_PIPE] 
	.dwcfi	cfa_offset, 4
$C$DW$126	.dwtag  DW_TAG_TI_branch
	.dwattr $C$DW$126, DW_AT_low_pc(0x00)
	.dwattr $C$DW$126, DW_AT_TI_return
        POP       {PC}                  ; [DPU_3_PIPE] 
	.dwcfi	cfa_offset, 0
        ; BRANCH OCCURS                  ; [] 
	.dwattr $C$DW$117, DW_AT_TI_end_file("E:/Dev/Ti/TivaWare/third_party/fatfs/src/ff.c")
	.dwattr $C$DW$117, DW_AT_TI_end_line(0x3de)
	.dwattr $C$DW$117, DW_AT_TI_end_column(0x01)
	.dwendentry
	.dwendtag $C$DW$117

	.sect	".text:create_chain"
	.clink
	.thumbfunc create_chain
	.thumb

$C$DW$127	.dwtag  DW_TAG_subprogram, DW_AT_name("create_chain")
	.dwattr $C$DW$127, DW_AT_low_pc(create_chain)
	.dwattr $C$DW$127, DW_AT_high_pc(0x00)
	.dwattr $C$DW$127, DW_AT_TI_symbol_name("create_chain")
	.dwattr $C$DW$127, DW_AT_type(*$C$DW$T$21)
	.dwattr $C$DW$127, DW_AT_TI_begin_file("E:/Dev/Ti/TivaWare/third_party/fatfs/src/ff.c")
	.dwattr $C$DW$127, DW_AT_TI_begin_line(0x3e9)
	.dwattr $C$DW$127, DW_AT_TI_begin_column(0x07)
	.dwattr $C$DW$127, DW_AT_decl_file("E:/Dev/Ti/TivaWare/third_party/fatfs/src/ff.c")
	.dwattr $C$DW$127, DW_AT_decl_line(0x3e9)
	.dwattr $C$DW$127, DW_AT_decl_column(0x07)
	.dwattr $C$DW$127, DW_AT_TI_max_frame_size(0x20)
	.dwpsn	file "E:/Dev/Ti/TivaWare/third_party/fatfs/src/ff.c",line 1005,column 1,is_stmt,address create_chain,isa 1

	.dwfde $C$DW$CIE, create_chain
$C$DW$128	.dwtag  DW_TAG_formal_parameter, DW_AT_name("fs")
	.dwattr $C$DW$128, DW_AT_TI_symbol_name("fs")
	.dwattr $C$DW$128, DW_AT_type(*$C$DW$T$25)
	.dwattr $C$DW$128, DW_AT_location[DW_OP_reg0]
$C$DW$129	.dwtag  DW_TAG_formal_parameter, DW_AT_name("clst")
	.dwattr $C$DW$129, DW_AT_TI_symbol_name("clst")
	.dwattr $C$DW$129, DW_AT_type(*$C$DW$T$21)
	.dwattr $C$DW$129, DW_AT_location[DW_OP_reg1]
;----------------------------------------------------------------------
; 1001 | DWORD create_chain (    /* 0:No free cluster, 1:Internal error, 0xFFFFF
;     | FFF:Disk error, >=2:New cluster# */                                    
; 1002 | FATFS *fs,                      /* File system object */               
; 1003 | DWORD clst                      /* Cluster# to stretch. 0 means create
;     | a new chain. */                                                        
; 1004 | )                                                                      
;----------------------------------------------------------------------

;*****************************************************************************
;* FUNCTION NAME: create_chain                                               *
;*                                                                           *
;*   Regs Modified     : A1,A2,A3,A4,V9,SP,LR,SR,D0,D0_hi,D1,D1_hi,D2,D2_hi, *
;*                           D3,D3_hi,D4,D4_hi,D5,D5_hi,D6,D6_hi,D7,D7_hi,   *
;*                           FPEXC,FPSCR                                     *
;*   Regs Used         : A1,A2,A3,A4,V9,SP,LR,SR,D0,D0_hi,D1,D1_hi,D2,D2_hi, *
;*                           D3,D3_hi,D4,D4_hi,D5,D5_hi,D6,D6_hi,D7,D7_hi,   *
;*                           FPEXC,FPSCR                                     *
;*   Local Frame Size  : 0 Args + 24 Auto + 4 Save = 28 byte                 *
;*****************************************************************************
create_chain:
;* --------------------------------------------------------------------------*
	.dwcfi	cfa_offset, 0
        PUSH      {LR}                  ; [DPU_3_PIPE] 
	.dwcfi	cfa_offset, 4
	.dwcfi	save_reg_to_mem, 14, -4
        SUB       SP, SP, #28           ; [DPU_3_PIPE] 
	.dwcfi	cfa_offset, 32
$C$DW$130	.dwtag  DW_TAG_variable, DW_AT_name("fs")
	.dwattr $C$DW$130, DW_AT_TI_symbol_name("fs")
	.dwattr $C$DW$130, DW_AT_type(*$C$DW$T$25)
	.dwattr $C$DW$130, DW_AT_location[DW_OP_breg13 0]
$C$DW$131	.dwtag  DW_TAG_variable, DW_AT_name("clst")
	.dwattr $C$DW$131, DW_AT_TI_symbol_name("clst")
	.dwattr $C$DW$131, DW_AT_type(*$C$DW$T$21)
	.dwattr $C$DW$131, DW_AT_location[DW_OP_breg13 4]
$C$DW$132	.dwtag  DW_TAG_variable, DW_AT_name("cs")
	.dwattr $C$DW$132, DW_AT_TI_symbol_name("cs")
	.dwattr $C$DW$132, DW_AT_type(*$C$DW$T$21)
	.dwattr $C$DW$132, DW_AT_location[DW_OP_breg13 8]
$C$DW$133	.dwtag  DW_TAG_variable, DW_AT_name("ncl")
	.dwattr $C$DW$133, DW_AT_TI_symbol_name("ncl")
	.dwattr $C$DW$133, DW_AT_type(*$C$DW$T$21)
	.dwattr $C$DW$133, DW_AT_location[DW_OP_breg13 12]
$C$DW$134	.dwtag  DW_TAG_variable, DW_AT_name("scl")
	.dwattr $C$DW$134, DW_AT_TI_symbol_name("scl")
	.dwattr $C$DW$134, DW_AT_type(*$C$DW$T$21)
	.dwattr $C$DW$134, DW_AT_location[DW_OP_breg13 16]
$C$DW$135	.dwtag  DW_TAG_variable, DW_AT_name("res")
	.dwattr $C$DW$135, DW_AT_TI_symbol_name("res")
	.dwattr $C$DW$135, DW_AT_type(*$C$DW$T$44)
	.dwattr $C$DW$135, DW_AT_location[DW_OP_breg13 20]
;----------------------------------------------------------------------
; 1006 | DWORD cs, ncl, scl;                                                    
; 1007 | FRESULT res;                                                           
;----------------------------------------------------------------------
        STR       A2, [SP, #4]          ; [DPU_3_PIPE] |1005| 
        STR       A1, [SP, #0]          ; [DPU_3_PIPE] |1005| 
	.dwpsn	file "E:/Dev/Ti/TivaWare/third_party/fatfs/src/ff.c",line 1010,column 2,is_stmt,isa 1
;----------------------------------------------------------------------
; 1010 | if (clst == 0) {                /* Create a new chain */               
;----------------------------------------------------------------------
        LDR       A1, [SP, #4]          ; [DPU_3_PIPE] |1010| 
        CBNZ      A1, ||$C$L51||        ; [] 
        ; BRANCHCC OCCURS {||$C$L51||}   ; [] |1010| 
;* --------------------------------------------------------------------------*
	.dwpsn	file "E:/Dev/Ti/TivaWare/third_party/fatfs/src/ff.c",line 1011,column 3,is_stmt,isa 1
;----------------------------------------------------------------------
; 1011 | scl = fs->last_clust;                   /* Get suggested start point */
;----------------------------------------------------------------------
        LDR       A1, [SP, #0]          ; [DPU_3_PIPE] |1011| 
        LDR       A1, [A1, #12]         ; [DPU_3_PIPE] |1011| 
        STR       A1, [SP, #16]         ; [DPU_3_PIPE] |1011| 
	.dwpsn	file "E:/Dev/Ti/TivaWare/third_party/fatfs/src/ff.c",line 1012,column 3,is_stmt,isa 1
;----------------------------------------------------------------------
; 1012 | if (!scl || scl >= fs->n_fatent) scl = 1;                              
;----------------------------------------------------------------------
        LDR       A1, [SP, #16]         ; [DPU_3_PIPE] |1012| 
        CBZ       A1, ||$C$L50||        ; [] 
        ; BRANCHCC OCCURS {||$C$L50||}   ; [] |1012| 
;* --------------------------------------------------------------------------*
        LDR       A1, [SP, #0]          ; [DPU_3_PIPE] |1012| 
        LDR       A2, [SP, #16]         ; [DPU_3_PIPE] |1012| 
        LDR       A1, [A1, #24]         ; [DPU_3_PIPE] |1012| 
        CMP       A1, A2                ; [DPU_3_PIPE] |1012| 
        BHI       ||$C$L54||            ; [DPU_3_PIPE] |1012| 
        ; BRANCHCC OCCURS {||$C$L54||}   ; [] |1012| 
;* --------------------------------------------------------------------------*
||$C$L50||:    
	.dwpsn	file "E:/Dev/Ti/TivaWare/third_party/fatfs/src/ff.c",line 1012,column 36,is_stmt,isa 1
        MOVS      A1, #1                ; [DPU_3_PIPE] |1012| 
        STR       A1, [SP, #16]         ; [DPU_3_PIPE] |1012| 
	.dwpsn	file "E:/Dev/Ti/TivaWare/third_party/fatfs/src/ff.c",line 1013,column 2,is_stmt,isa 1
;----------------------------------------------------------------------
; 1014 | else {                                  /* Stretch the current chain */
;----------------------------------------------------------------------
        B         ||$C$L54||            ; [DPU_3_PIPE] |1013| 
        ; BRANCH OCCURS {||$C$L54||}     ; [] |1013| 
;* --------------------------------------------------------------------------*
||$C$L51||:    
	.dwpsn	file "E:/Dev/Ti/TivaWare/third_party/fatfs/src/ff.c",line 1015,column 3,is_stmt,isa 1
;----------------------------------------------------------------------
; 1015 | cs = get_fat(fs, clst);                 /* Check the cluster status */ 
;----------------------------------------------------------------------
        LDR       A1, [SP, #0]          ; [DPU_3_PIPE] |1015| 
        LDR       A2, [SP, #4]          ; [DPU_3_PIPE] |1015| 
$C$DW$136	.dwtag  DW_TAG_TI_branch
	.dwattr $C$DW$136, DW_AT_low_pc(0x00)
	.dwattr $C$DW$136, DW_AT_name("get_fat")
	.dwattr $C$DW$136, DW_AT_TI_call
        BL        get_fat               ; [DPU_3_PIPE] |1015| 
        ; CALL OCCURS {get_fat }         ; [] |1015| 
        STR       A1, [SP, #8]          ; [DPU_3_PIPE] |1015| 
	.dwpsn	file "E:/Dev/Ti/TivaWare/third_party/fatfs/src/ff.c",line 1016,column 3,is_stmt,isa 1
;----------------------------------------------------------------------
; 1016 | if (cs < 2) return 1;                   /* It is an invalid cluster */ 
;----------------------------------------------------------------------
        LDR       A1, [SP, #8]          ; [DPU_3_PIPE] |1016| 
        CMP       A1, #2                ; [DPU_3_PIPE] |1016| 
        BCS       ||$C$L52||            ; [DPU_3_PIPE] |1016| 
        ; BRANCHCC OCCURS {||$C$L52||}   ; [] |1016| 
;* --------------------------------------------------------------------------*
	.dwpsn	file "E:/Dev/Ti/TivaWare/third_party/fatfs/src/ff.c",line 1016,column 15,is_stmt,isa 1
        MOVS      A1, #1                ; [DPU_3_PIPE] |1016| 
        B         ||$C$L65||            ; [DPU_3_PIPE] |1016| 
        ; BRANCH OCCURS {||$C$L65||}     ; [] |1016| 
;* --------------------------------------------------------------------------*
||$C$L52||:    
	.dwpsn	file "E:/Dev/Ti/TivaWare/third_party/fatfs/src/ff.c",line 1017,column 3,is_stmt,isa 1
;----------------------------------------------------------------------
; 1017 | if (cs < fs->n_fatent) return cs;       /* It is already followed by ne
;     | xt cluster */                                                          
;----------------------------------------------------------------------
        LDR       A1, [SP, #0]          ; [DPU_3_PIPE] |1017| 
        LDR       A2, [SP, #8]          ; [DPU_3_PIPE] |1017| 
        LDR       A1, [A1, #24]         ; [DPU_3_PIPE] |1017| 
        CMP       A1, A2                ; [DPU_3_PIPE] |1017| 
        BLS       ||$C$L53||            ; [DPU_3_PIPE] |1017| 
        ; BRANCHCC OCCURS {||$C$L53||}   ; [] |1017| 
;* --------------------------------------------------------------------------*
	.dwpsn	file "E:/Dev/Ti/TivaWare/third_party/fatfs/src/ff.c",line 1017,column 26,is_stmt,isa 1
        LDR       A1, [SP, #8]          ; [DPU_3_PIPE] |1017| 
        B         ||$C$L65||            ; [DPU_3_PIPE] |1017| 
        ; BRANCH OCCURS {||$C$L65||}     ; [] |1017| 
;* --------------------------------------------------------------------------*
||$C$L53||:    
	.dwpsn	file "E:/Dev/Ti/TivaWare/third_party/fatfs/src/ff.c",line 1018,column 3,is_stmt,isa 1
;----------------------------------------------------------------------
; 1018 | scl = clst;                                                            
;----------------------------------------------------------------------
        LDR       A1, [SP, #4]          ; [DPU_3_PIPE] |1018| 
        STR       A1, [SP, #16]         ; [DPU_3_PIPE] |1018| 
;* --------------------------------------------------------------------------*
||$C$L54||:    
	.dwpsn	file "E:/Dev/Ti/TivaWare/third_party/fatfs/src/ff.c",line 1021,column 2,is_stmt,isa 1
;----------------------------------------------------------------------
; 1021 | ncl = scl;                              /* Start cluster */            
; 1022 | for (;;) {                                                             
;----------------------------------------------------------------------
        LDR       A1, [SP, #16]         ; [DPU_3_PIPE] |1021| 
        STR       A1, [SP, #12]         ; [DPU_3_PIPE] |1021| 
;* --------------------------------------------------------------------------*
;*   BEGIN LOOP ||$C$L55||
;*
;*   Loop source line                : 1022
;*   Loop closing brace source line  : 1033
;*   Known Minimum Trip Count        : 1
;*   Known Maximum Trip Count        : 4294967295
;*   Known Max Trip Count Factor     : 1
;* --------------------------------------------------------------------------*
||$C$L55||:    
	.dwpsn	file "E:/Dev/Ti/TivaWare/third_party/fatfs/src/ff.c",line 1023,column 3,is_stmt,isa 1
;----------------------------------------------------------------------
; 1023 | ncl++;                                                  /* Next cluster
;     |  */                                                                    
;----------------------------------------------------------------------
        LDR       A1, [SP, #12]         ; [DPU_3_PIPE] |1023| 
        ADDS      A1, A1, #1            ; [DPU_3_PIPE] |1023| 
        STR       A1, [SP, #12]         ; [DPU_3_PIPE] |1023| 
	.dwpsn	file "E:/Dev/Ti/TivaWare/third_party/fatfs/src/ff.c",line 1024,column 3,is_stmt,isa 1
;----------------------------------------------------------------------
; 1024 | if (ncl >= fs->n_fatent) {              /* Wrap around */              
;----------------------------------------------------------------------
        LDR       A1, [SP, #0]          ; [DPU_3_PIPE] |1024| 
        LDR       A2, [SP, #12]         ; [DPU_3_PIPE] |1024| 
        LDR       A1, [A1, #24]         ; [DPU_3_PIPE] |1024| 
        CMP       A1, A2                ; [DPU_3_PIPE] |1024| 
        BHI       ||$C$L56||            ; [DPU_3_PIPE] |1024| 
        ; BRANCHCC OCCURS {||$C$L56||}   ; [] |1024| 
;* --------------------------------------------------------------------------*
	.dwpsn	file "E:/Dev/Ti/TivaWare/third_party/fatfs/src/ff.c",line 1025,column 4,is_stmt,isa 1
;----------------------------------------------------------------------
; 1025 | ncl = 2;                                                               
;----------------------------------------------------------------------
        MOVS      A1, #2                ; [DPU_3_PIPE] |1025| 
        STR       A1, [SP, #12]         ; [DPU_3_PIPE] |1025| 
	.dwpsn	file "E:/Dev/Ti/TivaWare/third_party/fatfs/src/ff.c",line 1026,column 4,is_stmt,isa 1
;----------------------------------------------------------------------
; 1026 | if (ncl > scl) return 0;        /* No free cluster */                  
;----------------------------------------------------------------------
        LDR       A1, [SP, #16]         ; [DPU_3_PIPE] |1026| 
        LDR       A2, [SP, #12]         ; [DPU_3_PIPE] |1026| 
        CMP       A1, A2                ; [DPU_3_PIPE] |1026| 
        BCS       ||$C$L56||            ; [DPU_3_PIPE] |1026| 
        ; BRANCHCC OCCURS {||$C$L56||}   ; [] |1026| 
;* --------------------------------------------------------------------------*
	.dwpsn	file "E:/Dev/Ti/TivaWare/third_party/fatfs/src/ff.c",line 1026,column 19,is_stmt,isa 1
        MOVS      A1, #0                ; [DPU_3_PIPE] |1026| 
        B         ||$C$L65||            ; [DPU_3_PIPE] |1026| 
        ; BRANCH OCCURS {||$C$L65||}     ; [] |1026| 
;* --------------------------------------------------------------------------*
||$C$L56||:    
	.dwpsn	file "E:/Dev/Ti/TivaWare/third_party/fatfs/src/ff.c",line 1028,column 3,is_stmt,isa 1
;----------------------------------------------------------------------
; 1028 | cs = get_fat(fs, ncl);                  /* Get the cluster status */   
;----------------------------------------------------------------------
        LDR       A1, [SP, #0]          ; [DPU_3_PIPE] |1028| 
        LDR       A2, [SP, #12]         ; [DPU_3_PIPE] |1028| 
$C$DW$137	.dwtag  DW_TAG_TI_branch
	.dwattr $C$DW$137, DW_AT_low_pc(0x00)
	.dwattr $C$DW$137, DW_AT_name("get_fat")
	.dwattr $C$DW$137, DW_AT_TI_call
        BL        get_fat               ; [DPU_3_PIPE] |1028| 
        ; CALL OCCURS {get_fat }         ; [] |1028| 
        STR       A1, [SP, #8]          ; [DPU_3_PIPE] |1028| 
	.dwpsn	file "E:/Dev/Ti/TivaWare/third_party/fatfs/src/ff.c",line 1029,column 3,is_stmt,isa 1
;----------------------------------------------------------------------
; 1029 | if (cs == 0) break;                             /* Found a free cluster
;     |  */                                                                    
;----------------------------------------------------------------------
        LDR       A1, [SP, #8]          ; [DPU_3_PIPE] |1029| 
        CBZ       A1, ||$C$L59||        ; [] 
        ; BRANCHCC OCCURS {||$C$L59||}   ; [] |1029| 
;* --------------------------------------------------------------------------*
	.dwpsn	file "E:/Dev/Ti/TivaWare/third_party/fatfs/src/ff.c",line 1029,column 16,is_stmt,isa 1
	.dwpsn	file "E:/Dev/Ti/TivaWare/third_party/fatfs/src/ff.c",line 1030,column 3,is_stmt,isa 1
;----------------------------------------------------------------------
; 1030 | if (cs == 0xFFFFFFFF || cs == 1)/* An error occurred */                
;----------------------------------------------------------------------
        LDR       A1, [SP, #8]          ; [DPU_3_PIPE] |1030| 
        CMP       A1, #-1               ; [DPU_3_PIPE] |1030| 
        BEQ       ||$C$L57||            ; [DPU_3_PIPE] |1030| 
        ; BRANCHCC OCCURS {||$C$L57||}   ; [] |1030| 
;* --------------------------------------------------------------------------*
        LDR       A1, [SP, #8]          ; [DPU_3_PIPE] |1030| 
        CMP       A1, #1                ; [DPU_3_PIPE] |1030| 
        BNE       ||$C$L58||            ; [DPU_3_PIPE] |1030| 
        ; BRANCHCC OCCURS {||$C$L58||}   ; [] |1030| 
;* --------------------------------------------------------------------------*
||$C$L57||:    
	.dwpsn	file "E:/Dev/Ti/TivaWare/third_party/fatfs/src/ff.c",line 1031,column 4,is_stmt,isa 1
;----------------------------------------------------------------------
; 1031 | return cs;                                                             
;----------------------------------------------------------------------
        LDR       A1, [SP, #8]          ; [DPU_3_PIPE] |1031| 
        B         ||$C$L65||            ; [DPU_3_PIPE] |1031| 
        ; BRANCH OCCURS {||$C$L65||}     ; [] |1031| 
;* --------------------------------------------------------------------------*
||$C$L58||:    
	.dwpsn	file "E:/Dev/Ti/TivaWare/third_party/fatfs/src/ff.c",line 1032,column 3,is_stmt,isa 1
;----------------------------------------------------------------------
; 1032 | if (ncl == scl) return 0;               /* No free cluster */          
;----------------------------------------------------------------------
        LDR       A1, [SP, #16]         ; [DPU_3_PIPE] |1032| 
        LDR       A2, [SP, #12]         ; [DPU_3_PIPE] |1032| 
        CMP       A1, A2                ; [DPU_3_PIPE] |1032| 
        BNE       ||$C$L55||            ; [DPU_3_PIPE] |1032| 
        ; BRANCHCC OCCURS {||$C$L55||}   ; [] |1032| 
;* --------------------------------------------------------------------------*
	.dwpsn	file "E:/Dev/Ti/TivaWare/third_party/fatfs/src/ff.c",line 1032,column 19,is_stmt,isa 1
        MOVS      A1, #0                ; [DPU_3_PIPE] |1032| 
        B         ||$C$L65||            ; [DPU_3_PIPE] |1032| 
        ; BRANCH OCCURS {||$C$L65||}     ; [] |1032| 
;* --------------------------------------------------------------------------*
;* --------------------------------------------------------------------------*
||$C$L59||:    
	.dwpsn	file "E:/Dev/Ti/TivaWare/third_party/fatfs/src/ff.c",line 1035,column 2,is_stmt,isa 1
;----------------------------------------------------------------------
; 1035 | res = put_fat(fs, ncl, 0x0FFFFFFF);     /* Mark the new cluster "last l
;     | ink" */                                                                
;----------------------------------------------------------------------
        LDR       A1, [SP, #0]          ; [DPU_3_PIPE] |1035| 
        LDR       A2, [SP, #12]         ; [DPU_3_PIPE] |1035| 
        MVN       A3, #-268435456       ; [DPU_3_PIPE] |1035| 
$C$DW$138	.dwtag  DW_TAG_TI_branch
	.dwattr $C$DW$138, DW_AT_low_pc(0x00)
	.dwattr $C$DW$138, DW_AT_name("put_fat")
	.dwattr $C$DW$138, DW_AT_TI_call
        BL        put_fat               ; [DPU_3_PIPE] |1035| 
        ; CALL OCCURS {put_fat }         ; [] |1035| 
        STRB      A1, [SP, #20]         ; [DPU_3_PIPE] |1035| 
	.dwpsn	file "E:/Dev/Ti/TivaWare/third_party/fatfs/src/ff.c",line 1036,column 2,is_stmt,isa 1
;----------------------------------------------------------------------
; 1036 | if (res == FR_OK && clst != 0) {                                       
;----------------------------------------------------------------------
        LDRB      A1, [SP, #20]         ; [DPU_3_PIPE] |1036| 
        CBNZ      A1, ||$C$L60||        ; [] 
        ; BRANCHCC OCCURS {||$C$L60||}   ; [] |1036| 
;* --------------------------------------------------------------------------*
        LDR       A1, [SP, #4]          ; [DPU_3_PIPE] |1036| 
        CBZ       A1, ||$C$L60||        ; [] 
        ; BRANCHCC OCCURS {||$C$L60||}   ; [] |1036| 
;* --------------------------------------------------------------------------*
	.dwpsn	file "E:/Dev/Ti/TivaWare/third_party/fatfs/src/ff.c",line 1037,column 3,is_stmt,isa 1
;----------------------------------------------------------------------
; 1037 | res = put_fat(fs, clst, ncl);   /* Link it to the previous one if neede
;     | d */                                                                   
;----------------------------------------------------------------------
        LDR       A1, [SP, #0]          ; [DPU_3_PIPE] |1037| 
        LDR       A2, [SP, #4]          ; [DPU_3_PIPE] |1037| 
        LDR       A3, [SP, #12]         ; [DPU_3_PIPE] |1037| 
$C$DW$139	.dwtag  DW_TAG_TI_branch
	.dwattr $C$DW$139, DW_AT_low_pc(0x00)
	.dwattr $C$DW$139, DW_AT_name("put_fat")
	.dwattr $C$DW$139, DW_AT_TI_call
        BL        put_fat               ; [DPU_3_PIPE] |1037| 
        ; CALL OCCURS {put_fat }         ; [] |1037| 
        STRB      A1, [SP, #20]         ; [DPU_3_PIPE] |1037| 
;* --------------------------------------------------------------------------*
||$C$L60||:    
	.dwpsn	file "E:/Dev/Ti/TivaWare/third_party/fatfs/src/ff.c",line 1039,column 2,is_stmt,isa 1
;----------------------------------------------------------------------
; 1039 | if (res == FR_OK) {                                                    
;----------------------------------------------------------------------
        LDRB      A1, [SP, #20]         ; [DPU_3_PIPE] |1039| 
        CBNZ      A1, ||$C$L61||        ; [] 
        ; BRANCHCC OCCURS {||$C$L61||}   ; [] |1039| 
;* --------------------------------------------------------------------------*
	.dwpsn	file "E:/Dev/Ti/TivaWare/third_party/fatfs/src/ff.c",line 1040,column 3,is_stmt,isa 1
;----------------------------------------------------------------------
; 1040 | fs->last_clust = ncl;                   /* Update FSINFO */            
;----------------------------------------------------------------------
        LDR       A1, [SP, #12]         ; [DPU_3_PIPE] |1040| 
        LDR       A2, [SP, #0]          ; [DPU_3_PIPE] |1040| 
        STR       A1, [A2, #12]         ; [DPU_3_PIPE] |1040| 
	.dwpsn	file "E:/Dev/Ti/TivaWare/third_party/fatfs/src/ff.c",line 1041,column 3,is_stmt,isa 1
;----------------------------------------------------------------------
; 1041 | if (fs->free_clust != 0xFFFFFFFF) {                                    
;----------------------------------------------------------------------
        LDR       A1, [SP, #0]          ; [DPU_3_PIPE] |1041| 
        LDR       A1, [A1, #16]         ; [DPU_3_PIPE] |1041| 
        CMP       A1, #-1               ; [DPU_3_PIPE] |1041| 
        BEQ       ||$C$L64||            ; [DPU_3_PIPE] |1041| 
        ; BRANCHCC OCCURS {||$C$L64||}   ; [] |1041| 
;* --------------------------------------------------------------------------*
	.dwpsn	file "E:/Dev/Ti/TivaWare/third_party/fatfs/src/ff.c",line 1042,column 4,is_stmt,isa 1
;----------------------------------------------------------------------
; 1042 | fs->free_clust--;                                                      
;----------------------------------------------------------------------
        LDR       A2, [SP, #0]          ; [DPU_3_PIPE] |1042| 
        LDR       A1, [A2, #16]         ; [DPU_3_PIPE] |1042| 
        SUBS      A1, A1, #1            ; [DPU_3_PIPE] |1042| 
        STR       A1, [A2, #16]         ; [DPU_3_PIPE] |1042| 
	.dwpsn	file "E:/Dev/Ti/TivaWare/third_party/fatfs/src/ff.c",line 1043,column 4,is_stmt,isa 1
;----------------------------------------------------------------------
; 1043 | fs->fsi_flag = 1;                                                      
;----------------------------------------------------------------------
        LDR       A1, [SP, #0]          ; [DPU_3_PIPE] |1043| 
        MOVS      A2, #1                ; [DPU_3_PIPE] |1043| 
        STRB      A2, [A1, #5]          ; [DPU_3_PIPE] |1043| 
	.dwpsn	file "E:/Dev/Ti/TivaWare/third_party/fatfs/src/ff.c",line 1045,column 2,is_stmt,isa 1
;----------------------------------------------------------------------
; 1045 | } else {                                                               
;----------------------------------------------------------------------
        B         ||$C$L64||            ; [DPU_3_PIPE] |1045| 
        ; BRANCH OCCURS {||$C$L64||}     ; [] |1045| 
;* --------------------------------------------------------------------------*
||$C$L61||:    
	.dwpsn	file "E:/Dev/Ti/TivaWare/third_party/fatfs/src/ff.c",line 1046,column 3,is_stmt,isa 1
;----------------------------------------------------------------------
; 1046 | ncl = (res == FR_DISK_ERR) ? 0xFFFFFFFF : 1;                           
;----------------------------------------------------------------------
        LDRB      A1, [SP, #20]         ; [DPU_3_PIPE] |1046| 
        CMP       A1, #1                ; [DPU_3_PIPE] |1046| 
        BNE       ||$C$L62||            ; [DPU_3_PIPE] |1046| 
        ; BRANCHCC OCCURS {||$C$L62||}   ; [] |1046| 
;* --------------------------------------------------------------------------*
        MOV       A1, #-1               ; [DPU_3_PIPE] |1046| 
        B         ||$C$L63||            ; [DPU_3_PIPE] |1046| 
        ; BRANCH OCCURS {||$C$L63||}     ; [] |1046| 
;* --------------------------------------------------------------------------*
||$C$L62||:    
        MOVS      A1, #1                ; [DPU_3_PIPE] |1046| 
;* --------------------------------------------------------------------------*
||$C$L63||:    
        STR       A1, [SP, #12]         ; [DPU_3_PIPE] |1046| 
;* --------------------------------------------------------------------------*
||$C$L64||:    
	.dwpsn	file "E:/Dev/Ti/TivaWare/third_party/fatfs/src/ff.c",line 1049,column 2,is_stmt,isa 1
;----------------------------------------------------------------------
; 1049 | return ncl;             /* Return new cluster number or error code */  
;----------------------------------------------------------------------
        LDR       A1, [SP, #12]         ; [DPU_3_PIPE] |1049| 
;* --------------------------------------------------------------------------*
||$C$L65||:    
	.dwpsn	file "E:/Dev/Ti/TivaWare/third_party/fatfs/src/ff.c",line 1050,column 1,is_stmt,isa 1
        ADD       SP, SP, #28           ; [DPU_3_PIPE] 
	.dwcfi	cfa_offset, 4
$C$DW$140	.dwtag  DW_TAG_TI_branch
	.dwattr $C$DW$140, DW_AT_low_pc(0x00)
	.dwattr $C$DW$140, DW_AT_TI_return
        POP       {PC}                  ; [DPU_3_PIPE] 
	.dwcfi	cfa_offset, 0
        ; BRANCH OCCURS                  ; [] 
	.dwattr $C$DW$127, DW_AT_TI_end_file("E:/Dev/Ti/TivaWare/third_party/fatfs/src/ff.c")
	.dwattr $C$DW$127, DW_AT_TI_end_line(0x41a)
	.dwattr $C$DW$127, DW_AT_TI_end_column(0x01)
	.dwendentry
	.dwendtag $C$DW$127

	.sect	".text:dir_sdi"
	.clink
	.thumbfunc dir_sdi
	.thumb

$C$DW$141	.dwtag  DW_TAG_subprogram, DW_AT_name("dir_sdi")
	.dwattr $C$DW$141, DW_AT_low_pc(dir_sdi)
	.dwattr $C$DW$141, DW_AT_high_pc(0x00)
	.dwattr $C$DW$141, DW_AT_TI_symbol_name("dir_sdi")
	.dwattr $C$DW$141, DW_AT_type(*$C$DW$T$44)
	.dwattr $C$DW$141, DW_AT_TI_begin_file("E:/Dev/Ti/TivaWare/third_party/fatfs/src/ff.c")
	.dwattr $C$DW$141, DW_AT_TI_begin_line(0x440)
	.dwattr $C$DW$141, DW_AT_TI_begin_column(0x09)
	.dwattr $C$DW$141, DW_AT_decl_file("E:/Dev/Ti/TivaWare/third_party/fatfs/src/ff.c")
	.dwattr $C$DW$141, DW_AT_decl_line(0x440)
	.dwattr $C$DW$141, DW_AT_decl_column(0x09)
	.dwattr $C$DW$141, DW_AT_TI_max_frame_size(0x18)
	.dwpsn	file "E:/Dev/Ti/TivaWare/third_party/fatfs/src/ff.c",line 1092,column 1,is_stmt,address dir_sdi,isa 1

	.dwfde $C$DW$CIE, dir_sdi
$C$DW$142	.dwtag  DW_TAG_formal_parameter, DW_AT_name("dj")
	.dwattr $C$DW$142, DW_AT_TI_symbol_name("dj")
	.dwattr $C$DW$142, DW_AT_type(*$C$DW$T$52)
	.dwattr $C$DW$142, DW_AT_location[DW_OP_reg0]
$C$DW$143	.dwtag  DW_TAG_formal_parameter, DW_AT_name("idx")
	.dwattr $C$DW$143, DW_AT_TI_symbol_name("idx")
	.dwattr $C$DW$143, DW_AT_type(*$C$DW$T$20)
	.dwattr $C$DW$143, DW_AT_location[DW_OP_reg1]
;----------------------------------------------------------------------
; 1088 | FRESULT dir_sdi (                                                      
; 1089 | DIR *dj,                /* Pointer to directory object */              
; 1090 | WORD idx                /* Index of directory table */                 
; 1091 | )                                                                      
;----------------------------------------------------------------------

;*****************************************************************************
;* FUNCTION NAME: dir_sdi                                                    *
;*                                                                           *
;*   Regs Modified     : A1,A2,A3,A4,V9,SP,LR,SR,D0,D0_hi,D1,D1_hi,D2,D2_hi, *
;*                           D3,D3_hi,D4,D4_hi,D5,D5_hi,D6,D6_hi,D7,D7_hi,   *
;*                           FPEXC,FPSCR                                     *
;*   Regs Used         : A1,A2,A3,A4,V9,SP,LR,SR,D0,D0_hi,D1,D1_hi,D2,D2_hi, *
;*                           D3,D3_hi,D4,D4_hi,D5,D5_hi,D6,D6_hi,D7,D7_hi,   *
;*                           FPEXC,FPSCR                                     *
;*   Local Frame Size  : 0 Args + 16 Auto + 4 Save = 20 byte                 *
;*****************************************************************************
dir_sdi:
;* --------------------------------------------------------------------------*
	.dwcfi	cfa_offset, 0
        PUSH      {LR}                  ; [DPU_3_PIPE] 
	.dwcfi	cfa_offset, 4
	.dwcfi	save_reg_to_mem, 14, -4
        SUB       SP, SP, #20           ; [DPU_3_PIPE] 
	.dwcfi	cfa_offset, 24
$C$DW$144	.dwtag  DW_TAG_variable, DW_AT_name("dj")
	.dwattr $C$DW$144, DW_AT_TI_symbol_name("dj")
	.dwattr $C$DW$144, DW_AT_type(*$C$DW$T$52)
	.dwattr $C$DW$144, DW_AT_location[DW_OP_breg13 0]
$C$DW$145	.dwtag  DW_TAG_variable, DW_AT_name("idx")
	.dwattr $C$DW$145, DW_AT_TI_symbol_name("idx")
	.dwattr $C$DW$145, DW_AT_type(*$C$DW$T$20)
	.dwattr $C$DW$145, DW_AT_location[DW_OP_breg13 4]
$C$DW$146	.dwtag  DW_TAG_variable, DW_AT_name("clst")
	.dwattr $C$DW$146, DW_AT_TI_symbol_name("clst")
	.dwattr $C$DW$146, DW_AT_type(*$C$DW$T$21)
	.dwattr $C$DW$146, DW_AT_location[DW_OP_breg13 8]
$C$DW$147	.dwtag  DW_TAG_variable, DW_AT_name("ic")
	.dwattr $C$DW$147, DW_AT_TI_symbol_name("ic")
	.dwattr $C$DW$147, DW_AT_type(*$C$DW$T$20)
	.dwattr $C$DW$147, DW_AT_location[DW_OP_breg13 12]
;----------------------------------------------------------------------
; 1093 | DWORD clst;                                                            
; 1094 | WORD ic;                                                               
;----------------------------------------------------------------------
        STRH      A2, [SP, #4]          ; [DPU_3_PIPE] |1092| 
        STR       A1, [SP, #0]          ; [DPU_3_PIPE] |1092| 
	.dwpsn	file "E:/Dev/Ti/TivaWare/third_party/fatfs/src/ff.c",line 1097,column 2,is_stmt,isa 1
;----------------------------------------------------------------------
; 1097 | dj->index = idx;                                                       
;----------------------------------------------------------------------
        LDRH      A1, [SP, #4]          ; [DPU_3_PIPE] |1097| 
        LDR       A2, [SP, #0]          ; [DPU_3_PIPE] |1097| 
        STRH      A1, [A2, #6]          ; [DPU_3_PIPE] |1097| 
	.dwpsn	file "E:/Dev/Ti/TivaWare/third_party/fatfs/src/ff.c",line 1098,column 2,is_stmt,isa 1
;----------------------------------------------------------------------
; 1098 | clst = dj->sclust;                                                     
;----------------------------------------------------------------------
        LDR       A1, [SP, #0]          ; [DPU_3_PIPE] |1098| 
        LDR       A1, [A1, #8]          ; [DPU_3_PIPE] |1098| 
        STR       A1, [SP, #8]          ; [DPU_3_PIPE] |1098| 
	.dwpsn	file "E:/Dev/Ti/TivaWare/third_party/fatfs/src/ff.c",line 1099,column 2,is_stmt,isa 1
;----------------------------------------------------------------------
; 1099 | if (clst == 1 || clst >= dj->fs->n_fatent)      /* Check start cluster
;     | range */                                                               
;----------------------------------------------------------------------
        LDR       A1, [SP, #8]          ; [DPU_3_PIPE] |1099| 
        CMP       A1, #1                ; [DPU_3_PIPE] |1099| 
        BEQ       ||$C$L66||            ; [DPU_3_PIPE] |1099| 
        ; BRANCHCC OCCURS {||$C$L66||}   ; [] |1099| 
;* --------------------------------------------------------------------------*
        LDR       A1, [SP, #0]          ; [DPU_3_PIPE] |1099| 
        LDR       A1, [A1, #0]          ; [DPU_3_PIPE] |1099| 
        LDR       A2, [SP, #8]          ; [DPU_3_PIPE] |1099| 
        LDR       A1, [A1, #24]         ; [DPU_3_PIPE] |1099| 
        CMP       A1, A2                ; [DPU_3_PIPE] |1099| 
        BHI       ||$C$L67||            ; [DPU_3_PIPE] |1099| 
        ; BRANCHCC OCCURS {||$C$L67||}   ; [] |1099| 
;* --------------------------------------------------------------------------*
||$C$L66||:    
	.dwpsn	file "E:/Dev/Ti/TivaWare/third_party/fatfs/src/ff.c",line 1100,column 3,is_stmt,isa 1
;----------------------------------------------------------------------
; 1100 | return FR_INT_ERR;                                                     
;----------------------------------------------------------------------
        MOVS      A1, #2                ; [DPU_3_PIPE] |1100| 
        B         ||$C$L77||            ; [DPU_3_PIPE] |1100| 
        ; BRANCH OCCURS {||$C$L77||}     ; [] |1100| 
;* --------------------------------------------------------------------------*
||$C$L67||:    
	.dwpsn	file "E:/Dev/Ti/TivaWare/third_party/fatfs/src/ff.c",line 1101,column 2,is_stmt,isa 1
;----------------------------------------------------------------------
; 1101 | if (!clst && dj->fs->fs_type == FS_FAT32)       /* Replace cluster# 0 w
;     | ith root cluster# if in FAT32 */                                       
;----------------------------------------------------------------------
        LDR       A1, [SP, #8]          ; [DPU_3_PIPE] |1101| 
        CBNZ      A1, ||$C$L68||        ; [] 
        ; BRANCHCC OCCURS {||$C$L68||}   ; [] |1101| 
;* --------------------------------------------------------------------------*
        LDR       A1, [SP, #0]          ; [DPU_3_PIPE] |1101| 
        LDR       A1, [A1, #0]          ; [DPU_3_PIPE] |1101| 
        LDRB      A1, [A1, #0]          ; [DPU_3_PIPE] |1101| 
        CMP       A1, #3                ; [DPU_3_PIPE] |1101| 
        BNE       ||$C$L68||            ; [DPU_3_PIPE] |1101| 
        ; BRANCHCC OCCURS {||$C$L68||}   ; [] |1101| 
;* --------------------------------------------------------------------------*
	.dwpsn	file "E:/Dev/Ti/TivaWare/third_party/fatfs/src/ff.c",line 1102,column 3,is_stmt,isa 1
;----------------------------------------------------------------------
; 1102 | clst = dj->fs->dirbase;                                                
;----------------------------------------------------------------------
        LDR       A1, [SP, #0]          ; [DPU_3_PIPE] |1102| 
        LDR       A1, [A1, #0]          ; [DPU_3_PIPE] |1102| 
        LDR       A1, [A1, #40]         ; [DPU_3_PIPE] |1102| 
        STR       A1, [SP, #8]          ; [DPU_3_PIPE] |1102| 
;* --------------------------------------------------------------------------*
||$C$L68||:    
	.dwpsn	file "E:/Dev/Ti/TivaWare/third_party/fatfs/src/ff.c",line 1104,column 2,is_stmt,isa 1
;----------------------------------------------------------------------
; 1104 | if (clst == 0) {        /* Static table (root-dir in FAT12/16) */      
;----------------------------------------------------------------------
        LDR       A1, [SP, #8]          ; [DPU_3_PIPE] |1104| 
        CBNZ      A1, ||$C$L70||        ; [] 
        ; BRANCHCC OCCURS {||$C$L70||}   ; [] |1104| 
;* --------------------------------------------------------------------------*
	.dwpsn	file "E:/Dev/Ti/TivaWare/third_party/fatfs/src/ff.c",line 1105,column 3,is_stmt,isa 1
;----------------------------------------------------------------------
; 1105 | dj->clust = clst;                                                      
;----------------------------------------------------------------------
        LDR       A1, [SP, #8]          ; [DPU_3_PIPE] |1105| 
        LDR       A2, [SP, #0]          ; [DPU_3_PIPE] |1105| 
        STR       A1, [A2, #12]         ; [DPU_3_PIPE] |1105| 
	.dwpsn	file "E:/Dev/Ti/TivaWare/third_party/fatfs/src/ff.c",line 1106,column 3,is_stmt,isa 1
;----------------------------------------------------------------------
; 1106 | if (idx >= dj->fs->n_rootdir)           /* Index is out of range */    
;----------------------------------------------------------------------
        LDR       A1, [SP, #0]          ; [DPU_3_PIPE] |1106| 
        LDR       A1, [A1, #0]          ; [DPU_3_PIPE] |1106| 
        LDRH      A2, [SP, #4]          ; [DPU_3_PIPE] |1106| 
        LDRH      A1, [A1, #8]          ; [DPU_3_PIPE] |1106| 
        CMP       A1, A2                ; [DPU_3_PIPE] |1106| 
        BGT       ||$C$L69||            ; [DPU_3_PIPE] |1106| 
        ; BRANCHCC OCCURS {||$C$L69||}   ; [] |1106| 
;* --------------------------------------------------------------------------*
	.dwpsn	file "E:/Dev/Ti/TivaWare/third_party/fatfs/src/ff.c",line 1107,column 4,is_stmt,isa 1
;----------------------------------------------------------------------
; 1107 | return FR_INT_ERR;                                                     
;----------------------------------------------------------------------
        MOVS      A1, #2                ; [DPU_3_PIPE] |1107| 
        B         ||$C$L77||            ; [DPU_3_PIPE] |1107| 
        ; BRANCH OCCURS {||$C$L77||}     ; [] |1107| 
;* --------------------------------------------------------------------------*
||$C$L69||:    
	.dwpsn	file "E:/Dev/Ti/TivaWare/third_party/fatfs/src/ff.c",line 1108,column 3,is_stmt,isa 1
;----------------------------------------------------------------------
; 1108 | dj->sect = dj->fs->dirbase + idx / (SS(dj->fs) / SZ_DIR);       /* Sect
;     | or# */                                                                 
;----------------------------------------------------------------------
        LDR       A1, [SP, #0]          ; [DPU_3_PIPE] |1108| 
        LDRH      A3, [SP, #4]          ; [DPU_3_PIPE] |1108| 
        LDR       A1, [A1, #0]          ; [DPU_3_PIPE] |1108| 
        LDR       A2, [SP, #0]          ; [DPU_3_PIPE] |1108| 
        LDR       A1, [A1, #40]         ; [DPU_3_PIPE] |1108| 
        ADD       A1, A1, A3, LSR #4    ; [DPU_3_PIPE] |1108| 
        STR       A1, [A2, #16]         ; [DPU_3_PIPE] |1108| 
	.dwpsn	file "E:/Dev/Ti/TivaWare/third_party/fatfs/src/ff.c",line 1109,column 2,is_stmt,isa 1
;----------------------------------------------------------------------
; 1110 | else {                          /* Dynamic table (sub-dirs or root-dir
;     | in FAT32) */                                                           
;----------------------------------------------------------------------
        B         ||$C$L76||            ; [DPU_3_PIPE] |1109| 
        ; BRANCH OCCURS {||$C$L76||}     ; [] |1109| 
;* --------------------------------------------------------------------------*
||$C$L70||:    
	.dwpsn	file "E:/Dev/Ti/TivaWare/third_party/fatfs/src/ff.c",line 1111,column 3,is_stmt,isa 1
;----------------------------------------------------------------------
; 1111 | ic = SS(dj->fs) / SZ_DIR * dj->fs->csize;       /* Entries per cluster
;     | */                                                                     
;----------------------------------------------------------------------
        LDR       A1, [SP, #0]          ; [DPU_3_PIPE] |1111| 
        LDR       A1, [A1, #0]          ; [DPU_3_PIPE] |1111| 
        LDRB      A1, [A1, #2]          ; [DPU_3_PIPE] |1111| 
        LSLS      A1, A1, #4            ; [DPU_3_PIPE] |1111| 
        STRH      A1, [SP, #12]         ; [DPU_3_PIPE] |1111| 
	.dwpsn	file "E:/Dev/Ti/TivaWare/third_party/fatfs/src/ff.c",line 1112,column 3,is_stmt,isa 1
;----------------------------------------------------------------------
; 1112 | while (idx >= ic) {     /* Follow cluster chain */                     
;----------------------------------------------------------------------
        B         ||$C$L75||            ; [DPU_3_PIPE] |1112| 
        ; BRANCH OCCURS {||$C$L75||}     ; [] |1112| 
;* --------------------------------------------------------------------------*
||$C$L71||:    
	.dwpsn	file "E:/Dev/Ti/TivaWare/third_party/fatfs/src/ff.c",line 1113,column 4,is_stmt,isa 1
;----------------------------------------------------------------------
; 1113 | clst = get_fat(dj->fs, clst);                           /* Get next clu
;     | ster */                                                                
;----------------------------------------------------------------------
        LDR       A1, [SP, #0]          ; [DPU_3_PIPE] |1113| 
        LDR       A2, [SP, #8]          ; [DPU_3_PIPE] |1113| 
        LDR       A1, [A1, #0]          ; [DPU_3_PIPE] |1113| 
$C$DW$148	.dwtag  DW_TAG_TI_branch
	.dwattr $C$DW$148, DW_AT_low_pc(0x00)
	.dwattr $C$DW$148, DW_AT_name("get_fat")
	.dwattr $C$DW$148, DW_AT_TI_call
        BL        get_fat               ; [DPU_3_PIPE] |1113| 
        ; CALL OCCURS {get_fat }         ; [] |1113| 
        STR       A1, [SP, #8]          ; [DPU_3_PIPE] |1113| 
	.dwpsn	file "E:/Dev/Ti/TivaWare/third_party/fatfs/src/ff.c",line 1114,column 4,is_stmt,isa 1
;----------------------------------------------------------------------
; 1114 | if (clst == 0xFFFFFFFF) return FR_DISK_ERR;     /* Disk error */       
;----------------------------------------------------------------------
        LDR       A1, [SP, #8]          ; [DPU_3_PIPE] |1114| 
        CMP       A1, #-1               ; [DPU_3_PIPE] |1114| 
        BNE       ||$C$L72||            ; [DPU_3_PIPE] |1114| 
        ; BRANCHCC OCCURS {||$C$L72||}   ; [] |1114| 
;* --------------------------------------------------------------------------*
	.dwpsn	file "E:/Dev/Ti/TivaWare/third_party/fatfs/src/ff.c",line 1114,column 28,is_stmt,isa 1
        MOVS      A1, #1                ; [DPU_3_PIPE] |1114| 
        B         ||$C$L77||            ; [DPU_3_PIPE] |1114| 
        ; BRANCH OCCURS {||$C$L77||}     ; [] |1114| 
;* --------------------------------------------------------------------------*
||$C$L72||:    
	.dwpsn	file "E:/Dev/Ti/TivaWare/third_party/fatfs/src/ff.c",line 1115,column 4,is_stmt,isa 1
;----------------------------------------------------------------------
; 1115 | if (clst < 2 || clst >= dj->fs->n_fatent)       /* Reached to end of ta
;     | ble or int error */                                                    
;----------------------------------------------------------------------
        LDR       A1, [SP, #8]          ; [DPU_3_PIPE] |1115| 
        CMP       A1, #2                ; [DPU_3_PIPE] |1115| 
        BCC       ||$C$L73||            ; [DPU_3_PIPE] |1115| 
        ; BRANCHCC OCCURS {||$C$L73||}   ; [] |1115| 
;* --------------------------------------------------------------------------*
        LDR       A1, [SP, #0]          ; [DPU_3_PIPE] |1115| 
        LDR       A1, [A1, #0]          ; [DPU_3_PIPE] |1115| 
        LDR       A2, [SP, #8]          ; [DPU_3_PIPE] |1115| 
        LDR       A1, [A1, #24]         ; [DPU_3_PIPE] |1115| 
        CMP       A1, A2                ; [DPU_3_PIPE] |1115| 
        BHI       ||$C$L74||            ; [DPU_3_PIPE] |1115| 
        ; BRANCHCC OCCURS {||$C$L74||}   ; [] |1115| 
;* --------------------------------------------------------------------------*
||$C$L73||:    
	.dwpsn	file "E:/Dev/Ti/TivaWare/third_party/fatfs/src/ff.c",line 1116,column 5,is_stmt,isa 1
;----------------------------------------------------------------------
; 1116 | return FR_INT_ERR;                                                     
;----------------------------------------------------------------------
        MOVS      A1, #2                ; [DPU_3_PIPE] |1116| 
        B         ||$C$L77||            ; [DPU_3_PIPE] |1116| 
        ; BRANCH OCCURS {||$C$L77||}     ; [] |1116| 
;* --------------------------------------------------------------------------*
||$C$L74||:    
	.dwpsn	file "E:/Dev/Ti/TivaWare/third_party/fatfs/src/ff.c",line 1117,column 4,is_stmt,isa 1
;----------------------------------------------------------------------
; 1117 | idx -= ic;                                                             
;----------------------------------------------------------------------
        LDRH      A2, [SP, #12]         ; [DPU_3_PIPE] |1117| 
        LDRH      A1, [SP, #4]          ; [DPU_3_PIPE] |1117| 
        SUBS      A1, A1, A2            ; [DPU_3_PIPE] |1117| 
        STRH      A1, [SP, #4]          ; [DPU_3_PIPE] |1117| 
;* --------------------------------------------------------------------------*
;*   BEGIN LOOP ||$C$L75||
;* --------------------------------------------------------------------------*
||$C$L75||:    
	.dwpsn	file "E:/Dev/Ti/TivaWare/third_party/fatfs/src/ff.c",line 1112,column 10,is_stmt,isa 1
        LDRH      A1, [SP, #12]         ; [DPU_3_PIPE] |1112| 
        LDRH      A2, [SP, #4]          ; [DPU_3_PIPE] |1112| 
        CMP       A1, A2                ; [DPU_3_PIPE] |1112| 
        BLE       ||$C$L71||            ; [DPU_3_PIPE] |1112| 
        ; BRANCHCC OCCURS {||$C$L71||}   ; [] |1112| 
;* --------------------------------------------------------------------------*
	.dwpsn	file "E:/Dev/Ti/TivaWare/third_party/fatfs/src/ff.c",line 1119,column 3,is_stmt,isa 1
;----------------------------------------------------------------------
; 1119 | dj->clust = clst;                                                      
;----------------------------------------------------------------------
        LDR       A1, [SP, #8]          ; [DPU_3_PIPE] |1119| 
        LDR       A2, [SP, #0]          ; [DPU_3_PIPE] |1119| 
        STR       A1, [A2, #12]         ; [DPU_3_PIPE] |1119| 
	.dwpsn	file "E:/Dev/Ti/TivaWare/third_party/fatfs/src/ff.c",line 1120,column 3,is_stmt,isa 1
;----------------------------------------------------------------------
; 1120 | dj->sect = clust2sect(dj->fs, clst) + idx / (SS(dj->fs) / SZ_DIR);
;     |  /* Sector# */                                                         
;----------------------------------------------------------------------
        LDR       A1, [SP, #0]          ; [DPU_3_PIPE] |1120| 
        LDR       A2, [SP, #8]          ; [DPU_3_PIPE] |1120| 
        LDR       A1, [A1, #0]          ; [DPU_3_PIPE] |1120| 
$C$DW$149	.dwtag  DW_TAG_TI_branch
	.dwattr $C$DW$149, DW_AT_low_pc(0x00)
	.dwattr $C$DW$149, DW_AT_name("clust2sect")
	.dwattr $C$DW$149, DW_AT_TI_call
        BL        clust2sect            ; [DPU_3_PIPE] |1120| 
        ; CALL OCCURS {clust2sect }      ; [] |1120| 
        LDRH      A3, [SP, #4]          ; [DPU_3_PIPE] |1120| 
        LDR       A2, [SP, #0]          ; [DPU_3_PIPE] |1120| 
        ADD       A1, A1, A3, LSR #4    ; [DPU_3_PIPE] |1120| 
        STR       A1, [A2, #16]         ; [DPU_3_PIPE] |1120| 
;* --------------------------------------------------------------------------*
||$C$L76||:    
	.dwpsn	file "E:/Dev/Ti/TivaWare/third_party/fatfs/src/ff.c",line 1123,column 2,is_stmt,isa 1
;----------------------------------------------------------------------
; 1123 | dj->dir = dj->fs->win + (idx % (SS(dj->fs) / SZ_DIR)) * SZ_DIR; /* Ptr
;     | to the entry in the sector */                                          
;----------------------------------------------------------------------
        LDR       A1, [SP, #0]          ; [DPU_3_PIPE] |1123| 
        LDRH      A2, [SP, #4]          ; [DPU_3_PIPE] |1123| 
        LDR       A3, [SP, #0]          ; [DPU_3_PIPE] |1123| 
        LDR       A1, [A1, #0]          ; [DPU_3_PIPE] |1123| 
        AND       A2, A2, #15           ; [DPU_3_PIPE] |1123| 
        ADD       A1, A1, A2, LSL #5    ; [DPU_3_PIPE] |1123| 
        ADDS      A1, A1, #52           ; [DPU_3_PIPE] |1123| 
        STR       A1, [A3, #20]         ; [DPU_3_PIPE] |1123| 
	.dwpsn	file "E:/Dev/Ti/TivaWare/third_party/fatfs/src/ff.c",line 1125,column 2,is_stmt,isa 1
;----------------------------------------------------------------------
; 1125 | return FR_OK;   /* Seek succeeded */                                   
;----------------------------------------------------------------------
        MOVS      A1, #0                ; [DPU_3_PIPE] |1125| 
;* --------------------------------------------------------------------------*
||$C$L77||:    
	.dwpsn	file "E:/Dev/Ti/TivaWare/third_party/fatfs/src/ff.c",line 1126,column 1,is_stmt,isa 1
        ADD       SP, SP, #20           ; [DPU_3_PIPE] 
	.dwcfi	cfa_offset, 4
$C$DW$150	.dwtag  DW_TAG_TI_branch
	.dwattr $C$DW$150, DW_AT_low_pc(0x00)
	.dwattr $C$DW$150, DW_AT_TI_return
        POP       {PC}                  ; [DPU_3_PIPE] 
	.dwcfi	cfa_offset, 0
        ; BRANCH OCCURS                  ; [] 
	.dwattr $C$DW$141, DW_AT_TI_end_file("E:/Dev/Ti/TivaWare/third_party/fatfs/src/ff.c")
	.dwattr $C$DW$141, DW_AT_TI_end_line(0x466)
	.dwattr $C$DW$141, DW_AT_TI_end_column(0x01)
	.dwendentry
	.dwendtag $C$DW$141

	.sect	".text:dir_next"
	.clink
	.thumbfunc dir_next
	.thumb

$C$DW$151	.dwtag  DW_TAG_subprogram, DW_AT_name("dir_next")
	.dwattr $C$DW$151, DW_AT_low_pc(dir_next)
	.dwattr $C$DW$151, DW_AT_high_pc(0x00)
	.dwattr $C$DW$151, DW_AT_TI_symbol_name("dir_next")
	.dwattr $C$DW$151, DW_AT_type(*$C$DW$T$44)
	.dwattr $C$DW$151, DW_AT_TI_begin_file("E:/Dev/Ti/TivaWare/third_party/fatfs/src/ff.c")
	.dwattr $C$DW$151, DW_AT_TI_begin_line(0x470)
	.dwattr $C$DW$151, DW_AT_TI_begin_column(0x09)
	.dwattr $C$DW$151, DW_AT_decl_file("E:/Dev/Ti/TivaWare/third_party/fatfs/src/ff.c")
	.dwattr $C$DW$151, DW_AT_decl_line(0x470)
	.dwattr $C$DW$151, DW_AT_decl_column(0x09)
	.dwattr $C$DW$151, DW_AT_TI_max_frame_size(0x18)
	.dwpsn	file "E:/Dev/Ti/TivaWare/third_party/fatfs/src/ff.c",line 1140,column 1,is_stmt,address dir_next,isa 1

	.dwfde $C$DW$CIE, dir_next
$C$DW$152	.dwtag  DW_TAG_formal_parameter, DW_AT_name("dj")
	.dwattr $C$DW$152, DW_AT_TI_symbol_name("dj")
	.dwattr $C$DW$152, DW_AT_type(*$C$DW$T$52)
	.dwattr $C$DW$152, DW_AT_location[DW_OP_reg0]
$C$DW$153	.dwtag  DW_TAG_formal_parameter, DW_AT_name("stretch")
	.dwattr $C$DW$153, DW_AT_TI_symbol_name("stretch")
	.dwattr $C$DW$153, DW_AT_type(*$C$DW$T$10)
	.dwattr $C$DW$153, DW_AT_location[DW_OP_reg1]
;----------------------------------------------------------------------
; 1136 | FRESULT dir_next (      /* FR_OK:Succeeded, FR_NO_FILE:End of table, FR
;     | _DENIED:Could not stretch */                                           
; 1137 | DIR *dj,                /* Pointer to the directory object */          
; 1138 | int stretch             /* 0: Do not stretch table, 1: Stretch table if
;     |  needed */                                                             
; 1139 | )                                                                      
;----------------------------------------------------------------------

;*****************************************************************************
;* FUNCTION NAME: dir_next                                                   *
;*                                                                           *
;*   Regs Modified     : A1,A2,A3,A4,V9,SP,LR,SR,D0,D0_hi,D1,D1_hi,D2,D2_hi, *
;*                           D3,D3_hi,D4,D4_hi,D5,D5_hi,D6,D6_hi,D7,D7_hi,   *
;*                           FPEXC,FPSCR                                     *
;*   Regs Used         : A1,A2,A3,A4,V9,SP,LR,SR,D0,D0_hi,D1,D1_hi,D2,D2_hi, *
;*                           D3,D3_hi,D4,D4_hi,D5,D5_hi,D6,D6_hi,D7,D7_hi,   *
;*                           FPEXC,FPSCR                                     *
;*   Local Frame Size  : 0 Args + 20 Auto + 4 Save = 24 byte                 *
;*****************************************************************************
dir_next:
;* --------------------------------------------------------------------------*
	.dwcfi	cfa_offset, 0
        PUSH      {LR}                  ; [DPU_3_PIPE] 
	.dwcfi	cfa_offset, 4
	.dwcfi	save_reg_to_mem, 14, -4
        SUB       SP, SP, #20           ; [DPU_3_PIPE] 
	.dwcfi	cfa_offset, 24
$C$DW$154	.dwtag  DW_TAG_variable, DW_AT_name("dj")
	.dwattr $C$DW$154, DW_AT_TI_symbol_name("dj")
	.dwattr $C$DW$154, DW_AT_type(*$C$DW$T$52)
	.dwattr $C$DW$154, DW_AT_location[DW_OP_breg13 0]
$C$DW$155	.dwtag  DW_TAG_variable, DW_AT_name("stretch")
	.dwattr $C$DW$155, DW_AT_TI_symbol_name("stretch")
	.dwattr $C$DW$155, DW_AT_type(*$C$DW$T$10)
	.dwattr $C$DW$155, DW_AT_location[DW_OP_breg13 4]
$C$DW$156	.dwtag  DW_TAG_variable, DW_AT_name("clst")
	.dwattr $C$DW$156, DW_AT_TI_symbol_name("clst")
	.dwattr $C$DW$156, DW_AT_type(*$C$DW$T$21)
	.dwattr $C$DW$156, DW_AT_location[DW_OP_breg13 8]
$C$DW$157	.dwtag  DW_TAG_variable, DW_AT_name("i")
	.dwattr $C$DW$157, DW_AT_TI_symbol_name("i")
	.dwattr $C$DW$157, DW_AT_type(*$C$DW$T$20)
	.dwattr $C$DW$157, DW_AT_location[DW_OP_breg13 12]
;----------------------------------------------------------------------
; 1141 | DWORD clst;                                                            
; 1142 | WORD i;                                                                
;----------------------------------------------------------------------
        STR       A2, [SP, #4]          ; [DPU_3_PIPE] |1140| 
        STR       A1, [SP, #0]          ; [DPU_3_PIPE] |1140| 
	.dwpsn	file "E:/Dev/Ti/TivaWare/third_party/fatfs/src/ff.c",line 1145,column 2,is_stmt,isa 1
;----------------------------------------------------------------------
; 1145 | stretch = stretch;              /* To suppress warning on read-only cfg
;     | . */                                                                   
;----------------------------------------------------------------------
        LDR       A1, [SP, #4]          ; [DPU_3_PIPE] |1145| 
        STR       A1, [SP, #4]          ; [DPU_3_PIPE] |1145| 
	.dwpsn	file "E:/Dev/Ti/TivaWare/third_party/fatfs/src/ff.c",line 1146,column 2,is_stmt,isa 1
;----------------------------------------------------------------------
; 1146 | i = dj->index + 1;                                                     
;----------------------------------------------------------------------
        LDR       A1, [SP, #0]          ; [DPU_3_PIPE] |1146| 
        LDRH      A1, [A1, #6]          ; [DPU_3_PIPE] |1146| 
        ADDS      A1, A1, #1            ; [DPU_3_PIPE] |1146| 
        STRH      A1, [SP, #12]         ; [DPU_3_PIPE] |1146| 
	.dwpsn	file "E:/Dev/Ti/TivaWare/third_party/fatfs/src/ff.c",line 1147,column 2,is_stmt,isa 1
;----------------------------------------------------------------------
; 1147 | if (!i || !dj->sect)    /* Report EOT when index has reached 65535 */  
;----------------------------------------------------------------------
        LDRH      A1, [SP, #12]         ; [DPU_3_PIPE] |1147| 
        CBZ       A1, ||$C$L78||        ; [] 
        ; BRANCHCC OCCURS {||$C$L78||}   ; [] |1147| 
;* --------------------------------------------------------------------------*
        LDR       A1, [SP, #0]          ; [DPU_3_PIPE] |1147| 
        LDR       A1, [A1, #16]         ; [DPU_3_PIPE] |1147| 
        CBNZ      A1, ||$C$L79||        ; [] 
        ; BRANCHCC OCCURS {||$C$L79||}   ; [] |1147| 
;* --------------------------------------------------------------------------*
||$C$L78||:    
	.dwpsn	file "E:/Dev/Ti/TivaWare/third_party/fatfs/src/ff.c",line 1148,column 3,is_stmt,isa 1
;----------------------------------------------------------------------
; 1148 | return FR_NO_FILE;                                                     
;----------------------------------------------------------------------
        MOVS      A1, #4                ; [DPU_3_PIPE] |1148| 
        B         ||$C$L93||            ; [DPU_3_PIPE] |1148| 
        ; BRANCH OCCURS {||$C$L93||}     ; [] |1148| 
;* --------------------------------------------------------------------------*
||$C$L79||:    
	.dwpsn	file "E:/Dev/Ti/TivaWare/third_party/fatfs/src/ff.c",line 1150,column 2,is_stmt,isa 1
;----------------------------------------------------------------------
; 1150 | if (!(i % (SS(dj->fs) / SZ_DIR))) {     /* Sector changed? */          
;----------------------------------------------------------------------
        LDRH      A1, [SP, #12]         ; [DPU_3_PIPE] |1150| 
        TST       A1, #15               ; [DPU_3_PIPE] |1150| 
        BNE       ||$C$L92||            ; [DPU_3_PIPE] |1150| 
        ; BRANCHCC OCCURS {||$C$L92||}   ; [] |1150| 
;* --------------------------------------------------------------------------*
	.dwpsn	file "E:/Dev/Ti/TivaWare/third_party/fatfs/src/ff.c",line 1151,column 3,is_stmt,isa 1
;----------------------------------------------------------------------
; 1151 | dj->sect++;                                     /* Next sector */      
;----------------------------------------------------------------------
        LDR       A2, [SP, #0]          ; [DPU_3_PIPE] |1151| 
        LDR       A1, [A2, #16]         ; [DPU_3_PIPE] |1151| 
        ADDS      A1, A1, #1            ; [DPU_3_PIPE] |1151| 
        STR       A1, [A2, #16]         ; [DPU_3_PIPE] |1151| 
	.dwpsn	file "E:/Dev/Ti/TivaWare/third_party/fatfs/src/ff.c",line 1153,column 3,is_stmt,isa 1
;----------------------------------------------------------------------
; 1153 | if (dj->clust == 0) {   /* Static table */                             
;----------------------------------------------------------------------
        LDR       A1, [SP, #0]          ; [DPU_3_PIPE] |1153| 
        LDR       A1, [A1, #12]         ; [DPU_3_PIPE] |1153| 
        CBNZ      A1, ||$C$L80||        ; [] 
        ; BRANCHCC OCCURS {||$C$L80||}   ; [] |1153| 
;* --------------------------------------------------------------------------*
	.dwpsn	file "E:/Dev/Ti/TivaWare/third_party/fatfs/src/ff.c",line 1154,column 4,is_stmt,isa 1
;----------------------------------------------------------------------
; 1154 | if (i >= dj->fs->n_rootdir)     /* Report EOT when end of table */     
;----------------------------------------------------------------------
        LDR       A1, [SP, #0]          ; [DPU_3_PIPE] |1154| 
        LDR       A1, [A1, #0]          ; [DPU_3_PIPE] |1154| 
        LDRH      A2, [SP, #12]         ; [DPU_3_PIPE] |1154| 
        LDRH      A1, [A1, #8]          ; [DPU_3_PIPE] |1154| 
        CMP       A1, A2                ; [DPU_3_PIPE] |1154| 
        BGT       ||$C$L92||            ; [DPU_3_PIPE] |1154| 
        ; BRANCHCC OCCURS {||$C$L92||}   ; [] |1154| 
;* --------------------------------------------------------------------------*
	.dwpsn	file "E:/Dev/Ti/TivaWare/third_party/fatfs/src/ff.c",line 1155,column 5,is_stmt,isa 1
;----------------------------------------------------------------------
; 1155 | return FR_NO_FILE;                                                     
; 1157 | else {                                  /* Dynamic table */            
;----------------------------------------------------------------------
        MOVS      A1, #4                ; [DPU_3_PIPE] |1155| 
        B         ||$C$L93||            ; [DPU_3_PIPE] |1155| 
        ; BRANCH OCCURS {||$C$L93||}     ; [] |1155| 
;* --------------------------------------------------------------------------*
;* --------------------------------------------------------------------------*
||$C$L80||:    
	.dwpsn	file "E:/Dev/Ti/TivaWare/third_party/fatfs/src/ff.c",line 1158,column 4,is_stmt,isa 1
;----------------------------------------------------------------------
; 1158 | if (((i / (SS(dj->fs) / SZ_DIR)) & (dj->fs->csize - 1)) == 0) { /* Clus
;     | ter changed? */                                                        
;----------------------------------------------------------------------
        LDR       A1, [SP, #0]          ; [DPU_3_PIPE] |1158| 
        LDR       A1, [A1, #0]          ; [DPU_3_PIPE] |1158| 
        LDRH      A2, [SP, #12]         ; [DPU_3_PIPE] |1158| 
        LDRB      A1, [A1, #2]          ; [DPU_3_PIPE] |1158| 
        SUBS      A1, A1, #1            ; [DPU_3_PIPE] |1158| 
        TST       A1, A2, LSR #4        ; [DPU_3_PIPE] |1158| 
        BNE       ||$C$L92||            ; [DPU_3_PIPE] |1158| 
        ; BRANCHCC OCCURS {||$C$L92||}   ; [] |1158| 
;* --------------------------------------------------------------------------*
	.dwpsn	file "E:/Dev/Ti/TivaWare/third_party/fatfs/src/ff.c",line 1159,column 5,is_stmt,isa 1
;----------------------------------------------------------------------
; 1159 | clst = get_fat(dj->fs, dj->clust);                              /* Get
;     | next cluster */                                                        
;----------------------------------------------------------------------
        LDR       A1, [SP, #0]          ; [DPU_3_PIPE] |1159| 
        LDR       A2, [SP, #0]          ; [DPU_3_PIPE] |1159| 
        LDR       A1, [A1, #0]          ; [DPU_3_PIPE] |1159| 
        LDR       A2, [A2, #12]         ; [DPU_3_PIPE] |1159| 
$C$DW$158	.dwtag  DW_TAG_TI_branch
	.dwattr $C$DW$158, DW_AT_low_pc(0x00)
	.dwattr $C$DW$158, DW_AT_name("get_fat")
	.dwattr $C$DW$158, DW_AT_TI_call
        BL        get_fat               ; [DPU_3_PIPE] |1159| 
        ; CALL OCCURS {get_fat }         ; [] |1159| 
        STR       A1, [SP, #8]          ; [DPU_3_PIPE] |1159| 
	.dwpsn	file "E:/Dev/Ti/TivaWare/third_party/fatfs/src/ff.c",line 1160,column 5,is_stmt,isa 1
;----------------------------------------------------------------------
; 1160 | if (clst <= 1) return FR_INT_ERR;                                      
;----------------------------------------------------------------------
        LDR       A1, [SP, #8]          ; [DPU_3_PIPE] |1160| 
        CMP       A1, #1                ; [DPU_3_PIPE] |1160| 
        BHI       ||$C$L81||            ; [DPU_3_PIPE] |1160| 
        ; BRANCHCC OCCURS {||$C$L81||}   ; [] |1160| 
;* --------------------------------------------------------------------------*
	.dwpsn	file "E:/Dev/Ti/TivaWare/third_party/fatfs/src/ff.c",line 1160,column 20,is_stmt,isa 1
        MOVS      A1, #2                ; [DPU_3_PIPE] |1160| 
        B         ||$C$L93||            ; [DPU_3_PIPE] |1160| 
        ; BRANCH OCCURS {||$C$L93||}     ; [] |1160| 
;* --------------------------------------------------------------------------*
||$C$L81||:    
	.dwpsn	file "E:/Dev/Ti/TivaWare/third_party/fatfs/src/ff.c",line 1161,column 5,is_stmt,isa 1
;----------------------------------------------------------------------
; 1161 | if (clst == 0xFFFFFFFF) return FR_DISK_ERR;                            
;----------------------------------------------------------------------
        LDR       A1, [SP, #8]          ; [DPU_3_PIPE] |1161| 
        CMP       A1, #-1               ; [DPU_3_PIPE] |1161| 
        BNE       ||$C$L82||            ; [DPU_3_PIPE] |1161| 
        ; BRANCHCC OCCURS {||$C$L82||}   ; [] |1161| 
;* --------------------------------------------------------------------------*
	.dwpsn	file "E:/Dev/Ti/TivaWare/third_party/fatfs/src/ff.c",line 1161,column 29,is_stmt,isa 1
        MOVS      A1, #1                ; [DPU_3_PIPE] |1161| 
        B         ||$C$L93||            ; [DPU_3_PIPE] |1161| 
        ; BRANCH OCCURS {||$C$L93||}     ; [] |1161| 
;* --------------------------------------------------------------------------*
||$C$L82||:    
	.dwpsn	file "E:/Dev/Ti/TivaWare/third_party/fatfs/src/ff.c",line 1162,column 5,is_stmt,isa 1
;----------------------------------------------------------------------
; 1162 | if (clst >= dj->fs->n_fatent) {                                 /* When
;     |  it reached end of dynamic table */                                    
; 1163 | #if !_FS_READONLY                                                      
; 1164 |         BYTE c;                                                        
;----------------------------------------------------------------------
        LDR       A1, [SP, #0]          ; [DPU_3_PIPE] |1162| 
        LDR       A1, [A1, #0]          ; [DPU_3_PIPE] |1162| 
        LDR       A2, [SP, #8]          ; [DPU_3_PIPE] |1162| 
        LDR       A1, [A1, #24]         ; [DPU_3_PIPE] |1162| 
        CMP       A1, A2                ; [DPU_3_PIPE] |1162| 
        BHI       ||$C$L91||            ; [DPU_3_PIPE] |1162| 
        ; BRANCHCC OCCURS {||$C$L91||}   ; [] |1162| 
;* --------------------------------------------------------------------------*

$C$DW$159	.dwtag  DW_TAG_lexical_block, DW_AT_low_pc(0x00), DW_AT_high_pc(0x00)
$C$DW$160	.dwtag  DW_TAG_variable, DW_AT_name("c")
	.dwattr $C$DW$160, DW_AT_TI_symbol_name("c")
	.dwattr $C$DW$160, DW_AT_type(*$C$DW$T$19)
	.dwattr $C$DW$160, DW_AT_location[DW_OP_breg13 16]
	.dwpsn	file "E:/Dev/Ti/TivaWare/third_party/fatfs/src/ff.c",line 1165,column 6,is_stmt,isa 1
;----------------------------------------------------------------------
; 1165 | if (!stretch) return FR_NO_FILE;                        /* When do not
;     | stretch, report EOT */                                                 
;----------------------------------------------------------------------
        LDR       A1, [SP, #4]          ; [DPU_3_PIPE] |1165| 
        CBNZ      A1, ||$C$L83||        ; [] 
        ; BRANCHCC OCCURS {||$C$L83||}   ; [] |1165| 
;* --------------------------------------------------------------------------*
	.dwpsn	file "E:/Dev/Ti/TivaWare/third_party/fatfs/src/ff.c",line 1165,column 20,is_stmt,isa 1
        MOVS      A1, #4                ; [DPU_3_PIPE] |1165| 
        B         ||$C$L93||            ; [DPU_3_PIPE] |1165| 
        ; BRANCH OCCURS {||$C$L93||}     ; [] |1165| 
;* --------------------------------------------------------------------------*
||$C$L83||:    
	.dwpsn	file "E:/Dev/Ti/TivaWare/third_party/fatfs/src/ff.c",line 1166,column 6,is_stmt,isa 1
;----------------------------------------------------------------------
; 1166 | clst = create_chain(dj->fs, dj->clust);         /* Stretch cluster chai
;     | n */                                                                   
;----------------------------------------------------------------------
        LDR       A1, [SP, #0]          ; [DPU_3_PIPE] |1166| 
        LDR       A2, [SP, #0]          ; [DPU_3_PIPE] |1166| 
        LDR       A1, [A1, #0]          ; [DPU_3_PIPE] |1166| 
        LDR       A2, [A2, #12]         ; [DPU_3_PIPE] |1166| 
$C$DW$161	.dwtag  DW_TAG_TI_branch
	.dwattr $C$DW$161, DW_AT_low_pc(0x00)
	.dwattr $C$DW$161, DW_AT_name("create_chain")
	.dwattr $C$DW$161, DW_AT_TI_call
        BL        create_chain          ; [DPU_3_PIPE] |1166| 
        ; CALL OCCURS {create_chain }    ; [] |1166| 
        STR       A1, [SP, #8]          ; [DPU_3_PIPE] |1166| 
	.dwpsn	file "E:/Dev/Ti/TivaWare/third_party/fatfs/src/ff.c",line 1167,column 6,is_stmt,isa 1
;----------------------------------------------------------------------
; 1167 | if (clst == 0) return FR_DENIED;                        /* No free clus
;     | ter */                                                                 
;----------------------------------------------------------------------
        LDR       A1, [SP, #8]          ; [DPU_3_PIPE] |1167| 
        CBNZ      A1, ||$C$L84||        ; [] 
        ; BRANCHCC OCCURS {||$C$L84||}   ; [] |1167| 
;* --------------------------------------------------------------------------*
	.dwpsn	file "E:/Dev/Ti/TivaWare/third_party/fatfs/src/ff.c",line 1167,column 21,is_stmt,isa 1
        MOVS      A1, #7                ; [DPU_3_PIPE] |1167| 
        B         ||$C$L93||            ; [DPU_3_PIPE] |1167| 
        ; BRANCH OCCURS {||$C$L93||}     ; [] |1167| 
;* --------------------------------------------------------------------------*
||$C$L84||:    
	.dwpsn	file "E:/Dev/Ti/TivaWare/third_party/fatfs/src/ff.c",line 1168,column 6,is_stmt,isa 1
;----------------------------------------------------------------------
; 1168 | if (clst == 1) return FR_INT_ERR;                                      
;----------------------------------------------------------------------
        LDR       A1, [SP, #8]          ; [DPU_3_PIPE] |1168| 
        CMP       A1, #1                ; [DPU_3_PIPE] |1168| 
        BNE       ||$C$L85||            ; [DPU_3_PIPE] |1168| 
        ; BRANCHCC OCCURS {||$C$L85||}   ; [] |1168| 
;* --------------------------------------------------------------------------*
	.dwpsn	file "E:/Dev/Ti/TivaWare/third_party/fatfs/src/ff.c",line 1168,column 21,is_stmt,isa 1
        MOVS      A1, #2                ; [DPU_3_PIPE] |1168| 
        B         ||$C$L93||            ; [DPU_3_PIPE] |1168| 
        ; BRANCH OCCURS {||$C$L93||}     ; [] |1168| 
;* --------------------------------------------------------------------------*
||$C$L85||:    
	.dwpsn	file "E:/Dev/Ti/TivaWare/third_party/fatfs/src/ff.c",line 1169,column 6,is_stmt,isa 1
;----------------------------------------------------------------------
; 1169 | if (clst == 0xFFFFFFFF) return FR_DISK_ERR;                            
;----------------------------------------------------------------------
        LDR       A1, [SP, #8]          ; [DPU_3_PIPE] |1169| 
        CMP       A1, #-1               ; [DPU_3_PIPE] |1169| 
        BNE       ||$C$L86||            ; [DPU_3_PIPE] |1169| 
        ; BRANCHCC OCCURS {||$C$L86||}   ; [] |1169| 
;* --------------------------------------------------------------------------*
	.dwpsn	file "E:/Dev/Ti/TivaWare/third_party/fatfs/src/ff.c",line 1169,column 30,is_stmt,isa 1
        MOVS      A1, #1                ; [DPU_3_PIPE] |1169| 
        B         ||$C$L93||            ; [DPU_3_PIPE] |1169| 
        ; BRANCH OCCURS {||$C$L93||}     ; [] |1169| 
;* --------------------------------------------------------------------------*
||$C$L86||:    
	.dwpsn	file "E:/Dev/Ti/TivaWare/third_party/fatfs/src/ff.c",line 1171,column 6,is_stmt,isa 1
;----------------------------------------------------------------------
; 1171 | if (sync_window(dj->fs)) return FR_DISK_ERR;    /* Flush active window
;     | */                                                                     
;----------------------------------------------------------------------
        LDR       A1, [SP, #0]          ; [DPU_3_PIPE] |1171| 
        LDR       A1, [A1, #0]          ; [DPU_3_PIPE] |1171| 
$C$DW$162	.dwtag  DW_TAG_TI_branch
	.dwattr $C$DW$162, DW_AT_low_pc(0x00)
	.dwattr $C$DW$162, DW_AT_name("sync_window")
	.dwattr $C$DW$162, DW_AT_TI_call
        BL        sync_window           ; [DPU_3_PIPE] |1171| 
        ; CALL OCCURS {sync_window }     ; [] |1171| 
        CBZ       A1, ||$C$L87||        ; [] 
        ; BRANCHCC OCCURS {||$C$L87||}   ; [] |1171| 
;* --------------------------------------------------------------------------*
	.dwpsn	file "E:/Dev/Ti/TivaWare/third_party/fatfs/src/ff.c",line 1171,column 31,is_stmt,isa 1
        MOVS      A1, #1                ; [DPU_3_PIPE] |1171| 
        B         ||$C$L93||            ; [DPU_3_PIPE] |1171| 
        ; BRANCH OCCURS {||$C$L93||}     ; [] |1171| 
;* --------------------------------------------------------------------------*
||$C$L87||:    
	.dwpsn	file "E:/Dev/Ti/TivaWare/third_party/fatfs/src/ff.c",line 1172,column 6,is_stmt,isa 1
;----------------------------------------------------------------------
; 1172 | mem_set(dj->fs->win, 0, SS(dj->fs));                    /* Clear window
;     |  buffer */                                                             
;----------------------------------------------------------------------
        LDR       A1, [SP, #0]          ; [DPU_3_PIPE] |1172| 
        LDR       A1, [A1, #0]          ; [DPU_3_PIPE] |1172| 
        MOVS      A2, #0                ; [DPU_3_PIPE] |1172| 
        MOV       A3, #512              ; [DPU_3_PIPE] |1172| 
        ADDS      A1, A1, #52           ; [DPU_3_PIPE] |1172| 
$C$DW$163	.dwtag  DW_TAG_TI_branch
	.dwattr $C$DW$163, DW_AT_low_pc(0x00)
	.dwattr $C$DW$163, DW_AT_name("mem_set")
	.dwattr $C$DW$163, DW_AT_TI_call
        BL        mem_set               ; [DPU_3_PIPE] |1172| 
        ; CALL OCCURS {mem_set }         ; [] |1172| 
	.dwpsn	file "E:/Dev/Ti/TivaWare/third_party/fatfs/src/ff.c",line 1173,column 6,is_stmt,isa 1
;----------------------------------------------------------------------
; 1173 | dj->fs->winsect = clust2sect(dj->fs, clst);     /* Cluster start sector
;     |  */                                                                    
;----------------------------------------------------------------------
        LDR       A1, [SP, #0]          ; [DPU_3_PIPE] |1173| 
        LDR       A2, [SP, #8]          ; [DPU_3_PIPE] |1173| 
        LDR       A1, [A1, #0]          ; [DPU_3_PIPE] |1173| 
$C$DW$164	.dwtag  DW_TAG_TI_branch
	.dwattr $C$DW$164, DW_AT_low_pc(0x00)
	.dwattr $C$DW$164, DW_AT_name("clust2sect")
	.dwattr $C$DW$164, DW_AT_TI_call
        BL        clust2sect            ; [DPU_3_PIPE] |1173| 
        ; CALL OCCURS {clust2sect }      ; [] |1173| 
        LDR       A2, [SP, #0]          ; [DPU_3_PIPE] |1173| 
        LDR       A2, [A2, #0]          ; [DPU_3_PIPE] |1173| 
        STR       A1, [A2, #48]         ; [DPU_3_PIPE] |1173| 
	.dwpsn	file "E:/Dev/Ti/TivaWare/third_party/fatfs/src/ff.c",line 1174,column 11,is_stmt,isa 1
;----------------------------------------------------------------------
; 1174 | for (c = 0; c < dj->fs->csize; c++) {           /* Fill the new cluster
;     |  with 0 */                                                             
;----------------------------------------------------------------------
        MOVS      A1, #0                ; [DPU_3_PIPE] |1174| 
        STRB      A1, [SP, #16]         ; [DPU_3_PIPE] |1174| 
        B         ||$C$L90||            ; [DPU_3_PIPE] |1174| 
        ; BRANCH OCCURS {||$C$L90||}     ; [] |1174| 
;* --------------------------------------------------------------------------*
||$C$L88||:    
	.dwpsn	file "E:/Dev/Ti/TivaWare/third_party/fatfs/src/ff.c",line 1175,column 7,is_stmt,isa 1
;----------------------------------------------------------------------
; 1175 | dj->fs->wflag = 1;                                                     
;----------------------------------------------------------------------
        LDR       A1, [SP, #0]          ; [DPU_3_PIPE] |1175| 
        LDR       A1, [A1, #0]          ; [DPU_3_PIPE] |1175| 
        MOVS      A2, #1                ; [DPU_3_PIPE] |1175| 
        STRB      A2, [A1, #4]          ; [DPU_3_PIPE] |1175| 
	.dwpsn	file "E:/Dev/Ti/TivaWare/third_party/fatfs/src/ff.c",line 1176,column 7,is_stmt,isa 1
;----------------------------------------------------------------------
; 1176 | if (sync_window(dj->fs)) return FR_DISK_ERR;                           
;----------------------------------------------------------------------
        LDR       A1, [SP, #0]          ; [DPU_3_PIPE] |1176| 
        LDR       A1, [A1, #0]          ; [DPU_3_PIPE] |1176| 
$C$DW$165	.dwtag  DW_TAG_TI_branch
	.dwattr $C$DW$165, DW_AT_low_pc(0x00)
	.dwattr $C$DW$165, DW_AT_name("sync_window")
	.dwattr $C$DW$165, DW_AT_TI_call
        BL        sync_window           ; [DPU_3_PIPE] |1176| 
        ; CALL OCCURS {sync_window }     ; [] |1176| 
        CBZ       A1, ||$C$L89||        ; [] 
        ; BRANCHCC OCCURS {||$C$L89||}   ; [] |1176| 
;* --------------------------------------------------------------------------*
	.dwpsn	file "E:/Dev/Ti/TivaWare/third_party/fatfs/src/ff.c",line 1176,column 32,is_stmt,isa 1
        MOVS      A1, #1                ; [DPU_3_PIPE] |1176| 
        B         ||$C$L93||            ; [DPU_3_PIPE] |1176| 
        ; BRANCH OCCURS {||$C$L93||}     ; [] |1176| 
;* --------------------------------------------------------------------------*
||$C$L89||:    
	.dwpsn	file "E:/Dev/Ti/TivaWare/third_party/fatfs/src/ff.c",line 1177,column 7,is_stmt,isa 1
;----------------------------------------------------------------------
; 1177 | dj->fs->winsect++;                                                     
;----------------------------------------------------------------------
        LDR       A1, [SP, #0]          ; [DPU_3_PIPE] |1177| 
        LDR       A2, [A1, #0]          ; [DPU_3_PIPE] |1177| 
        LDR       A1, [A2, #48]         ; [DPU_3_PIPE] |1177| 
        ADDS      A1, A1, #1            ; [DPU_3_PIPE] |1177| 
        STR       A1, [A2, #48]         ; [DPU_3_PIPE] |1177| 
	.dwpsn	file "E:/Dev/Ti/TivaWare/third_party/fatfs/src/ff.c",line 1174,column 37,is_stmt,isa 1
        LDRB      A1, [SP, #16]         ; [DPU_3_PIPE] |1174| 
        ADDS      A1, A1, #1            ; [DPU_3_PIPE] |1174| 
        STRB      A1, [SP, #16]         ; [DPU_3_PIPE] |1174| 
;* --------------------------------------------------------------------------*
;*   BEGIN LOOP ||$C$L90||
;* --------------------------------------------------------------------------*
||$C$L90||:    
	.dwpsn	file "E:/Dev/Ti/TivaWare/third_party/fatfs/src/ff.c",line 1174,column 18,is_stmt,isa 1
        LDR       A1, [SP, #0]          ; [DPU_3_PIPE] |1174| 
        LDR       A1, [A1, #0]          ; [DPU_3_PIPE] |1174| 
        LDRB      A2, [SP, #16]         ; [DPU_3_PIPE] |1174| 
        LDRB      A1, [A1, #2]          ; [DPU_3_PIPE] |1174| 
        CMP       A1, A2                ; [DPU_3_PIPE] |1174| 
        BGT       ||$C$L88||            ; [DPU_3_PIPE] |1174| 
        ; BRANCHCC OCCURS {||$C$L88||}   ; [] |1174| 
;* --------------------------------------------------------------------------*
	.dwpsn	file "E:/Dev/Ti/TivaWare/third_party/fatfs/src/ff.c",line 1179,column 6,is_stmt,isa 1
;----------------------------------------------------------------------
; 1179 | dj->fs->winsect -= c;                                           /* Rewi
;     | nd window address */                                                   
; 1180 | #else                                                                  
; 1181 | return FR_NO_FILE;                      /* Report EOT */               
; 1182 | #endif                                                                 
;----------------------------------------------------------------------
        LDR       A1, [SP, #0]          ; [DPU_3_PIPE] |1179| 
        LDR       A2, [A1, #0]          ; [DPU_3_PIPE] |1179| 
        LDRB      A3, [SP, #16]         ; [DPU_3_PIPE] |1179| 
        LDR       A1, [A2, #48]         ; [DPU_3_PIPE] |1179| 
        SUBS      A1, A1, A3            ; [DPU_3_PIPE] |1179| 
        STR       A1, [A2, #48]         ; [DPU_3_PIPE] |1179| 
	.dwendtag $C$DW$159

;* --------------------------------------------------------------------------*
||$C$L91||:    
	.dwpsn	file "E:/Dev/Ti/TivaWare/third_party/fatfs/src/ff.c",line 1184,column 5,is_stmt,isa 1
;----------------------------------------------------------------------
; 1184 | dj->clust = clst;                               /* Initialize data for
;     | new cluster */                                                         
;----------------------------------------------------------------------
        LDR       A1, [SP, #8]          ; [DPU_3_PIPE] |1184| 
        LDR       A2, [SP, #0]          ; [DPU_3_PIPE] |1184| 
        STR       A1, [A2, #12]         ; [DPU_3_PIPE] |1184| 
	.dwpsn	file "E:/Dev/Ti/TivaWare/third_party/fatfs/src/ff.c",line 1185,column 5,is_stmt,isa 1
;----------------------------------------------------------------------
; 1185 | dj->sect = clust2sect(dj->fs, clst);                                   
;----------------------------------------------------------------------
        LDR       A1, [SP, #0]          ; [DPU_3_PIPE] |1185| 
        LDR       A2, [SP, #8]          ; [DPU_3_PIPE] |1185| 
        LDR       A1, [A1, #0]          ; [DPU_3_PIPE] |1185| 
$C$DW$166	.dwtag  DW_TAG_TI_branch
	.dwattr $C$DW$166, DW_AT_low_pc(0x00)
	.dwattr $C$DW$166, DW_AT_name("clust2sect")
	.dwattr $C$DW$166, DW_AT_TI_call
        BL        clust2sect            ; [DPU_3_PIPE] |1185| 
        ; CALL OCCURS {clust2sect }      ; [] |1185| 
        LDR       A2, [SP, #0]          ; [DPU_3_PIPE] |1185| 
        STR       A1, [A2, #16]         ; [DPU_3_PIPE] |1185| 
;* --------------------------------------------------------------------------*
||$C$L92||:    
	.dwpsn	file "E:/Dev/Ti/TivaWare/third_party/fatfs/src/ff.c",line 1190,column 2,is_stmt,isa 1
;----------------------------------------------------------------------
; 1190 | dj->index = i;                                                         
;----------------------------------------------------------------------
        LDRH      A1, [SP, #12]         ; [DPU_3_PIPE] |1190| 
        LDR       A2, [SP, #0]          ; [DPU_3_PIPE] |1190| 
        STRH      A1, [A2, #6]          ; [DPU_3_PIPE] |1190| 
	.dwpsn	file "E:/Dev/Ti/TivaWare/third_party/fatfs/src/ff.c",line 1191,column 2,is_stmt,isa 1
;----------------------------------------------------------------------
; 1191 | dj->dir = dj->fs->win + (i % (SS(dj->fs) / SZ_DIR)) * SZ_DIR;          
;----------------------------------------------------------------------
        LDR       A1, [SP, #0]          ; [DPU_3_PIPE] |1191| 
        LDRH      A2, [SP, #12]         ; [DPU_3_PIPE] |1191| 
        LDR       A3, [SP, #0]          ; [DPU_3_PIPE] |1191| 
        LDR       A1, [A1, #0]          ; [DPU_3_PIPE] |1191| 
        AND       A2, A2, #15           ; [DPU_3_PIPE] |1191| 
        ADD       A1, A1, A2, LSL #5    ; [DPU_3_PIPE] |1191| 
        ADDS      A1, A1, #52           ; [DPU_3_PIPE] |1191| 
        STR       A1, [A3, #20]         ; [DPU_3_PIPE] |1191| 
	.dwpsn	file "E:/Dev/Ti/TivaWare/third_party/fatfs/src/ff.c",line 1193,column 2,is_stmt,isa 1
;----------------------------------------------------------------------
; 1193 | return FR_OK;                                                          
;----------------------------------------------------------------------
        MOVS      A1, #0                ; [DPU_3_PIPE] |1193| 
;* --------------------------------------------------------------------------*
||$C$L93||:    
	.dwpsn	file "E:/Dev/Ti/TivaWare/third_party/fatfs/src/ff.c",line 1194,column 1,is_stmt,isa 1
        ADD       SP, SP, #20           ; [DPU_3_PIPE] 
	.dwcfi	cfa_offset, 4
$C$DW$167	.dwtag  DW_TAG_TI_branch
	.dwattr $C$DW$167, DW_AT_low_pc(0x00)
	.dwattr $C$DW$167, DW_AT_TI_return
        POP       {PC}                  ; [DPU_3_PIPE] 
	.dwcfi	cfa_offset, 0
        ; BRANCH OCCURS                  ; [] 
	.dwattr $C$DW$151, DW_AT_TI_end_file("E:/Dev/Ti/TivaWare/third_party/fatfs/src/ff.c")
	.dwattr $C$DW$151, DW_AT_TI_end_line(0x4aa)
	.dwattr $C$DW$151, DW_AT_TI_end_column(0x01)
	.dwendentry
	.dwendtag $C$DW$151

	.sect	".text:dir_alloc"
	.clink
	.thumbfunc dir_alloc
	.thumb

$C$DW$168	.dwtag  DW_TAG_subprogram, DW_AT_name("dir_alloc")
	.dwattr $C$DW$168, DW_AT_low_pc(dir_alloc)
	.dwattr $C$DW$168, DW_AT_high_pc(0x00)
	.dwattr $C$DW$168, DW_AT_TI_symbol_name("dir_alloc")
	.dwattr $C$DW$168, DW_AT_type(*$C$DW$T$44)
	.dwattr $C$DW$168, DW_AT_TI_begin_file("E:/Dev/Ti/TivaWare/third_party/fatfs/src/ff.c")
	.dwattr $C$DW$168, DW_AT_TI_begin_line(0x4b5)
	.dwattr $C$DW$168, DW_AT_TI_begin_column(0x09)
	.dwattr $C$DW$168, DW_AT_decl_file("E:/Dev/Ti/TivaWare/third_party/fatfs/src/ff.c")
	.dwattr $C$DW$168, DW_AT_decl_line(0x4b5)
	.dwattr $C$DW$168, DW_AT_decl_column(0x09)
	.dwattr $C$DW$168, DW_AT_TI_max_frame_size(0x18)
	.dwpsn	file "E:/Dev/Ti/TivaWare/third_party/fatfs/src/ff.c",line 1209,column 1,is_stmt,address dir_alloc,isa 1

	.dwfde $C$DW$CIE, dir_alloc
$C$DW$169	.dwtag  DW_TAG_formal_parameter, DW_AT_name("dj")
	.dwattr $C$DW$169, DW_AT_TI_symbol_name("dj")
	.dwattr $C$DW$169, DW_AT_type(*$C$DW$T$52)
	.dwattr $C$DW$169, DW_AT_location[DW_OP_reg0]
$C$DW$170	.dwtag  DW_TAG_formal_parameter, DW_AT_name("nent")
	.dwattr $C$DW$170, DW_AT_TI_symbol_name("nent")
	.dwattr $C$DW$170, DW_AT_type(*$C$DW$T$57)
	.dwattr $C$DW$170, DW_AT_location[DW_OP_reg1]
;----------------------------------------------------------------------
; 1205 | FRESULT dir_alloc (                                                    
; 1206 | DIR* dj,        /* Pointer to the directory object */                  
; 1207 | UINT nent       /* Number of contiguous entries to allocate (1-21) */  
; 1208 | )                                                                      
;----------------------------------------------------------------------

;*****************************************************************************
;* FUNCTION NAME: dir_alloc                                                  *
;*                                                                           *
;*   Regs Modified     : A1,A2,A3,A4,V9,SP,LR,SR,D0,D0_hi,D1,D1_hi,D2,D2_hi, *
;*                           D3,D3_hi,D4,D4_hi,D5,D5_hi,D6,D6_hi,D7,D7_hi,   *
;*                           FPEXC,FPSCR                                     *
;*   Regs Used         : A1,A2,A3,A4,V9,SP,LR,SR,D0,D0_hi,D1,D1_hi,D2,D2_hi, *
;*                           D3,D3_hi,D4,D4_hi,D5,D5_hi,D6,D6_hi,D7,D7_hi,   *
;*                           FPEXC,FPSCR                                     *
;*   Local Frame Size  : 0 Args + 16 Auto + 4 Save = 20 byte                 *
;*****************************************************************************
dir_alloc:
;* --------------------------------------------------------------------------*
	.dwcfi	cfa_offset, 0
        PUSH      {LR}                  ; [DPU_3_PIPE] 
	.dwcfi	cfa_offset, 4
	.dwcfi	save_reg_to_mem, 14, -4
        SUB       SP, SP, #20           ; [DPU_3_PIPE] 
	.dwcfi	cfa_offset, 24
$C$DW$171	.dwtag  DW_TAG_variable, DW_AT_name("dj")
	.dwattr $C$DW$171, DW_AT_TI_symbol_name("dj")
	.dwattr $C$DW$171, DW_AT_type(*$C$DW$T$52)
	.dwattr $C$DW$171, DW_AT_location[DW_OP_breg13 0]
$C$DW$172	.dwtag  DW_TAG_variable, DW_AT_name("nent")
	.dwattr $C$DW$172, DW_AT_TI_symbol_name("nent")
	.dwattr $C$DW$172, DW_AT_type(*$C$DW$T$57)
	.dwattr $C$DW$172, DW_AT_location[DW_OP_breg13 4]
$C$DW$173	.dwtag  DW_TAG_variable, DW_AT_name("res")
	.dwattr $C$DW$173, DW_AT_TI_symbol_name("res")
	.dwattr $C$DW$173, DW_AT_type(*$C$DW$T$44)
	.dwattr $C$DW$173, DW_AT_location[DW_OP_breg13 8]
$C$DW$174	.dwtag  DW_TAG_variable, DW_AT_name("n")
	.dwattr $C$DW$174, DW_AT_TI_symbol_name("n")
	.dwattr $C$DW$174, DW_AT_type(*$C$DW$T$57)
	.dwattr $C$DW$174, DW_AT_location[DW_OP_breg13 12]
;----------------------------------------------------------------------
; 1210 | FRESULT res;                                                           
; 1211 | UINT n;                                                                
;----------------------------------------------------------------------
        STR       A2, [SP, #4]          ; [DPU_3_PIPE] |1209| 
        STR       A1, [SP, #0]          ; [DPU_3_PIPE] |1209| 
	.dwpsn	file "E:/Dev/Ti/TivaWare/third_party/fatfs/src/ff.c",line 1214,column 2,is_stmt,isa 1
;----------------------------------------------------------------------
; 1214 | res = dir_sdi(dj, 0);                                                  
;----------------------------------------------------------------------
        LDR       A1, [SP, #0]          ; [DPU_3_PIPE] |1214| 
        MOVS      A2, #0                ; [DPU_3_PIPE] |1214| 
$C$DW$175	.dwtag  DW_TAG_TI_branch
	.dwattr $C$DW$175, DW_AT_low_pc(0x00)
	.dwattr $C$DW$175, DW_AT_name("dir_sdi")
	.dwattr $C$DW$175, DW_AT_TI_call
        BL        dir_sdi               ; [DPU_3_PIPE] |1214| 
        ; CALL OCCURS {dir_sdi }         ; [] |1214| 
        STRB      A1, [SP, #8]          ; [DPU_3_PIPE] |1214| 
	.dwpsn	file "E:/Dev/Ti/TivaWare/third_party/fatfs/src/ff.c",line 1215,column 2,is_stmt,isa 1
;----------------------------------------------------------------------
; 1215 | if (res == FR_OK) {                                                    
;----------------------------------------------------------------------
        LDRB      A1, [SP, #8]          ; [DPU_3_PIPE] |1215| 
        CMP       A1, #0                ; [DPU_3_PIPE] |1215| 
        BNE       ||$C$L98||            ; [DPU_3_PIPE] |1215| 
        ; BRANCHCC OCCURS {||$C$L98||}   ; [] |1215| 
;* --------------------------------------------------------------------------*
	.dwpsn	file "E:/Dev/Ti/TivaWare/third_party/fatfs/src/ff.c",line 1216,column 3,is_stmt,isa 1
;----------------------------------------------------------------------
; 1216 | n = 0;                                                                 
; 1217 | do {                                                                   
;----------------------------------------------------------------------
        MOVS      A1, #0                ; [DPU_3_PIPE] |1216| 
        STR       A1, [SP, #12]         ; [DPU_3_PIPE] |1216| 
;* --------------------------------------------------------------------------*
;*   BEGIN LOOP ||$C$L94||
;*
;*   Loop source line                : 1217
;*   Loop closing brace source line  : 1226
;*   Known Minimum Trip Count        : 1
;*   Known Maximum Trip Count        : 4294967295
;*   Known Max Trip Count Factor     : 1
;* --------------------------------------------------------------------------*
||$C$L94||:    
	.dwpsn	file "E:/Dev/Ti/TivaWare/third_party/fatfs/src/ff.c",line 1218,column 4,is_stmt,isa 1
;----------------------------------------------------------------------
; 1218 | res = move_window(dj->fs, dj->sect);                                   
;----------------------------------------------------------------------
        LDR       A1, [SP, #0]          ; [DPU_3_PIPE] |1218| 
        LDR       A2, [SP, #0]          ; [DPU_3_PIPE] |1218| 
        LDR       A1, [A1, #0]          ; [DPU_3_PIPE] |1218| 
        LDR       A2, [A2, #16]         ; [DPU_3_PIPE] |1218| 
$C$DW$176	.dwtag  DW_TAG_TI_branch
	.dwattr $C$DW$176, DW_AT_low_pc(0x00)
	.dwattr $C$DW$176, DW_AT_name("move_window")
	.dwattr $C$DW$176, DW_AT_TI_call
        BL        move_window           ; [DPU_3_PIPE] |1218| 
        ; CALL OCCURS {move_window }     ; [] |1218| 
        STRB      A1, [SP, #8]          ; [DPU_3_PIPE] |1218| 
	.dwpsn	file "E:/Dev/Ti/TivaWare/third_party/fatfs/src/ff.c",line 1219,column 4,is_stmt,isa 1
;----------------------------------------------------------------------
; 1219 | if (res != FR_OK) break;                                               
;----------------------------------------------------------------------
        LDRB      A1, [SP, #8]          ; [DPU_3_PIPE] |1219| 
        CBNZ      A1, ||$C$L98||        ; [] 
        ; BRANCHCC OCCURS {||$C$L98||}   ; [] |1219| 
;* --------------------------------------------------------------------------*
	.dwpsn	file "E:/Dev/Ti/TivaWare/third_party/fatfs/src/ff.c",line 1219,column 22,is_stmt,isa 1
	.dwpsn	file "E:/Dev/Ti/TivaWare/third_party/fatfs/src/ff.c",line 1220,column 4,is_stmt,isa 1
;----------------------------------------------------------------------
; 1220 | if (dj->dir[0] == DDE || dj->dir[0] == 0) {     /* Is it a blank entry?
;     |  */                                                                    
;----------------------------------------------------------------------
        LDR       A1, [SP, #0]          ; [DPU_3_PIPE] |1220| 
        LDR       A1, [A1, #20]         ; [DPU_3_PIPE] |1220| 
        LDRB      A1, [A1, #0]          ; [DPU_3_PIPE] |1220| 
        CMP       A1, #229              ; [DPU_3_PIPE] |1220| 
        BEQ       ||$C$L95||            ; [DPU_3_PIPE] |1220| 
        ; BRANCHCC OCCURS {||$C$L95||}   ; [] |1220| 
;* --------------------------------------------------------------------------*
        LDR       A1, [SP, #0]          ; [DPU_3_PIPE] |1220| 
        LDR       A1, [A1, #20]         ; [DPU_3_PIPE] |1220| 
        LDRB      A1, [A1, #0]          ; [DPU_3_PIPE] |1220| 
        CBNZ      A1, ||$C$L96||        ; [] 
        ; BRANCHCC OCCURS {||$C$L96||}   ; [] |1220| 
;* --------------------------------------------------------------------------*
||$C$L95||:    
	.dwpsn	file "E:/Dev/Ti/TivaWare/third_party/fatfs/src/ff.c",line 1221,column 5,is_stmt,isa 1
;----------------------------------------------------------------------
; 1221 | if (++n == nent) break; /* A block of contiguous entry is found */     
;----------------------------------------------------------------------
        LDR       A1, [SP, #12]         ; [DPU_3_PIPE] |1221| 
        LDR       A2, [SP, #4]          ; [DPU_3_PIPE] |1221| 
        ADDS      A1, A1, #1            ; [DPU_3_PIPE] |1221| 
        STR       A1, [SP, #12]         ; [DPU_3_PIPE] |1221| 
        CMP       A2, A1                ; [DPU_3_PIPE] |1221| 
        BEQ       ||$C$L98||            ; [DPU_3_PIPE] |1221| 
        ; BRANCHCC OCCURS {||$C$L98||}   ; [] |1221| 
;* --------------------------------------------------------------------------*
	.dwpsn	file "E:/Dev/Ti/TivaWare/third_party/fatfs/src/ff.c",line 1221,column 22,is_stmt,isa 1
	.dwpsn	file "E:/Dev/Ti/TivaWare/third_party/fatfs/src/ff.c",line 1222,column 4,is_stmt,isa 1
;----------------------------------------------------------------------
; 1222 | } else {                                                               
;----------------------------------------------------------------------
        B         ||$C$L97||            ; [DPU_3_PIPE] |1222| 
        ; BRANCH OCCURS {||$C$L97||}     ; [] |1222| 
;* --------------------------------------------------------------------------*
||$C$L96||:    
	.dwpsn	file "E:/Dev/Ti/TivaWare/third_party/fatfs/src/ff.c",line 1223,column 5,is_stmt,isa 1
;----------------------------------------------------------------------
; 1223 | n = 0;                                  /* Not a blank entry. Restart t
;     | o search */                                                            
;----------------------------------------------------------------------
        MOVS      A1, #0                ; [DPU_3_PIPE] |1223| 
        STR       A1, [SP, #12]         ; [DPU_3_PIPE] |1223| 
;* --------------------------------------------------------------------------*
||$C$L97||:    
	.dwpsn	file "E:/Dev/Ti/TivaWare/third_party/fatfs/src/ff.c",line 1225,column 4,is_stmt,isa 1
;----------------------------------------------------------------------
; 1225 | res = dir_next(dj, 1);          /* Next entry with table stretch enable
;     | d */                                                                   
;----------------------------------------------------------------------
        LDR       A1, [SP, #0]          ; [DPU_3_PIPE] |1225| 
        MOVS      A2, #1                ; [DPU_3_PIPE] |1225| 
$C$DW$177	.dwtag  DW_TAG_TI_branch
	.dwattr $C$DW$177, DW_AT_low_pc(0x00)
	.dwattr $C$DW$177, DW_AT_name("dir_next")
	.dwattr $C$DW$177, DW_AT_TI_call
        BL        dir_next              ; [DPU_3_PIPE] |1225| 
        ; CALL OCCURS {dir_next }        ; [] |1225| 
        STRB      A1, [SP, #8]          ; [DPU_3_PIPE] |1225| 
	.dwpsn	file "E:/Dev/Ti/TivaWare/third_party/fatfs/src/ff.c",line 1226,column 12,is_stmt,isa 1
;----------------------------------------------------------------------
; 1226 | } while (res == FR_OK);                                                
;----------------------------------------------------------------------
        LDRB      A1, [SP, #8]          ; [DPU_3_PIPE] |1226| 
        CMP       A1, #0                ; [DPU_3_PIPE] |1226| 
        BEQ       ||$C$L94||            ; [DPU_3_PIPE] |1226| 
        ; BRANCHCC OCCURS {||$C$L94||}   ; [] |1226| 
;* --------------------------------------------------------------------------*
||$C$L98||:    
	.dwpsn	file "E:/Dev/Ti/TivaWare/third_party/fatfs/src/ff.c",line 1228,column 2,is_stmt,isa 1
;----------------------------------------------------------------------
; 1228 | return res;                                                            
;----------------------------------------------------------------------
        LDRB      A1, [SP, #8]          ; [DPU_3_PIPE] |1228| 
	.dwpsn	file "E:/Dev/Ti/TivaWare/third_party/fatfs/src/ff.c",line 1229,column 1,is_stmt,isa 1
        ADD       SP, SP, #20           ; [DPU_3_PIPE] 
	.dwcfi	cfa_offset, 4
$C$DW$178	.dwtag  DW_TAG_TI_branch
	.dwattr $C$DW$178, DW_AT_low_pc(0x00)
	.dwattr $C$DW$178, DW_AT_TI_return
        POP       {PC}                  ; [DPU_3_PIPE] 
	.dwcfi	cfa_offset, 0
        ; BRANCH OCCURS                  ; [] 
	.dwattr $C$DW$168, DW_AT_TI_end_file("E:/Dev/Ti/TivaWare/third_party/fatfs/src/ff.c")
	.dwattr $C$DW$168, DW_AT_TI_end_line(0x4cd)
	.dwattr $C$DW$168, DW_AT_TI_end_column(0x01)
	.dwendentry
	.dwendtag $C$DW$168

	.sect	".text:ld_clust"
	.clink
	.thumbfunc ld_clust
	.thumb

$C$DW$179	.dwtag  DW_TAG_subprogram, DW_AT_name("ld_clust")
	.dwattr $C$DW$179, DW_AT_low_pc(ld_clust)
	.dwattr $C$DW$179, DW_AT_high_pc(0x00)
	.dwattr $C$DW$179, DW_AT_TI_symbol_name("ld_clust")
	.dwattr $C$DW$179, DW_AT_type(*$C$DW$T$21)
	.dwattr $C$DW$179, DW_AT_TI_begin_file("E:/Dev/Ti/TivaWare/third_party/fatfs/src/ff.c")
	.dwattr $C$DW$179, DW_AT_TI_begin_line(0x4d7)
	.dwattr $C$DW$179, DW_AT_TI_begin_column(0x07)
	.dwattr $C$DW$179, DW_AT_decl_file("E:/Dev/Ti/TivaWare/third_party/fatfs/src/ff.c")
	.dwattr $C$DW$179, DW_AT_decl_line(0x4d7)
	.dwattr $C$DW$179, DW_AT_decl_column(0x07)
	.dwattr $C$DW$179, DW_AT_TI_max_frame_size(0x10)
