TI ARM Assembler PC v5.2.6 Wed Apr 27 11:03:41 2016

Tools Copyright (c) 1996-2015 Texas Instruments Incorporated
lcd_nokia5510.asm                                                    PAGE    1

       1                    ;******************************************************************************
       2                    ;* TI ARM C/C++ Codegen                                             PC v5.2.6 *
       3                    ;* Date/Time created: Wed Apr 27 11:03:41 2016                                *
       4                    ;******************************************************************************
       5                            .compiler_opts --abi=eabi --arm_vmrs_si_workaround=off --code_state=16 --diag_wrap=off --disab
       6 00000000                   .thumb
       7                    
       8                    $C$DW$CU        .dwtag  DW_TAG_compile_unit
       9                            .dwattr $C$DW$CU, DW_AT_name("../lcd_nokia5510.c")
      10                            .dwattr $C$DW$CU, DW_AT_producer("TI TI ARM C/C++ Codegen PC v5.2.6 Copyright (c) 1996-2015 Te
      11                            .dwattr $C$DW$CU, DW_AT_TI_version(0x01)
      12                            .dwattr $C$DW$CU, DW_AT_comp_dir("D:\Deian\Dev\TI\workspace6\LaunchpadRoomControl\timers\Debug
      13                    
      14                    $C$DW$1 .dwtag  DW_TAG_subprogram, DW_AT_name("GPIOPinWrite")
      15                            .dwattr $C$DW$1, DW_AT_TI_symbol_name("GPIOPinWrite")
      16                            .dwattr $C$DW$1, DW_AT_declaration
      17                            .dwattr $C$DW$1, DW_AT_external
      18                            .dwattr $C$DW$1, DW_AT_decl_file("C:/ti/TivaWare/driverlib/gpio.h")
      19                            .dwattr $C$DW$1, DW_AT_decl_line(0x9e)
      20                            .dwattr $C$DW$1, DW_AT_decl_column(0x0d)
      21                    $C$DW$2 .dwtag  DW_TAG_formal_parameter
      22                            .dwattr $C$DW$2, DW_AT_type(*$C$DW$T$23)
      23                    $C$DW$3 .dwtag  DW_TAG_formal_parameter
      24                            .dwattr $C$DW$3, DW_AT_type(*$C$DW$T$24)
      25                    $C$DW$4 .dwtag  DW_TAG_formal_parameter
      26                            .dwattr $C$DW$4, DW_AT_type(*$C$DW$T$24)
      27                            .dwendtag $C$DW$1
      28                    
      29                    
      30                    $C$DW$5 .dwtag  DW_TAG_subprogram, DW_AT_name("GPIOPinTypeGPIOOutput")
      31                            .dwattr $C$DW$5, DW_AT_TI_symbol_name("GPIOPinTypeGPIOOutput")
      32                            .dwattr $C$DW$5, DW_AT_declaration
      33                            .dwattr $C$DW$5, DW_AT_external
      34                            .dwattr $C$DW$5, DW_AT_decl_file("C:/ti/TivaWare/driverlib/gpio.h")
      35                            .dwattr $C$DW$5, DW_AT_decl_line(0xa9)
      36                            .dwattr $C$DW$5, DW_AT_decl_column(0x0d)
      37                    $C$DW$6 .dwtag  DW_TAG_formal_parameter
      38                            .dwattr $C$DW$6, DW_AT_type(*$C$DW$T$23)
      39                    $C$DW$7 .dwtag  DW_TAG_formal_parameter
      40                            .dwattr $C$DW$7, DW_AT_type(*$C$DW$T$24)
      41                            .dwendtag $C$DW$5
      42                    
      43                    
      44                    $C$DW$8 .dwtag  DW_TAG_subprogram, DW_AT_name("SysCtlPeripheralEnable")
      45                            .dwattr $C$DW$8, DW_AT_TI_symbol_name("SysCtlPeripheralEnable")
      46                            .dwattr $C$DW$8, DW_AT_declaration
      47                            .dwattr $C$DW$8, DW_AT_external
      48                            .dwattr $C$DW$8, DW_AT_decl_file("C:/ti/TivaWare/driverlib/sysctl.h")
      49                            .dwattr $C$DW$8, DW_AT_decl_line(0x24e)
      50                            .dwattr $C$DW$8, DW_AT_decl_column(0x0d)
      51                    $C$DW$9 .dwtag  DW_TAG_formal_parameter
      52                            .dwattr $C$DW$9, DW_AT_type(*$C$DW$T$23)
      53                            .dwendtag $C$DW$8
      54                    
      55                    
TI ARM Assembler PC v5.2.6 Wed Apr 27 11:03:41 2016

Tools Copyright (c) 1996-2015 Texas Instruments Incorporated
lcd_nokia5510.asm                                                    PAGE    2

      56                    $C$DW$10        .dwtag  DW_TAG_subprogram, DW_AT_name("SysCtlDelay")
      57                            .dwattr $C$DW$10, DW_AT_TI_symbol_name("SysCtlDelay")
      58                            .dwattr $C$DW$10, DW_AT_declaration
      59                            .dwattr $C$DW$10, DW_AT_external
      60                            .dwattr $C$DW$10, DW_AT_decl_file("C:/ti/TivaWare/driverlib/sysctl.h")
      61                            .dwattr $C$DW$10, DW_AT_decl_line(0x268)
      62                            .dwattr $C$DW$10, DW_AT_decl_column(0x0d)
      63                    $C$DW$11        .dwtag  DW_TAG_formal_parameter
      64                            .dwattr $C$DW$11, DW_AT_type(*$C$DW$T$23)
      65                            .dwendtag $C$DW$10
      66                    
      67                    
      68                    $C$DW$12        .dwtag  DW_TAG_subprogram, DW_AT_name("SSI_init")
      69                            .dwattr $C$DW$12, DW_AT_TI_symbol_name("SSI_init")
      70                            .dwattr $C$DW$12, DW_AT_declaration
      71                            .dwattr $C$DW$12, DW_AT_external
      72                            .dwattr $C$DW$12, DW_AT_decl_file("..\tiva_ssi.h")
      73                            .dwattr $C$DW$12, DW_AT_decl_line(0x0b)
      74                            .dwattr $C$DW$12, DW_AT_decl_column(0x06)
      75                    
      76                    $C$DW$13        .dwtag  DW_TAG_subprogram, DW_AT_name("SSI_write")
      77                            .dwattr $C$DW$13, DW_AT_TI_symbol_name("SSI_write")
      78                            .dwattr $C$DW$13, DW_AT_type(*$C$DW$T$24)
      79                            .dwattr $C$DW$13, DW_AT_declaration
      80                            .dwattr $C$DW$13, DW_AT_external
      81                            .dwattr $C$DW$13, DW_AT_decl_file("..\tiva_ssi.h")
      82                            .dwattr $C$DW$13, DW_AT_decl_line(0x0c)
      83                            .dwattr $C$DW$13, DW_AT_decl_column(0x09)
      84                    $C$DW$14        .dwtag  DW_TAG_formal_parameter
      85                            .dwattr $C$DW$14, DW_AT_type(*$C$DW$T$23)
      86                            .dwendtag $C$DW$13
      87                    
      88 00000000                   .sect   ".const:ASCII"
      89                            .clink
      90                            .align  1
      91                            .elfsym ASCII,SYM_SIZE(480)
      92 00000000           ASCII:
      93 00000000 00000000          .bits   0,8                     ; ASCII[0][0] @ 0
      94 00000000 00000000          .bits   0,8                     ; ASCII[0][1] @ 8
      95 00000000 00000000          .bits   0,8                     ; ASCII[0][2] @ 16
      96 00000000 00000000          .bits   0,8                     ; ASCII[0][3] @ 24
      97 00000004 00000000          .bits   0,8                     ; ASCII[0][4] @ 32
      98 00000004 00000000          .bits   0,8                     ; ASCII[1][0] @ 40
      99 00000004 00000000          .bits   0,8                     ; ASCII[1][1] @ 48
     100 00000004 5F000000          .bits   95,8                    ; ASCII[1][2] @ 56
     101 00000008 00000000          .bits   0,8                     ; ASCII[1][3] @ 64
     102 00000008 00000000          .bits   0,8                     ; ASCII[1][4] @ 72
     103 00000008 00000000          .bits   0,8                     ; ASCII[2][0] @ 80
     104 00000008 07000000          .bits   7,8                     ; ASCII[2][1] @ 88
     105 0000000c 00000000          .bits   0,8                     ; ASCII[2][2] @ 96
     106 0000000c 00000700          .bits   7,8                     ; ASCII[2][3] @ 104
     107 0000000c 00000700          .bits   0,8                     ; ASCII[2][4] @ 112
     108 0000000c 14000700          .bits   20,8                    ; ASCII[3][0] @ 120
     109 00000010 0000007F          .bits   127,8                   ; ASCII[3][1] @ 128
     110 00000010 0000147F          .bits   20,8                    ; ASCII[3][2] @ 136
TI ARM Assembler PC v5.2.6 Wed Apr 27 11:03:41 2016

Tools Copyright (c) 1996-2015 Texas Instruments Incorporated
lcd_nokia5510.asm                                                    PAGE    3

     111 00000010 007F147F          .bits   127,8                   ; ASCII[3][3] @ 144
     112 00000010 147F147F          .bits   20,8                    ; ASCII[3][4] @ 152
     113 00000014 00000024          .bits   36,8                    ; ASCII[4][0] @ 160
     114 00000014 00002A24          .bits   42,8                    ; ASCII[4][1] @ 168
     115 00000014 007F2A24          .bits   127,8                   ; ASCII[4][2] @ 176
     116 00000014 2A7F2A24          .bits   42,8                    ; ASCII[4][3] @ 184
     117 00000018 00000012          .bits   18,8                    ; ASCII[4][4] @ 192
     118 00000018 00002312          .bits   35,8                    ; ASCII[5][0] @ 200
     119 00000018 00132312          .bits   19,8                    ; ASCII[5][1] @ 208
     120 00000018 08132312          .bits   8,8                     ; ASCII[5][2] @ 216
     121 0000001c 00000064          .bits   100,8                   ; ASCII[5][3] @ 224
     122 0000001c 00006264          .bits   98,8                    ; ASCII[5][4] @ 232
     123 0000001c 00366264          .bits   54,8                    ; ASCII[6][0] @ 240
     124 0000001c 49366264          .bits   73,8                    ; ASCII[6][1] @ 248
     125 00000020 00000055          .bits   85,8                    ; ASCII[6][2] @ 256
     126 00000020 00002255          .bits   34,8                    ; ASCII[6][3] @ 264
     127 00000020 00502255          .bits   80,8                    ; ASCII[6][4] @ 272
     128 00000020 00502255          .bits   0,8                     ; ASCII[7][0] @ 280
     129 00000024 00000005          .bits   5,8                     ; ASCII[7][1] @ 288
     130 00000024 00000305          .bits   3,8                     ; ASCII[7][2] @ 296
     131 00000024 00000305          .bits   0,8                     ; ASCII[7][3] @ 304
     132 00000024 00000305          .bits   0,8                     ; ASCII[7][4] @ 312
     133 00000028 00000000          .bits   0,8                     ; ASCII[8][0] @ 320
     134 00000028 00001C00          .bits   28,8                    ; ASCII[8][1] @ 328
     135 00000028 00221C00          .bits   34,8                    ; ASCII[8][2] @ 336
     136 00000028 41221C00          .bits   65,8                    ; ASCII[8][3] @ 344
     137 0000002c 00000000          .bits   0,8                     ; ASCII[8][4] @ 352
     138 0000002c 00000000          .bits   0,8                     ; ASCII[9][0] @ 360
     139 0000002c 00410000          .bits   65,8                    ; ASCII[9][1] @ 368
     140 0000002c 22410000          .bits   34,8                    ; ASCII[9][2] @ 376
     141 00000030 0000001C          .bits   28,8                    ; ASCII[9][3] @ 384
     142 00000030 0000001C          .bits   0,8                     ; ASCII[9][4] @ 392
     143 00000030 0014001C          .bits   20,8                    ; ASCII[10][0] @ 400
     144 00000030 0814001C          .bits   8,8                     ; ASCII[10][1] @ 408
     145 00000034 0000003E          .bits   62,8                    ; ASCII[10][2] @ 416
     146 00000034 0000083E          .bits   8,8                     ; ASCII[10][3] @ 424
     147 00000034 0014083E          .bits   20,8                    ; ASCII[10][4] @ 432
     148 00000034 0814083E          .bits   8,8                     ; ASCII[11][0] @ 440
     149 00000038 00000008          .bits   8,8                     ; ASCII[11][1] @ 448
     150 00000038 00003E08          .bits   62,8                    ; ASCII[11][2] @ 456
     151 00000038 00083E08          .bits   8,8                     ; ASCII[11][3] @ 464
     152 00000038 08083E08          .bits   8,8                     ; ASCII[11][4] @ 472
     153 0000003c 00000000          .bits   0,8                     ; ASCII[12][0] @ 480
     154 0000003c 00005000          .bits   80,8                    ; ASCII[12][1] @ 488
     155 0000003c 00305000          .bits   48,8                    ; ASCII[12][2] @ 496
     156 0000003c 00305000          .bits   0,8                     ; ASCII[12][3] @ 504
     157 00000040 00000000          .bits   0,8                     ; ASCII[12][4] @ 512
     158 00000040 00000800          .bits   8,8                     ; ASCII[13][0] @ 520
     159 00000040 00080800          .bits   8,8                     ; ASCII[13][1] @ 528
     160 00000040 08080800          .bits   8,8                     ; ASCII[13][2] @ 536
     161 00000044 00000008          .bits   8,8                     ; ASCII[13][3] @ 544
     162 00000044 00000808          .bits   8,8                     ; ASCII[13][4] @ 552
     163 00000044 00000808          .bits   0,8                     ; ASCII[14][0] @ 560
     164 00000044 60000808          .bits   96,8                    ; ASCII[14][1] @ 568
     165 00000048 00000060          .bits   96,8                    ; ASCII[14][2] @ 576
TI ARM Assembler PC v5.2.6 Wed Apr 27 11:03:41 2016

Tools Copyright (c) 1996-2015 Texas Instruments Incorporated
lcd_nokia5510.asm                                                    PAGE    4

     166 00000048 00000060          .bits   0,8                     ; ASCII[14][3] @ 584
     167 00000048 00000060          .bits   0,8                     ; ASCII[14][4] @ 592
     168 00000048 20000060          .bits   32,8                    ; ASCII[15][0] @ 600
     169 0000004c 00000010          .bits   16,8                    ; ASCII[15][1] @ 608
     170 0000004c 00000810          .bits   8,8                     ; ASCII[15][2] @ 616
     171 0000004c 00040810          .bits   4,8                     ; ASCII[15][3] @ 624
     172 0000004c 02040810          .bits   2,8                     ; ASCII[15][4] @ 632
     173 00000050 0000003E          .bits   62,8                    ; ASCII[16][0] @ 640
     174 00000050 0000513E          .bits   81,8                    ; ASCII[16][1] @ 648
     175 00000050 0049513E          .bits   73,8                    ; ASCII[16][2] @ 656
     176 00000050 4549513E          .bits   69,8                    ; ASCII[16][3] @ 664
     177 00000054 0000003E          .bits   62,8                    ; ASCII[16][4] @ 672
     178 00000054 0000003E          .bits   0,8                     ; ASCII[17][0] @ 680
     179 00000054 0042003E          .bits   66,8                    ; ASCII[17][1] @ 688
     180 00000054 7F42003E          .bits   127,8                   ; ASCII[17][2] @ 696
     181 00000058 00000040          .bits   64,8                    ; ASCII[17][3] @ 704
     182 00000058 00000040          .bits   0,8                     ; ASCII[17][4] @ 712
     183 00000058 00420040          .bits   66,8                    ; ASCII[18][0] @ 720
     184 00000058 61420040          .bits   97,8                    ; ASCII[18][1] @ 728
     185 0000005c 00000051          .bits   81,8                    ; ASCII[18][2] @ 736
     186 0000005c 00004951          .bits   73,8                    ; ASCII[18][3] @ 744
     187 0000005c 00464951          .bits   70,8                    ; ASCII[18][4] @ 752
     188 0000005c 21464951          .bits   33,8                    ; ASCII[19][0] @ 760
     189 00000060 00000041          .bits   65,8                    ; ASCII[19][1] @ 768
     190 00000060 00004541          .bits   69,8                    ; ASCII[19][2] @ 776
     191 00000060 004B4541          .bits   75,8                    ; ASCII[19][3] @ 784
     192 00000060 314B4541          .bits   49,8                    ; ASCII[19][4] @ 792
     193 00000064 00000018          .bits   24,8                    ; ASCII[20][0] @ 800
     194 00000064 00001418          .bits   20,8                    ; ASCII[20][1] @ 808
     195 00000064 00121418          .bits   18,8                    ; ASCII[20][2] @ 816
     196 00000064 7F121418          .bits   127,8                   ; ASCII[20][3] @ 824
     197 00000068 00000010          .bits   16,8                    ; ASCII[20][4] @ 832
     198 00000068 00002710          .bits   39,8                    ; ASCII[21][0] @ 840
     199 00000068 00452710          .bits   69,8                    ; ASCII[21][1] @ 848
     200 00000068 45452710          .bits   69,8                    ; ASCII[21][2] @ 856
     201 0000006c 00000045          .bits   69,8                    ; ASCII[21][3] @ 864
     202 0000006c 00003945          .bits   57,8                    ; ASCII[21][4] @ 872
     203 0000006c 003C3945          .bits   60,8                    ; ASCII[22][0] @ 880
     204 0000006c 4A3C3945          .bits   74,8                    ; ASCII[22][1] @ 888
     205 00000070 00000049          .bits   73,8                    ; ASCII[22][2] @ 896
     206 00000070 00004949          .bits   73,8                    ; ASCII[22][3] @ 904
     207 00000070 00304949          .bits   48,8                    ; ASCII[22][4] @ 912
     208 00000070 01304949          .bits   1,8                     ; ASCII[23][0] @ 920
     209 00000074 00000071          .bits   113,8                   ; ASCII[23][1] @ 928
     210 00000074 00000971          .bits   9,8                     ; ASCII[23][2] @ 936
     211 00000074 00050971          .bits   5,8                     ; ASCII[23][3] @ 944
     212 00000074 03050971          .bits   3,8                     ; ASCII[23][4] @ 952
     213 00000078 00000036          .bits   54,8                    ; ASCII[24][0] @ 960
     214 00000078 00004936          .bits   73,8                    ; ASCII[24][1] @ 968
     215 00000078 00494936          .bits   73,8                    ; ASCII[24][2] @ 976
     216 00000078 49494936          .bits   73,8                    ; ASCII[24][3] @ 984
     217 0000007c 00000036          .bits   54,8                    ; ASCII[24][4] @ 992
     218 0000007c 00000636          .bits   6,8                     ; ASCII[25][0] @ 1000
     219 0000007c 00490636          .bits   73,8                    ; ASCII[25][1] @ 1008
     220 0000007c 49490636          .bits   73,8                    ; ASCII[25][2] @ 1016
TI ARM Assembler PC v5.2.6 Wed Apr 27 11:03:41 2016

Tools Copyright (c) 1996-2015 Texas Instruments Incorporated
lcd_nokia5510.asm                                                    PAGE    5

     221 00000080 00000029          .bits   41,8                    ; ASCII[25][3] @ 1024
     222 00000080 00001E29          .bits   30,8                    ; ASCII[25][4] @ 1032
     223 00000080 00001E29          .bits   0,8                     ; ASCII[26][0] @ 1040
     224 00000080 36001E29          .bits   54,8                    ; ASCII[26][1] @ 1048
     225 00000084 00000036          .bits   54,8                    ; ASCII[26][2] @ 1056
     226 00000084 00000036          .bits   0,8                     ; ASCII[26][3] @ 1064
     227 00000084 00000036          .bits   0,8                     ; ASCII[26][4] @ 1072
     228 00000084 00000036          .bits   0,8                     ; ASCII[27][0] @ 1080
     229 00000088 00000056          .bits   86,8                    ; ASCII[27][1] @ 1088
     230 00000088 00003656          .bits   54,8                    ; ASCII[27][2] @ 1096
     231 00000088 00003656          .bits   0,8                     ; ASCII[27][3] @ 1104
     232 00000088 00003656          .bits   0,8                     ; ASCII[27][4] @ 1112
     233 0000008c 00000008          .bits   8,8                     ; ASCII[28][0] @ 1120
     234 0000008c 00001408          .bits   20,8                    ; ASCII[28][1] @ 1128
     235 0000008c 00221408          .bits   34,8                    ; ASCII[28][2] @ 1136
     236 0000008c 41221408          .bits   65,8                    ; ASCII[28][3] @ 1144
     237 00000090 00000000          .bits   0,8                     ; ASCII[28][4] @ 1152
     238 00000090 00001400          .bits   20,8                    ; ASCII[29][0] @ 1160
     239 00000090 00141400          .bits   20,8                    ; ASCII[29][1] @ 1168
     240 00000090 14141400          .bits   20,8                    ; ASCII[29][2] @ 1176
     241 00000094 00000014          .bits   20,8                    ; ASCII[29][3] @ 1184
     242 00000094 00001414          .bits   20,8                    ; ASCII[29][4] @ 1192
     243 00000094 00001414          .bits   0,8                     ; ASCII[30][0] @ 1200
     244 00000094 41001414          .bits   65,8                    ; ASCII[30][1] @ 1208
     245 00000098 00000022          .bits   34,8                    ; ASCII[30][2] @ 1216
     246 00000098 00001422          .bits   20,8                    ; ASCII[30][3] @ 1224
     247 00000098 00081422          .bits   8,8                     ; ASCII[30][4] @ 1232
     248 00000098 02081422          .bits   2,8                     ; ASCII[31][0] @ 1240
     249 0000009c 00000001          .bits   1,8                     ; ASCII[31][1] @ 1248
     250 0000009c 00005101          .bits   81,8                    ; ASCII[31][2] @ 1256
     251 0000009c 00095101          .bits   9,8                     ; ASCII[31][3] @ 1264
     252 0000009c 06095101          .bits   6,8                     ; ASCII[31][4] @ 1272
     253 000000a0 00000032          .bits   50,8                    ; ASCII[32][0] @ 1280
     254 000000a0 00004932          .bits   73,8                    ; ASCII[32][1] @ 1288
     255 000000a0 00794932          .bits   121,8                   ; ASCII[32][2] @ 1296
     256 000000a0 41794932          .bits   65,8                    ; ASCII[32][3] @ 1304
     257 000000a4 0000003E          .bits   62,8                    ; ASCII[32][4] @ 1312
     258 000000a4 00007E3E          .bits   126,8                   ; ASCII[33][0] @ 1320
     259 000000a4 00117E3E          .bits   17,8                    ; ASCII[33][1] @ 1328
     260 000000a4 11117E3E          .bits   17,8                    ; ASCII[33][2] @ 1336
     261 000000a8 00000011          .bits   17,8                    ; ASCII[33][3] @ 1344
     262 000000a8 00007E11          .bits   126,8                   ; ASCII[33][4] @ 1352
     263 000000a8 007F7E11          .bits   127,8                   ; ASCII[34][0] @ 1360
     264 000000a8 497F7E11          .bits   73,8                    ; ASCII[34][1] @ 1368
     265 000000ac 00000049          .bits   73,8                    ; ASCII[34][2] @ 1376
     266 000000ac 00004949          .bits   73,8                    ; ASCII[34][3] @ 1384
     267 000000ac 00364949          .bits   54,8                    ; ASCII[34][4] @ 1392
     268 000000ac 3E364949          .bits   62,8                    ; ASCII[35][0] @ 1400
     269 000000b0 00000041          .bits   65,8                    ; ASCII[35][1] @ 1408
     270 000000b0 00004141          .bits   65,8                    ; ASCII[35][2] @ 1416
     271 000000b0 00414141          .bits   65,8                    ; ASCII[35][3] @ 1424
     272 000000b0 22414141          .bits   34,8                    ; ASCII[35][4] @ 1432
     273 000000b4 0000007F          .bits   127,8                   ; ASCII[36][0] @ 1440
     274 000000b4 0000417F          .bits   65,8                    ; ASCII[36][1] @ 1448
     275 000000b4 0041417F          .bits   65,8                    ; ASCII[36][2] @ 1456
TI ARM Assembler PC v5.2.6 Wed Apr 27 11:03:41 2016

Tools Copyright (c) 1996-2015 Texas Instruments Incorporated
lcd_nokia5510.asm                                                    PAGE    6

     276 000000b4 2241417F          .bits   34,8                    ; ASCII[36][3] @ 1464
     277 000000b8 0000001C          .bits   28,8                    ; ASCII[36][4] @ 1472
     278 000000b8 00007F1C          .bits   127,8                   ; ASCII[37][0] @ 1480
     279 000000b8 00497F1C          .bits   73,8                    ; ASCII[37][1] @ 1488
     280 000000b8 49497F1C          .bits   73,8                    ; ASCII[37][2] @ 1496
     281 000000bc 00000049          .bits   73,8                    ; ASCII[37][3] @ 1504
     282 000000bc 00004149          .bits   65,8                    ; ASCII[37][4] @ 1512
     283 000000bc 007F4149          .bits   127,8                   ; ASCII[38][0] @ 1520
     284 000000bc 097F4149          .bits   9,8                     ; ASCII[38][1] @ 1528
     285 000000c0 00000009          .bits   9,8                     ; ASCII[38][2] @ 1536
     286 000000c0 00000909          .bits   9,8                     ; ASCII[38][3] @ 1544
     287 000000c0 00010909          .bits   1,8                     ; ASCII[38][4] @ 1552
     288 000000c0 3E010909          .bits   62,8                    ; ASCII[39][0] @ 1560
     289 000000c4 00000041          .bits   65,8                    ; ASCII[39][1] @ 1568
     290 000000c4 00004941          .bits   73,8                    ; ASCII[39][2] @ 1576
     291 000000c4 00494941          .bits   73,8                    ; ASCII[39][3] @ 1584
     292 000000c4 7A494941          .bits   122,8                   ; ASCII[39][4] @ 1592
     293 000000c8 0000007F          .bits   127,8                   ; ASCII[40][0] @ 1600
     294 000000c8 0000087F          .bits   8,8                     ; ASCII[40][1] @ 1608
     295 000000c8 0008087F          .bits   8,8                     ; ASCII[40][2] @ 1616
     296 000000c8 0808087F          .bits   8,8                     ; ASCII[40][3] @ 1624
     297 000000cc 0000007F          .bits   127,8                   ; ASCII[40][4] @ 1632
     298 000000cc 0000007F          .bits   0,8                     ; ASCII[41][0] @ 1640
     299 000000cc 0041007F          .bits   65,8                    ; ASCII[41][1] @ 1648
     300 000000cc 7F41007F          .bits   127,8                   ; ASCII[41][2] @ 1656
     301 000000d0 00000041          .bits   65,8                    ; ASCII[41][3] @ 1664
     302 000000d0 00000041          .bits   0,8                     ; ASCII[41][4] @ 1672
     303 000000d0 00200041          .bits   32,8                    ; ASCII[42][0] @ 1680
     304 000000d0 40200041          .bits   64,8                    ; ASCII[42][1] @ 1688
     305 000000d4 00000041          .bits   65,8                    ; ASCII[42][2] @ 1696
     306 000000d4 00003F41          .bits   63,8                    ; ASCII[42][3] @ 1704
     307 000000d4 00013F41          .bits   1,8                     ; ASCII[42][4] @ 1712
     308 000000d4 7F013F41          .bits   127,8                   ; ASCII[43][0] @ 1720
     309 000000d8 00000008          .bits   8,8                     ; ASCII[43][1] @ 1728
     310 000000d8 00001408          .bits   20,8                    ; ASCII[43][2] @ 1736
     311 000000d8 00221408          .bits   34,8                    ; ASCII[43][3] @ 1744
     312 000000d8 41221408          .bits   65,8                    ; ASCII[43][4] @ 1752
     313 000000dc 0000007F          .bits   127,8                   ; ASCII[44][0] @ 1760
     314 000000dc 0000407F          .bits   64,8                    ; ASCII[44][1] @ 1768
     315 000000dc 0040407F          .bits   64,8                    ; ASCII[44][2] @ 1776
     316 000000dc 4040407F          .bits   64,8                    ; ASCII[44][3] @ 1784
     317 000000e0 00000040          .bits   64,8                    ; ASCII[44][4] @ 1792
     318 000000e0 00007F40          .bits   127,8                   ; ASCII[45][0] @ 1800
     319 000000e0 00027F40          .bits   2,8                     ; ASCII[45][1] @ 1808
     320 000000e0 0C027F40          .bits   12,8                    ; ASCII[45][2] @ 1816
     321 000000e4 00000002          .bits   2,8                     ; ASCII[45][3] @ 1824
     322 000000e4 00007F02          .bits   127,8                   ; ASCII[45][4] @ 1832
     323 000000e4 007F7F02          .bits   127,8                   ; ASCII[46][0] @ 1840
     324 000000e4 047F7F02          .bits   4,8                     ; ASCII[46][1] @ 1848
     325 000000e8 00000008          .bits   8,8                     ; ASCII[46][2] @ 1856
     326 000000e8 00001008          .bits   16,8                    ; ASCII[46][3] @ 1864
     327 000000e8 007F1008          .bits   127,8                   ; ASCII[46][4] @ 1872
     328 000000e8 3E7F1008          .bits   62,8                    ; ASCII[47][0] @ 1880
     329 000000ec 00000041          .bits   65,8                    ; ASCII[47][1] @ 1888
     330 000000ec 00004141          .bits   65,8                    ; ASCII[47][2] @ 1896
TI ARM Assembler PC v5.2.6 Wed Apr 27 11:03:41 2016

Tools Copyright (c) 1996-2015 Texas Instruments Incorporated
lcd_nokia5510.asm                                                    PAGE    7

     331 000000ec 00414141          .bits   65,8                    ; ASCII[47][3] @ 1904
     332 000000ec 3E414141          .bits   62,8                    ; ASCII[47][4] @ 1912
     333 000000f0 0000007F          .bits   127,8                   ; ASCII[48][0] @ 1920
     334 000000f0 0000097F          .bits   9,8                     ; ASCII[48][1] @ 1928
     335 000000f0 0009097F          .bits   9,8                     ; ASCII[48][2] @ 1936
     336 000000f0 0909097F          .bits   9,8                     ; ASCII[48][3] @ 1944
     337 000000f4 00000006          .bits   6,8                     ; ASCII[48][4] @ 1952
     338 000000f4 00003E06          .bits   62,8                    ; ASCII[49][0] @ 1960
     339 000000f4 00413E06          .bits   65,8                    ; ASCII[49][1] @ 1968
     340 000000f4 51413E06          .bits   81,8                    ; ASCII[49][2] @ 1976
     341 000000f8 00000021          .bits   33,8                    ; ASCII[49][3] @ 1984
     342 000000f8 00005E21          .bits   94,8                    ; ASCII[49][4] @ 1992
     343 000000f8 007F5E21          .bits   127,8                   ; ASCII[50][0] @ 2000
     344 000000f8 097F5E21          .bits   9,8                     ; ASCII[50][1] @ 2008
     345 000000fc 00000019          .bits   25,8                    ; ASCII[50][2] @ 2016
     346 000000fc 00002919          .bits   41,8                    ; ASCII[50][3] @ 2024
     347 000000fc 00462919          .bits   70,8                    ; ASCII[50][4] @ 2032
     348 000000fc 46462919          .bits   70,8                    ; ASCII[51][0] @ 2040
     349 00000100 00000049          .bits   73,8                    ; ASCII[51][1] @ 2048
     350 00000100 00004949          .bits   73,8                    ; ASCII[51][2] @ 2056
     351 00000100 00494949          .bits   73,8                    ; ASCII[51][3] @ 2064
     352 00000100 31494949          .bits   49,8                    ; ASCII[51][4] @ 2072
     353 00000104 00000001          .bits   1,8                     ; ASCII[52][0] @ 2080
     354 00000104 00000101          .bits   1,8                     ; ASCII[52][1] @ 2088
     355 00000104 007F0101          .bits   127,8                   ; ASCII[52][2] @ 2096
     356 00000104 017F0101          .bits   1,8                     ; ASCII[52][3] @ 2104
     357 00000108 00000001          .bits   1,8                     ; ASCII[52][4] @ 2112
     358 00000108 00003F01          .bits   63,8                    ; ASCII[53][0] @ 2120
     359 00000108 00403F01          .bits   64,8                    ; ASCII[53][1] @ 2128
     360 00000108 40403F01          .bits   64,8                    ; ASCII[53][2] @ 2136
     361 0000010c 00000040          .bits   64,8                    ; ASCII[53][3] @ 2144
     362 0000010c 00003F40          .bits   63,8                    ; ASCII[53][4] @ 2152
     363 0000010c 001F3F40          .bits   31,8                    ; ASCII[54][0] @ 2160
     364 0000010c 201F3F40          .bits   32,8                    ; ASCII[54][1] @ 2168
     365 00000110 00000040          .bits   64,8                    ; ASCII[54][2] @ 2176
     366 00000110 00002040          .bits   32,8                    ; ASCII[54][3] @ 2184
     367 00000110 001F2040          .bits   31,8                    ; ASCII[54][4] @ 2192
     368 00000110 3F1F2040          .bits   63,8                    ; ASCII[55][0] @ 2200
     369 00000114 00000040          .bits   64,8                    ; ASCII[55][1] @ 2208
     370 00000114 00003840          .bits   56,8                    ; ASCII[55][2] @ 2216
     371 00000114 00403840          .bits   64,8                    ; ASCII[55][3] @ 2224
     372 00000114 3F403840          .bits   63,8                    ; ASCII[55][4] @ 2232
     373 00000118 00000063          .bits   99,8                    ; ASCII[56][0] @ 2240
     374 00000118 00001463          .bits   20,8                    ; ASCII[56][1] @ 2248
     375 00000118 00081463          .bits   8,8                     ; ASCII[56][2] @ 2256
     376 00000118 14081463          .bits   20,8                    ; ASCII[56][3] @ 2264
     377 0000011c 00000063          .bits   99,8                    ; ASCII[56][4] @ 2272
     378 0000011c 00000763          .bits   7,8                     ; ASCII[57][0] @ 2280
     379 0000011c 00080763          .bits   8,8                     ; ASCII[57][1] @ 2288
     380 0000011c 70080763          .bits   112,8                   ; ASCII[57][2] @ 2296
     381 00000120 00000008          .bits   8,8                     ; ASCII[57][3] @ 2304
     382 00000120 00000708          .bits   7,8                     ; ASCII[57][4] @ 2312
     383 00000120 00610708          .bits   97,8                    ; ASCII[58][0] @ 2320
     384 00000120 51610708          .bits   81,8                    ; ASCII[58][1] @ 2328
     385 00000124 00000049          .bits   73,8                    ; ASCII[58][2] @ 2336
TI ARM Assembler PC v5.2.6 Wed Apr 27 11:03:41 2016

Tools Copyright (c) 1996-2015 Texas Instruments Incorporated
lcd_nokia5510.asm                                                    PAGE    8

     386 00000124 00004549          .bits   69,8                    ; ASCII[58][3] @ 2344
     387 00000124 00434549          .bits   67,8                    ; ASCII[58][4] @ 2352
     388 00000124 00434549          .bits   0,8                     ; ASCII[59][0] @ 2360
     389 00000128 0000007F          .bits   127,8                   ; ASCII[59][1] @ 2368
     390 00000128 0000417F          .bits   65,8                    ; ASCII[59][2] @ 2376
     391 00000128 0041417F          .bits   65,8                    ; ASCII[59][3] @ 2384
     392 00000128 0041417F          .bits   0,8                     ; ASCII[59][4] @ 2392
     393 0000012c 00000002          .bits   2,8                     ; ASCII[60][0] @ 2400
     394 0000012c 00000402          .bits   4,8                     ; ASCII[60][1] @ 2408
     395 0000012c 00080402          .bits   8,8                     ; ASCII[60][2] @ 2416
     396 0000012c 10080402          .bits   16,8                    ; ASCII[60][3] @ 2424
     397 00000130 00000020          .bits   32,8                    ; ASCII[60][4] @ 2432
     398 00000130 00000020          .bits   0,8                     ; ASCII[61][0] @ 2440
     399 00000130 00410020          .bits   65,8                    ; ASCII[61][1] @ 2448
     400 00000130 41410020          .bits   65,8                    ; ASCII[61][2] @ 2456
     401 00000134 0000007F          .bits   127,8                   ; ASCII[61][3] @ 2464
     402 00000134 0000007F          .bits   0,8                     ; ASCII[61][4] @ 2472
     403 00000134 0004007F          .bits   4,8                     ; ASCII[62][0] @ 2480
     404 00000134 0204007F          .bits   2,8                     ; ASCII[62][1] @ 2488
     405 00000138 00000001          .bits   1,8                     ; ASCII[62][2] @ 2496
     406 00000138 00000201          .bits   2,8                     ; ASCII[62][3] @ 2504
     407 00000138 00040201          .bits   4,8                     ; ASCII[62][4] @ 2512
     408 00000138 40040201          .bits   64,8                    ; ASCII[63][0] @ 2520
     409 0000013c 00000040          .bits   64,8                    ; ASCII[63][1] @ 2528
     410 0000013c 00004040          .bits   64,8                    ; ASCII[63][2] @ 2536
     411 0000013c 00404040          .bits   64,8                    ; ASCII[63][3] @ 2544
     412 0000013c 40404040          .bits   64,8                    ; ASCII[63][4] @ 2552
     413 00000140 00000000          .bits   0,8                     ; ASCII[64][0] @ 2560
     414 00000140 00000100          .bits   1,8                     ; ASCII[64][1] @ 2568
     415 00000140 00020100          .bits   2,8                     ; ASCII[64][2] @ 2576
     416 00000140 04020100          .bits   4,8                     ; ASCII[64][3] @ 2584
     417 00000144 00000000          .bits   0,8                     ; ASCII[64][4] @ 2592
     418 00000144 00002000          .bits   32,8                    ; ASCII[65][0] @ 2600
     419 00000144 00542000          .bits   84,8                    ; ASCII[65][1] @ 2608
     420 00000144 54542000          .bits   84,8                    ; ASCII[65][2] @ 2616
     421 00000148 00000054          .bits   84,8                    ; ASCII[65][3] @ 2624
     422 00000148 00007854          .bits   120,8                   ; ASCII[65][4] @ 2632
     423 00000148 007F7854          .bits   127,8                   ; ASCII[66][0] @ 2640
     424 00000148 487F7854          .bits   72,8                    ; ASCII[66][1] @ 2648
     425 0000014c 00000044          .bits   68,8                    ; ASCII[66][2] @ 2656
     426 0000014c 00004444          .bits   68,8                    ; ASCII[66][3] @ 2664
     427 0000014c 00384444          .bits   56,8                    ; ASCII[66][4] @ 2672
     428 0000014c 38384444          .bits   56,8                    ; ASCII[67][0] @ 2680
     429 00000150 00000044          .bits   68,8                    ; ASCII[67][1] @ 2688
     430 00000150 00004444          .bits   68,8                    ; ASCII[67][2] @ 2696
     431 00000150 00444444          .bits   68,8                    ; ASCII[67][3] @ 2704
     432 00000150 20444444          .bits   32,8                    ; ASCII[67][4] @ 2712
     433 00000154 00000038          .bits   56,8                    ; ASCII[68][0] @ 2720
     434 00000154 00004438          .bits   68,8                    ; ASCII[68][1] @ 2728
     435 00000154 00444438          .bits   68,8                    ; ASCII[68][2] @ 2736
     436 00000154 48444438          .bits   72,8                    ; ASCII[68][3] @ 2744
     437 00000158 0000007F          .bits   127,8                   ; ASCII[68][4] @ 2752
     438 00000158 0000387F          .bits   56,8                    ; ASCII[69][0] @ 2760
     439 00000158 0054387F          .bits   84,8                    ; ASCII[69][1] @ 2768
     440 00000158 5454387F          .bits   84,8                    ; ASCII[69][2] @ 2776
TI ARM Assembler PC v5.2.6 Wed Apr 27 11:03:41 2016

Tools Copyright (c) 1996-2015 Texas Instruments Incorporated
lcd_nokia5510.asm                                                    PAGE    9

     441 0000015c 00000054          .bits   84,8                    ; ASCII[69][3] @ 2784
     442 0000015c 00001854          .bits   24,8                    ; ASCII[69][4] @ 2792
     443 0000015c 00081854          .bits   8,8                     ; ASCII[70][0] @ 2800
     444 0000015c 7E081854          .bits   126,8                   ; ASCII[70][1] @ 2808
     445 00000160 00000009          .bits   9,8                     ; ASCII[70][2] @ 2816
     446 00000160 00000109          .bits   1,8                     ; ASCII[70][3] @ 2824
     447 00000160 00020109          .bits   2,8                     ; ASCII[70][4] @ 2832
     448 00000160 0C020109          .bits   12,8                    ; ASCII[71][0] @ 2840
     449 00000164 00000052          .bits   82,8                    ; ASCII[71][1] @ 2848
     450 00000164 00005252          .bits   82,8                    ; ASCII[71][2] @ 2856
     451 00000164 00525252          .bits   82,8                    ; ASCII[71][3] @ 2864
     452 00000164 3E525252          .bits   62,8                    ; ASCII[71][4] @ 2872
     453 00000168 0000007F          .bits   127,8                   ; ASCII[72][0] @ 2880
     454 00000168 0000087F          .bits   8,8                     ; ASCII[72][1] @ 2888
     455 00000168 0004087F          .bits   4,8                     ; ASCII[72][2] @ 2896
     456 00000168 0404087F          .bits   4,8                     ; ASCII[72][3] @ 2904
     457 0000016c 00000078          .bits   120,8                   ; ASCII[72][4] @ 2912
     458 0000016c 00000078          .bits   0,8                     ; ASCII[73][0] @ 2920
     459 0000016c 00440078          .bits   68,8                    ; ASCII[73][1] @ 2928
     460 0000016c 7D440078          .bits   125,8                   ; ASCII[73][2] @ 2936
     461 00000170 00000040          .bits   64,8                    ; ASCII[73][3] @ 2944
     462 00000170 00000040          .bits   0,8                     ; ASCII[73][4] @ 2952
     463 00000170 00200040          .bits   32,8                    ; ASCII[74][0] @ 2960
     464 00000170 40200040          .bits   64,8                    ; ASCII[74][1] @ 2968
     465 00000174 00000044          .bits   68,8                    ; ASCII[74][2] @ 2976
     466 00000174 00003D44          .bits   61,8                    ; ASCII[74][3] @ 2984
     467 00000174 00003D44          .bits   0,8                     ; ASCII[74][4] @ 2992
     468 00000174 7F003D44          .bits   127,8                   ; ASCII[75][0] @ 3000
     469 00000178 00000010          .bits   16,8                    ; ASCII[75][1] @ 3008
     470 00000178 00002810          .bits   40,8                    ; ASCII[75][2] @ 3016
     471 00000178 00442810          .bits   68,8                    ; ASCII[75][3] @ 3024
     472 00000178 00442810          .bits   0,8                     ; ASCII[75][4] @ 3032
     473 0000017c 00000000          .bits   0,8                     ; ASCII[76][0] @ 3040
     474 0000017c 00004100          .bits   65,8                    ; ASCII[76][1] @ 3048
     475 0000017c 007F4100          .bits   127,8                   ; ASCII[76][2] @ 3056
     476 0000017c 407F4100          .bits   64,8                    ; ASCII[76][3] @ 3064
     477 00000180 00000000          .bits   0,8                     ; ASCII[76][4] @ 3072
     478 00000180 00007C00          .bits   124,8                   ; ASCII[77][0] @ 3080
     479 00000180 00047C00          .bits   4,8                     ; ASCII[77][1] @ 3088
     480 00000180 18047C00          .bits   24,8                    ; ASCII[77][2] @ 3096
     481 00000184 00000004          .bits   4,8                     ; ASCII[77][3] @ 3104
     482 00000184 00007804          .bits   120,8                   ; ASCII[77][4] @ 3112
     483 00000184 007C7804          .bits   124,8                   ; ASCII[78][0] @ 3120
     484 00000184 087C7804          .bits   8,8                     ; ASCII[78][1] @ 3128
     485 00000188 00000004          .bits   4,8                     ; ASCII[78][2] @ 3136
     486 00000188 00000404          .bits   4,8                     ; ASCII[78][3] @ 3144
     487 00000188 00780404          .bits   120,8                   ; ASCII[78][4] @ 3152
     488 00000188 38780404          .bits   56,8                    ; ASCII[79][0] @ 3160
     489 0000018c 00000044          .bits   68,8                    ; ASCII[79][1] @ 3168
     490 0000018c 00004444          .bits   68,8                    ; ASCII[79][2] @ 3176
     491 0000018c 00444444          .bits   68,8                    ; ASCII[79][3] @ 3184
     492 0000018c 38444444          .bits   56,8                    ; ASCII[79][4] @ 3192
     493 00000190 0000007C          .bits   124,8                   ; ASCII[80][0] @ 3200
     494 00000190 0000147C          .bits   20,8                    ; ASCII[80][1] @ 3208
     495 00000190 0014147C          .bits   20,8                    ; ASCII[80][2] @ 3216
TI ARM Assembler PC v5.2.6 Wed Apr 27 11:03:41 2016

Tools Copyright (c) 1996-2015 Texas Instruments Incorporated
lcd_nokia5510.asm                                                    PAGE   10

     496 00000190 1414147C          .bits   20,8                    ; ASCII[80][3] @ 3224
     497 00000194 00000008          .bits   8,8                     ; ASCII[80][4] @ 3232
     498 00000194 00000808          .bits   8,8                     ; ASCII[81][0] @ 3240
     499 00000194 00140808          .bits   20,8                    ; ASCII[81][1] @ 3248
     500 00000194 14140808          .bits   20,8                    ; ASCII[81][2] @ 3256
     501 00000198 00000018          .bits   24,8                    ; ASCII[81][3] @ 3264
     502 00000198 00007C18          .bits   124,8                   ; ASCII[81][4] @ 3272
     503 00000198 007C7C18          .bits   124,8                   ; ASCII[82][0] @ 3280
     504 00000198 087C7C18          .bits   8,8                     ; ASCII[82][1] @ 3288
     505 0000019c 00000004          .bits   4,8                     ; ASCII[82][2] @ 3296
     506 0000019c 00000404          .bits   4,8                     ; ASCII[82][3] @ 3304
     507 0000019c 00080404          .bits   8,8                     ; ASCII[82][4] @ 3312
     508 0000019c 48080404          .bits   72,8                    ; ASCII[83][0] @ 3320
     509 000001a0 00000054          .bits   84,8                    ; ASCII[83][1] @ 3328
     510 000001a0 00005454          .bits   84,8                    ; ASCII[83][2] @ 3336
     511 000001a0 00545454          .bits   84,8                    ; ASCII[83][3] @ 3344
     512 000001a0 20545454          .bits   32,8                    ; ASCII[83][4] @ 3352
     513 000001a4 00000004          .bits   4,8                     ; ASCII[84][0] @ 3360
     514 000001a4 00003F04          .bits   63,8                    ; ASCII[84][1] @ 3368
     515 000001a4 00443F04          .bits   68,8                    ; ASCII[84][2] @ 3376
     516 000001a4 40443F04          .bits   64,8                    ; ASCII[84][3] @ 3384
     517 000001a8 00000020          .bits   32,8                    ; ASCII[84][4] @ 3392
     518 000001a8 00003C20          .bits   60,8                    ; ASCII[85][0] @ 3400
     519 000001a8 00403C20          .bits   64,8                    ; ASCII[85][1] @ 3408
     520 000001a8 40403C20          .bits   64,8                    ; ASCII[85][2] @ 3416
     521 000001ac 00000020          .bits   32,8                    ; ASCII[85][3] @ 3424
     522 000001ac 00007C20          .bits   124,8                   ; ASCII[85][4] @ 3432
     523 000001ac 001C7C20          .bits   28,8                    ; ASCII[86][0] @ 3440
     524 000001ac 201C7C20          .bits   32,8                    ; ASCII[86][1] @ 3448
     525 000001b0 00000040          .bits   64,8                    ; ASCII[86][2] @ 3456
     526 000001b0 00002040          .bits   32,8                    ; ASCII[86][3] @ 3464
     527 000001b0 001C2040          .bits   28,8                    ; ASCII[86][4] @ 3472
     528 000001b0 3C1C2040          .bits   60,8                    ; ASCII[87][0] @ 3480
     529 000001b4 00000040          .bits   64,8                    ; ASCII[87][1] @ 3488
     530 000001b4 00003040          .bits   48,8                    ; ASCII[87][2] @ 3496
     531 000001b4 00403040          .bits   64,8                    ; ASCII[87][3] @ 3504
     532 000001b4 3C403040          .bits   60,8                    ; ASCII[87][4] @ 3512
     533 000001b8 00000044          .bits   68,8                    ; ASCII[88][0] @ 3520
     534 000001b8 00002844          .bits   40,8                    ; ASCII[88][1] @ 3528
     535 000001b8 00102844          .bits   16,8                    ; ASCII[88][2] @ 3536
     536 000001b8 28102844          .bits   40,8                    ; ASCII[88][3] @ 3544
     537 000001bc 00000044          .bits   68,8                    ; ASCII[88][4] @ 3552
     538 000001bc 00000C44          .bits   12,8                    ; ASCII[89][0] @ 3560
     539 000001bc 00500C44          .bits   80,8                    ; ASCII[89][1] @ 3568
     540 000001bc 50500C44          .bits   80,8                    ; ASCII[89][2] @ 3576
     541 000001c0 00000050          .bits   80,8                    ; ASCII[89][3] @ 3584
     542 000001c0 00003C50          .bits   60,8                    ; ASCII[89][4] @ 3592
     543 000001c0 00443C50          .bits   68,8                    ; ASCII[90][0] @ 3600
     544 000001c0 64443C50          .bits   100,8                   ; ASCII[90][1] @ 3608
     545 000001c4 00000054          .bits   84,8                    ; ASCII[90][2] @ 3616
     546 000001c4 00004C54          .bits   76,8                    ; ASCII[90][3] @ 3624
     547 000001c4 00444C54          .bits   68,8                    ; ASCII[90][4] @ 3632
     548 000001c4 00444C54          .bits   0,8                     ; ASCII[91][0] @ 3640
     549 000001c8 00000008          .bits   8,8                     ; ASCII[91][1] @ 3648
     550 000001c8 00003608          .bits   54,8                    ; ASCII[91][2] @ 3656
TI ARM Assembler PC v5.2.6 Wed Apr 27 11:03:41 2016

Tools Copyright (c) 1996-2015 Texas Instruments Incorporated
lcd_nokia5510.asm                                                    PAGE   11

     551 000001c8 00413608          .bits   65,8                    ; ASCII[91][3] @ 3664
     552 000001c8 00413608          .bits   0,8                     ; ASCII[91][4] @ 3672
     553 000001cc 00000000          .bits   0,8                     ; ASCII[92][0] @ 3680
     554 000001cc 00000000          .bits   0,8                     ; ASCII[92][1] @ 3688
     555 000001cc 007F0000          .bits   127,8                   ; ASCII[92][2] @ 3696
     556 000001cc 007F0000          .bits   0,8                     ; ASCII[92][3] @ 3704
     557 000001d0 00000000          .bits   0,8                     ; ASCII[92][4] @ 3712
     558 000001d0 00000000          .bits   0,8                     ; ASCII[93][0] @ 3720
     559 000001d0 00410000          .bits   65,8                    ; ASCII[93][1] @ 3728
     560 000001d0 36410000          .bits   54,8                    ; ASCII[93][2] @ 3736
     561 000001d4 00000008          .bits   8,8                     ; ASCII[93][3] @ 3744
     562 000001d4 00000008          .bits   0,8                     ; ASCII[93][4] @ 3752
     563 000001d4 00100008          .bits   16,8                    ; ASCII[94][0] @ 3760
     564 000001d4 08100008          .bits   8,8                     ; ASCII[94][1] @ 3768
     565 000001d8 00000008          .bits   8,8                     ; ASCII[94][2] @ 3776
     566 000001d8 00001008          .bits   16,8                    ; ASCII[94][3] @ 3784
     567 000001d8 00081008          .bits   8,8                     ; ASCII[94][4] @ 3792
     568 000001d8 78081008          .bits   120,8                   ; ASCII[95][0] @ 3800
     569 000001dc 00000046          .bits   70,8                    ; ASCII[95][1] @ 3808
     570 000001dc 00004146          .bits   65,8                    ; ASCII[95][2] @ 3816
     571 000001dc 00464146          .bits   70,8                    ; ASCII[95][3] @ 3824
     572 000001dc 78464146          .bits   120,8                   ; ASCII[95][4] @ 3832
     573                    
     574                    $C$DW$15        .dwtag  DW_TAG_variable, DW_AT_name("ASCII")
     575                            .dwattr $C$DW$15, DW_AT_TI_symbol_name("ASCII")
     576                            .dwattr $C$DW$15, DW_AT_type(*$C$DW$T$50)
     577                            .dwattr $C$DW$15, DW_AT_location[DW_OP_addr ASCII]
     578                            .dwattr $C$DW$15, DW_AT_decl_file("../lcd_nokia5510.c")
     579                            .dwattr $C$DW$15, DW_AT_decl_line(0x16)
     580                            .dwattr $C$DW$15, DW_AT_decl_column(0x16)
     581                    ;       C:\ti\ccsv6\tools\compiler\ti-cgt-arm_5.2.6\bin\armacpia.exe -@C:\\Users\\dcosas\\AppData\\Loc
     582 00000000                   .sect   ".text:nokiaLCDwrite"
     583                            .clink
     584                            .thumbfunc nokiaLCDwrite
     585 00000000                   .thumb
     586                            .global nokiaLCDwrite
     587                    
     588                    $C$DW$16        .dwtag  DW_TAG_subprogram, DW_AT_name("nokiaLCDwrite")
     589                            .dwattr $C$DW$16, DW_AT_low_pc(nokiaLCDwrite)
     590                            .dwattr $C$DW$16, DW_AT_high_pc(0x00)
     591                            .dwattr $C$DW$16, DW_AT_TI_symbol_name("nokiaLCDwrite")
     592                            .dwattr $C$DW$16, DW_AT_external
     593                            .dwattr $C$DW$16, DW_AT_TI_begin_file("../lcd_nokia5510.c")
     594                            .dwattr $C$DW$16, DW_AT_TI_begin_line(0x7b)
     595                            .dwattr $C$DW$16, DW_AT_TI_begin_column(0x06)
     596                            .dwattr $C$DW$16, DW_AT_decl_file("../lcd_nokia5510.c")
     597                            .dwattr $C$DW$16, DW_AT_decl_line(0x7b)
     598                            .dwattr $C$DW$16, DW_AT_decl_column(0x06)
     599                            .dwattr $C$DW$16, DW_AT_TI_max_frame_size(0x08)
     600                            .dwpsn  file "../lcd_nokia5510.c",line 124,column 1,is_stmt,address nokiaLCDwrite,isa 1
     601                    
     602                            .dwfde $C$DW$CIE, nokiaLCDwrite
     603                    $C$DW$17        .dwtag  DW_TAG_formal_parameter, DW_AT_name("dataCommand")
     604                            .dwattr $C$DW$17, DW_AT_TI_symbol_name("dataCommand")
     605                            .dwattr $C$DW$17, DW_AT_type(*$C$DW$T$24)
TI ARM Assembler PC v5.2.6 Wed Apr 27 11:03:41 2016

Tools Copyright (c) 1996-2015 Texas Instruments Incorporated
lcd_nokia5510.asm                                                    PAGE   12

     606                            .dwattr $C$DW$17, DW_AT_location[DW_OP_reg0]
     607                    $C$DW$18        .dwtag  DW_TAG_formal_parameter, DW_AT_name("data")
     608                            .dwattr $C$DW$18, DW_AT_TI_symbol_name("data")
     609                            .dwattr $C$DW$18, DW_AT_type(*$C$DW$T$24)
     610                            .dwattr $C$DW$18, DW_AT_location[DW_OP_reg1]
     611                    ;----------------------------------------------------------------------
     612                    ; 123 | void nokiaLCDwrite(uint8_t dataCommand, uint8_t data)                  
     613                    ;----------------------------------------------------------------------
     614                    
     615                    ;*****************************************************************************
     616                    ;* FUNCTION NAME: nokiaLCDwrite                                              *
     617                    ;*                                                                           *
     618                    ;*   Regs Modified     : A1,A2,A3,A4,V9,SP,LR,SR,D0,D0_hi,D1,D1_hi,D2,D2_hi, *
     619                    ;*                           D3,D3_hi,D4,D4_hi,D5,D5_hi,D6,D6_hi,D7,D7_hi,   *
     620                    ;*                           FPEXC,FPSCR                                     *
     621                    ;*   Regs Used         : A1,A2,A3,A4,V9,SP,LR,SR,D0,D0_hi,D1,D1_hi,D2,D2_hi, *
     622                    ;*                           D3,D3_hi,D4,D4_hi,D5,D5_hi,D6,D6_hi,D7,D7_hi,   *
     623                    ;*                           FPEXC,FPSCR                                     *
     624                    ;*   Local Frame Size  : 0 Args + 4 Auto + 4 Save = 8 byte                   *
     625                    ;*****************************************************************************
     626 00000000           nokiaLCDwrite:
     627                    ;* --------------------------------------------------------------------------*
     628                            .dwcfi  cfa_offset, 0
     629 00000000 B508              PUSH      {A4, LR}              ; [DPU_3_PIPE]  ; [ORIG 16-BIT INS]
     630                            .dwcfi  cfa_offset, 8
     631                            .dwcfi  save_reg_to_mem, 14, -4
     632                            .dwcfi  save_reg_to_mem, 3, -8
     633                    $C$DW$19        .dwtag  DW_TAG_variable, DW_AT_name("dataCommand")
     634                            .dwattr $C$DW$19, DW_AT_TI_symbol_name("dataCommand")
     635                            .dwattr $C$DW$19, DW_AT_type(*$C$DW$T$24)
     636                            .dwattr $C$DW$19, DW_AT_location[DW_OP_breg13 0]
     637                    $C$DW$20        .dwtag  DW_TAG_variable, DW_AT_name("data")
     638                            .dwattr $C$DW$20, DW_AT_TI_symbol_name("data")
     639                            .dwattr $C$DW$20, DW_AT_type(*$C$DW$T$24)
     640                            .dwattr $C$DW$20, DW_AT_location[DW_OP_breg13 1]
     641 00000002 1001F88D          STRB      A2, [SP, #1]          ; [DPU_3_PIPE] |124|  ; [KEEP 32-BIT INS]
     642 00000006 0000F88D          STRB      A1, [SP, #0]          ; [DPU_3_PIPE] |124|  ; [KEEP 32-BIT INS]
     643                            .dwpsn  file "../lcd_nokia5510.c",line 125,column 2,is_stmt,isa 1
     644                    ;----------------------------------------------------------------------
     645                    ; 125 | if(dataCommand)                                                        
     646                    ;----------------------------------------------------------------------
     647 0000000a 0000F89D          LDRB      A1, [SP, #0]          ; [DPU_3_PIPE] |125|  ; [KEEP 32-BIT INS]
     648 0000000e B130              CBZ       A1, ||$C$L1||         ; []  ; [ORIG 16-BIT INS]
     649                            ; BRANCHCC OCCURS {||$C$L1||}    ; [] |125| 
     650                    ;* --------------------------------------------------------------------------*
     651                            .dwpsn  file "../lcd_nokia5510.c",line 126,column 3,is_stmt,isa 1
     652                    ;----------------------------------------------------------------------
     653                    ; 126 | GPIOPinWrite(GPIO_PORTA_BASE, GPIO_PIN_6, GPIO_PIN_6);                 
     654                    ; 127 | else                                                                   
     655                    ;----------------------------------------------------------------------
     656 00000010 2040F04F          MOV       A1, #1073758208       ; [DPU_3_PIPE] |126|  ; [KEEP 32-BIT INS]
     657 00000014 2140              MOVS      A2, #64               ; [DPU_3_PIPE] |126|  ; [ORIG 16-BIT INS]
     658 00000016 2240              MOVS      A3, #64               ; [DPU_3_PIPE] |126|  ; [ORIG 16-BIT INS]
     659                    $C$DW$21        .dwtag  DW_TAG_TI_branch
     660                            .dwattr $C$DW$21, DW_AT_low_pc(0x00)
TI ARM Assembler PC v5.2.6 Wed Apr 27 11:03:41 2016

Tools Copyright (c) 1996-2015 Texas Instruments Incorporated
lcd_nokia5510.asm                                                    PAGE   13

     661                            .dwattr $C$DW$21, DW_AT_name("GPIOPinWrite")
     662                            .dwattr $C$DW$21, DW_AT_TI_call
     663 00000018 FFFEF7FF!         BL        GPIOPinWrite          ; [DPU_3_PIPE] |126|  ; [KEEP 32-BIT INS]
     664                            ; CALL OCCURS {GPIOPinWrite }    ; [] |126| 
     665 0000001c E005              B         ||$C$L2||             ; [DPU_3_PIPE] |126|  ; [ORIG 16-BIT INS]
     666                            ; BRANCH OCCURS {||$C$L2||}      ; [] |126| 
     667                    ;* --------------------------------------------------------------------------*
     668 0000001e           ||$C$L1||:    
     669                            .dwpsn  file "../lcd_nokia5510.c",line 128,column 3,is_stmt,isa 1
     670                    ;----------------------------------------------------------------------
     671                    ; 128 | GPIOPinWrite(GPIO_PORTA_BASE, GPIO_PIN_6, 0);                          
     672                    ;----------------------------------------------------------------------
     673 0000001e 2040F04F          MOV       A1, #1073758208       ; [DPU_3_PIPE] |128|  ; [KEEP 32-BIT INS]
     674 00000022 2140              MOVS      A2, #64               ; [DPU_3_PIPE] |128|  ; [ORIG 16-BIT INS]
     675 00000024 2200              MOVS      A3, #0                ; [DPU_3_PIPE] |128|  ; [ORIG 16-BIT INS]
     676                    $C$DW$22        .dwtag  DW_TAG_TI_branch
     677                            .dwattr $C$DW$22, DW_AT_low_pc(0x00)
     678                            .dwattr $C$DW$22, DW_AT_name("GPIOPinWrite")
     679                            .dwattr $C$DW$22, DW_AT_TI_call
     680 00000026 FFFEF7FF!         BL        GPIOPinWrite          ; [DPU_3_PIPE] |128|  ; [KEEP 32-BIT INS]
     681                            ; CALL OCCURS {GPIOPinWrite }    ; [] |128| 
     682                    ;* --------------------------------------------------------------------------*
     683 0000002a           ||$C$L2||:    
     684                            .dwpsn  file "../lcd_nokia5510.c",line 130,column 2,is_stmt,isa 1
     685                    ;----------------------------------------------------------------------
     686                    ; 130 | GPIOPinWrite(GPIO_PORTB_BASE, GPIO_PIN_0, 0);                          
     687                    ; 131 | //GPIOPinWrite(GPIO_PORTA_BASE, GPIO_PIN_3, 0);                        
     688                    ;----------------------------------------------------------------------
     689 0000002a 4807              LDR       A1, $C$CON1           ; [DPU_3_PIPE] |130|  ; [ORIG 16-BIT INS]
     690 0000002c 2101              MOVS      A2, #1                ; [DPU_3_PIPE] |130|  ; [ORIG 16-BIT INS]
     691 0000002e 2200              MOVS      A3, #0                ; [DPU_3_PIPE] |130|  ; [ORIG 16-BIT INS]
     692                    $C$DW$23        .dwtag  DW_TAG_TI_branch
     693                            .dwattr $C$DW$23, DW_AT_low_pc(0x00)
     694                            .dwattr $C$DW$23, DW_AT_name("GPIOPinWrite")
     695                            .dwattr $C$DW$23, DW_AT_TI_call
     696 00000030 FFFEF7FF!         BL        GPIOPinWrite          ; [DPU_3_PIPE] |130|  ; [KEEP 32-BIT INS]
     697                            ; CALL OCCURS {GPIOPinWrite }    ; [] |130| 
     698                            .dwpsn  file "../lcd_nokia5510.c",line 132,column 2,is_stmt,isa 1
     699                    ;----------------------------------------------------------------------
     700                    ; 132 | SSI_write(data);                                                       
     701                    ; 133 | //GPIOPinWrite(GPIO_PORTA_BASE, GPIO_PIN_3, GPIO_PIN_3);               
     702                    ;----------------------------------------------------------------------
     703 00000034 0001F89D          LDRB      A1, [SP, #1]          ; [DPU_3_PIPE] |132|  ; [KEEP 32-BIT INS]
     704                    $C$DW$24        .dwtag  DW_TAG_TI_branch
     705                            .dwattr $C$DW$24, DW_AT_low_pc(0x00)
     706                            .dwattr $C$DW$24, DW_AT_name("SSI_write")
     707                            .dwattr $C$DW$24, DW_AT_TI_call
     708 00000038 FFFEF7FF!         BL        SSI_write             ; [DPU_3_PIPE] |132|  ; [KEEP 32-BIT INS]
     709                            ; CALL OCCURS {SSI_write }       ; [] |132| 
     710                            .dwpsn  file "../lcd_nokia5510.c",line 134,column 2,is_stmt,isa 1
     711                    ;----------------------------------------------------------------------
     712                    ; 134 | GPIOPinWrite(GPIO_PORTB_BASE, GPIO_PIN_0, GPIO_PIN_0);                 
     713                    ;----------------------------------------------------------------------
     714 0000003c 4802              LDR       A1, $C$CON1           ; [DPU_3_PIPE] |134|  ; [ORIG 16-BIT INS]
     715 0000003e 2101              MOVS      A2, #1                ; [DPU_3_PIPE] |134|  ; [ORIG 16-BIT INS]
TI ARM Assembler PC v5.2.6 Wed Apr 27 11:03:41 2016

Tools Copyright (c) 1996-2015 Texas Instruments Incorporated
lcd_nokia5510.asm                                                    PAGE   14

     716 00000040 2201              MOVS      A3, #1                ; [DPU_3_PIPE] |134|  ; [ORIG 16-BIT INS]
     717                    $C$DW$25        .dwtag  DW_TAG_TI_branch
     718                            .dwattr $C$DW$25, DW_AT_low_pc(0x00)
     719                            .dwattr $C$DW$25, DW_AT_name("GPIOPinWrite")
     720                            .dwattr $C$DW$25, DW_AT_TI_call
     721 00000042 FFFEF7FF!         BL        GPIOPinWrite          ; [DPU_3_PIPE] |134|  ; [KEEP 32-BIT INS]
     722                            ; CALL OCCURS {GPIOPinWrite }    ; [] |134| 
     723                            .dwpsn  file "../lcd_nokia5510.c",line 135,column 1,is_stmt,isa 1
     724                    $C$DW$26        .dwtag  DW_TAG_TI_branch
     725                            .dwattr $C$DW$26, DW_AT_low_pc(0x00)
     726                            .dwattr $C$DW$26, DW_AT_TI_return
     727 00000046 BD08              POP       {A4, PC}              ; [DPU_3_PIPE]  ; [ORIG 16-BIT INS]
     728                            .dwcfi  cfa_offset, 0
     729                            ; BRANCH OCCURS                  ; [] 
     730                            .dwattr $C$DW$16, DW_AT_TI_end_file("../lcd_nokia5510.c")
     731                            .dwattr $C$DW$16, DW_AT_TI_end_line(0x87)
     732                            .dwattr $C$DW$16, DW_AT_TI_end_column(0x01)
     733                            .dwendentry
     734                            .dwendtag $C$DW$16
     735                    
     736 00000000                   .sect   ".text:nokiaLCDsetXY"
     737                            .clink
     738                            .thumbfunc nokiaLCDsetXY
     739 00000000                   .thumb
     740                            .global nokiaLCDsetXY
     741                    
     742                    $C$DW$27        .dwtag  DW_TAG_subprogram, DW_AT_name("nokiaLCDsetXY")
     743                            .dwattr $C$DW$27, DW_AT_low_pc(nokiaLCDsetXY)
     744                            .dwattr $C$DW$27, DW_AT_high_pc(0x00)
     745                            .dwattr $C$DW$27, DW_AT_TI_symbol_name("nokiaLCDsetXY")
     746                            .dwattr $C$DW$27, DW_AT_external
     747                            .dwattr $C$DW$27, DW_AT_TI_begin_file("../lcd_nokia5510.c")
     748                            .dwattr $C$DW$27, DW_AT_TI_begin_line(0x89)
     749                            .dwattr $C$DW$27, DW_AT_TI_begin_column(0x06)
     750                            .dwattr $C$DW$27, DW_AT_decl_file("../lcd_nokia5510.c")
     751                            .dwattr $C$DW$27, DW_AT_decl_line(0x89)
     752                            .dwattr $C$DW$27, DW_AT_decl_column(0x06)
     753                            .dwattr $C$DW$27, DW_AT_TI_max_frame_size(0x08)
     754                            .dwpsn  file "../lcd_nokia5510.c",line 138,column 1,is_stmt,address nokiaLCDsetXY,isa 1
     755                    
     756                            .dwfde $C$DW$CIE, nokiaLCDsetXY
     757                    $C$DW$28        .dwtag  DW_TAG_formal_parameter, DW_AT_name("x")
     758                            .dwattr $C$DW$28, DW_AT_TI_symbol_name("x")
     759                            .dwattr $C$DW$28, DW_AT_type(*$C$DW$T$24)
     760                            .dwattr $C$DW$28, DW_AT_location[DW_OP_reg0]
     761                    $C$DW$29        .dwtag  DW_TAG_formal_parameter, DW_AT_name("y")
     762                            .dwattr $C$DW$29, DW_AT_TI_symbol_name("y")
     763                            .dwattr $C$DW$29, DW_AT_type(*$C$DW$T$24)
     764                            .dwattr $C$DW$29, DW_AT_location[DW_OP_reg1]
     765                    ;----------------------------------------------------------------------
     766                    ; 137 | void nokiaLCDsetXY(uint8_t x, uint8_t y)                               
     767                    ;----------------------------------------------------------------------
     768                    
     769                    ;*****************************************************************************
     770                    ;* FUNCTION NAME: nokiaLCDsetXY                                              *
TI ARM Assembler PC v5.2.6 Wed Apr 27 11:03:41 2016

Tools Copyright (c) 1996-2015 Texas Instruments Incorporated
lcd_nokia5510.asm                                                    PAGE   15

     771                    ;*                                                                           *
     772                    ;*   Regs Modified     : A1,A2,A3,A4,V9,SP,LR,SR,D0,D0_hi,D1,D1_hi,D2,D2_hi, *
     773                    ;*                           D3,D3_hi,D4,D4_hi,D5,D5_hi,D6,D6_hi,D7,D7_hi,   *
     774                    ;*                           FPEXC,FPSCR                                     *
     775                    ;*   Regs Used         : A1,A2,A3,A4,V9,SP,LR,SR,D0,D0_hi,D1,D1_hi,D2,D2_hi, *
     776                    ;*                           D3,D3_hi,D4,D4_hi,D5,D5_hi,D6,D6_hi,D7,D7_hi,   *
     777                    ;*                           FPEXC,FPSCR                                     *
     778                    ;*   Local Frame Size  : 0 Args + 4 Auto + 4 Save = 8 byte                   *
     779                    ;*****************************************************************************
     780 00000000           nokiaLCDsetXY:
     781                    ;* --------------------------------------------------------------------------*
     782                            .dwcfi  cfa_offset, 0
     783 00000000 B508              PUSH      {A4, LR}              ; [DPU_3_PIPE]  ; [ORIG 16-BIT INS]
     784                            .dwcfi  cfa_offset, 8
     785                            .dwcfi  save_reg_to_mem, 14, -4
     786                            .dwcfi  save_reg_to_mem, 3, -8
     787                    $C$DW$30        .dwtag  DW_TAG_variable, DW_AT_name("x")
     788                            .dwattr $C$DW$30, DW_AT_TI_symbol_name("x")
     789                            .dwattr $C$DW$30, DW_AT_type(*$C$DW$T$24)
     790                            .dwattr $C$DW$30, DW_AT_location[DW_OP_breg13 0]
     791                    $C$DW$31        .dwtag  DW_TAG_variable, DW_AT_name("y")
     792                            .dwattr $C$DW$31, DW_AT_TI_symbol_name("y")
     793                            .dwattr $C$DW$31, DW_AT_type(*$C$DW$T$24)
     794                            .dwattr $C$DW$31, DW_AT_location[DW_OP_breg13 1]
     795 00000002 1001F88D          STRB      A2, [SP, #1]          ; [DPU_3_PIPE] |138|  ; [KEEP 32-BIT INS]
     796 00000006 0000F88D          STRB      A1, [SP, #0]          ; [DPU_3_PIPE] |138|  ; [KEEP 32-BIT INS]
     797                            .dwpsn  file "../lcd_nokia5510.c",line 139,column 2,is_stmt,isa 1
     798                    ;----------------------------------------------------------------------
     799                    ; 139 | nokiaLCDwrite(CMD_LCD, 0x40 | y);                                      
     800                    ;----------------------------------------------------------------------
     801 0000000a 1001F89D          LDRB      A2, [SP, #1]          ; [DPU_3_PIPE] |139|  ; [KEEP 32-BIT INS]
     802 0000000e 2000              MOVS      A1, #0                ; [DPU_3_PIPE] |139|  ; [ORIG 16-BIT INS]
     803 00000010 0140F041          ORR       A2, A2, #64           ; [DPU_3_PIPE] |139|  ; [KEEP 32-BIT INS]
     804                    $C$DW$32        .dwtag  DW_TAG_TI_branch
     805                            .dwattr $C$DW$32, DW_AT_low_pc(0x00)
     806                            .dwattr $C$DW$32, DW_AT_name("nokiaLCDwrite")
     807                            .dwattr $C$DW$32, DW_AT_TI_call
     808 00000014 FFFEF7FF!         BL        nokiaLCDwrite         ; [DPU_3_PIPE] |139|  ; [KEEP 32-BIT INS]
     809                            ; CALL OCCURS {nokiaLCDwrite }   ; [] |139| 
     810                            .dwpsn  file "../lcd_nokia5510.c",line 140,column 2,is_stmt,isa 1
     811                    ;----------------------------------------------------------------------
     812                    ; 140 | nokiaLCDwrite(CMD_LCD, 0x80 | x);                                      
     813                    ;----------------------------------------------------------------------
     814 00000018 0000F89D          LDRB      A1, [SP, #0]          ; [DPU_3_PIPE] |140|  ; [KEEP 32-BIT INS]
     815 0000001c 0080F040          ORR       A1, A1, #128          ; [DPU_3_PIPE] |140|  ; [KEEP 32-BIT INS]
     816 00000020 B2C1              UXTB      A2, A1                ; [DPU_3_PIPE] |140|  ; [ORIG 16-BIT INS]
     817 00000022 2000              MOVS      A1, #0                ; [DPU_3_PIPE] |140|  ; [ORIG 16-BIT INS]
     818                    $C$DW$33        .dwtag  DW_TAG_TI_branch
     819                            .dwattr $C$DW$33, DW_AT_low_pc(0x00)
     820                            .dwattr $C$DW$33, DW_AT_name("nokiaLCDwrite")
     821                            .dwattr $C$DW$33, DW_AT_TI_call
     822 00000024 FFFEF7FF!         BL        nokiaLCDwrite         ; [DPU_3_PIPE] |140|  ; [KEEP 32-BIT INS]
     823                            ; CALL OCCURS {nokiaLCDwrite }   ; [] |140| 
     824                            .dwpsn  file "../lcd_nokia5510.c",line 141,column 1,is_stmt,isa 1
     825                    $C$DW$34        .dwtag  DW_TAG_TI_branch
TI ARM Assembler PC v5.2.6 Wed Apr 27 11:03:41 2016

Tools Copyright (c) 1996-2015 Texas Instruments Incorporated
lcd_nokia5510.asm                                                    PAGE   16

     826                            .dwattr $C$DW$34, DW_AT_low_pc(0x00)
     827                            .dwattr $C$DW$34, DW_AT_TI_return
     828 00000028 BD08              POP       {A4, PC}              ; [DPU_3_PIPE]  ; [ORIG 16-BIT INS]
     829                            .dwcfi  cfa_offset, 0
     830                            ; BRANCH OCCURS                  ; [] 
     831                            .dwattr $C$DW$27, DW_AT_TI_end_file("../lcd_nokia5510.c")
     832                            .dwattr $C$DW$27, DW_AT_TI_end_line(0x8d)
     833                            .dwattr $C$DW$27, DW_AT_TI_end_column(0x01)
     834                            .dwendentry
     835                            .dwendtag $C$DW$27
     836                    
     837 00000000                   .sect   ".text:nokiaLCDclear"
     838                            .clink
     839                            .thumbfunc nokiaLCDclear
     840 00000000                   .thumb
     841                            .global nokiaLCDclear
     842                    
     843                    $C$DW$35        .dwtag  DW_TAG_subprogram, DW_AT_name("nokiaLCDclear")
     844                            .dwattr $C$DW$35, DW_AT_low_pc(nokiaLCDclear)
     845                            .dwattr $C$DW$35, DW_AT_high_pc(0x00)
     846                            .dwattr $C$DW$35, DW_AT_TI_symbol_name("nokiaLCDclear")
     847                            .dwattr $C$DW$35, DW_AT_external
     848                            .dwattr $C$DW$35, DW_AT_TI_begin_file("../lcd_nokia5510.c")
     849                            .dwattr $C$DW$35, DW_AT_TI_begin_line(0x8f)
     850                            .dwattr $C$DW$35, DW_AT_TI_begin_column(0x06)
     851                            .dwattr $C$DW$35, DW_AT_decl_file("../lcd_nokia5510.c")
     852                            .dwattr $C$DW$35, DW_AT_decl_line(0x8f)
     853                            .dwattr $C$DW$35, DW_AT_decl_column(0x06)
     854                            .dwattr $C$DW$35, DW_AT_TI_max_frame_size(0x08)
     855                            .dwpsn  file "../lcd_nokia5510.c",line 144,column 1,is_stmt,address nokiaLCDclear,isa 1
     856                    
     857                            .dwfde $C$DW$CIE, nokiaLCDclear
     858                    ;----------------------------------------------------------------------
     859                    ; 143 | void nokiaLCDclear(void)                                               
     860                    ; 145 | uint16_t i;                                                            
     861                    ;----------------------------------------------------------------------
     862                    
     863                    ;*****************************************************************************
     864                    ;* FUNCTION NAME: nokiaLCDclear                                              *
     865                    ;*                                                                           *
     866                    ;*   Regs Modified     : A1,A2,A3,A4,V9,SP,LR,SR,D0,D0_hi,D1,D1_hi,D2,D2_hi, *
     867                    ;*                           D3,D3_hi,D4,D4_hi,D5,D5_hi,D6,D6_hi,D7,D7_hi,   *
     868                    ;*                           FPEXC,FPSCR                                     *
     869                    ;*   Regs Used         : A1,A2,A3,A4,V9,SP,LR,SR,D0,D0_hi,D1,D1_hi,D2,D2_hi, *
     870                    ;*                           D3,D3_hi,D4,D4_hi,D5,D5_hi,D6,D6_hi,D7,D7_hi,   *
     871                    ;*                           FPEXC,FPSCR                                     *
     872                    ;*   Local Frame Size  : 0 Args + 4 Auto + 4 Save = 8 byte                   *
     873                    ;*****************************************************************************
     874 00000000           nokiaLCDclear:
     875                    ;* --------------------------------------------------------------------------*
     876                            .dwcfi  cfa_offset, 0
     877 00000000 B508              PUSH      {A4, LR}              ; [DPU_3_PIPE]  ; [ORIG 16-BIT INS]
     878                            .dwcfi  cfa_offset, 8
     879                            .dwcfi  save_reg_to_mem, 14, -4
     880                            .dwcfi  save_reg_to_mem, 3, -8
TI ARM Assembler PC v5.2.6 Wed Apr 27 11:03:41 2016

Tools Copyright (c) 1996-2015 Texas Instruments Incorporated
lcd_nokia5510.asm                                                    PAGE   17

     881                    $C$DW$36        .dwtag  DW_TAG_variable, DW_AT_name("i")
     882                            .dwattr $C$DW$36, DW_AT_TI_symbol_name("i")
     883                            .dwattr $C$DW$36, DW_AT_type(*$C$DW$T$58)
     884                            .dwattr $C$DW$36, DW_AT_location[DW_OP_breg13 0]
     885                            .dwpsn  file "../lcd_nokia5510.c",line 146,column 2,is_stmt,isa 1
     886                    ;----------------------------------------------------------------------
     887                    ; 146 | nokiaLCDsetXY(0, 0);                                                   
     888                    ;----------------------------------------------------------------------
     889 00000002 2000              MOVS      A1, #0                ; [DPU_3_PIPE] |146|  ; [ORIG 16-BIT INS]
     890 00000004 2100              MOVS      A2, #0                ; [DPU_3_PIPE] |146|  ; [ORIG 16-BIT INS]
     891                    $C$DW$37        .dwtag  DW_TAG_TI_branch
     892                            .dwattr $C$DW$37, DW_AT_low_pc(0x00)
     893                            .dwattr $C$DW$37, DW_AT_name("nokiaLCDsetXY")
     894                            .dwattr $C$DW$37, DW_AT_TI_call
     895 00000006 FFFEF7FF!         BL        nokiaLCDsetXY         ; [DPU_3_PIPE] |146|  ; [KEEP 32-BIT INS]
     896                            ; CALL OCCURS {nokiaLCDsetXY }   ; [] |146| 
     897                            .dwpsn  file "../lcd_nokia5510.c",line 147,column 7,is_stmt,isa 1
     898                    ;----------------------------------------------------------------------
     899                    ; 147 | for (i=0; i<6*84; i++) nokiaLCDwrite(DATA_LCD, 0x00);                  
     900                    ;----------------------------------------------------------------------
     901 0000000a 2000              MOVS      A1, #0                ; [DPU_3_PIPE] |147|  ; [ORIG 16-BIT INS]
     902 0000000c 0000F8AD          STRH      A1, [SP, #0]          ; [DPU_3_PIPE] |147|  ; [KEEP 32-BIT INS]
     903                            .dwpsn  file "../lcd_nokia5510.c",line 147,column 12,is_stmt,isa 1
     904 00000010 0000F8BD          LDRH      A1, [SP, #0]          ; [DPU_3_PIPE] |147|  ; [KEEP 32-BIT INS]
     905 00000014 7FFCF5B0          CMP       A1, #504              ; [DPU_3_PIPE] |147|  ; [KEEP 32-BIT INS]
     906 00000018 DA0D              BGE       ||$C$L4||             ; [DPU_3_PIPE] |147|  ; [ORIG 16-BIT INS]
     907                            ; BRANCHCC OCCURS {||$C$L4||}    ; [] |147| 
     908                    ;* --------------------------------------------------------------------------*
     909                    ;*   BEGIN LOOP ||$C$L3||
     910                    ;*
     911                    ;*   Loop source line                : 147
     912                    ;*   Loop closing brace source line  : 147
     913                    ;*   Known Minimum Trip Count        : 1
     914                    ;*   Known Maximum Trip Count        : 4294967295
     915                    ;*   Known Max Trip Count Factor     : 1
     916                    ;* --------------------------------------------------------------------------*
     917 0000001a           ||$C$L3||:    
     918                            .dwpsn  file "../lcd_nokia5510.c",line 147,column 25,is_stmt,isa 1
     919 0000001a 2001              MOVS      A1, #1                ; [DPU_3_PIPE] |147|  ; [ORIG 16-BIT INS]
     920 0000001c 2100              MOVS      A2, #0                ; [DPU_3_PIPE] |147|  ; [ORIG 16-BIT INS]
     921                    $C$DW$38        .dwtag  DW_TAG_TI_branch
     922                            .dwattr $C$DW$38, DW_AT_low_pc(0x00)
     923                            .dwattr $C$DW$38, DW_AT_name("nokiaLCDwrite")
     924                            .dwattr $C$DW$38, DW_AT_TI_call
     925 0000001e FFFEF7FF!         BL        nokiaLCDwrite         ; [DPU_3_PIPE] |147|  ; [KEEP 32-BIT INS]
     926                            ; CALL OCCURS {nokiaLCDwrite }   ; [] |147| 
     927                            .dwpsn  file "../lcd_nokia5510.c",line 147,column 20,is_stmt,isa 1
     928 00000022 0000F8BD          LDRH      A1, [SP, #0]          ; [DPU_3_PIPE] |147|  ; [KEEP 32-BIT INS]
     929 00000026 1C40              ADDS      A1, A1, #1            ; [DPU_3_PIPE] |147|  ; [ORIG 16-BIT INS]
     930 00000028 0000F8AD          STRH      A1, [SP, #0]          ; [DPU_3_PIPE] |147|  ; [KEEP 32-BIT INS]
     931                            .dwpsn  file "../lcd_nokia5510.c",line 147,column 12,is_stmt,isa 1
     932 0000002c 0000F8BD          LDRH      A1, [SP, #0]          ; [DPU_3_PIPE] |147|  ; [KEEP 32-BIT INS]
     933 00000030 7FFCF5B0          CMP       A1, #504              ; [DPU_3_PIPE] |147|  ; [KEEP 32-BIT INS]
     934 00000034 DBF1              BLT       ||$C$L3||             ; [DPU_3_PIPE] |147|  ; [ORIG 16-BIT INS]
     935                            ; BRANCHCC OCCURS {||$C$L3||}    ; [] |147| 
TI ARM Assembler PC v5.2.6 Wed Apr 27 11:03:41 2016

Tools Copyright (c) 1996-2015 Texas Instruments Incorporated
lcd_nokia5510.asm                                                    PAGE   18

     936                    ;* --------------------------------------------------------------------------*
     937 00000036           ||$C$L4||:    
     938                            .dwpsn  file "../lcd_nokia5510.c",line 148,column 2,is_stmt,isa 1
     939                    ;----------------------------------------------------------------------
     940                    ; 148 | nokiaLCDsetXY(0, 0);                                                   
     941                    ;----------------------------------------------------------------------
     942 00000036 2000              MOVS      A1, #0                ; [DPU_3_PIPE] |148|  ; [ORIG 16-BIT INS]
     943 00000038 2100              MOVS      A2, #0                ; [DPU_3_PIPE] |148|  ; [ORIG 16-BIT INS]
     944                    $C$DW$39        .dwtag  DW_TAG_TI_branch
     945                            .dwattr $C$DW$39, DW_AT_low_pc(0x00)
     946                            .dwattr $C$DW$39, DW_AT_name("nokiaLCDsetXY")
     947                            .dwattr $C$DW$39, DW_AT_TI_call
     948 0000003a FFFEF7FF!         BL        nokiaLCDsetXY         ; [DPU_3_PIPE] |148|  ; [KEEP 32-BIT INS]
     949                            ; CALL OCCURS {nokiaLCDsetXY }   ; [] |148| 
     950                            .dwpsn  file "../lcd_nokia5510.c",line 149,column 1,is_stmt,isa 1
     951                    $C$DW$40        .dwtag  DW_TAG_TI_branch
     952                            .dwattr $C$DW$40, DW_AT_low_pc(0x00)
     953                            .dwattr $C$DW$40, DW_AT_TI_return
     954 0000003e BD08              POP       {A4, PC}              ; [DPU_3_PIPE]  ; [ORIG 16-BIT INS]
     955                            .dwcfi  cfa_offset, 0
     956                            ; BRANCH OCCURS                  ; [] 
     957                            .dwattr $C$DW$35, DW_AT_TI_end_file("../lcd_nokia5510.c")
     958                            .dwattr $C$DW$35, DW_AT_TI_end_line(0x95)
     959                            .dwattr $C$DW$35, DW_AT_TI_end_column(0x01)
     960                            .dwendentry
     961                            .dwendtag $C$DW$35
     962                    
     963 00000000                   .sect   ".text:nokiaLCDinit"
     964                            .clink
     965                            .thumbfunc nokiaLCDinit
     966 00000000                   .thumb
     967                            .global nokiaLCDinit
     968                    
     969                    $C$DW$41        .dwtag  DW_TAG_subprogram, DW_AT_name("nokiaLCDinit")
     970                            .dwattr $C$DW$41, DW_AT_low_pc(nokiaLCDinit)
     971                            .dwattr $C$DW$41, DW_AT_high_pc(0x00)
     972                            .dwattr $C$DW$41, DW_AT_TI_symbol_name("nokiaLCDinit")
     973                            .dwattr $C$DW$41, DW_AT_external
     974                            .dwattr $C$DW$41, DW_AT_TI_begin_file("../lcd_nokia5510.c")
     975                            .dwattr $C$DW$41, DW_AT_TI_begin_line(0x97)
     976                            .dwattr $C$DW$41, DW_AT_TI_begin_column(0x06)
     977                            .dwattr $C$DW$41, DW_AT_decl_file("../lcd_nokia5510.c")
     978                            .dwattr $C$DW$41, DW_AT_decl_line(0x97)
     979                            .dwattr $C$DW$41, DW_AT_decl_column(0x06)
     980                            .dwattr $C$DW$41, DW_AT_TI_max_frame_size(0x08)
     981                            .dwpsn  file "../lcd_nokia5510.c",line 152,column 1,is_stmt,address nokiaLCDinit,isa 1
     982                    
     983                            .dwfde $C$DW$CIE, nokiaLCDinit
     984                    ;----------------------------------------------------------------------
     985                    ; 151 | void nokiaLCDinit(void)                                                
     986                    ;----------------------------------------------------------------------
     987                    
     988                    ;*****************************************************************************
     989                    ;* FUNCTION NAME: nokiaLCDinit                                               *
     990                    ;*                                                                           *
TI ARM Assembler PC v5.2.6 Wed Apr 27 11:03:41 2016

Tools Copyright (c) 1996-2015 Texas Instruments Incorporated
lcd_nokia5510.asm                                                    PAGE   19

     991                    ;*   Regs Modified     : A1,A2,A3,A4,V9,SP,LR,SR,D0,D0_hi,D1,D1_hi,D2,D2_hi, *
     992                    ;*                           D3,D3_hi,D4,D4_hi,D5,D5_hi,D6,D6_hi,D7,D7_hi,   *
     993                    ;*                           FPEXC,FPSCR                                     *
     994                    ;*   Regs Used         : A1,A2,A3,A4,V9,SP,LR,SR,D0,D0_hi,D1,D1_hi,D2,D2_hi, *
     995                    ;*                           D3,D3_hi,D4,D4_hi,D5,D5_hi,D6,D6_hi,D7,D7_hi,   *
     996                    ;*                           FPEXC,FPSCR                                     *
     997                    ;*   Local Frame Size  : 0 Args + 0 Auto + 4 Save = 4 byte                   *
     998                    ;*****************************************************************************
     999 00000000           nokiaLCDinit:
    1000                    ;* --------------------------------------------------------------------------*
    1001                            .dwcfi  cfa_offset, 0
    1002 00000000 B508              PUSH      {A4, LR}              ; [DPU_3_PIPE]  ; [ORIG 16-BIT INS]
    1003                            .dwcfi  cfa_offset, 8
    1004                            .dwcfi  save_reg_to_mem, 14, -4
    1005                            .dwcfi  save_reg_to_mem, 3, -8
    1006                            .dwpsn  file "../lcd_nokia5510.c",line 153,column 2,is_stmt,isa 1
    1007                    ;----------------------------------------------------------------------
    1008                    ; 153 | SSI_init();                                                            
    1009                    ;----------------------------------------------------------------------
    1010                    $C$DW$42        .dwtag  DW_TAG_TI_branch
    1011                            .dwattr $C$DW$42, DW_AT_low_pc(0x00)
    1012                            .dwattr $C$DW$42, DW_AT_name("SSI_init")
    1013                            .dwattr $C$DW$42, DW_AT_TI_call
    1014 00000002 FFFEF7FF!         BL        SSI_init              ; [DPU_3_PIPE] |153|  ; [KEEP 32-BIT INS]
    1015                            ; CALL OCCURS {SSI_init }        ; [] |153| 
    1016                            .dwpsn  file "../lcd_nokia5510.c",line 154,column 2,is_stmt,isa 1
    1017                    ;----------------------------------------------------------------------
    1018                    ; 154 | SysCtlPeripheralEnable(SYSCTL_PERIPH_GPIOB);                           
    1019                    ;----------------------------------------------------------------------
    1020 00000006 4833              LDR       A1, $C$CON2           ; [DPU_3_PIPE] |154|  ; [ORIG 16-BIT INS]
    1021                    $C$DW$43        .dwtag  DW_TAG_TI_branch
    1022                            .dwattr $C$DW$43, DW_AT_low_pc(0x00)
    1023                            .dwattr $C$DW$43, DW_AT_name("SysCtlPeripheralEnable")
    1024                            .dwattr $C$DW$43, DW_AT_TI_call
    1025 00000008 FFFEF7FF!         BL        SysCtlPeripheralEnable ; [DPU_3_PIPE] |154|  ; [KEEP 32-BIT INS]
    1026                            ; CALL OCCURS {SysCtlPeripheralEnable }  ; [] |154| 
    1027                            .dwpsn  file "../lcd_nokia5510.c",line 155,column 2,is_stmt,isa 1
    1028                    ;----------------------------------------------------------------------
    1029                    ; 155 | GPIOPinTypeGPIOOutput(GPIO_PORTA_BASE, GPIO_PIN_6);                    
    1030                    ;----------------------------------------------------------------------
    1031 0000000c 2040F04F          MOV       A1, #1073758208       ; [DPU_3_PIPE] |155|  ; [KEEP 32-BIT INS]
    1032 00000010 2140              MOVS      A2, #64               ; [DPU_3_PIPE] |155|  ; [ORIG 16-BIT INS]
    1033                    $C$DW$44        .dwtag  DW_TAG_TI_branch
    1034                            .dwattr $C$DW$44, DW_AT_low_pc(0x00)
    1035                            .dwattr $C$DW$44, DW_AT_name("GPIOPinTypeGPIOOutput")
    1036                            .dwattr $C$DW$44, DW_AT_TI_call
    1037 00000012 FFFEF7FF!         BL        GPIOPinTypeGPIOOutput ; [DPU_3_PIPE] |155|  ; [KEEP 32-BIT INS]
    1038                            ; CALL OCCURS {GPIOPinTypeGPIOOutput }  ; [] |155| 
    1039                            .dwpsn  file "../lcd_nokia5510.c",line 156,column 2,is_stmt,isa 1
    1040                    ;----------------------------------------------------------------------
    1041                    ; 156 | GPIOPinWrite(GPIO_PORTA_BASE, GPIO_PIN_6, GPIO_PIN_6);                 
    1042                    ;----------------------------------------------------------------------
    1043 00000016 2040F04F          MOV       A1, #1073758208       ; [DPU_3_PIPE] |156|  ; [KEEP 32-BIT INS]
    1044 0000001a 2140              MOVS      A2, #64               ; [DPU_3_PIPE] |156|  ; [ORIG 16-BIT INS]
    1045 0000001c 2240              MOVS      A3, #64               ; [DPU_3_PIPE] |156|  ; [ORIG 16-BIT INS]
TI ARM Assembler PC v5.2.6 Wed Apr 27 11:03:41 2016

Tools Copyright (c) 1996-2015 Texas Instruments Incorporated
lcd_nokia5510.asm                                                    PAGE   20

    1046                    $C$DW$45        .dwtag  DW_TAG_TI_branch
    1047                            .dwattr $C$DW$45, DW_AT_low_pc(0x00)
    1048                            .dwattr $C$DW$45, DW_AT_name("GPIOPinWrite")
    1049                            .dwattr $C$DW$45, DW_AT_TI_call
    1050 0000001e FFFEF7FF!         BL        GPIOPinWrite          ; [DPU_3_PIPE] |156|  ; [KEEP 32-BIT INS]
    1051                            ; CALL OCCURS {GPIOPinWrite }    ; [] |156| 
    1052                            .dwpsn  file "../lcd_nokia5510.c",line 157,column 2,is_stmt,isa 1
    1053                    ;----------------------------------------------------------------------
    1054                    ; 157 | GPIOPinTypeGPIOOutput(GPIO_PORTA_BASE, GPIO_PIN_7);                    
    1055                    ;----------------------------------------------------------------------
    1056 00000022 2040F04F          MOV       A1, #1073758208       ; [DPU_3_PIPE] |157|  ; [KEEP 32-BIT INS]
    1057 00000026 2180              MOVS      A2, #128              ; [DPU_3_PIPE] |157|  ; [ORIG 16-BIT INS]
    1058                    $C$DW$46        .dwtag  DW_TAG_TI_branch
    1059                            .dwattr $C$DW$46, DW_AT_low_pc(0x00)
    1060                            .dwattr $C$DW$46, DW_AT_name("GPIOPinTypeGPIOOutput")
    1061                            .dwattr $C$DW$46, DW_AT_TI_call
    1062 00000028 FFFEF7FF!         BL        GPIOPinTypeGPIOOutput ; [DPU_3_PIPE] |157|  ; [KEEP 32-BIT INS]
    1063                            ; CALL OCCURS {GPIOPinTypeGPIOOutput }  ; [] |157| 
    1064                            .dwpsn  file "../lcd_nokia5510.c",line 158,column 2,is_stmt,isa 1
    1065                    ;----------------------------------------------------------------------
    1066                    ; 158 | GPIOPinWrite(GPIO_PORTA_BASE, GPIO_PIN_7, GPIO_PIN_7);                 
    1067                    ;----------------------------------------------------------------------
    1068 0000002c 2040F04F          MOV       A1, #1073758208       ; [DPU_3_PIPE] |158|  ; [KEEP 32-BIT INS]
    1069 00000030 2180              MOVS      A2, #128              ; [DPU_3_PIPE] |158|  ; [ORIG 16-BIT INS]
    1070 00000032 2280              MOVS      A3, #128              ; [DPU_3_PIPE] |158|  ; [ORIG 16-BIT INS]
    1071                    $C$DW$47        .dwtag  DW_TAG_TI_branch
    1072                            .dwattr $C$DW$47, DW_AT_low_pc(0x00)
    1073                            .dwattr $C$DW$47, DW_AT_name("GPIOPinWrite")
    1074                            .dwattr $C$DW$47, DW_AT_TI_call
    1075 00000034 FFFEF7FF!         BL        GPIOPinWrite          ; [DPU_3_PIPE] |158|  ; [KEEP 32-BIT INS]
    1076                            ; CALL OCCURS {GPIOPinWrite }    ; [] |158| 
    1077                            .dwpsn  file "../lcd_nokia5510.c",line 159,column 2,is_stmt,isa 1
    1078                    ;----------------------------------------------------------------------
    1079                    ; 159 | GPIOPinTypeGPIOOutput(GPIO_PORTB_BASE, GPIO_PIN_0);                    
    1080                    ;----------------------------------------------------------------------
    1081 00000038 4827              LDR       A1, $C$CON3           ; [DPU_3_PIPE] |159|  ; [ORIG 16-BIT INS]
    1082 0000003a 2101              MOVS      A2, #1                ; [DPU_3_PIPE] |159|  ; [ORIG 16-BIT INS]
    1083                    $C$DW$48        .dwtag  DW_TAG_TI_branch
    1084                            .dwattr $C$DW$48, DW_AT_low_pc(0x00)
    1085                            .dwattr $C$DW$48, DW_AT_name("GPIOPinTypeGPIOOutput")
    1086                            .dwattr $C$DW$48, DW_AT_TI_call
    1087 0000003c FFFEF7FF!         BL        GPIOPinTypeGPIOOutput ; [DPU_3_PIPE] |159|  ; [KEEP 32-BIT INS]
    1088                            ; CALL OCCURS {GPIOPinTypeGPIOOutput }  ; [] |159| 
    1089                            .dwpsn  file "../lcd_nokia5510.c",line 162,column 2,is_stmt,isa 1
    1090                    ;----------------------------------------------------------------------
    1091                    ; 162 | GPIOPinWrite(GPIO_PORTA_BASE, GPIO_PIN_7, GPIO_PIN_7);                 
    1092                    ;----------------------------------------------------------------------
    1093 00000040 2040F04F          MOV       A1, #1073758208       ; [DPU_3_PIPE] |162|  ; [KEEP 32-BIT INS]
    1094 00000044 2180              MOVS      A2, #128              ; [DPU_3_PIPE] |162|  ; [ORIG 16-BIT INS]
    1095 00000046 2280              MOVS      A3, #128              ; [DPU_3_PIPE] |162|  ; [ORIG 16-BIT INS]
    1096                    $C$DW$49        .dwtag  DW_TAG_TI_branch
    1097                            .dwattr $C$DW$49, DW_AT_low_pc(0x00)
    1098                            .dwattr $C$DW$49, DW_AT_name("GPIOPinWrite")
    1099                            .dwattr $C$DW$49, DW_AT_TI_call
    1100 00000048 FFFEF7FF!         BL        GPIOPinWrite          ; [DPU_3_PIPE] |162|  ; [KEEP 32-BIT INS]
TI ARM Assembler PC v5.2.6 Wed Apr 27 11:03:41 2016

Tools Copyright (c) 1996-2015 Texas Instruments Incorporated
lcd_nokia5510.asm                                                    PAGE   21

    1101                            ; CALL OCCURS {GPIOPinWrite }    ; [] |162| 
    1102                            .dwpsn  file "../lcd_nokia5510.c",line 163,column 2,is_stmt,isa 1
    1103                    ;----------------------------------------------------------------------
    1104                    ; 163 | GPIOPinWrite(GPIO_PORTB_BASE, GPIO_PIN_0, 0);                          
    1105                    ;----------------------------------------------------------------------
    1106 0000004c 4822              LDR       A1, $C$CON3           ; [DPU_3_PIPE] |163|  ; [ORIG 16-BIT INS]
    1107 0000004e 2101              MOVS      A2, #1                ; [DPU_3_PIPE] |163|  ; [ORIG 16-BIT INS]
    1108 00000050 2200              MOVS      A3, #0                ; [DPU_3_PIPE] |163|  ; [ORIG 16-BIT INS]
    1109                    $C$DW$50        .dwtag  DW_TAG_TI_branch
    1110                            .dwattr $C$DW$50, DW_AT_low_pc(0x00)
    1111                            .dwattr $C$DW$50, DW_AT_name("GPIOPinWrite")
    1112                            .dwattr $C$DW$50, DW_AT_TI_call
    1113 00000052 FFFEF7FF!         BL        GPIOPinWrite          ; [DPU_3_PIPE] |163|  ; [KEEP 32-BIT INS]
    1114                            ; CALL OCCURS {GPIOPinWrite }    ; [] |163| 
    1115                            .dwpsn  file "../lcd_nokia5510.c",line 164,column 2,is_stmt,isa 1
    1116                    ;----------------------------------------------------------------------
    1117                    ; 164 | GPIOPinWrite(GPIO_PORTA_BASE, GPIO_PIN_3, GPIO_PIN_3);                 
    1118                    ;----------------------------------------------------------------------
    1119 00000056 2040F04F          MOV       A1, #1073758208       ; [DPU_3_PIPE] |164|  ; [KEEP 32-BIT INS]
    1120 0000005a 2108              MOVS      A2, #8                ; [DPU_3_PIPE] |164|  ; [ORIG 16-BIT INS]
    1121 0000005c 2208              MOVS      A3, #8                ; [DPU_3_PIPE] |164|  ; [ORIG 16-BIT INS]
    1122                    $C$DW$51        .dwtag  DW_TAG_TI_branch
    1123                            .dwattr $C$DW$51, DW_AT_low_pc(0x00)
    1124                            .dwattr $C$DW$51, DW_AT_name("GPIOPinWrite")
    1125                            .dwattr $C$DW$51, DW_AT_TI_call
    1126 0000005e FFFEF7FF!         BL        GPIOPinWrite          ; [DPU_3_PIPE] |164|  ; [KEEP 32-BIT INS]
    1127                            ; CALL OCCURS {GPIOPinWrite }    ; [] |164| 
    1128                            .dwpsn  file "../lcd_nokia5510.c",line 165,column 2,is_stmt,isa 1
    1129                    ;----------------------------------------------------------------------
    1130                    ; 165 | GPIOPinWrite(GPIO_PORTA_BASE, GPIO_PIN_6, 0);                          
    1131                    ;----------------------------------------------------------------------
    1132 00000062 2040F04F          MOV       A1, #1073758208       ; [DPU_3_PIPE] |165|  ; [KEEP 32-BIT INS]
    1133 00000066 2140              MOVS      A2, #64               ; [DPU_3_PIPE] |165|  ; [ORIG 16-BIT INS]
    1134 00000068 2200              MOVS      A3, #0                ; [DPU_3_PIPE] |165|  ; [ORIG 16-BIT INS]
    1135                    $C$DW$52        .dwtag  DW_TAG_TI_branch
    1136                            .dwattr $C$DW$52, DW_AT_low_pc(0x00)
    1137                            .dwattr $C$DW$52, DW_AT_name("GPIOPinWrite")
    1138                            .dwattr $C$DW$52, DW_AT_TI_call
    1139 0000006a FFFEF7FF!         BL        GPIOPinWrite          ; [DPU_3_PIPE] |165|  ; [KEEP 32-BIT INS]
    1140                            ; CALL OCCURS {GPIOPinWrite }    ; [] |165| 
    1141                    ;* --------------------------------------------------------------------------*
    1142                            .dwpsn  file "../lcd_nokia5510.c",line 166,column 2,is_stmt,isa 1
    1143                    ;----------------------------------------------------------------------
    1144                    ; 166 | SysCtlDelay(30000);                                                    
    1145                    ;----------------------------------------------------------------------
    1146 0000006e 5030F247          MOV       A1, #30000            ; [DPU_3_PIPE] |166|  ; [KEEP 32-BIT INS]
    1147                    $C$DW$53        .dwtag  DW_TAG_TI_branch
    1148                            .dwattr $C$DW$53, DW_AT_low_pc(0x00)
    1149                            .dwattr $C$DW$53, DW_AT_name("SysCtlDelay")
    1150                            .dwattr $C$DW$53, DW_AT_TI_call
    1151 00000072 FFFEF7FF!         BL        SysCtlDelay           ; [DPU_3_PIPE] |166|  ; [KEEP 32-BIT INS]
    1152                            ; CALL OCCURS {SysCtlDelay }     ; [] |166| 
    1153                            .dwpsn  file "../lcd_nokia5510.c",line 167,column 2,is_stmt,isa 1
    1154                    ;----------------------------------------------------------------------
    1155                    ; 167 | GPIOPinWrite(GPIO_PORTA_BASE, GPIO_PIN_7, 0);                          
TI ARM Assembler PC v5.2.6 Wed Apr 27 11:03:41 2016

Tools Copyright (c) 1996-2015 Texas Instruments Incorporated
lcd_nokia5510.asm                                                    PAGE   22

    1156                    ;----------------------------------------------------------------------
    1157 00000076 2040F04F          MOV       A1, #1073758208       ; [DPU_3_PIPE] |167|  ; [KEEP 32-BIT INS]
    1158 0000007a 2180              MOVS      A2, #128              ; [DPU_3_PIPE] |167|  ; [ORIG 16-BIT INS]
    1159 0000007c 2200              MOVS      A3, #0                ; [DPU_3_PIPE] |167|  ; [ORIG 16-BIT INS]
    1160                    $C$DW$54        .dwtag  DW_TAG_TI_branch
    1161                            .dwattr $C$DW$54, DW_AT_low_pc(0x00)
    1162                            .dwattr $C$DW$54, DW_AT_name("GPIOPinWrite")
    1163                            .dwattr $C$DW$54, DW_AT_TI_call
    1164 0000007e FFFEF7FF!         BL        GPIOPinWrite          ; [DPU_3_PIPE] |167|  ; [KEEP 32-BIT INS]
    1165                            ; CALL OCCURS {GPIOPinWrite }    ; [] |167| 
    1166                            .dwpsn  file "../lcd_nokia5510.c",line 168,column 2,is_stmt,isa 1
    1167                    ;----------------------------------------------------------------------
    1168                    ; 168 | SysCtlDelay(100000);                                                   
    1169                    ;----------------------------------------------------------------------
    1170 00000082 4816              LDR       A1, $C$CON4           ; [DPU_3_PIPE] |168|  ; [ORIG 16-BIT INS]
    1171                    $C$DW$55        .dwtag  DW_TAG_TI_branch
    1172                            .dwattr $C$DW$55, DW_AT_low_pc(0x00)
    1173                            .dwattr $C$DW$55, DW_AT_name("SysCtlDelay")
    1174                            .dwattr $C$DW$55, DW_AT_TI_call
    1175 00000084 FFFEF7FF!         BL        SysCtlDelay           ; [DPU_3_PIPE] |168|  ; [KEEP 32-BIT INS]
    1176                            ; CALL OCCURS {SysCtlDelay }     ; [] |168| 
    1177                            .dwpsn  file "../lcd_nokia5510.c",line 169,column 2,is_stmt,isa 1
    1178                    ;----------------------------------------------------------------------
    1179                    ; 169 | GPIOPinWrite(GPIO_PORTA_BASE, GPIO_PIN_7, GPIO_PIN_7);                 
    1180                    ;----------------------------------------------------------------------
    1181 00000088 2040F04F          MOV       A1, #1073758208       ; [DPU_3_PIPE] |169|  ; [KEEP 32-BIT INS]
    1182 0000008c 2180              MOVS      A2, #128              ; [DPU_3_PIPE] |169|  ; [ORIG 16-BIT INS]
    1183 0000008e 2280              MOVS      A3, #128              ; [DPU_3_PIPE] |169|  ; [ORIG 16-BIT INS]
    1184                    $C$DW$56        .dwtag  DW_TAG_TI_branch
    1185                            .dwattr $C$DW$56, DW_AT_low_pc(0x00)
    1186                            .dwattr $C$DW$56, DW_AT_name("GPIOPinWrite")
    1187                            .dwattr $C$DW$56, DW_AT_TI_call
    1188 00000090 FFFEF7FF!         BL        GPIOPinWrite          ; [DPU_3_PIPE] |169|  ; [KEEP 32-BIT INS]
    1189                            ; CALL OCCURS {GPIOPinWrite }    ; [] |169| 
    1190                            .dwpsn  file "../lcd_nokia5510.c",line 170,column 2,is_stmt,isa 1
    1191                    ;----------------------------------------------------------------------
    1192                    ; 170 | nokiaLCDwrite(CMD_LCD,0x21);                                           
    1193                    ;----------------------------------------------------------------------
    1194 00000094 2000              MOVS      A1, #0                ; [DPU_3_PIPE] |170|  ; [ORIG 16-BIT INS]
    1195 00000096 2121              MOVS      A2, #33               ; [DPU_3_PIPE] |170|  ; [ORIG 16-BIT INS]
    1196                    $C$DW$57        .dwtag  DW_TAG_TI_branch
    1197                            .dwattr $C$DW$57, DW_AT_low_pc(0x00)
    1198                            .dwattr $C$DW$57, DW_AT_name("nokiaLCDwrite")
    1199                            .dwattr $C$DW$57, DW_AT_TI_call
    1200 00000098 FFFEF7FF!         BL        nokiaLCDwrite         ; [DPU_3_PIPE] |170|  ; [KEEP 32-BIT INS]
    1201                            ; CALL OCCURS {nokiaLCDwrite }   ; [] |170| 
    1202                            .dwpsn  file "../lcd_nokia5510.c",line 171,column 2,is_stmt,isa 1
    1203                    ;----------------------------------------------------------------------
    1204                    ; 171 | nokiaLCDwrite(CMD_LCD,0xc8);                                           
    1205                    ;----------------------------------------------------------------------
    1206 0000009c 2000              MOVS      A1, #0                ; [DPU_3_PIPE] |171|  ; [ORIG 16-BIT INS]
    1207 0000009e 21C8              MOVS      A2, #200              ; [DPU_3_PIPE] |171|  ; [ORIG 16-BIT INS]
    1208                    $C$DW$58        .dwtag  DW_TAG_TI_branch
    1209                            .dwattr $C$DW$58, DW_AT_low_pc(0x00)
    1210                            .dwattr $C$DW$58, DW_AT_name("nokiaLCDwrite")
TI ARM Assembler PC v5.2.6 Wed Apr 27 11:03:41 2016

Tools Copyright (c) 1996-2015 Texas Instruments Incorporated
lcd_nokia5510.asm                                                    PAGE   23

    1211                            .dwattr $C$DW$58, DW_AT_TI_call
    1212 000000a0 FFFEF7FF!         BL        nokiaLCDwrite         ; [DPU_3_PIPE] |171|  ; [KEEP 32-BIT INS]
    1213                            ; CALL OCCURS {nokiaLCDwrite }   ; [] |171| 
    1214                            .dwpsn  file "../lcd_nokia5510.c",line 172,column 2,is_stmt,isa 1
    1215                    ;----------------------------------------------------------------------
    1216                    ; 172 | nokiaLCDwrite(CMD_LCD,0x12);                                           
    1217                    ;----------------------------------------------------------------------
    1218 000000a4 2000              MOVS      A1, #0                ; [DPU_3_PIPE] |172|  ; [ORIG 16-BIT INS]
    1219 000000a6 2112              MOVS      A2, #18               ; [DPU_3_PIPE] |172|  ; [ORIG 16-BIT INS]
    1220                    $C$DW$59        .dwtag  DW_TAG_TI_branch
    1221                            .dwattr $C$DW$59, DW_AT_low_pc(0x00)
    1222                            .dwattr $C$DW$59, DW_AT_name("nokiaLCDwrite")
    1223                            .dwattr $C$DW$59, DW_AT_TI_call
    1224 000000a8 FFFEF7FF!         BL        nokiaLCDwrite         ; [DPU_3_PIPE] |172|  ; [KEEP 32-BIT INS]
    1225                            ; CALL OCCURS {nokiaLCDwrite }   ; [] |172| 
    1226                            .dwpsn  file "../lcd_nokia5510.c",line 173,column 2,is_stmt,isa 1
    1227                    ;----------------------------------------------------------------------
    1228                    ; 173 | nokiaLCDwrite(CMD_LCD,0x20);                                           
    1229                    ;----------------------------------------------------------------------
    1230 000000ac 2000              MOVS      A1, #0                ; [DPU_3_PIPE] |173|  ; [ORIG 16-BIT INS]
    1231 000000ae 2120              MOVS      A2, #32               ; [DPU_3_PIPE] |173|  ; [ORIG 16-BIT INS]
    1232                    $C$DW$60        .dwtag  DW_TAG_TI_branch
    1233                            .dwattr $C$DW$60, DW_AT_low_pc(0x00)
    1234                            .dwattr $C$DW$60, DW_AT_name("nokiaLCDwrite")
    1235                            .dwattr $C$DW$60, DW_AT_TI_call
    1236 000000b0 FFFEF7FF!         BL        nokiaLCDwrite         ; [DPU_3_PIPE] |173|  ; [KEEP 32-BIT INS]
    1237                            ; CALL OCCURS {nokiaLCDwrite }   ; [] |173| 
    1238                            .dwpsn  file "../lcd_nokia5510.c",line 174,column 2,is_stmt,isa 1
    1239                    ;----------------------------------------------------------------------
    1240                    ; 174 | nokiaLCDwrite(CMD_LCD,0x09);                                           
    1241                    ;----------------------------------------------------------------------
    1242 000000b4 2000              MOVS      A1, #0                ; [DPU_3_PIPE] |174|  ; [ORIG 16-BIT INS]
    1243 000000b6 2109              MOVS      A2, #9                ; [DPU_3_PIPE] |174|  ; [ORIG 16-BIT INS]
    1244                    $C$DW$61        .dwtag  DW_TAG_TI_branch
    1245                            .dwattr $C$DW$61, DW_AT_low_pc(0x00)
    1246                            .dwattr $C$DW$61, DW_AT_name("nokiaLCDwrite")
    1247                            .dwattr $C$DW$61, DW_AT_TI_call
    1248 000000b8 FFFEF7FF!         BL        nokiaLCDwrite         ; [DPU_3_PIPE] |174|  ; [KEEP 32-BIT INS]
    1249                            ; CALL OCCURS {nokiaLCDwrite }   ; [] |174| 
    1250                            .dwpsn  file "../lcd_nokia5510.c",line 175,column 2,is_stmt,isa 1
    1251                    ;----------------------------------------------------------------------
    1252                    ; 175 | nokiaLCDwrite(CMD_LCD,0x0c);                                           
    1253                    ;----------------------------------------------------------------------
    1254 000000bc 2000              MOVS      A1, #0                ; [DPU_3_PIPE] |175|  ; [ORIG 16-BIT INS]
    1255 000000be 210C              MOVS      A2, #12               ; [DPU_3_PIPE] |175|  ; [ORIG 16-BIT INS]
    1256                    $C$DW$62        .dwtag  DW_TAG_TI_branch
    1257                            .dwattr $C$DW$62, DW_AT_low_pc(0x00)
    1258                            .dwattr $C$DW$62, DW_AT_name("nokiaLCDwrite")
    1259                            .dwattr $C$DW$62, DW_AT_TI_call
    1260 000000c0 FFFEF7FF!         BL        nokiaLCDwrite         ; [DPU_3_PIPE] |175|  ; [KEEP 32-BIT INS]
    1261                            ; CALL OCCURS {nokiaLCDwrite }   ; [] |175| 
    1262                            .dwpsn  file "../lcd_nokia5510.c",line 176,column 2,is_stmt,isa 1
    1263                    ;----------------------------------------------------------------------
    1264                    ; 176 | SysCtlDelay(10000);                                                    
    1265                    ;----------------------------------------------------------------------
TI ARM Assembler PC v5.2.6 Wed Apr 27 11:03:41 2016

Tools Copyright (c) 1996-2015 Texas Instruments Incorporated
lcd_nokia5510.asm                                                    PAGE   24

    1266 000000c4 7010F242          MOV       A1, #10000            ; [DPU_3_PIPE] |176|  ; [KEEP 32-BIT INS]
    1267                    $C$DW$63        .dwtag  DW_TAG_TI_branch
    1268                            .dwattr $C$DW$63, DW_AT_low_pc(0x00)
    1269                            .dwattr $C$DW$63, DW_AT_name("SysCtlDelay")
    1270                            .dwattr $C$DW$63, DW_AT_TI_call
    1271 000000c8 FFFEF7FF!         BL        SysCtlDelay           ; [DPU_3_PIPE] |176|  ; [KEEP 32-BIT INS]
    1272                            ; CALL OCCURS {SysCtlDelay }     ; [] |176| 
    1273                    ;* --------------------------------------------------------------------------*
    1274                            .dwpsn  file "../lcd_nokia5510.c",line 177,column 2,is_stmt,isa 1
    1275                    ;----------------------------------------------------------------------
    1276                    ; 177 | nokiaLCDclear();                                                       
    1277                    ;----------------------------------------------------------------------
    1278                    $C$DW$64        .dwtag  DW_TAG_TI_branch
    1279                            .dwattr $C$DW$64, DW_AT_low_pc(0x00)
    1280                            .dwattr $C$DW$64, DW_AT_name("nokiaLCDclear")
    1281                            .dwattr $C$DW$64, DW_AT_TI_call
    1282 000000cc FFFEF7FF!         BL        nokiaLCDclear         ; [DPU_3_PIPE] |177|  ; [KEEP 32-BIT INS]
    1283                            ; CALL OCCURS {nokiaLCDclear }   ; [] |177| 
    1284                            .dwpsn  file "../lcd_nokia5510.c",line 178,column 1,is_stmt,isa 1
    1285                    $C$DW$65        .dwtag  DW_TAG_TI_branch
    1286                            .dwattr $C$DW$65, DW_AT_low_pc(0x00)
    1287                            .dwattr $C$DW$65, DW_AT_TI_return
    1288 000000d0 BD08              POP       {A4, PC}              ; [DPU_3_PIPE]  ; [ORIG 16-BIT INS]
    1289                            .dwcfi  cfa_offset, 0
    1290                            ; BRANCH OCCURS                  ; [] 
    1291                            .dwattr $C$DW$41, DW_AT_TI_end_file("../lcd_nokia5510.c")
    1292                            .dwattr $C$DW$41, DW_AT_TI_end_line(0xb2)
    1293                            .dwattr $C$DW$41, DW_AT_TI_end_column(0x01)
    1294                            .dwendentry
    1295                            .dwendtag $C$DW$41
    1296                    
    1297 00000000                   .sect   ".text:nokiaLCDtext"
    1298                            .clink
    1299                            .thumbfunc nokiaLCDtext
    1300 00000000                   .thumb
    1301                            .global nokiaLCDtext
    1302                    
    1303                    $C$DW$66        .dwtag  DW_TAG_subprogram, DW_AT_name("nokiaLCDtext")
    1304                            .dwattr $C$DW$66, DW_AT_low_pc(nokiaLCDtext)
    1305                            .dwattr $C$DW$66, DW_AT_high_pc(0x00)
    1306                            .dwattr $C$DW$66, DW_AT_TI_symbol_name("nokiaLCDtext")
    1307                            .dwattr $C$DW$66, DW_AT_external
    1308                            .dwattr $C$DW$66, DW_AT_TI_begin_file("../lcd_nokia5510.c")
    1309                            .dwattr $C$DW$66, DW_AT_TI_begin_line(0xb5)
    1310                            .dwattr $C$DW$66, DW_AT_TI_begin_column(0x06)
    1311                            .dwattr $C$DW$66, DW_AT_decl_file("../lcd_nokia5510.c")
    1312                            .dwattr $C$DW$66, DW_AT_decl_line(0xb5)
    1313                            .dwattr $C$DW$66, DW_AT_decl_column(0x06)
    1314                            .dwattr $C$DW$66, DW_AT_TI_max_frame_size(0x08)
    1315                            .dwpsn  file "../lcd_nokia5510.c",line 182,column 1,is_stmt,address nokiaLCDtext,isa 1
    1316                    
    1317                            .dwfde $C$DW$CIE, nokiaLCDtext
    1318                    $C$DW$67        .dwtag  DW_TAG_formal_parameter, DW_AT_name("text")
    1319                            .dwattr $C$DW$67, DW_AT_TI_symbol_name("text")
    1320                            .dwattr $C$DW$67, DW_AT_type(*$C$DW$T$24)
TI ARM Assembler PC v5.2.6 Wed Apr 27 11:03:41 2016

Tools Copyright (c) 1996-2015 Texas Instruments Incorporated
lcd_nokia5510.asm                                                    PAGE   25

    1321                            .dwattr $C$DW$67, DW_AT_location[DW_OP_reg0]
    1322                    ;----------------------------------------------------------------------
    1323                    ; 181 | void nokiaLCDtext(uint8_t text)                                        
    1324                    ;----------------------------------------------------------------------
    1325                    
    1326                    ;*****************************************************************************
    1327                    ;* FUNCTION NAME: nokiaLCDtext                                               *
    1328                    ;*                                                                           *
    1329                    ;*   Regs Modified     : A1,A2,A3,A4,V9,SP,LR,SR,D0,D0_hi,D1,D1_hi,D2,D2_hi, *
    1330                    ;*                           D3,D3_hi,D4,D4_hi,D5,D5_hi,D6,D6_hi,D7,D7_hi,   *
    1331                    ;*                           FPEXC,FPSCR                                     *
    1332                    ;*   Regs Used         : A1,A2,A3,A4,V9,SP,LR,SR,D0,D0_hi,D1,D1_hi,D2,D2_hi, *
    1333                    ;*                           D3,D3_hi,D4,D4_hi,D5,D5_hi,D6,D6_hi,D7,D7_hi,   *
    1334                    ;*                           FPEXC,FPSCR                                     *
    1335                    ;*   Local Frame Size  : 0 Args + 4 Auto + 4 Save = 8 byte                   *
    1336                    ;*****************************************************************************
    1337 00000000           nokiaLCDtext:
    1338                    ;* --------------------------------------------------------------------------*
    1339                            .dwcfi  cfa_offset, 0
    1340 00000000 B508              PUSH      {A4, LR}              ; [DPU_3_PIPE]  ; [ORIG 16-BIT INS]
    1341                            .dwcfi  cfa_offset, 8
    1342                            .dwcfi  save_reg_to_mem, 14, -4
    1343                            .dwcfi  save_reg_to_mem, 3, -8
    1344                    $C$DW$68        .dwtag  DW_TAG_variable, DW_AT_name("text")
    1345                            .dwattr $C$DW$68, DW_AT_TI_symbol_name("text")
    1346                            .dwattr $C$DW$68, DW_AT_type(*$C$DW$T$24)
    1347                            .dwattr $C$DW$68, DW_AT_location[DW_OP_breg13 0]
    1348                    $C$DW$69        .dwtag  DW_TAG_variable, DW_AT_name("i")
    1349                            .dwattr $C$DW$69, DW_AT_TI_symbol_name("i")
    1350                            .dwattr $C$DW$69, DW_AT_type(*$C$DW$T$24)
    1351                            .dwattr $C$DW$69, DW_AT_location[DW_OP_breg13 1]
    1352                    ;----------------------------------------------------------------------
    1353                    ; 183 | uint8_t i;                                                             
    1354                    ;----------------------------------------------------------------------
    1355 00000002 0000F88D          STRB      A1, [SP, #0]          ; [DPU_3_PIPE] |182|  ; [KEEP 32-BIT INS]
    1356                            .dwpsn  file "../lcd_nokia5510.c",line 184,column 2,is_stmt,isa 1
    1357                    ;----------------------------------------------------------------------
    1358                    ; 184 | nokiaLCDwrite(DATA_LCD, 0x00);                                         
    1359                    ;----------------------------------------------------------------------
    1360 00000006 2100              MOVS      A2, #0                ; [DPU_3_PIPE] |184|  ; [ORIG 16-BIT INS]
    1361 00000008 2001              MOVS      A1, #1                ; [DPU_3_PIPE] |184|  ; [ORIG 16-BIT INS]
    1362                    $C$DW$70        .dwtag  DW_TAG_TI_branch
    1363                            .dwattr $C$DW$70, DW_AT_low_pc(0x00)
    1364                            .dwattr $C$DW$70, DW_AT_name("nokiaLCDwrite")
    1365                            .dwattr $C$DW$70, DW_AT_TI_call
    1366 0000000a FFFEF7FF!         BL        nokiaLCDwrite         ; [DPU_3_PIPE] |184|  ; [KEEP 32-BIT INS]
    1367                            ; CALL OCCURS {nokiaLCDwrite }   ; [] |184| 
    1368                            .dwpsn  file "../lcd_nokia5510.c",line 185,column 7,is_stmt,isa 1
    1369                    ;----------------------------------------------------------------------
    1370                    ; 185 | for (i=0; i<5; i++)                                                    
    1371                    ;----------------------------------------------------------------------
    1372 0000000e 2000              MOVS      A1, #0                ; [DPU_3_PIPE] |185|  ; [ORIG 16-BIT INS]
    1373 00000010 0001F88D          STRB      A1, [SP, #1]          ; [DPU_3_PIPE] |185|  ; [KEEP 32-BIT INS]
    1374                            .dwpsn  file "../lcd_nokia5510.c",line 185,column 12,is_stmt,isa 1
    1375 00000014 0001F89D          LDRB      A1, [SP, #1]          ; [DPU_3_PIPE] |185|  ; [KEEP 32-BIT INS]
TI ARM Assembler PC v5.2.6 Wed Apr 27 11:03:41 2016

Tools Copyright (c) 1996-2015 Texas Instruments Incorporated
lcd_nokia5510.asm                                                    PAGE   26

    1376 00000018 2805              CMP       A1, #5                ; [DPU_3_PIPE] |185|  ; [ORIG 16-BIT INS]
    1377 0000001a DA15              BGE       ||$C$L6||             ; [DPU_3_PIPE] |185|  ; [ORIG 16-BIT INS]
    1378                            ; BRANCHCC OCCURS {||$C$L6||}    ; [] |185| 
    1379                    ;* --------------------------------------------------------------------------*
    1380                    ;*   BEGIN LOOP ||$C$L5||
    1381                    ;*
    1382                    ;*   Loop source line                : 185
    1383                    ;*   Loop closing brace source line  : 188
    1384                    ;*   Known Minimum Trip Count        : 1
    1385                    ;*   Known Maximum Trip Count        : 4294967295
    1386                    ;*   Known Max Trip Count Factor     : 1
    1387                    ;* --------------------------------------------------------------------------*
    1388 0000001c           ||$C$L5||:    
    1389                            .dwpsn  file "../lcd_nokia5510.c",line 187,column 3,is_stmt,isa 1
    1390                    ;----------------------------------------------------------------------
    1391                    ; 187 | nokiaLCDwrite(DATA_LCD, ASCII[text - 0x20][i]);                        
    1392                    ;----------------------------------------------------------------------
    1393 0000001c 0000F89D          LDRB      A1, [SP, #0]          ; [DPU_3_PIPE] |187|  ; [KEEP 32-BIT INS]
    1394 00000020 490C              LDR       A2, $C$CON5           ; [DPU_3_PIPE] |187|  ; [ORIG 16-BIT INS]
    1395 00000022 2001F89D          LDRB      A3, [SP, #1]          ; [DPU_3_PIPE] |187|  ; [KEEP 32-BIT INS]
    1396 00000026 0080EB00          ADD       A1, A1, A1, LSL #2    ; [DPU_3_PIPE] |187|  ; [KEEP 32-BIT INS]
    1397 0000002a 38A0              SUBS      A1, A1, #160          ; [DPU_3_PIPE] |187|  ; [ORIG 16-BIT INS]
    1398 0000002c 1809              ADDS      A2, A2, A1            ; [DPU_3_PIPE] |187|  ; [ORIG 16-BIT INS]
    1399 0000002e 5C51              LDRB      A2, [A3, +A2]         ; [DPU_3_PIPE] |187|  ; [ORIG 16-BIT INS]
    1400 00000030 2001              MOVS      A1, #1                ; [DPU_3_PIPE] |187|  ; [ORIG 16-BIT INS]
    1401                    $C$DW$71        .dwtag  DW_TAG_TI_branch
    1402                            .dwattr $C$DW$71, DW_AT_low_pc(0x00)
    1403                            .dwattr $C$DW$71, DW_AT_name("nokiaLCDwrite")
    1404                            .dwattr $C$DW$71, DW_AT_TI_call
    1405 00000032 FFFEF7FF!         BL        nokiaLCDwrite         ; [DPU_3_PIPE] |187|  ; [KEEP 32-BIT INS]
    1406                            ; CALL OCCURS {nokiaLCDwrite }   ; [] |187| 
    1407                            .dwpsn  file "../lcd_nokia5510.c",line 185,column 17,is_stmt,isa 1
    1408 00000036 0001F89D          LDRB      A1, [SP, #1]          ; [DPU_3_PIPE] |185|  ; [KEEP 32-BIT INS]
    1409 0000003a 1C40              ADDS      A1, A1, #1            ; [DPU_3_PIPE] |185|  ; [ORIG 16-BIT INS]
    1410 0000003c 0001F88D          STRB      A1, [SP, #1]          ; [DPU_3_PIPE] |185|  ; [KEEP 32-BIT INS]
    1411                            .dwpsn  file "../lcd_nokia5510.c",line 185,column 12,is_stmt,isa 1
    1412 00000040 0001F89D          LDRB      A1, [SP, #1]          ; [DPU_3_PIPE] |185|  ; [KEEP 32-BIT INS]
    1413 00000044 2805              CMP       A1, #5                ; [DPU_3_PIPE] |185|  ; [ORIG 16-BIT INS]
    1414 00000046 DBE9              BLT       ||$C$L5||             ; [DPU_3_PIPE] |185|  ; [ORIG 16-BIT INS]
    1415                            ; BRANCHCC OCCURS {||$C$L5||}    ; [] |185| 
    1416                    ;* --------------------------------------------------------------------------*
    1417 00000048           ||$C$L6||:    
    1418                            .dwpsn  file "../lcd_nokia5510.c",line 189,column 2,is_stmt,isa 1
    1419                    ;----------------------------------------------------------------------
    1420                    ; 189 | nokiaLCDwrite(DATA_LCD, 0x00);                                         
    1421                    ;----------------------------------------------------------------------
    1422 00000048 2001              MOVS      A1, #1                ; [DPU_3_PIPE] |189|  ; [ORIG 16-BIT INS]
    1423 0000004a 2100              MOVS      A2, #0                ; [DPU_3_PIPE] |189|  ; [ORIG 16-BIT INS]
    1424                    $C$DW$72        .dwtag  DW_TAG_TI_branch
    1425                            .dwattr $C$DW$72, DW_AT_low_pc(0x00)
    1426                            .dwattr $C$DW$72, DW_AT_name("nokiaLCDwrite")
    1427                            .dwattr $C$DW$72, DW_AT_TI_call
    1428 0000004c FFFEF7FF!         BL        nokiaLCDwrite         ; [DPU_3_PIPE] |189|  ; [KEEP 32-BIT INS]
    1429                            ; CALL OCCURS {nokiaLCDwrite }   ; [] |189| 
    1430                            .dwpsn  file "../lcd_nokia5510.c",line 191,column 1,is_stmt,isa 1
TI ARM Assembler PC v5.2.6 Wed Apr 27 11:03:41 2016

Tools Copyright (c) 1996-2015 Texas Instruments Incorporated
lcd_nokia5510.asm                                                    PAGE   27

    1431                    $C$DW$73        .dwtag  DW_TAG_TI_branch
    1432                            .dwattr $C$DW$73, DW_AT_low_pc(0x00)
    1433                            .dwattr $C$DW$73, DW_AT_TI_return
    1434 00000050 BD08              POP       {A4, PC}              ; [DPU_3_PIPE]  ; [ORIG 16-BIT INS]
    1435                            .dwcfi  cfa_offset, 0
    1436                            ; BRANCH OCCURS                  ; [] 
    1437                            .dwattr $C$DW$66, DW_AT_TI_end_file("../lcd_nokia5510.c")
    1438                            .dwattr $C$DW$66, DW_AT_TI_end_line(0xbf)
    1439                            .dwattr $C$DW$66, DW_AT_TI_end_column(0x01)
    1440                            .dwendentry
    1441                            .dwendtag $C$DW$66
    1442                    
    1443 00000000                   .sect   ".text:nokiaLCDinverse"
    1444                            .clink
    1445                            .thumbfunc nokiaLCDinverse
    1446 00000000                   .thumb
    1447                            .global nokiaLCDinverse
    1448                    
    1449                    $C$DW$74        .dwtag  DW_TAG_subprogram, DW_AT_name("nokiaLCDinverse")
    1450                            .dwattr $C$DW$74, DW_AT_low_pc(nokiaLCDinverse)
    1451                            .dwattr $C$DW$74, DW_AT_high_pc(0x00)
    1452                            .dwattr $C$DW$74, DW_AT_TI_symbol_name("nokiaLCDinverse")
    1453                            .dwattr $C$DW$74, DW_AT_external
    1454                            .dwattr $C$DW$74, DW_AT_TI_begin_file("../lcd_nokia5510.c")
    1455                            .dwattr $C$DW$74, DW_AT_TI_begin_line(0xc1)
    1456                            .dwattr $C$DW$74, DW_AT_TI_begin_column(0x06)
    1457                            .dwattr $C$DW$74, DW_AT_decl_file("../lcd_nokia5510.c")
    1458                            .dwattr $C$DW$74, DW_AT_decl_line(0xc1)
    1459                            .dwattr $C$DW$74, DW_AT_decl_column(0x06)
    1460                            .dwattr $C$DW$74, DW_AT_TI_max_frame_size(0x08)
    1461                            .dwpsn  file "../lcd_nokia5510.c",line 194,column 1,is_stmt,address nokiaLCDinverse,isa 1
    1462                    
    1463                            .dwfde $C$DW$CIE, nokiaLCDinverse
    1464                    $C$DW$75        .dwtag  DW_TAG_formal_parameter, DW_AT_name("inverse")
    1465                            .dwattr $C$DW$75, DW_AT_TI_symbol_name("inverse")
    1466                            .dwattr $C$DW$75, DW_AT_type(*$C$DW$T$24)
    1467                            .dwattr $C$DW$75, DW_AT_location[DW_OP_reg0]
    1468                    ;----------------------------------------------------------------------
    1469                    ; 193 | void nokiaLCDinverse(uint8_t inverse)                                  
    1470                    ;----------------------------------------------------------------------
    1471                    
    1472                    ;*****************************************************************************
    1473                    ;* FUNCTION NAME: nokiaLCDinverse                                            *
    1474                    ;*                                                                           *
    1475                    ;*   Regs Modified     : A1,A2,A3,A4,V9,SP,LR,SR,D0,D0_hi,D1,D1_hi,D2,D2_hi, *
    1476                    ;*                           D3,D3_hi,D4,D4_hi,D5,D5_hi,D6,D6_hi,D7,D7_hi,   *
    1477                    ;*                           FPEXC,FPSCR                                     *
    1478                    ;*   Regs Used         : A1,A2,A3,A4,V9,SP,LR,SR,D0,D0_hi,D1,D1_hi,D2,D2_hi, *
    1479                    ;*                           D3,D3_hi,D4,D4_hi,D5,D5_hi,D6,D6_hi,D7,D7_hi,   *
    1480                    ;*                           FPEXC,FPSCR                                     *
    1481                    ;*   Local Frame Size  : 0 Args + 4 Auto + 4 Save = 8 byte                   *
    1482                    ;*****************************************************************************
    1483 00000000           nokiaLCDinverse:
    1484                    ;* --------------------------------------------------------------------------*
    1485                            .dwcfi  cfa_offset, 0
TI ARM Assembler PC v5.2.6 Wed Apr 27 11:03:41 2016

Tools Copyright (c) 1996-2015 Texas Instruments Incorporated
lcd_nokia5510.asm                                                    PAGE   28

    1486 00000000 B508              PUSH      {A4, LR}              ; [DPU_3_PIPE]  ; [ORIG 16-BIT INS]
    1487                            .dwcfi  cfa_offset, 8
    1488                            .dwcfi  save_reg_to_mem, 14, -4
    1489                            .dwcfi  save_reg_to_mem, 3, -8
    1490                    $C$DW$76        .dwtag  DW_TAG_variable, DW_AT_name("inverse")
    1491                            .dwattr $C$DW$76, DW_AT_TI_symbol_name("inverse")
    1492                            .dwattr $C$DW$76, DW_AT_type(*$C$DW$T$24)
    1493                            .dwattr $C$DW$76, DW_AT_location[DW_OP_breg13 0]
    1494 00000002 0000F88D          STRB      A1, [SP, #0]          ; [DPU_3_PIPE] |194|  ; [KEEP 32-BIT INS]
    1495                            .dwpsn  file "../lcd_nokia5510.c",line 195,column 2,is_stmt,isa 1
    1496                    ;----------------------------------------------------------------------
    1497                    ; 195 | nokiaLCDwrite(CMD_LCD, inverse ? 0x0d:0x0c);                           
    1498                    ;----------------------------------------------------------------------
    1499 00000006 0000F89D          LDRB      A1, [SP, #0]          ; [DPU_3_PIPE] |195|  ; [KEEP 32-BIT INS]
    1500 0000000a B108              CBZ       A1, ||$C$L7||         ; []  ; [ORIG 16-BIT INS]
    1501                            ; BRANCHCC OCCURS {||$C$L7||}    ; [] |195| 
    1502                    ;* --------------------------------------------------------------------------*
    1503 0000000c 210D              MOVS      A2, #13               ; [DPU_3_PIPE] |195|  ; [ORIG 16-BIT INS]
    1504 0000000e E000              B         ||$C$L8||             ; [DPU_3_PIPE] |195|  ; [ORIG 16-BIT INS]
    1505                            ; BRANCH OCCURS {||$C$L8||}      ; [] |195| 
    1506                    ;* --------------------------------------------------------------------------*
    1507 00000010           ||$C$L7||:    
    1508 00000010 210C              MOVS      A2, #12               ; [DPU_3_PIPE] |195|  ; [ORIG 16-BIT INS]
    1509                    ;* --------------------------------------------------------------------------*
    1510 00000012           ||$C$L8||:    
    1511 00000012 2000              MOVS      A1, #0                ; [DPU_3_PIPE] |195|  ; [ORIG 16-BIT INS]
    1512                    $C$DW$77        .dwtag  DW_TAG_TI_branch
    1513                            .dwattr $C$DW$77, DW_AT_low_pc(0x00)
    1514                            .dwattr $C$DW$77, DW_AT_name("nokiaLCDwrite")
    1515                            .dwattr $C$DW$77, DW_AT_TI_call
    1516 00000014 FFFEF7FF!         BL        nokiaLCDwrite         ; [DPU_3_PIPE] |195|  ; [KEEP 32-BIT INS]
    1517                            ; CALL OCCURS {nokiaLCDwrite }   ; [] |195| 
    1518                            .dwpsn  file "../lcd_nokia5510.c",line 196,column 1,is_stmt,isa 1
    1519                    $C$DW$78        .dwtag  DW_TAG_TI_branch
    1520                            .dwattr $C$DW$78, DW_AT_low_pc(0x00)
    1521                            .dwattr $C$DW$78, DW_AT_TI_return
    1522 00000018 BD08              POP       {A4, PC}              ; [DPU_3_PIPE]  ; [ORIG 16-BIT INS]
    1523                            .dwcfi  cfa_offset, 0
    1524                            ; BRANCH OCCURS                  ; [] 
    1525                            .dwattr $C$DW$74, DW_AT_TI_end_file("../lcd_nokia5510.c")
    1526                            .dwattr $C$DW$74, DW_AT_TI_end_line(0xc4)
    1527                            .dwattr $C$DW$74, DW_AT_TI_end_column(0x01)
    1528                            .dwendentry
    1529                            .dwendtag $C$DW$74
    1530                    
    1531 00000000                   .sect   ".text:nokia_test"
    1532                            .clink
    1533                            .thumbfunc nokia_test
    1534 00000000                   .thumb
    1535                            .global nokia_test
    1536                    
    1537                    $C$DW$79        .dwtag  DW_TAG_subprogram, DW_AT_name("nokia_test")
    1538                            .dwattr $C$DW$79, DW_AT_low_pc(nokia_test)
    1539                            .dwattr $C$DW$79, DW_AT_high_pc(0x00)
    1540                            .dwattr $C$DW$79, DW_AT_TI_symbol_name("nokia_test")
TI ARM Assembler PC v5.2.6 Wed Apr 27 11:03:41 2016

Tools Copyright (c) 1996-2015 Texas Instruments Incorporated
lcd_nokia5510.asm                                                    PAGE   29

    1541                            .dwattr $C$DW$79, DW_AT_external
    1542                            .dwattr $C$DW$79, DW_AT_TI_begin_file("../lcd_nokia5510.c")
    1543                            .dwattr $C$DW$79, DW_AT_TI_begin_line(0xc6)
    1544                            .dwattr $C$DW$79, DW_AT_TI_begin_column(0x06)
    1545                            .dwattr $C$DW$79, DW_AT_decl_file("../lcd_nokia5510.c")
    1546                            .dwattr $C$DW$79, DW_AT_decl_line(0xc6)
    1547                            .dwattr $C$DW$79, DW_AT_decl_column(0x06)
    1548                            .dwattr $C$DW$79, DW_AT_TI_max_frame_size(0x08)
    1549                            .dwpsn  file "../lcd_nokia5510.c",line 199,column 1,is_stmt,address nokia_test,isa 1
    1550                    
    1551                            .dwfde $C$DW$CIE, nokia_test
    1552                    ;----------------------------------------------------------------------
    1553                    ; 198 | void nokia_test()                                                      
    1554                    ;----------------------------------------------------------------------
    1555                    
    1556                    ;*****************************************************************************
    1557                    ;* FUNCTION NAME: nokia_test                                                 *
    1558                    ;*                                                                           *
    1559                    ;*   Regs Modified     : A1,A2,A3,A4,V9,SP,LR,SR,D0,D0_hi,D1,D1_hi,D2,D2_hi, *
    1560                    ;*                           D3,D3_hi,D4,D4_hi,D5,D5_hi,D6,D6_hi,D7,D7_hi,   *
    1561                    ;*                           FPEXC,FPSCR                                     *
    1562                    ;*   Regs Used         : A1,A2,A3,A4,V9,SP,LR,SR,D0,D0_hi,D1,D1_hi,D2,D2_hi, *
    1563                    ;*                           D3,D3_hi,D4,D4_hi,D5,D5_hi,D6,D6_hi,D7,D7_hi,   *
    1564                    ;*                           FPEXC,FPSCR                                     *
    1565                    ;*   Local Frame Size  : 0 Args + 0 Auto + 4 Save = 4 byte                   *
    1566                    ;*****************************************************************************
    1567 00000000           nokia_test:
    1568                    ;* --------------------------------------------------------------------------*
    1569                            .dwcfi  cfa_offset, 0
    1570 00000000 B508              PUSH      {A4, LR}              ; [DPU_3_PIPE]  ; [ORIG 16-BIT INS]
    1571                            .dwcfi  cfa_offset, 8
    1572                            .dwcfi  save_reg_to_mem, 14, -4
    1573                            .dwcfi  save_reg_to_mem, 3, -8
    1574                            .dwpsn  file "../lcd_nokia5510.c",line 200,column 2,is_stmt,isa 1
    1575                    ;----------------------------------------------------------------------
    1576                    ; 200 | nokiaLCDinit();                                                        
    1577                    ;----------------------------------------------------------------------
    1578                    $C$DW$80        .dwtag  DW_TAG_TI_branch
    1579                            .dwattr $C$DW$80, DW_AT_low_pc(0x00)
    1580                            .dwattr $C$DW$80, DW_AT_name("nokiaLCDinit")
    1581                            .dwattr $C$DW$80, DW_AT_TI_call
    1582 00000002 FFFEF7FF!         BL        nokiaLCDinit          ; [DPU_3_PIPE] |200|  ; [KEEP 32-BIT INS]
    1583                            ; CALL OCCURS {nokiaLCDinit }    ; [] |200| 
    1584                            .dwpsn  file "../lcd_nokia5510.c",line 201,column 6,is_stmt,isa 1
    1585                    ;----------------------------------------------------------------------
    1586                    ; 201 | nokiaLCDclear();                                                       
    1587                    ; 202 | //nokiaLCDwrite(CMD_LCD, 0x80 | (90 & 0x7f));                          
    1588                    ;----------------------------------------------------------------------
    1589                    $C$DW$81        .dwtag  DW_TAG_TI_branch
    1590                            .dwattr $C$DW$81, DW_AT_low_pc(0x00)
    1591                            .dwattr $C$DW$81, DW_AT_name("nokiaLCDclear")
    1592                            .dwattr $C$DW$81, DW_AT_TI_call
    1593 00000006 FFFEF7FF!         BL        nokiaLCDclear         ; [DPU_3_PIPE] |201|  ; [KEEP 32-BIT INS]
    1594                            ; CALL OCCURS {nokiaLCDclear }   ; [] |201| 
    1595                            .dwpsn  file "../lcd_nokia5510.c",line 203,column 6,is_stmt,isa 1
TI ARM Assembler PC v5.2.6 Wed Apr 27 11:03:41 2016

Tools Copyright (c) 1996-2015 Texas Instruments Incorporated
lcd_nokia5510.asm                                                    PAGE   30

    1596                    ;----------------------------------------------------------------------
    1597                    ; 203 | nokiaLCDclear();                                                       
    1598                    ;----------------------------------------------------------------------
    1599                    $C$DW$82        .dwtag  DW_TAG_TI_branch
    1600                            .dwattr $C$DW$82, DW_AT_low_pc(0x00)
    1601                            .dwattr $C$DW$82, DW_AT_name("nokiaLCDclear")
    1602                            .dwattr $C$DW$82, DW_AT_TI_call
    1603 0000000a FFFEF7FF!         BL        nokiaLCDclear         ; [DPU_3_PIPE] |203|  ; [KEEP 32-BIT INS]
    1604                            ; CALL OCCURS {nokiaLCDclear }   ; [] |203| 
    1605                            .dwpsn  file "../lcd_nokia5510.c",line 204,column 6,is_stmt,isa 1
    1606                    ;----------------------------------------------------------------------
    1607                    ; 204 | nokiaLCDtext('a');                                                     
    1608                    ;----------------------------------------------------------------------
    1609 0000000e 2061              MOVS      A1, #97               ; [DPU_3_PIPE] |204|  ; [ORIG 16-BIT INS]
    1610                    $C$DW$83        .dwtag  DW_TAG_TI_branch
    1611                            .dwattr $C$DW$83, DW_AT_low_pc(0x00)
    1612                            .dwattr $C$DW$83, DW_AT_name("nokiaLCDtext")
    1613                            .dwattr $C$DW$83, DW_AT_TI_call
    1614 00000010 FFFEF7FF!         BL        nokiaLCDtext          ; [DPU_3_PIPE] |204|  ; [KEEP 32-BIT INS]
    1615                            ; CALL OCCURS {nokiaLCDtext }    ; [] |204| 
    1616                            .dwpsn  file "../lcd_nokia5510.c",line 205,column 1,is_stmt,isa 1
    1617                    $C$DW$84        .dwtag  DW_TAG_TI_branch
    1618                            .dwattr $C$DW$84, DW_AT_low_pc(0x00)
    1619                            .dwattr $C$DW$84, DW_AT_TI_return
    1620 00000014 BD08              POP       {A4, PC}              ; [DPU_3_PIPE]  ; [ORIG 16-BIT INS]
    1621                            .dwcfi  cfa_offset, 0
    1622                            ; BRANCH OCCURS                  ; [] 
    1623                            .dwattr $C$DW$79, DW_AT_TI_end_file("../lcd_nokia5510.c")
    1624                            .dwattr $C$DW$79, DW_AT_TI_end_line(0xcd)
    1625                            .dwattr $C$DW$79, DW_AT_TI_end_column(0x01)
    1626                            .dwendentry
    1627                            .dwendtag $C$DW$79
    1628                    
    1629 00000000                   .sect   ".text:validate_char"
    1630                            .clink
    1631                            .thumbfunc validate_char
    1632 00000000                   .thumb
    1633                            .global validate_char
    1634                    
    1635                    $C$DW$85        .dwtag  DW_TAG_subprogram, DW_AT_name("validate_char")
    1636                            .dwattr $C$DW$85, DW_AT_low_pc(validate_char)
    1637                            .dwattr $C$DW$85, DW_AT_high_pc(0x00)
    1638                            .dwattr $C$DW$85, DW_AT_TI_symbol_name("validate_char")
    1639                            .dwattr $C$DW$85, DW_AT_external
    1640                            .dwattr $C$DW$85, DW_AT_type(*$C$DW$T$24)
    1641                            .dwattr $C$DW$85, DW_AT_TI_begin_file("../lcd_nokia5510.c")
    1642                            .dwattr $C$DW$85, DW_AT_TI_begin_line(0xcf)
    1643                            .dwattr $C$DW$85, DW_AT_TI_begin_column(0x09)
    1644                            .dwattr $C$DW$85, DW_AT_decl_file("../lcd_nokia5510.c")
    1645                            .dwattr $C$DW$85, DW_AT_decl_line(0xcf)
    1646                            .dwattr $C$DW$85, DW_AT_decl_column(0x09)
    1647                            .dwattr $C$DW$85, DW_AT_TI_max_frame_size(0x08)
    1648                            .dwpsn  file "../lcd_nokia5510.c",line 208,column 1,is_stmt,address validate_char,isa 1
    1649                    
    1650                            .dwfde $C$DW$CIE, validate_char
TI ARM Assembler PC v5.2.6 Wed Apr 27 11:03:41 2016

Tools Copyright (c) 1996-2015 Texas Instruments Incorporated
lcd_nokia5510.asm                                                    PAGE   31

    1651                    $C$DW$86        .dwtag  DW_TAG_formal_parameter, DW_AT_name("c")
    1652                            .dwattr $C$DW$86, DW_AT_TI_symbol_name("c")
    1653                            .dwattr $C$DW$86, DW_AT_type(*$C$DW$T$6)
    1654                            .dwattr $C$DW$86, DW_AT_location[DW_OP_reg0]
    1655                    ;----------------------------------------------------------------------
    1656                    ; 207 | uint8_t validate_char(char c)                                          
    1657                    ;----------------------------------------------------------------------
    1658                    
    1659                    ;*****************************************************************************
    1660                    ;* FUNCTION NAME: validate_char                                              *
    1661                    ;*                                                                           *
    1662                    ;*   Regs Modified     : A1,SP,SR                                            *
    1663                    ;*   Regs Used         : A1,SP,LR,SR                                         *
    1664                    ;*   Local Frame Size  : 0 Args + 4 Auto + 0 Save = 4 byte                   *
    1665                    ;*****************************************************************************
    1666 00000000           validate_char:
    1667                    ;* --------------------------------------------------------------------------*
    1668                            .dwcfi  cfa_offset, 0
    1669 00000000 0D08F1AD          SUB       SP, SP, #8            ; [DPU_3_PIPE]  ; [KEEP 32-BIT INS]
    1670                            .dwcfi  cfa_offset, 8
    1671                    $C$DW$87        .dwtag  DW_TAG_variable, DW_AT_name("c")
    1672                            .dwattr $C$DW$87, DW_AT_TI_symbol_name("c")
    1673                            .dwattr $C$DW$87, DW_AT_type(*$C$DW$T$6)
    1674                            .dwattr $C$DW$87, DW_AT_location[DW_OP_breg13 0]
    1675 00000004 0000F88D          STRB      A1, [SP, #0]          ; [DPU_3_PIPE] |208|  ; [KEEP 32-BIT INS]
    1676                            .dwpsn  file "../lcd_nokia5510.c",line 209,column 2,is_stmt,isa 1
    1677                    ;----------------------------------------------------------------------
    1678                    ; 209 | if(c>=32 && c<=126)                                                    
    1679                    ;----------------------------------------------------------------------
    1680 00000008 0000F89D          LDRB      A1, [SP, #0]          ; [DPU_3_PIPE] |209|  ; [KEEP 32-BIT INS]
    1681 0000000c 2820              CMP       A1, #32               ; [DPU_3_PIPE] |209|  ; [ORIG 16-BIT INS]
    1682 0000000e DB05              BLT       ||$C$L9||             ; [DPU_3_PIPE] |209|  ; [ORIG 16-BIT INS]
    1683                            ; BRANCHCC OCCURS {||$C$L9||}    ; [] |209| 
    1684                    ;* --------------------------------------------------------------------------*
    1685 00000010 0000F89D          LDRB      A1, [SP, #0]          ; [DPU_3_PIPE] |209|  ; [KEEP 32-BIT INS]
    1686 00000014 287E              CMP       A1, #126              ; [DPU_3_PIPE] |209|  ; [ORIG 16-BIT INS]
    1687 00000016 DC01              BGT       ||$C$L9||             ; [DPU_3_PIPE] |209|  ; [ORIG 16-BIT INS]
    1688                            ; BRANCHCC OCCURS {||$C$L9||}    ; [] |209| 
    1689                    ;* --------------------------------------------------------------------------*
    1690                            .dwpsn  file "../lcd_nokia5510.c",line 210,column 3,is_stmt,isa 1
    1691                    ;----------------------------------------------------------------------
    1692                    ; 210 | return 1;                                                              
    1693                    ; 211 | else                                                                   
    1694                    ;----------------------------------------------------------------------
    1695 00000018 2001              MOVS      A1, #1                ; [DPU_3_PIPE] |210|  ; [ORIG 16-BIT INS]
    1696 0000001a E000              B         ||$C$L10||            ; [DPU_3_PIPE] |210|  ; [ORIG 16-BIT INS]
    1697                            ; BRANCH OCCURS {||$C$L10||}     ; [] |210| 
    1698                    ;* --------------------------------------------------------------------------*
    1699 0000001c           ||$C$L9||:    
    1700                            .dwpsn  file "../lcd_nokia5510.c",line 212,column 3,is_stmt,isa 1
    1701                    ;----------------------------------------------------------------------
    1702                    ; 212 | return 0;                                                              
    1703                    ;----------------------------------------------------------------------
    1704 0000001c 2000              MOVS      A1, #0                ; [DPU_3_PIPE] |212|  ; [ORIG 16-BIT INS]
    1705                    ;* --------------------------------------------------------------------------*
TI ARM Assembler PC v5.2.6 Wed Apr 27 11:03:41 2016

Tools Copyright (c) 1996-2015 Texas Instruments Incorporated
lcd_nokia5510.asm                                                    PAGE   32

    1706 0000001e           ||$C$L10||:    
    1707                            .dwpsn  file "../lcd_nokia5510.c",line 213,column 1,is_stmt,isa 1
    1708 0000001e B002              ADD       SP, SP, #8            ; [DPU_3_PIPE]  ; [ORIG 16-BIT INS]
    1709                            .dwcfi  cfa_offset, 0
    1710                    $C$DW$88        .dwtag  DW_TAG_TI_branch
    1711                            .dwattr $C$DW$88, DW_AT_low_pc(0x00)
    1712                            .dwattr $C$DW$88, DW_AT_TI_return
    1713 00000020 4770              BX        LR                    ; [DPU_3_PIPE]  ; [ORIG 16-BIT INS]
    1714                            ; BRANCH OCCURS                  ; [] 
    1715                            .dwattr $C$DW$85, DW_AT_TI_end_file("../lcd_nokia5510.c")
    1716                            .dwattr $C$DW$85, DW_AT_TI_end_line(0xd5)
    1717                            .dwattr $C$DW$85, DW_AT_TI_end_column(0x01)
    1718                            .dwendentry
    1719                            .dwendtag $C$DW$85
    1720                    
    1721 00000000                   .sect   ".text:lcd_puts"
    1722                            .clink
    1723                            .thumbfunc lcd_puts
    1724 00000000                   .thumb
    1725                            .global lcd_puts
    1726                    
    1727                    $C$DW$89        .dwtag  DW_TAG_subprogram, DW_AT_name("lcd_puts")
    1728                            .dwattr $C$DW$89, DW_AT_low_pc(lcd_puts)
    1729                            .dwattr $C$DW$89, DW_AT_high_pc(0x00)
    1730                            .dwattr $C$DW$89, DW_AT_TI_symbol_name("lcd_puts")
    1731                            .dwattr $C$DW$89, DW_AT_external
    1732                            .dwattr $C$DW$89, DW_AT_TI_begin_file("../lcd_nokia5510.c")
    1733                            .dwattr $C$DW$89, DW_AT_TI_begin_line(0xd8)
    1734                            .dwattr $C$DW$89, DW_AT_TI_begin_column(0x06)
    1735                            .dwattr $C$DW$89, DW_AT_decl_file("../lcd_nokia5510.c")
    1736                            .dwattr $C$DW$89, DW_AT_decl_line(0xd8)
    1737                            .dwattr $C$DW$89, DW_AT_decl_column(0x06)
    1738                            .dwattr $C$DW$89, DW_AT_TI_max_frame_size(0x10)
    1739                            .dwpsn  file "../lcd_nokia5510.c",line 217,column 1,is_stmt,address lcd_puts,isa 1
    1740                    
    1741                            .dwfde $C$DW$CIE, lcd_puts
    1742                    $C$DW$90        .dwtag  DW_TAG_formal_parameter, DW_AT_name("s")
    1743                            .dwattr $C$DW$90, DW_AT_TI_symbol_name("s")
    1744                            .dwattr $C$DW$90, DW_AT_type(*$C$DW$T$40)
    1745                            .dwattr $C$DW$90, DW_AT_location[DW_OP_reg0]
    1746                    $C$DW$91        .dwtag  DW_TAG_formal_parameter, DW_AT_name("line")
    1747                            .dwattr $C$DW$91, DW_AT_TI_symbol_name("line")
    1748                            .dwattr $C$DW$91, DW_AT_type(*$C$DW$T$24)
    1749                            .dwattr $C$DW$91, DW_AT_location[DW_OP_reg1]
    1750                    ;----------------------------------------------------------------------
    1751                    ; 216 | void lcd_puts(char* s, uint8_t line)                                   
    1752                    ;----------------------------------------------------------------------
    1753                    
    1754                    ;*****************************************************************************
    1755                    ;* FUNCTION NAME: lcd_puts                                                   *
    1756                    ;*                                                                           *
    1757                    ;*   Regs Modified     : A1,A2,A3,A4,V9,SP,LR,SR,D0,D0_hi,D1,D1_hi,D2,D2_hi, *
    1758                    ;*                           D3,D3_hi,D4,D4_hi,D5,D5_hi,D6,D6_hi,D7,D7_hi,   *
    1759                    ;*                           FPEXC,FPSCR                                     *
    1760                    ;*   Regs Used         : A1,A2,A3,A4,V9,SP,LR,SR,D0,D0_hi,D1,D1_hi,D2,D2_hi, *
TI ARM Assembler PC v5.2.6 Wed Apr 27 11:03:41 2016

Tools Copyright (c) 1996-2015 Texas Instruments Incorporated
lcd_nokia5510.asm                                                    PAGE   33

    1761                    ;*                           D3,D3_hi,D4,D4_hi,D5,D5_hi,D6,D6_hi,D7,D7_hi,   *
    1762                    ;*                           FPEXC,FPSCR                                     *
    1763                    ;*   Local Frame Size  : 0 Args + 8 Auto + 4 Save = 12 byte                  *
    1764                    ;*****************************************************************************
    1765 00000000           lcd_puts:
    1766                    ;* --------------------------------------------------------------------------*
    1767                            .dwcfi  cfa_offset, 0
    1768 00000000 B50E              PUSH      {A2, A3, A4, LR}      ; [DPU_3_PIPE]  ; [ORIG 16-BIT INS]
    1769                            .dwcfi  cfa_offset, 16
    1770                            .dwcfi  save_reg_to_mem, 14, -4
    1771                            .dwcfi  save_reg_to_mem, 3, -8
    1772                            .dwcfi  save_reg_to_mem, 2, -12
    1773                            .dwcfi  save_reg_to_mem, 1, -16
    1774                    $C$DW$92        .dwtag  DW_TAG_variable, DW_AT_name("s")
    1775                            .dwattr $C$DW$92, DW_AT_TI_symbol_name("s")
    1776                            .dwattr $C$DW$92, DW_AT_type(*$C$DW$T$40)
    1777                            .dwattr $C$DW$92, DW_AT_location[DW_OP_breg13 0]
    1778                    $C$DW$93        .dwtag  DW_TAG_variable, DW_AT_name("line")
    1779                            .dwattr $C$DW$93, DW_AT_TI_symbol_name("line")
    1780                            .dwattr $C$DW$93, DW_AT_type(*$C$DW$T$24)
    1781                            .dwattr $C$DW$93, DW_AT_location[DW_OP_breg13 4]
    1782                    $C$DW$94        .dwtag  DW_TAG_variable, DW_AT_name("count")
    1783                            .dwattr $C$DW$94, DW_AT_TI_symbol_name("count")
    1784                            .dwattr $C$DW$94, DW_AT_type(*$C$DW$T$24)
    1785                            .dwattr $C$DW$94, DW_AT_location[DW_OP_breg13 5]
    1786 00000002 1004F88D          STRB      A2, [SP, #4]          ; [DPU_3_PIPE] |217|  ; [KEEP 32-BIT INS]
    1787 00000006 9000              STR       A1, [SP, #0]          ; [DPU_3_PIPE] |217|  ; [ORIG 16-BIT INS]
    1788                            .dwpsn  file "../lcd_nokia5510.c",line 218,column 16,is_stmt,isa 1
    1789                    ;----------------------------------------------------------------------
    1790                    ; 218 | uint8_t count = 0;                                                     
    1791                    ;----------------------------------------------------------------------
    1792 00000008 2000              MOVS      A1, #0                ; [DPU_3_PIPE] |218|  ; [ORIG 16-BIT INS]
    1793 0000000a 0005F88D          STRB      A1, [SP, #5]          ; [DPU_3_PIPE] |218|  ; [KEEP 32-BIT INS]
    1794                            .dwpsn  file "../lcd_nokia5510.c",line 219,column 2,is_stmt,isa 1
    1795                    ;----------------------------------------------------------------------
    1796                    ; 219 | if(line > 7 || line < 1)                                               
    1797                    ; 220 |         return;                                                        
    1798                    ;----------------------------------------------------------------------
    1799 0000000e 0004F89D          LDRB      A1, [SP, #4]          ; [DPU_3_PIPE] |219|  ; [KEEP 32-BIT INS]
    1800 00000012 2807              CMP       A1, #7                ; [DPU_3_PIPE] |219|  ; [ORIG 16-BIT INS]
    1801 00000014 DC27              BGT       ||$C$L15||            ; [DPU_3_PIPE] |219|  ; [ORIG 16-BIT INS]
    1802                            ; BRANCHCC OCCURS {||$C$L15||}   ; [] |219| 
    1803                    ;* --------------------------------------------------------------------------*
    1804 00000016 0004F89D          LDRB      A1, [SP, #4]          ; [DPU_3_PIPE] |219|  ; [KEEP 32-BIT INS]
    1805 0000001a 2800              CMP       A1, #0                ; [DPU_3_PIPE] |219|  ; [ORIG 16-BIT INS]
    1806 0000001c DC00              BGT       ||$C$L11||            ; [DPU_3_PIPE] |219|  ; [ORIG 16-BIT INS]
    1807                            ; BRANCHCC OCCURS {||$C$L11||}   ; [] |219| 
    1808                    ;* --------------------------------------------------------------------------*
    1809 0000001e E022              B         ||$C$L15||            ; [DPU_3_PIPE] |219|  ; [ORIG 16-BIT INS]
    1810                            ; BRANCH OCCURS {||$C$L15||}     ; [] |219| 
    1811                    ;* --------------------------------------------------------------------------*
    1812                    ;* --------------------------------------------------------------------------*
    1813 00000020           ||$C$L11||:    
    1814                            .dwpsn  file "../lcd_nokia5510.c",line 221,column 2,is_stmt,isa 1
    1815                    ;----------------------------------------------------------------------
TI ARM Assembler PC v5.2.6 Wed Apr 27 11:03:41 2016

Tools Copyright (c) 1996-2015 Texas Instruments Incorporated
lcd_nokia5510.asm                                                    PAGE   34

    1816                    ; 221 | nokiaLCDsetXY(0,line-1);                                               
    1817                    ;----------------------------------------------------------------------
    1818 00000020 0004F89D          LDRB      A1, [SP, #4]          ; [DPU_3_PIPE] |221|  ; [KEEP 32-BIT INS]
    1819 00000024 1E40              SUBS      A1, A1, #1            ; [DPU_3_PIPE] |221|  ; [ORIG 16-BIT INS]
    1820 00000026 B2C1              UXTB      A2, A1                ; [DPU_3_PIPE] |221|  ; [ORIG 16-BIT INS]
    1821 00000028 2000              MOVS      A1, #0                ; [DPU_3_PIPE] |221|  ; [ORIG 16-BIT INS]
    1822                    $C$DW$95        .dwtag  DW_TAG_TI_branch
    1823                            .dwattr $C$DW$95, DW_AT_low_pc(0x00)
    1824                            .dwattr $C$DW$95, DW_AT_name("nokiaLCDsetXY")
    1825                            .dwattr $C$DW$95, DW_AT_TI_call
    1826 0000002a FFFEF7FF!         BL        nokiaLCDsetXY         ; [DPU_3_PIPE] |221|  ; [KEEP 32-BIT INS]
    1827                            ; CALL OCCURS {nokiaLCDsetXY }   ; [] |221| 
    1828                            .dwpsn  file "../lcd_nokia5510.c",line 222,column 8,is_stmt,isa 1
    1829                    ;----------------------------------------------------------------------
    1830                    ; 222 | while(count<12)                                                        
    1831                    ;----------------------------------------------------------------------
    1832 0000002e 0005F89D          LDRB      A1, [SP, #5]          ; [DPU_3_PIPE] |222|  ; [KEEP 32-BIT INS]
    1833 00000032 280C              CMP       A1, #12               ; [DPU_3_PIPE] |222|  ; [ORIG 16-BIT INS]
    1834 00000034 DA17              BGE       ||$C$L15||            ; [DPU_3_PIPE] |222|  ; [ORIG 16-BIT INS]
    1835                            ; BRANCHCC OCCURS {||$C$L15||}   ; [] |222| 
    1836                    ;* --------------------------------------------------------------------------*
    1837                    ;*   BEGIN LOOP ||$C$L12||
    1838                    ;*
    1839                    ;*   Loop source line                : 222
    1840                    ;*   Loop closing brace source line  : 233
    1841                    ;*   Known Minimum Trip Count        : 1
    1842                    ;*   Known Maximum Trip Count        : 4294967295
    1843                    ;*   Known Max Trip Count Factor     : 1
    1844                    ;* --------------------------------------------------------------------------*
    1845 00000036           ||$C$L12||:    
    1846                            .dwpsn  file "../lcd_nokia5510.c",line 224,column 3,is_stmt,isa 1
    1847                    ;----------------------------------------------------------------------
    1848                    ; 224 | if(validate_char(*s))                                                  
    1849                    ;----------------------------------------------------------------------
    1850 00000036 9800              LDR       A1, [SP, #0]          ; [DPU_3_PIPE] |224|  ; [ORIG 16-BIT INS]
    1851 00000038 7800              LDRB      A1, [A1, #0]          ; [DPU_3_PIPE] |224|  ; [ORIG 16-BIT INS]
    1852                    $C$DW$96        .dwtag  DW_TAG_TI_branch
    1853                            .dwattr $C$DW$96, DW_AT_low_pc(0x00)
    1854                            .dwattr $C$DW$96, DW_AT_name("validate_char")
    1855                            .dwattr $C$DW$96, DW_AT_TI_call
    1856 0000003a FFFEF7FF!         BL        validate_char         ; [DPU_3_PIPE] |224|  ; [KEEP 32-BIT INS]
    1857                            ; CALL OCCURS {validate_char }   ; [] |224| 
    1858 0000003e B130              CBZ       A1, ||$C$L13||        ; []  ; [ORIG 16-BIT INS]
    1859                            ; BRANCHCC OCCURS {||$C$L13||}   ; [] |224| 
    1860                    ;* --------------------------------------------------------------------------*
    1861                            .dwpsn  file "../lcd_nokia5510.c",line 226,column 4,is_stmt,isa 1
    1862                    ;----------------------------------------------------------------------
    1863                    ; 226 | nokiaLCDtext(*s++);                                                    
    1864                    ;----------------------------------------------------------------------
    1865 00000040 9900              LDR       A2, [SP, #0]          ; [DPU_3_PIPE] |226|  ; [ORIG 16-BIT INS]
    1866 00000042 0B01F811          LDRB      A1, [A2], #1          ; [DPU_3_PIPE] |226|  ; [KEEP 32-BIT INS]
    1867 00000046 9100              STR       A2, [SP, #0]          ; [DPU_3_PIPE] |226|  ; [ORIG 16-BIT INS]
    1868                    $C$DW$97        .dwtag  DW_TAG_TI_branch
    1869                            .dwattr $C$DW$97, DW_AT_low_pc(0x00)
    1870                            .dwattr $C$DW$97, DW_AT_name("nokiaLCDtext")
TI ARM Assembler PC v5.2.6 Wed Apr 27 11:03:41 2016

Tools Copyright (c) 1996-2015 Texas Instruments Incorporated
lcd_nokia5510.asm                                                    PAGE   35

    1871                            .dwattr $C$DW$97, DW_AT_TI_call
    1872 00000048 FFFEF7FF!         BL        nokiaLCDtext          ; [DPU_3_PIPE] |226|  ; [KEEP 32-BIT INS]
    1873                            ; CALL OCCURS {nokiaLCDtext }    ; [] |226| 
    1874                            .dwpsn  file "../lcd_nokia5510.c",line 227,column 3,is_stmt,isa 1
    1875                    ;----------------------------------------------------------------------
    1876                    ; 228 | else                                                                   
    1877                    ;----------------------------------------------------------------------
    1878 0000004c E002              B         ||$C$L14||            ; [DPU_3_PIPE] |227|  ; [ORIG 16-BIT INS]
    1879                            ; BRANCH OCCURS {||$C$L14||}     ; [] |227| 
    1880                    ;* --------------------------------------------------------------------------*
    1881 0000004e           ||$C$L13||:    
    1882                            .dwpsn  file "../lcd_nokia5510.c",line 230,column 4,is_stmt,isa 1
    1883                    ;----------------------------------------------------------------------
    1884                    ; 230 | *s++;                                                                  
    1885                    ;----------------------------------------------------------------------
    1886 0000004e 9800              LDR       A1, [SP, #0]          ; [DPU_3_PIPE] |230|  ; [ORIG 16-BIT INS]
    1887 00000050 1C40              ADDS      A1, A1, #1            ; [DPU_3_PIPE] |230|  ; [ORIG 16-BIT INS]
    1888 00000052 9000              STR       A1, [SP, #0]          ; [DPU_3_PIPE] |230|  ; [ORIG 16-BIT INS]
    1889                    ;* --------------------------------------------------------------------------*
    1890 00000054           ||$C$L14||:    
    1891                            .dwpsn  file "../lcd_nokia5510.c",line 232,column 3,is_stmt,isa 1
    1892                    ;----------------------------------------------------------------------
    1893                    ; 232 | count++;                                                               
    1894                    ;----------------------------------------------------------------------
    1895 00000054 0005F89D          LDRB      A1, [SP, #5]          ; [DPU_3_PIPE] |232|  ; [KEEP 32-BIT INS]
    1896 00000058 1C40              ADDS      A1, A1, #1            ; [DPU_3_PIPE] |232|  ; [ORIG 16-BIT INS]
    1897 0000005a 0005F88D          STRB      A1, [SP, #5]          ; [DPU_3_PIPE] |232|  ; [KEEP 32-BIT INS]
    1898                            .dwpsn  file "../lcd_nokia5510.c",line 222,column 8,is_stmt,isa 1
    1899 0000005e 0005F89D          LDRB      A1, [SP, #5]          ; [DPU_3_PIPE] |222|  ; [KEEP 32-BIT INS]
    1900 00000062 280C              CMP       A1, #12               ; [DPU_3_PIPE] |222|  ; [ORIG 16-BIT INS]
    1901 00000064 DBE7              BLT       ||$C$L12||            ; [DPU_3_PIPE] |222|  ; [ORIG 16-BIT INS]
    1902                            ; BRANCHCC OCCURS {||$C$L12||}   ; [] |222| 
    1903                    ;* --------------------------------------------------------------------------*
    1904                            .dwpsn  file "../lcd_nokia5510.c",line 234,column 1,is_stmt,isa 1
    1905                    ;* --------------------------------------------------------------------------*
    1906                    ||$C$L15||:    
    1907                    $C$DW$98        .dwtag  DW_TAG_TI_branch
    1908                            .dwattr $C$DW$98, DW_AT_low_pc(0x00)
    1909                            .dwattr $C$DW$98, DW_AT_TI_return
    1910 00000066 BD0E              POP       {A2, A3, A4, PC}      ; [DPU_3_PIPE]  ; [ORIG 16-BIT INS]
    1911                            .dwcfi  cfa_offset, 0
    1912                            ; BRANCH OCCURS                  ; [] 
    1913                            .dwattr $C$DW$89, DW_AT_TI_end_file("../lcd_nokia5510.c")
    1914                            .dwattr $C$DW$89, DW_AT_TI_end_line(0xea)
    1915                            .dwattr $C$DW$89, DW_AT_TI_end_column(0x01)
    1916                            .dwendentry
    1917                            .dwendtag $C$DW$89
    1918                    
    1919                    ;******************************************************************************
    1920                    ;* CONSTANT TABLE                                                             *
    1921                    ;******************************************************************************
    1922 00000048                   .sect   ".text:nokiaLCDwrite"
    1923                            .align  4
    1924 00000048 40005000  ||$C$CON1||:    .bits   1073762304,32
    1925                    ;******************************************************************************
TI ARM Assembler PC v5.2.6 Wed Apr 27 11:03:41 2016

Tools Copyright (c) 1996-2015 Texas Instruments Incorporated
lcd_nokia5510.asm                                                    PAGE   36

    1926                    ;* CONSTANT TABLE                                                             *
    1927                    ;******************************************************************************
    1928 000000d2                   .sect   ".text:nokiaLCDinit"
    1929                            .align  4
    1930 000000d2 080146C0  ||$C$CON2||:    .bits   -268433407,32
         000000d6 0000F000 
    1931                            .align  4
    1932 000000d6 5000F000  ||$C$CON3||:    .bits   1073762304,32
         000000da 00004000 
    1933                            .align  4
    1934 000000da 86A04000  ||$C$CON4||:    .bits   100000,32
         000000de 00000001 
    1935                    ;******************************************************************************
    1936                    ;* CONSTANT TABLE                                                             *
    1937                    ;******************************************************************************
    1938 00000052                   .sect   ".text:nokiaLCDtext"
    1939                            .align  4
    1940 00000052 000046C0! ||$C$CON5||:    .bits   ASCII,32
         00000056 00000000 
    1941                    ;*****************************************************************************
    1942                    ;* UNDEFINED EXTERNAL REFERENCES                                             *
    1943                    ;*****************************************************************************
    1944                            .global GPIOPinWrite
    1945                            .global GPIOPinTypeGPIOOutput
    1946                            .global SysCtlPeripheralEnable
    1947                            .global SysCtlDelay
    1948                            .global SSI_init
    1949                            .global SSI_write
    1950                    
    1951                    ;******************************************************************************
    1952                    ;* BUILD ATTRIBUTES                                                           *
    1953                    ;******************************************************************************
    1954                            .battr "aeabi", Tag_File, 1, Tag_ABI_PCS_wchar_t(2)
    1955                            .battr "aeabi", Tag_File, 1, Tag_ABI_FP_rounding(0)
    1956                            .battr "aeabi", Tag_File, 1, Tag_ABI_FP_denormal(0)
    1957                            .battr "aeabi", Tag_File, 1, Tag_ABI_FP_exceptions(0)
    1958                            .battr "aeabi", Tag_File, 1, Tag_ABI_FP_number_model(1)
    1959                            .battr "aeabi", Tag_File, 1, Tag_ABI_enum_size(0)
    1960                            .battr "aeabi", Tag_File, 1, Tag_ABI_optimization_goals(5)
    1961                            .battr "aeabi", Tag_File, 1, Tag_ABI_FP_optimization_goals(0)
    1962                            .battr "TI", Tag_File, 1, Tag_Bitfield_layout(2)
    1963                            .battr "TI", Tag_File, 1, Tag_FP_interface(1)
    1964                    
    1965                    ;******************************************************************************
    1966                    ;* TYPE INFORMATION                                                           *
    1967                    ;******************************************************************************
    1968                    
    1969                    $C$DW$T$20      .dwtag  DW_TAG_structure_type
    1970                            .dwattr $C$DW$T$20, DW_AT_byte_size(0x18)
    1971                    $C$DW$99        .dwtag  DW_TAG_member
    1972                            .dwattr $C$DW$99, DW_AT_type(*$C$DW$T$10)
    1973                            .dwattr $C$DW$99, DW_AT_name("fd")
    1974                            .dwattr $C$DW$99, DW_AT_TI_symbol_name("fd")
    1975                            .dwattr $C$DW$99, DW_AT_data_member_location[DW_OP_plus_uconst 0x0]
    1976                            .dwattr $C$DW$99, DW_AT_accessibility(DW_ACCESS_public)
TI ARM Assembler PC v5.2.6 Wed Apr 27 11:03:41 2016

Tools Copyright (c) 1996-2015 Texas Instruments Incorporated
lcd_nokia5510.asm                                                    PAGE   37

    1977                            .dwattr $C$DW$99, DW_AT_decl_file("C:/ti/ccsv6/tools/compiler/ti-cgt-arm_5.2.6/include/stdio.h
    1978                            .dwattr $C$DW$99, DW_AT_decl_line(0x5c)
    1979                            .dwattr $C$DW$99, DW_AT_decl_column(0x0b)
    1980                    $C$DW$100       .dwtag  DW_TAG_member
    1981                            .dwattr $C$DW$100, DW_AT_type(*$C$DW$T$19)
    1982                            .dwattr $C$DW$100, DW_AT_name("buf")
    1983                            .dwattr $C$DW$100, DW_AT_TI_symbol_name("buf")
    1984                            .dwattr $C$DW$100, DW_AT_data_member_location[DW_OP_plus_uconst 0x4]
    1985                            .dwattr $C$DW$100, DW_AT_accessibility(DW_ACCESS_public)
    1986                            .dwattr $C$DW$100, DW_AT_decl_file("C:/ti/ccsv6/tools/compiler/ti-cgt-arm_5.2.6/include/stdio.
    1987                            .dwattr $C$DW$100, DW_AT_decl_line(0x5d)
    1988                            .dwattr $C$DW$100, DW_AT_decl_column(0x16)
    1989                    $C$DW$101       .dwtag  DW_TAG_member
    1990                            .dwattr $C$DW$101, DW_AT_type(*$C$DW$T$19)
    1991                            .dwattr $C$DW$101, DW_AT_name("pos")
    1992                            .dwattr $C$DW$101, DW_AT_TI_symbol_name("pos")
    1993                            .dwattr $C$DW$101, DW_AT_data_member_location[DW_OP_plus_uconst 0x8]
    1994                            .dwattr $C$DW$101, DW_AT_accessibility(DW_ACCESS_public)
    1995                            .dwattr $C$DW$101, DW_AT_decl_file("C:/ti/ccsv6/tools/compiler/ti-cgt-arm_5.2.6/include/stdio.
    1996                            .dwattr $C$DW$101, DW_AT_decl_line(0x5e)
    1997                            .dwattr $C$DW$101, DW_AT_decl_column(0x16)
    1998                    $C$DW$102       .dwtag  DW_TAG_member
    1999                            .dwattr $C$DW$102, DW_AT_type(*$C$DW$T$19)
    2000                            .dwattr $C$DW$102, DW_AT_name("bufend")
    2001                            .dwattr $C$DW$102, DW_AT_TI_symbol_name("bufend")
    2002                            .dwattr $C$DW$102, DW_AT_data_member_location[DW_OP_plus_uconst 0xc]
    2003                            .dwattr $C$DW$102, DW_AT_accessibility(DW_ACCESS_public)
    2004                            .dwattr $C$DW$102, DW_AT_decl_file("C:/ti/ccsv6/tools/compiler/ti-cgt-arm_5.2.6/include/stdio.
    2005                            .dwattr $C$DW$102, DW_AT_decl_line(0x5f)
    2006                            .dwattr $C$DW$102, DW_AT_decl_column(0x16)
    2007                    $C$DW$103       .dwtag  DW_TAG_member
    2008                            .dwattr $C$DW$103, DW_AT_type(*$C$DW$T$19)
    2009                            .dwattr $C$DW$103, DW_AT_name("buff_stop")
    2010                            .dwattr $C$DW$103, DW_AT_TI_symbol_name("buff_stop")
    2011                            .dwattr $C$DW$103, DW_AT_data_member_location[DW_OP_plus_uconst 0x10]
    2012                            .dwattr $C$DW$103, DW_AT_accessibility(DW_ACCESS_public)
    2013                            .dwattr $C$DW$103, DW_AT_decl_file("C:/ti/ccsv6/tools/compiler/ti-cgt-arm_5.2.6/include/stdio.
    2014                            .dwattr $C$DW$103, DW_AT_decl_line(0x60)
    2015                            .dwattr $C$DW$103, DW_AT_decl_column(0x16)
    2016                    $C$DW$104       .dwtag  DW_TAG_member
    2017                            .dwattr $C$DW$104, DW_AT_type(*$C$DW$T$11)
    2018                            .dwattr $C$DW$104, DW_AT_name("flags")
    2019                            .dwattr $C$DW$104, DW_AT_TI_symbol_name("flags")
    2020                            .dwattr $C$DW$104, DW_AT_data_member_location[DW_OP_plus_uconst 0x14]
    2021                            .dwattr $C$DW$104, DW_AT_accessibility(DW_ACCESS_public)
    2022                            .dwattr $C$DW$104, DW_AT_decl_file("C:/ti/ccsv6/tools/compiler/ti-cgt-arm_5.2.6/include/stdio.
    2023                            .dwattr $C$DW$104, DW_AT_decl_line(0x61)
    2024                            .dwattr $C$DW$104, DW_AT_decl_column(0x16)
    2025                            .dwendtag $C$DW$T$20
    2026                    
    2027                            .dwattr $C$DW$T$20, DW_AT_decl_file("C:/ti/ccsv6/tools/compiler/ti-cgt-arm_5.2.6/include/stdio
    2028                            .dwattr $C$DW$T$20, DW_AT_decl_line(0x5b)
    2029                            .dwattr $C$DW$T$20, DW_AT_decl_column(0x10)
    2030                    $C$DW$T$22      .dwtag  DW_TAG_typedef, DW_AT_name("FILE")
    2031                            .dwattr $C$DW$T$22, DW_AT_type(*$C$DW$T$20)
TI ARM Assembler PC v5.2.6 Wed Apr 27 11:03:41 2016

Tools Copyright (c) 1996-2015 Texas Instruments Incorporated
lcd_nokia5510.asm                                                    PAGE   38

    2032                            .dwattr $C$DW$T$22, DW_AT_language(DW_LANG_C)
    2033                            .dwattr $C$DW$T$22, DW_AT_decl_file("C:/ti/ccsv6/tools/compiler/ti-cgt-arm_5.2.6/include/stdio
    2034                            .dwattr $C$DW$T$22, DW_AT_decl_line(0x62)
    2035                            .dwattr $C$DW$T$22, DW_AT_decl_column(0x03)
    2036                    $C$DW$T$2       .dwtag  DW_TAG_unspecified_type
    2037                            .dwattr $C$DW$T$2, DW_AT_name("void")
    2038                    $C$DW$T$3       .dwtag  DW_TAG_pointer_type
    2039                            .dwattr $C$DW$T$3, DW_AT_type(*$C$DW$T$2)
    2040                            .dwattr $C$DW$T$3, DW_AT_address_class(0x20)
    2041                    $C$DW$T$4       .dwtag  DW_TAG_base_type
    2042                            .dwattr $C$DW$T$4, DW_AT_encoding(DW_ATE_boolean)
    2043                            .dwattr $C$DW$T$4, DW_AT_name("bool")
    2044                            .dwattr $C$DW$T$4, DW_AT_byte_size(0x01)
    2045                    $C$DW$T$5       .dwtag  DW_TAG_base_type
    2046                            .dwattr $C$DW$T$5, DW_AT_encoding(DW_ATE_signed_char)
    2047                            .dwattr $C$DW$T$5, DW_AT_name("signed char")
    2048                            .dwattr $C$DW$T$5, DW_AT_byte_size(0x01)
    2049                    $C$DW$T$42      .dwtag  DW_TAG_typedef, DW_AT_name("int8_t")
    2050                            .dwattr $C$DW$T$42, DW_AT_type(*$C$DW$T$5)
    2051                            .dwattr $C$DW$T$42, DW_AT_language(DW_LANG_C)
    2052                            .dwattr $C$DW$T$42, DW_AT_decl_file("C:/ti/ccsv6/tools/compiler/ti-cgt-arm_5.2.6/include/stdin
    2053                            .dwattr $C$DW$T$42, DW_AT_decl_line(0x2a)
    2054                            .dwattr $C$DW$T$42, DW_AT_decl_column(0x1d)
    2055                    $C$DW$T$43      .dwtag  DW_TAG_typedef, DW_AT_name("int_least8_t")
    2056                            .dwattr $C$DW$T$43, DW_AT_type(*$C$DW$T$42)
    2057                            .dwattr $C$DW$T$43, DW_AT_language(DW_LANG_C)
    2058                            .dwattr $C$DW$T$43, DW_AT_decl_file("C:/ti/ccsv6/tools/compiler/ti-cgt-arm_5.2.6/include/stdin
    2059                            .dwattr $C$DW$T$43, DW_AT_decl_line(0x37)
    2060                            .dwattr $C$DW$T$43, DW_AT_decl_column(0x17)
    2061                    $C$DW$T$6       .dwtag  DW_TAG_base_type
    2062                            .dwattr $C$DW$T$6, DW_AT_encoding(DW_ATE_unsigned_char)
    2063                            .dwattr $C$DW$T$6, DW_AT_name("unsigned char")
    2064                            .dwattr $C$DW$T$6, DW_AT_byte_size(0x01)
    2065                    $C$DW$T$19      .dwtag  DW_TAG_pointer_type
    2066                            .dwattr $C$DW$T$19, DW_AT_type(*$C$DW$T$6)
    2067                            .dwattr $C$DW$T$19, DW_AT_address_class(0x20)
    2068                    $C$DW$T$24      .dwtag  DW_TAG_typedef, DW_AT_name("uint8_t")
    2069                            .dwattr $C$DW$T$24, DW_AT_type(*$C$DW$T$6)
    2070                            .dwattr $C$DW$T$24, DW_AT_language(DW_LANG_C)
    2071                            .dwattr $C$DW$T$24, DW_AT_decl_file("C:/ti/ccsv6/tools/compiler/ti-cgt-arm_5.2.6/include/stdin
    2072                            .dwattr $C$DW$T$24, DW_AT_decl_line(0x2b)
    2073                            .dwattr $C$DW$T$24, DW_AT_decl_column(0x1c)
    2074                    $C$DW$T$48      .dwtag  DW_TAG_const_type
    2075                            .dwattr $C$DW$T$48, DW_AT_type(*$C$DW$T$24)
    2076                    
    2077                    $C$DW$T$49      .dwtag  DW_TAG_array_type
    2078                            .dwattr $C$DW$T$49, DW_AT_type(*$C$DW$T$48)
    2079                            .dwattr $C$DW$T$49, DW_AT_language(DW_LANG_C)
    2080                            .dwattr $C$DW$T$49, DW_AT_byte_size(0x05)
    2081                    $C$DW$105       .dwtag  DW_TAG_subrange_type
    2082                            .dwattr $C$DW$105, DW_AT_upper_bound(0x04)
    2083                            .dwendtag $C$DW$T$49
    2084                    
    2085                    
    2086                    $C$DW$T$50      .dwtag  DW_TAG_array_type
TI ARM Assembler PC v5.2.6 Wed Apr 27 11:03:41 2016

Tools Copyright (c) 1996-2015 Texas Instruments Incorporated
lcd_nokia5510.asm                                                    PAGE   39

    2087                            .dwattr $C$DW$T$50, DW_AT_type(*$C$DW$T$48)
    2088                            .dwattr $C$DW$T$50, DW_AT_language(DW_LANG_C)
    2089                            .dwattr $C$DW$T$50, DW_AT_byte_size(0x1e0)
    2090                    $C$DW$106       .dwtag  DW_TAG_subrange_type
    2091                            .dwattr $C$DW$106, DW_AT_upper_bound(0x5f)
    2092                    $C$DW$107       .dwtag  DW_TAG_subrange_type
    2093                            .dwattr $C$DW$107, DW_AT_upper_bound(0x04)
    2094                            .dwendtag $C$DW$T$50
    2095                    
    2096                    $C$DW$T$53      .dwtag  DW_TAG_typedef, DW_AT_name("uint_least8_t")
    2097                            .dwattr $C$DW$T$53, DW_AT_type(*$C$DW$T$24)
    2098                            .dwattr $C$DW$T$53, DW_AT_language(DW_LANG_C)
    2099                            .dwattr $C$DW$T$53, DW_AT_decl_file("C:/ti/ccsv6/tools/compiler/ti-cgt-arm_5.2.6/include/stdin
    2100                            .dwattr $C$DW$T$53, DW_AT_decl_line(0x38)
    2101                            .dwattr $C$DW$T$53, DW_AT_decl_column(0x16)
    2102                    $C$DW$T$7       .dwtag  DW_TAG_base_type
    2103                            .dwattr $C$DW$T$7, DW_AT_encoding(DW_ATE_signed_char)
    2104                            .dwattr $C$DW$T$7, DW_AT_name("wchar_t")
    2105                            .dwattr $C$DW$T$7, DW_AT_byte_size(0x02)
    2106                    $C$DW$T$8       .dwtag  DW_TAG_base_type
    2107                            .dwattr $C$DW$T$8, DW_AT_encoding(DW_ATE_signed)
    2108                            .dwattr $C$DW$T$8, DW_AT_name("short")
    2109                            .dwattr $C$DW$T$8, DW_AT_byte_size(0x02)
    2110                    $C$DW$T$54      .dwtag  DW_TAG_typedef, DW_AT_name("int16_t")
    2111                            .dwattr $C$DW$T$54, DW_AT_type(*$C$DW$T$8)
    2112                            .dwattr $C$DW$T$54, DW_AT_language(DW_LANG_C)
    2113                            .dwattr $C$DW$T$54, DW_AT_decl_file("C:/ti/ccsv6/tools/compiler/ti-cgt-arm_5.2.6/include/stdin
    2114                            .dwattr $C$DW$T$54, DW_AT_decl_line(0x2c)
    2115                            .dwattr $C$DW$T$54, DW_AT_decl_column(0x1d)
    2116                    $C$DW$T$55      .dwtag  DW_TAG_typedef, DW_AT_name("int_least16_t")
    2117                            .dwattr $C$DW$T$55, DW_AT_type(*$C$DW$T$54)
    2118                            .dwattr $C$DW$T$55, DW_AT_language(DW_LANG_C)
    2119                            .dwattr $C$DW$T$55, DW_AT_decl_file("C:/ti/ccsv6/tools/compiler/ti-cgt-arm_5.2.6/include/stdin
    2120                            .dwattr $C$DW$T$55, DW_AT_decl_line(0x3a)
    2121                            .dwattr $C$DW$T$55, DW_AT_decl_column(0x17)
    2122                    $C$DW$T$9       .dwtag  DW_TAG_base_type
    2123                            .dwattr $C$DW$T$9, DW_AT_encoding(DW_ATE_unsigned)
    2124                            .dwattr $C$DW$T$9, DW_AT_name("unsigned short")
    2125                            .dwattr $C$DW$T$9, DW_AT_byte_size(0x02)
    2126                    $C$DW$T$56      .dwtag  DW_TAG_typedef, DW_AT_name("_Wchart")
    2127                            .dwattr $C$DW$T$56, DW_AT_type(*$C$DW$T$9)
    2128                            .dwattr $C$DW$T$56, DW_AT_language(DW_LANG_C)
    2129                            .dwattr $C$DW$T$56, DW_AT_decl_file("C:/ti/ccsv6/tools/compiler/ti-cgt-arm_5.2.6/include/yvals
    2130                            .dwattr $C$DW$T$56, DW_AT_decl_line(0x1e5)
    2131                            .dwattr $C$DW$T$56, DW_AT_decl_column(0x21)
    2132                    $C$DW$T$57      .dwtag  DW_TAG_typedef, DW_AT_name("_Wintt")
    2133                            .dwattr $C$DW$T$57, DW_AT_type(*$C$DW$T$9)
    2134                            .dwattr $C$DW$T$57, DW_AT_language(DW_LANG_C)
    2135                            .dwattr $C$DW$T$57, DW_AT_decl_file("C:/ti/ccsv6/tools/compiler/ti-cgt-arm_5.2.6/include/yvals
    2136                            .dwattr $C$DW$T$57, DW_AT_decl_line(0x1e6)
    2137                            .dwattr $C$DW$T$57, DW_AT_decl_column(0x21)
    2138                    $C$DW$T$58      .dwtag  DW_TAG_typedef, DW_AT_name("uint16_t")
    2139                            .dwattr $C$DW$T$58, DW_AT_type(*$C$DW$T$9)
    2140                            .dwattr $C$DW$T$58, DW_AT_language(DW_LANG_C)
    2141                            .dwattr $C$DW$T$58, DW_AT_decl_file("C:/ti/ccsv6/tools/compiler/ti-cgt-arm_5.2.6/include/stdin
TI ARM Assembler PC v5.2.6 Wed Apr 27 11:03:41 2016

Tools Copyright (c) 1996-2015 Texas Instruments Incorporated
lcd_nokia5510.asm                                                    PAGE   40

    2142                            .dwattr $C$DW$T$58, DW_AT_decl_line(0x2d)
    2143                            .dwattr $C$DW$T$58, DW_AT_decl_column(0x1c)
    2144                    $C$DW$T$59      .dwtag  DW_TAG_typedef, DW_AT_name("uint_least16_t")
    2145                            .dwattr $C$DW$T$59, DW_AT_type(*$C$DW$T$58)
    2146                            .dwattr $C$DW$T$59, DW_AT_language(DW_LANG_C)
    2147                            .dwattr $C$DW$T$59, DW_AT_decl_file("C:/ti/ccsv6/tools/compiler/ti-cgt-arm_5.2.6/include/stdin
    2148                            .dwattr $C$DW$T$59, DW_AT_decl_line(0x3b)
    2149                            .dwattr $C$DW$T$59, DW_AT_decl_column(0x16)
    2150                    $C$DW$T$10      .dwtag  DW_TAG_base_type
    2151                            .dwattr $C$DW$T$10, DW_AT_encoding(DW_ATE_signed)
    2152                            .dwattr $C$DW$T$10, DW_AT_name("int")
    2153                            .dwattr $C$DW$T$10, DW_AT_byte_size(0x04)
    2154                    $C$DW$T$60      .dwtag  DW_TAG_typedef, DW_AT_name("_Ptrdifft")
    2155                            .dwattr $C$DW$T$60, DW_AT_type(*$C$DW$T$10)
    2156                            .dwattr $C$DW$T$60, DW_AT_language(DW_LANG_C)
    2157                            .dwattr $C$DW$T$60, DW_AT_decl_file("C:/ti/ccsv6/tools/compiler/ti-cgt-arm_5.2.6/include/yvals
    2158                            .dwattr $C$DW$T$60, DW_AT_decl_line(0xa9)
    2159                            .dwattr $C$DW$T$60, DW_AT_decl_column(0x1e)
    2160                    $C$DW$T$61      .dwtag  DW_TAG_typedef, DW_AT_name("int32_t")
    2161                            .dwattr $C$DW$T$61, DW_AT_type(*$C$DW$T$10)
    2162                            .dwattr $C$DW$T$61, DW_AT_language(DW_LANG_C)
    2163                            .dwattr $C$DW$T$61, DW_AT_decl_file("C:/ti/ccsv6/tools/compiler/ti-cgt-arm_5.2.6/include/stdin
    2164                            .dwattr $C$DW$T$61, DW_AT_decl_line(0x2e)
    2165                            .dwattr $C$DW$T$61, DW_AT_decl_column(0x1d)
    2166                    $C$DW$T$62      .dwtag  DW_TAG_typedef, DW_AT_name("int_fast16_t")
    2167                            .dwattr $C$DW$T$62, DW_AT_type(*$C$DW$T$61)
    2168                            .dwattr $C$DW$T$62, DW_AT_language(DW_LANG_C)
    2169                            .dwattr $C$DW$T$62, DW_AT_decl_file("C:/ti/ccsv6/tools/compiler/ti-cgt-arm_5.2.6/include/stdin
    2170                            .dwattr $C$DW$T$62, DW_AT_decl_line(0x47)
    2171                            .dwattr $C$DW$T$62, DW_AT_decl_column(0x17)
    2172                    $C$DW$T$63      .dwtag  DW_TAG_typedef, DW_AT_name("int_fast32_t")
    2173                            .dwattr $C$DW$T$63, DW_AT_type(*$C$DW$T$61)
    2174                            .dwattr $C$DW$T$63, DW_AT_language(DW_LANG_C)
    2175                            .dwattr $C$DW$T$63, DW_AT_decl_file("C:/ti/ccsv6/tools/compiler/ti-cgt-arm_5.2.6/include/stdin
    2176                            .dwattr $C$DW$T$63, DW_AT_decl_line(0x4a)
    2177                            .dwattr $C$DW$T$63, DW_AT_decl_column(0x17)
    2178                    $C$DW$T$64      .dwtag  DW_TAG_typedef, DW_AT_name("int_fast8_t")
    2179                            .dwattr $C$DW$T$64, DW_AT_type(*$C$DW$T$61)
    2180                            .dwattr $C$DW$T$64, DW_AT_language(DW_LANG_C)
    2181                            .dwattr $C$DW$T$64, DW_AT_decl_file("C:/ti/ccsv6/tools/compiler/ti-cgt-arm_5.2.6/include/stdin
    2182                            .dwattr $C$DW$T$64, DW_AT_decl_line(0x45)
    2183                            .dwattr $C$DW$T$64, DW_AT_decl_column(0x17)
    2184                    $C$DW$T$65      .dwtag  DW_TAG_typedef, DW_AT_name("int_least32_t")
    2185                            .dwattr $C$DW$T$65, DW_AT_type(*$C$DW$T$61)
    2186                            .dwattr $C$DW$T$65, DW_AT_language(DW_LANG_C)
    2187                            .dwattr $C$DW$T$65, DW_AT_decl_file("C:/ti/ccsv6/tools/compiler/ti-cgt-arm_5.2.6/include/stdin
    2188                            .dwattr $C$DW$T$65, DW_AT_decl_line(0x3c)
    2189                            .dwattr $C$DW$T$65, DW_AT_decl_column(0x17)
    2190                    $C$DW$T$66      .dwtag  DW_TAG_typedef, DW_AT_name("intptr_t")
    2191                            .dwattr $C$DW$T$66, DW_AT_type(*$C$DW$T$10)
    2192                            .dwattr $C$DW$T$66, DW_AT_language(DW_LANG_C)
    2193                            .dwattr $C$DW$T$66, DW_AT_decl_file("C:/ti/ccsv6/tools/compiler/ti-cgt-arm_5.2.6/include/stdin
    2194                            .dwattr $C$DW$T$66, DW_AT_decl_line(0x52)
    2195                            .dwattr $C$DW$T$66, DW_AT_decl_column(0x1a)
    2196                    $C$DW$T$11      .dwtag  DW_TAG_base_type
TI ARM Assembler PC v5.2.6 Wed Apr 27 11:03:41 2016

Tools Copyright (c) 1996-2015 Texas Instruments Incorporated
lcd_nokia5510.asm                                                    PAGE   41

    2197                            .dwattr $C$DW$T$11, DW_AT_encoding(DW_ATE_unsigned)
    2198                            .dwattr $C$DW$T$11, DW_AT_name("unsigned int")
    2199                            .dwattr $C$DW$T$11, DW_AT_byte_size(0x04)
    2200                    $C$DW$T$67      .dwtag  DW_TAG_typedef, DW_AT_name("_Sizet")
    2201                            .dwattr $C$DW$T$67, DW_AT_type(*$C$DW$T$11)
    2202                            .dwattr $C$DW$T$67, DW_AT_language(DW_LANG_C)
    2203                            .dwattr $C$DW$T$67, DW_AT_decl_file("C:/ti/ccsv6/tools/compiler/ti-cgt-arm_5.2.6/include/yvals
    2204                            .dwattr $C$DW$T$67, DW_AT_decl_line(0xab)
    2205                            .dwattr $C$DW$T$67, DW_AT_decl_column(0x1a)
    2206                    $C$DW$T$68      .dwtag  DW_TAG_typedef, DW_AT_name("size_t")
    2207                            .dwattr $C$DW$T$68, DW_AT_type(*$C$DW$T$11)
    2208                            .dwattr $C$DW$T$68, DW_AT_language(DW_LANG_C)
    2209                            .dwattr $C$DW$T$68, DW_AT_decl_file("C:/ti/ccsv6/tools/compiler/ti-cgt-arm_5.2.6/include/stdio
    2210                            .dwattr $C$DW$T$68, DW_AT_decl_line(0x58)
    2211                            .dwattr $C$DW$T$68, DW_AT_decl_column(0x19)
    2212                    $C$DW$T$23      .dwtag  DW_TAG_typedef, DW_AT_name("uint32_t")
    2213                            .dwattr $C$DW$T$23, DW_AT_type(*$C$DW$T$11)
    2214                            .dwattr $C$DW$T$23, DW_AT_language(DW_LANG_C)
    2215                            .dwattr $C$DW$T$23, DW_AT_decl_file("C:/ti/ccsv6/tools/compiler/ti-cgt-arm_5.2.6/include/stdin
    2216                            .dwattr $C$DW$T$23, DW_AT_decl_line(0x2f)
    2217                            .dwattr $C$DW$T$23, DW_AT_decl_column(0x1c)
    2218                    $C$DW$T$69      .dwtag  DW_TAG_typedef, DW_AT_name("uint_fast16_t")
    2219                            .dwattr $C$DW$T$69, DW_AT_type(*$C$DW$T$23)
    2220                            .dwattr $C$DW$T$69, DW_AT_language(DW_LANG_C)
    2221                            .dwattr $C$DW$T$69, DW_AT_decl_file("C:/ti/ccsv6/tools/compiler/ti-cgt-arm_5.2.6/include/stdin
    2222                            .dwattr $C$DW$T$69, DW_AT_decl_line(0x48)
    2223                            .dwattr $C$DW$T$69, DW_AT_decl_column(0x16)
    2224                    $C$DW$T$70      .dwtag  DW_TAG_typedef, DW_AT_name("uint_fast32_t")
    2225                            .dwattr $C$DW$T$70, DW_AT_type(*$C$DW$T$23)
    2226                            .dwattr $C$DW$T$70, DW_AT_language(DW_LANG_C)
    2227                            .dwattr $C$DW$T$70, DW_AT_decl_file("C:/ti/ccsv6/tools/compiler/ti-cgt-arm_5.2.6/include/stdin
    2228                            .dwattr $C$DW$T$70, DW_AT_decl_line(0x4b)
    2229                            .dwattr $C$DW$T$70, DW_AT_decl_column(0x16)
    2230                    $C$DW$T$71      .dwtag  DW_TAG_typedef, DW_AT_name("uint_fast8_t")
    2231                            .dwattr $C$DW$T$71, DW_AT_type(*$C$DW$T$23)
    2232                            .dwattr $C$DW$T$71, DW_AT_language(DW_LANG_C)
    2233                            .dwattr $C$DW$T$71, DW_AT_decl_file("C:/ti/ccsv6/tools/compiler/ti-cgt-arm_5.2.6/include/stdin
    2234                            .dwattr $C$DW$T$71, DW_AT_decl_line(0x46)
    2235                            .dwattr $C$DW$T$71, DW_AT_decl_column(0x16)
    2236                    $C$DW$T$72      .dwtag  DW_TAG_typedef, DW_AT_name("uint_least32_t")
    2237                            .dwattr $C$DW$T$72, DW_AT_type(*$C$DW$T$23)
    2238                            .dwattr $C$DW$T$72, DW_AT_language(DW_LANG_C)
    2239                            .dwattr $C$DW$T$72, DW_AT_decl_file("C:/ti/ccsv6/tools/compiler/ti-cgt-arm_5.2.6/include/stdin
    2240                            .dwattr $C$DW$T$72, DW_AT_decl_line(0x3d)
    2241                            .dwattr $C$DW$T$72, DW_AT_decl_column(0x16)
    2242                    $C$DW$T$73      .dwtag  DW_TAG_typedef, DW_AT_name("uintptr_t")
    2243                            .dwattr $C$DW$T$73, DW_AT_type(*$C$DW$T$11)
    2244                            .dwattr $C$DW$T$73, DW_AT_language(DW_LANG_C)
    2245                            .dwattr $C$DW$T$73, DW_AT_decl_file("C:/ti/ccsv6/tools/compiler/ti-cgt-arm_5.2.6/include/stdin
    2246                            .dwattr $C$DW$T$73, DW_AT_decl_line(0x53)
    2247                            .dwattr $C$DW$T$73, DW_AT_decl_column(0x1a)
    2248                    $C$DW$T$12      .dwtag  DW_TAG_base_type
    2249                            .dwattr $C$DW$T$12, DW_AT_encoding(DW_ATE_signed)
    2250                            .dwattr $C$DW$T$12, DW_AT_name("long")
    2251                            .dwattr $C$DW$T$12, DW_AT_byte_size(0x04)
TI ARM Assembler PC v5.2.6 Wed Apr 27 11:03:41 2016

Tools Copyright (c) 1996-2015 Texas Instruments Incorporated
lcd_nokia5510.asm                                                    PAGE   42

    2252                    $C$DW$T$74      .dwtag  DW_TAG_typedef, DW_AT_name("_Int32t")
    2253                            .dwattr $C$DW$T$74, DW_AT_type(*$C$DW$T$12)
    2254                            .dwattr $C$DW$T$74, DW_AT_language(DW_LANG_C)
    2255                            .dwattr $C$DW$T$74, DW_AT_decl_file("C:/ti/ccsv6/tools/compiler/ti-cgt-arm_5.2.6/include/yvals
    2256                            .dwattr $C$DW$T$74, DW_AT_decl_line(0xa6)
    2257                            .dwattr $C$DW$T$74, DW_AT_decl_column(0x0e)
    2258                    $C$DW$T$75      .dwtag  DW_TAG_typedef, DW_AT_name("fpos_t")
    2259                            .dwattr $C$DW$T$75, DW_AT_type(*$C$DW$T$12)
    2260                            .dwattr $C$DW$T$75, DW_AT_language(DW_LANG_C)
    2261                            .dwattr $C$DW$T$75, DW_AT_decl_file("C:/ti/ccsv6/tools/compiler/ti-cgt-arm_5.2.6/include/stdio
    2262                            .dwattr $C$DW$T$75, DW_AT_decl_line(0x6e)
    2263                            .dwattr $C$DW$T$75, DW_AT_decl_column(0x0e)
    2264                    $C$DW$T$13      .dwtag  DW_TAG_base_type
    2265                            .dwattr $C$DW$T$13, DW_AT_encoding(DW_ATE_unsigned)
    2266                            .dwattr $C$DW$T$13, DW_AT_name("unsigned long")
    2267                            .dwattr $C$DW$T$13, DW_AT_byte_size(0x04)
    2268                    $C$DW$T$76      .dwtag  DW_TAG_typedef, DW_AT_name("_Uint32t")
    2269                            .dwattr $C$DW$T$76, DW_AT_type(*$C$DW$T$13)
    2270                            .dwattr $C$DW$T$76, DW_AT_language(DW_LANG_C)
    2271                            .dwattr $C$DW$T$76, DW_AT_decl_file("C:/ti/ccsv6/tools/compiler/ti-cgt-arm_5.2.6/include/yvals
    2272                            .dwattr $C$DW$T$76, DW_AT_decl_line(0xa7)
    2273                            .dwattr $C$DW$T$76, DW_AT_decl_column(0x17)
    2274                    $C$DW$T$14      .dwtag  DW_TAG_base_type
    2275                            .dwattr $C$DW$T$14, DW_AT_encoding(DW_ATE_signed)
    2276                            .dwattr $C$DW$T$14, DW_AT_name("long long")
    2277                            .dwattr $C$DW$T$14, DW_AT_byte_size(0x08)
    2278                    $C$DW$T$77      .dwtag  DW_TAG_typedef, DW_AT_name("_Longlong")
    2279                            .dwattr $C$DW$T$77, DW_AT_type(*$C$DW$T$14)
    2280                            .dwattr $C$DW$T$77, DW_AT_language(DW_LANG_C)
    2281                            .dwattr $C$DW$T$77, DW_AT_decl_file("C:/ti/ccsv6/tools/compiler/ti-cgt-arm_5.2.6/include/yvals
    2282                            .dwattr $C$DW$T$77, DW_AT_decl_line(0x1b5)
    2283                            .dwattr $C$DW$T$77, DW_AT_decl_column(0x13)
    2284                    $C$DW$T$78      .dwtag  DW_TAG_typedef, DW_AT_name("int64_t")
    2285                            .dwattr $C$DW$T$78, DW_AT_type(*$C$DW$T$14)
    2286                            .dwattr $C$DW$T$78, DW_AT_language(DW_LANG_C)
    2287                            .dwattr $C$DW$T$78, DW_AT_decl_file("C:/ti/ccsv6/tools/compiler/ti-cgt-arm_5.2.6/include/stdin
    2288                            .dwattr $C$DW$T$78, DW_AT_decl_line(0x32)
    2289                            .dwattr $C$DW$T$78, DW_AT_decl_column(0x21)
    2290                    $C$DW$T$79      .dwtag  DW_TAG_typedef, DW_AT_name("int_fast64_t")
    2291                            .dwattr $C$DW$T$79, DW_AT_type(*$C$DW$T$78)
    2292                            .dwattr $C$DW$T$79, DW_AT_language(DW_LANG_C)
    2293                            .dwattr $C$DW$T$79, DW_AT_decl_file("C:/ti/ccsv6/tools/compiler/ti-cgt-arm_5.2.6/include/stdin
    2294                            .dwattr $C$DW$T$79, DW_AT_decl_line(0x4e)
    2295                            .dwattr $C$DW$T$79, DW_AT_decl_column(0x17)
    2296                    $C$DW$T$80      .dwtag  DW_TAG_typedef, DW_AT_name("int_least64_t")
    2297                            .dwattr $C$DW$T$80, DW_AT_type(*$C$DW$T$78)
    2298                            .dwattr $C$DW$T$80, DW_AT_language(DW_LANG_C)
    2299                            .dwattr $C$DW$T$80, DW_AT_decl_file("C:/ti/ccsv6/tools/compiler/ti-cgt-arm_5.2.6/include/stdin
    2300                            .dwattr $C$DW$T$80, DW_AT_decl_line(0x40)
    2301                            .dwattr $C$DW$T$80, DW_AT_decl_column(0x17)
    2302                    $C$DW$T$81      .dwtag  DW_TAG_typedef, DW_AT_name("intmax_t")
    2303                            .dwattr $C$DW$T$81, DW_AT_type(*$C$DW$T$14)
    2304                            .dwattr $C$DW$T$81, DW_AT_language(DW_LANG_C)
    2305                            .dwattr $C$DW$T$81, DW_AT_decl_file("C:/ti/ccsv6/tools/compiler/ti-cgt-arm_5.2.6/include/stdin
    2306                            .dwattr $C$DW$T$81, DW_AT_decl_line(0x56)
TI ARM Assembler PC v5.2.6 Wed Apr 27 11:03:41 2016

Tools Copyright (c) 1996-2015 Texas Instruments Incorporated
lcd_nokia5510.asm                                                    PAGE   43

    2307                            .dwattr $C$DW$T$81, DW_AT_decl_column(0x20)
    2308                    $C$DW$T$15      .dwtag  DW_TAG_base_type
    2309                            .dwattr $C$DW$T$15, DW_AT_encoding(DW_ATE_unsigned)
    2310                            .dwattr $C$DW$T$15, DW_AT_name("unsigned long long")
    2311                            .dwattr $C$DW$T$15, DW_AT_byte_size(0x08)
    2312                    $C$DW$T$82      .dwtag  DW_TAG_typedef, DW_AT_name("_ULonglong")
    2313                            .dwattr $C$DW$T$82, DW_AT_type(*$C$DW$T$15)
    2314                            .dwattr $C$DW$T$82, DW_AT_language(DW_LANG_C)
    2315                            .dwattr $C$DW$T$82, DW_AT_decl_file("C:/ti/ccsv6/tools/compiler/ti-cgt-arm_5.2.6/include/yvals
    2316                            .dwattr $C$DW$T$82, DW_AT_decl_line(0x1b6)
    2317                            .dwattr $C$DW$T$82, DW_AT_decl_column(0x14)
    2318                    $C$DW$T$83      .dwtag  DW_TAG_typedef, DW_AT_name("uint64_t")
    2319                            .dwattr $C$DW$T$83, DW_AT_type(*$C$DW$T$15)
    2320                            .dwattr $C$DW$T$83, DW_AT_language(DW_LANG_C)
    2321                            .dwattr $C$DW$T$83, DW_AT_decl_file("C:/ti/ccsv6/tools/compiler/ti-cgt-arm_5.2.6/include/stdin
    2322                            .dwattr $C$DW$T$83, DW_AT_decl_line(0x33)
    2323                            .dwattr $C$DW$T$83, DW_AT_decl_column(0x20)
    2324                    $C$DW$T$84      .dwtag  DW_TAG_typedef, DW_AT_name("uint_fast64_t")
    2325                            .dwattr $C$DW$T$84, DW_AT_type(*$C$DW$T$83)
    2326                            .dwattr $C$DW$T$84, DW_AT_language(DW_LANG_C)
    2327                            .dwattr $C$DW$T$84, DW_AT_decl_file("C:/ti/ccsv6/tools/compiler/ti-cgt-arm_5.2.6/include/stdin
    2328                            .dwattr $C$DW$T$84, DW_AT_decl_line(0x4f)
    2329                            .dwattr $C$DW$T$84, DW_AT_decl_column(0x16)
    2330                    $C$DW$T$85      .dwtag  DW_TAG_typedef, DW_AT_name("uint_least64_t")
    2331                            .dwattr $C$DW$T$85, DW_AT_type(*$C$DW$T$83)
    2332                            .dwattr $C$DW$T$85, DW_AT_language(DW_LANG_C)
    2333                            .dwattr $C$DW$T$85, DW_AT_decl_file("C:/ti/ccsv6/tools/compiler/ti-cgt-arm_5.2.6/include/stdin
    2334                            .dwattr $C$DW$T$85, DW_AT_decl_line(0x41)
    2335                            .dwattr $C$DW$T$85, DW_AT_decl_column(0x16)
    2336                    $C$DW$T$86      .dwtag  DW_TAG_typedef, DW_AT_name("uintmax_t")
    2337                            .dwattr $C$DW$T$86, DW_AT_type(*$C$DW$T$15)
    2338                            .dwattr $C$DW$T$86, DW_AT_language(DW_LANG_C)
    2339                            .dwattr $C$DW$T$86, DW_AT_decl_file("C:/ti/ccsv6/tools/compiler/ti-cgt-arm_5.2.6/include/stdin
    2340                            .dwattr $C$DW$T$86, DW_AT_decl_line(0x57)
    2341                            .dwattr $C$DW$T$86, DW_AT_decl_column(0x20)
    2342                    $C$DW$T$16      .dwtag  DW_TAG_base_type
    2343                            .dwattr $C$DW$T$16, DW_AT_encoding(DW_ATE_float)
    2344                            .dwattr $C$DW$T$16, DW_AT_name("float")
    2345                            .dwattr $C$DW$T$16, DW_AT_byte_size(0x04)
    2346                    $C$DW$T$17      .dwtag  DW_TAG_base_type
    2347                            .dwattr $C$DW$T$17, DW_AT_encoding(DW_ATE_float)
    2348                            .dwattr $C$DW$T$17, DW_AT_name("double")
    2349                            .dwattr $C$DW$T$17, DW_AT_byte_size(0x08)
    2350                    $C$DW$T$18      .dwtag  DW_TAG_base_type
    2351                            .dwattr $C$DW$T$18, DW_AT_encoding(DW_ATE_float)
    2352                            .dwattr $C$DW$T$18, DW_AT_name("long double")
    2353                            .dwattr $C$DW$T$18, DW_AT_byte_size(0x08)
    2354                    $C$DW$T$87      .dwtag  DW_TAG_typedef, DW_AT_name("_Sysch_t")
    2355                            .dwattr $C$DW$T$87, DW_AT_type(*$C$DW$T$6)
    2356                            .dwattr $C$DW$T$87, DW_AT_language(DW_LANG_C)
    2357                            .dwattr $C$DW$T$87, DW_AT_decl_file("C:/ti/ccsv6/tools/compiler/ti-cgt-arm_5.2.6/include/yvals
    2358                            .dwattr $C$DW$T$87, DW_AT_decl_line(0x218)
    2359                            .dwattr $C$DW$T$87, DW_AT_decl_column(0x0e)
    2360                    $C$DW$T$40      .dwtag  DW_TAG_pointer_type
    2361                            .dwattr $C$DW$T$40, DW_AT_type(*$C$DW$T$6)
TI ARM Assembler PC v5.2.6 Wed Apr 27 11:03:41 2016

Tools Copyright (c) 1996-2015 Texas Instruments Incorporated
lcd_nokia5510.asm                                                    PAGE   44

    2362                            .dwattr $C$DW$T$40, DW_AT_address_class(0x20)
    2363                    $C$DW$T$88      .dwtag  DW_TAG_typedef, DW_AT_name("__builtin_va_list")
    2364                            .dwattr $C$DW$T$88, DW_AT_type(*$C$DW$T$40)
    2365                            .dwattr $C$DW$T$88, DW_AT_language(DW_LANG_C)
    2366                            .dwattr $C$DW$T$88, DW_AT_decl_file("../lcd_nokia5510.c")
    2367                            .dwattr $C$DW$T$88, DW_AT_decl_line(0xea)
    2368                            .dwattr $C$DW$T$88, DW_AT_decl_column(0x01)
    2369                    
    2370                    $C$DW$T$21      .dwtag  DW_TAG_structure_type
    2371                            .dwattr $C$DW$T$21, DW_AT_name("__va_list")
    2372                            .dwattr $C$DW$T$21, DW_AT_byte_size(0x04)
    2373                    $C$DW$108       .dwtag  DW_TAG_member
    2374                            .dwattr $C$DW$108, DW_AT_type(*$C$DW$T$3)
    2375                            .dwattr $C$DW$108, DW_AT_name("__ap")
    2376                            .dwattr $C$DW$108, DW_AT_TI_symbol_name("__ap")
    2377                            .dwattr $C$DW$108, DW_AT_data_member_location[DW_OP_plus_uconst 0x0]
    2378                            .dwattr $C$DW$108, DW_AT_accessibility(DW_ACCESS_public)
    2379                            .dwattr $C$DW$108, DW_AT_decl_file("C:/ti/ccsv6/tools/compiler/ti-cgt-arm_5.2.6/include/stdarg
    2380                            .dwattr $C$DW$108, DW_AT_decl_line(0x36)
    2381                            .dwattr $C$DW$108, DW_AT_decl_column(0x0c)
    2382                            .dwendtag $C$DW$T$21
    2383                    
    2384                            .dwattr $C$DW$T$21, DW_AT_decl_file("C:/ti/ccsv6/tools/compiler/ti-cgt-arm_5.2.6/include/stdar
    2385                            .dwattr $C$DW$T$21, DW_AT_decl_line(0x35)
    2386                            .dwattr $C$DW$T$21, DW_AT_decl_column(0x10)
    2387                    $C$DW$T$89      .dwtag  DW_TAG_typedef, DW_AT_name("va_list")
    2388                            .dwattr $C$DW$T$89, DW_AT_type(*$C$DW$T$21)
    2389                            .dwattr $C$DW$T$89, DW_AT_language(DW_LANG_C)
    2390                            .dwattr $C$DW$T$89, DW_AT_decl_file("C:/ti/ccsv6/tools/compiler/ti-cgt-arm_5.2.6/include/stdar
    2391                            .dwattr $C$DW$T$89, DW_AT_decl_line(0x37)
    2392                            .dwattr $C$DW$T$89, DW_AT_decl_column(0x03)
    2393                    $C$DW$T$90      .dwtag  DW_TAG_typedef, DW_AT_name("_Va_list")
    2394                            .dwattr $C$DW$T$90, DW_AT_type(*$C$DW$T$89)
    2395                            .dwattr $C$DW$T$90, DW_AT_language(DW_LANG_C)
    2396                            .dwattr $C$DW$T$90, DW_AT_decl_file("C:/ti/ccsv6/tools/compiler/ti-cgt-arm_5.2.6/include/yvals
    2397                            .dwattr $C$DW$T$90, DW_AT_decl_line(0x1f6)
    2398                            .dwattr $C$DW$T$90, DW_AT_decl_column(0x17)
    2399                            .dwattr $C$DW$CU, DW_AT_language(DW_LANG_C)
    2400                    
    2401                    ;***************************************************************
    2402                    ;* DWARF CIE ENTRIES                                           *
    2403                    ;***************************************************************
    2404                    
    2405                    $C$DW$CIE       .dwcie 14
    2406                            .dwcfi  cfa_register, 13
    2407                            .dwcfi  cfa_offset, 0
    2408                            .dwcfi  undefined, 0
    2409                            .dwcfi  undefined, 1
    2410                            .dwcfi  undefined, 2
    2411                            .dwcfi  undefined, 3
    2412                            .dwcfi  same_value, 4
    2413                            .dwcfi  same_value, 5
    2414                            .dwcfi  same_value, 6
    2415                            .dwcfi  same_value, 7
    2416                            .dwcfi  same_value, 8
TI ARM Assembler PC v5.2.6 Wed Apr 27 11:03:41 2016

Tools Copyright (c) 1996-2015 Texas Instruments Incorporated
lcd_nokia5510.asm                                                    PAGE   45

    2417                            .dwcfi  same_value, 9
    2418                            .dwcfi  same_value, 10
    2419                            .dwcfi  same_value, 11
    2420                            .dwcfi  undefined, 12
    2421                            .dwcfi  undefined, 13
    2422                            .dwcfi  undefined, 14
    2423                            .dwcfi  undefined, 14
    2424                            .dwcfi  undefined, 7
    2425                            .dwcfi  undefined, 64
    2426                            .dwcfi  undefined, 65
    2427                            .dwcfi  undefined, 66
    2428                            .dwcfi  undefined, 67
    2429                            .dwcfi  undefined, 68
    2430                            .dwcfi  undefined, 69
    2431                            .dwcfi  undefined, 70
    2432                            .dwcfi  undefined, 71
    2433                            .dwcfi  undefined, 72
    2434                            .dwcfi  undefined, 73
    2435                            .dwcfi  undefined, 74
    2436                            .dwcfi  undefined, 75
    2437                            .dwcfi  undefined, 76
    2438                            .dwcfi  undefined, 77
    2439                            .dwcfi  undefined, 78
    2440                            .dwcfi  undefined, 79
    2441                            .dwcfi  same_value, 80
    2442                            .dwcfi  same_value, 81
    2443                            .dwcfi  same_value, 82
    2444                            .dwcfi  same_value, 83
    2445                            .dwcfi  same_value, 84
    2446                            .dwcfi  same_value, 85
    2447                            .dwcfi  same_value, 86
    2448                            .dwcfi  same_value, 87
    2449                            .dwcfi  same_value, 88
    2450                            .dwcfi  same_value, 89
    2451                            .dwcfi  same_value, 90
    2452                            .dwcfi  same_value, 91
    2453                            .dwcfi  same_value, 92
    2454                            .dwcfi  same_value, 93
    2455                            .dwcfi  same_value, 94
    2456                            .dwcfi  same_value, 95
    2457                            .dwendentry
    2458                            .dwendtag $C$DW$CU
    2459                    

--------------------------
Thumb2 Statistics
--------------------------
Number of Thumb2 ins converted to Thumb = 0 (0%)
Number of Thumb ins in input = 172 (63%)
Number of Thumb2 ins encoded as Thumb2 = 99 (100%)
Number of Thumb2 ins converted to 2 OPND Thumb = 2


No Assembly Errors, No Assembly Warnings
