;******************************************************************************
;* TI ARM C/C++ Codegen                                             PC v5.2.5 *
;* Date/Time created: Wed Oct 21 12:39:07 2015                                *
;******************************************************************************
	.compiler_opts --abi=eabi --arm_vmrs_si_workaround=off --code_state=16 --diag_wrap=off --disable_dual_state --embedded_constants=on --endian=little --float_support=FPv4SPD16 --hll_source=on --object_format=elf --silicon_version=7M4 --symdebug:dwarf --symdebug:dwarf_version=3 --unaligned_access=on 
	.thumb

$C$DW$CU	.dwtag  DW_TAG_compile_unit
	.dwattr $C$DW$CU, DW_AT_name("../timers.c")
	.dwattr $C$DW$CU, DW_AT_producer("TI TI ARM C/C++ Codegen PC v5.2.5 Copyright (c) 1996-2015 Texas Instruments Incorporated")
	.dwattr $C$DW$CU, DW_AT_TI_version(0x01)
	.dwattr $C$DW$CU, DW_AT_comp_dir("E:\Dev\Ti\Code\GIT\LaunchpadRoomControl\LaunchpadRoomControl\timers\Debug")

$C$DW$1	.dwtag  DW_TAG_subprogram, DW_AT_name("GPIOPinWrite")
	.dwattr $C$DW$1, DW_AT_TI_symbol_name("GPIOPinWrite")
	.dwattr $C$DW$1, DW_AT_declaration
	.dwattr $C$DW$1, DW_AT_external
	.dwattr $C$DW$1, DW_AT_decl_file("E:/Dev/Ti/TivaWare/driverlib/gpio.h")
	.dwattr $C$DW$1, DW_AT_decl_line(0x9e)
	.dwattr $C$DW$1, DW_AT_decl_column(0x0d)
$C$DW$2	.dwtag  DW_TAG_formal_parameter
	.dwattr $C$DW$2, DW_AT_type(*$C$DW$T$49)
$C$DW$3	.dwtag  DW_TAG_formal_parameter
	.dwattr $C$DW$3, DW_AT_type(*$C$DW$T$50)
$C$DW$4	.dwtag  DW_TAG_formal_parameter
	.dwattr $C$DW$4, DW_AT_type(*$C$DW$T$50)
	.dwendtag $C$DW$1


$C$DW$5	.dwtag  DW_TAG_subprogram, DW_AT_name("IntMasterEnable")
	.dwattr $C$DW$5, DW_AT_TI_symbol_name("IntMasterEnable")
	.dwattr $C$DW$5, DW_AT_type(*$C$DW$T$123)
	.dwattr $C$DW$5, DW_AT_declaration
	.dwattr $C$DW$5, DW_AT_external
	.dwattr $C$DW$5, DW_AT_decl_file("E:/Dev/Ti/TivaWare/driverlib/interrupt.h")
	.dwattr $C$DW$5, DW_AT_decl_line(0x43)
	.dwattr $C$DW$5, DW_AT_decl_column(0x0d)

$C$DW$6	.dwtag  DW_TAG_subprogram, DW_AT_name("IntMasterDisable")
	.dwattr $C$DW$6, DW_AT_TI_symbol_name("IntMasterDisable")
	.dwattr $C$DW$6, DW_AT_type(*$C$DW$T$123)
	.dwattr $C$DW$6, DW_AT_declaration
	.dwattr $C$DW$6, DW_AT_external
	.dwattr $C$DW$6, DW_AT_decl_file("E:/Dev/Ti/TivaWare/driverlib/interrupt.h")
	.dwattr $C$DW$6, DW_AT_decl_line(0x44)
	.dwattr $C$DW$6, DW_AT_decl_column(0x0d)

$C$DW$7	.dwtag  DW_TAG_subprogram, DW_AT_name("SysCtlDelay")
	.dwattr $C$DW$7, DW_AT_TI_symbol_name("SysCtlDelay")
	.dwattr $C$DW$7, DW_AT_declaration
	.dwattr $C$DW$7, DW_AT_external
	.dwattr $C$DW$7, DW_AT_decl_file("E:/Dev/Ti/TivaWare/driverlib/sysctl.h")
	.dwattr $C$DW$7, DW_AT_decl_line(0x268)
	.dwattr $C$DW$7, DW_AT_decl_column(0x0d)
$C$DW$8	.dwtag  DW_TAG_formal_parameter
	.dwattr $C$DW$8, DW_AT_type(*$C$DW$T$49)
	.dwendtag $C$DW$7


$C$DW$9	.dwtag  DW_TAG_subprogram, DW_AT_name("SysCtlClockSet")
	.dwattr $C$DW$9, DW_AT_TI_symbol_name("SysCtlClockSet")
	.dwattr $C$DW$9, DW_AT_declaration
	.dwattr $C$DW$9, DW_AT_external
	.dwattr $C$DW$9, DW_AT_decl_file("E:/Dev/Ti/TivaWare/driverlib/sysctl.h")
	.dwattr $C$DW$9, DW_AT_decl_line(0x26b)
	.dwattr $C$DW$9, DW_AT_decl_column(0x0d)
$C$DW$10	.dwtag  DW_TAG_formal_parameter
	.dwattr $C$DW$10, DW_AT_type(*$C$DW$T$49)
	.dwendtag $C$DW$9


$C$DW$11	.dwtag  DW_TAG_subprogram, DW_AT_name("SysCtlClockGet")
	.dwattr $C$DW$11, DW_AT_TI_symbol_name("SysCtlClockGet")
	.dwattr $C$DW$11, DW_AT_type(*$C$DW$T$49)
	.dwattr $C$DW$11, DW_AT_declaration
	.dwattr $C$DW$11, DW_AT_external
	.dwattr $C$DW$11, DW_AT_decl_file("E:/Dev/Ti/TivaWare/driverlib/sysctl.h")
	.dwattr $C$DW$11, DW_AT_decl_line(0x26c)
	.dwattr $C$DW$11, DW_AT_decl_column(0x11)

$C$DW$12	.dwtag  DW_TAG_subprogram, DW_AT_name("SysTickEnable")
	.dwattr $C$DW$12, DW_AT_TI_symbol_name("SysTickEnable")
	.dwattr $C$DW$12, DW_AT_declaration
	.dwattr $C$DW$12, DW_AT_external
	.dwattr $C$DW$12, DW_AT_decl_file("E:/Dev/Ti/TivaWare/driverlib/systick.h")
	.dwattr $C$DW$12, DW_AT_decl_line(0x3b)
	.dwattr $C$DW$12, DW_AT_decl_column(0x0d)

$C$DW$13	.dwtag  DW_TAG_subprogram, DW_AT_name("SysTickIntEnable")
	.dwattr $C$DW$13, DW_AT_TI_symbol_name("SysTickIntEnable")
	.dwattr $C$DW$13, DW_AT_declaration
	.dwattr $C$DW$13, DW_AT_external
	.dwattr $C$DW$13, DW_AT_decl_file("E:/Dev/Ti/TivaWare/driverlib/systick.h")
	.dwattr $C$DW$13, DW_AT_decl_line(0x3f)
	.dwattr $C$DW$13, DW_AT_decl_column(0x0d)

$C$DW$14	.dwtag  DW_TAG_subprogram, DW_AT_name("SysTickPeriodSet")
	.dwattr $C$DW$14, DW_AT_TI_symbol_name("SysTickPeriodSet")
	.dwattr $C$DW$14, DW_AT_declaration
	.dwattr $C$DW$14, DW_AT_external
	.dwattr $C$DW$14, DW_AT_decl_file("E:/Dev/Ti/TivaWare/driverlib/systick.h")
	.dwattr $C$DW$14, DW_AT_decl_line(0x41)
	.dwattr $C$DW$14, DW_AT_decl_column(0x0d)
$C$DW$15	.dwtag  DW_TAG_formal_parameter
	.dwattr $C$DW$15, DW_AT_type(*$C$DW$T$49)
	.dwendtag $C$DW$14


$C$DW$16	.dwtag  DW_TAG_subprogram, DW_AT_name("UARTClockSourceSet")
	.dwattr $C$DW$16, DW_AT_TI_symbol_name("UARTClockSourceSet")
	.dwattr $C$DW$16, DW_AT_declaration
	.dwattr $C$DW$16, DW_AT_external
	.dwattr $C$DW$16, DW_AT_decl_file("E:/Dev/Ti/TivaWare/driverlib/uart.h")
	.dwattr $C$DW$16, DW_AT_decl_line(0xee)
	.dwattr $C$DW$16, DW_AT_decl_column(0x0d)
$C$DW$17	.dwtag  DW_TAG_formal_parameter
	.dwattr $C$DW$17, DW_AT_type(*$C$DW$T$49)
$C$DW$18	.dwtag  DW_TAG_formal_parameter
	.dwattr $C$DW$18, DW_AT_type(*$C$DW$T$49)
	.dwendtag $C$DW$16


$C$DW$19	.dwtag  DW_TAG_subprogram, DW_AT_name("init_sensors")
	.dwattr $C$DW$19, DW_AT_TI_symbol_name("init_sensors")
	.dwattr $C$DW$19, DW_AT_declaration
	.dwattr $C$DW$19, DW_AT_external
	.dwattr $C$DW$19, DW_AT_decl_file("..\sensors.h")
	.dwattr $C$DW$19, DW_AT_decl_line(0x0a)
	.dwattr $C$DW$19, DW_AT_decl_column(0x06)

$C$DW$20	.dwtag  DW_TAG_subprogram, DW_AT_name("check_sensor1")
	.dwattr $C$DW$20, DW_AT_TI_symbol_name("check_sensor1")
	.dwattr $C$DW$20, DW_AT_type(*$C$DW$T$16)
	.dwattr $C$DW$20, DW_AT_declaration
	.dwattr $C$DW$20, DW_AT_external
	.dwattr $C$DW$20, DW_AT_decl_file("..\sensors.h")
	.dwattr $C$DW$20, DW_AT_decl_line(0x0b)
	.dwattr $C$DW$20, DW_AT_decl_column(0x07)

$C$DW$21	.dwtag  DW_TAG_subprogram, DW_AT_name("check_sensor2")
	.dwattr $C$DW$21, DW_AT_TI_symbol_name("check_sensor2")
	.dwattr $C$DW$21, DW_AT_type(*$C$DW$T$16)
	.dwattr $C$DW$21, DW_AT_declaration
	.dwattr $C$DW$21, DW_AT_external
	.dwattr $C$DW$21, DW_AT_decl_file("..\sensors.h")
	.dwattr $C$DW$21, DW_AT_decl_line(0x0c)
	.dwattr $C$DW$21, DW_AT_decl_column(0x07)

$C$DW$22	.dwtag  DW_TAG_subprogram, DW_AT_name("check_sensor3")
	.dwattr $C$DW$22, DW_AT_TI_symbol_name("check_sensor3")
	.dwattr $C$DW$22, DW_AT_declaration
	.dwattr $C$DW$22, DW_AT_external
	.dwattr $C$DW$22, DW_AT_decl_file("..\sensors.h")
	.dwattr $C$DW$22, DW_AT_decl_line(0x0d)
	.dwattr $C$DW$22, DW_AT_decl_column(0x06)

$C$DW$23	.dwtag  DW_TAG_subprogram, DW_AT_name("check_sensor4")
	.dwattr $C$DW$23, DW_AT_TI_symbol_name("check_sensor4")
	.dwattr $C$DW$23, DW_AT_declaration
	.dwattr $C$DW$23, DW_AT_external
	.dwattr $C$DW$23, DW_AT_decl_file("..\sensors.h")
	.dwattr $C$DW$23, DW_AT_decl_line(0x0e)
	.dwattr $C$DW$23, DW_AT_decl_column(0x06)

$C$DW$24	.dwtag  DW_TAG_subprogram, DW_AT_name("check_fan_timer")
	.dwattr $C$DW$24, DW_AT_TI_symbol_name("check_fan_timer")
	.dwattr $C$DW$24, DW_AT_declaration
	.dwattr $C$DW$24, DW_AT_external
	.dwattr $C$DW$24, DW_AT_decl_file("..\sensors.h")
	.dwattr $C$DW$24, DW_AT_decl_line(0x0f)
	.dwattr $C$DW$24, DW_AT_decl_column(0x06)
$C$DW$25	.dwtag  DW_TAG_formal_parameter
	.dwattr $C$DW$25, DW_AT_type(*$C$DW$T$49)
	.dwendtag $C$DW$24


$C$DW$26	.dwtag  DW_TAG_subprogram, DW_AT_name("update_lcd")
	.dwattr $C$DW$26, DW_AT_TI_symbol_name("update_lcd")
	.dwattr $C$DW$26, DW_AT_declaration
	.dwattr $C$DW$26, DW_AT_external
	.dwattr $C$DW$26, DW_AT_decl_file("..\sensors.h")
	.dwattr $C$DW$26, DW_AT_decl_line(0x12)
	.dwattr $C$DW$26, DW_AT_decl_column(0x06)

$C$DW$27	.dwtag  DW_TAG_subprogram, DW_AT_name("update_thingspeak")
	.dwattr $C$DW$27, DW_AT_TI_symbol_name("update_thingspeak")
	.dwattr $C$DW$27, DW_AT_declaration
	.dwattr $C$DW$27, DW_AT_external
	.dwattr $C$DW$27, DW_AT_decl_file("..\sensors.h")
	.dwattr $C$DW$27, DW_AT_decl_line(0x13)
	.dwattr $C$DW$27, DW_AT_decl_column(0x06)

$C$DW$28	.dwtag  DW_TAG_subprogram, DW_AT_name("nokiaLCDinit")
	.dwattr $C$DW$28, DW_AT_TI_symbol_name("nokiaLCDinit")
	.dwattr $C$DW$28, DW_AT_declaration
	.dwattr $C$DW$28, DW_AT_external
	.dwattr $C$DW$28, DW_AT_decl_file("..\lcd_nokia5510.h")
	.dwattr $C$DW$28, DW_AT_decl_line(0x16)
	.dwattr $C$DW$28, DW_AT_decl_column(0x06)

$C$DW$29	.dwtag  DW_TAG_subprogram, DW_AT_name("init_esp8266")
	.dwattr $C$DW$29, DW_AT_TI_symbol_name("init_esp8266")
	.dwattr $C$DW$29, DW_AT_type(*$C$DW$T$50)
	.dwattr $C$DW$29, DW_AT_declaration
	.dwattr $C$DW$29, DW_AT_external
	.dwattr $C$DW$29, DW_AT_decl_file("..\esp8266.h")
	.dwattr $C$DW$29, DW_AT_decl_line(0x1e)
	.dwattr $C$DW$29, DW_AT_decl_column(0x09)

$C$DW$30	.dwtag  DW_TAG_subprogram, DW_AT_name("getTimer0ChAvalue")
	.dwattr $C$DW$30, DW_AT_TI_symbol_name("getTimer0ChAvalue")
	.dwattr $C$DW$30, DW_AT_type(*$C$DW$T$49)
	.dwattr $C$DW$30, DW_AT_declaration
	.dwattr $C$DW$30, DW_AT_external
	.dwattr $C$DW$30, DW_AT_decl_file("..\dht22.h")
	.dwattr $C$DW$30, DW_AT_decl_line(0x14)
	.dwattr $C$DW$30, DW_AT_decl_column(0x0a)
	.global	g_ui32SysTickCounter
	.common	g_ui32SysTickCounter,4,4
$C$DW$31	.dwtag  DW_TAG_variable, DW_AT_name("g_ui32SysTickCounter")
	.dwattr $C$DW$31, DW_AT_TI_symbol_name("g_ui32SysTickCounter")
	.dwattr $C$DW$31, DW_AT_location[DW_OP_addr g_ui32SysTickCounter]
	.dwattr $C$DW$31, DW_AT_type(*$C$DW$T$98)
	.dwattr $C$DW$31, DW_AT_external
	.dwattr $C$DW$31, DW_AT_decl_file("../timers.c")
	.dwattr $C$DW$31, DW_AT_decl_line(0x1f)
	.dwattr $C$DW$31, DW_AT_decl_column(0x13)
	.global	g_ui32SecondsCounter
	.common	g_ui32SecondsCounter,4,4
$C$DW$32	.dwtag  DW_TAG_variable, DW_AT_name("g_ui32SecondsCounter")
	.dwattr $C$DW$32, DW_AT_TI_symbol_name("g_ui32SecondsCounter")
	.dwattr $C$DW$32, DW_AT_location[DW_OP_addr g_ui32SecondsCounter]
	.dwattr $C$DW$32, DW_AT_type(*$C$DW$T$98)
	.dwattr $C$DW$32, DW_AT_external
	.dwattr $C$DW$32, DW_AT_decl_file("../timers.c")
	.dwattr $C$DW$32, DW_AT_decl_line(0x20)
	.dwattr $C$DW$32, DW_AT_decl_column(0x13)
	.global	g_bFeedWatchdog
	.data
	.align	1
	.elfsym	g_bFeedWatchdog,SYM_SIZE(1)
g_bFeedWatchdog:
	.bits	0,8			; g_bFeedWatchdog @ 0

$C$DW$33	.dwtag  DW_TAG_variable, DW_AT_name("g_bFeedWatchdog")
	.dwattr $C$DW$33, DW_AT_TI_symbol_name("g_bFeedWatchdog")
	.dwattr $C$DW$33, DW_AT_location[DW_OP_addr g_bFeedWatchdog]
	.dwattr $C$DW$33, DW_AT_type(*$C$DW$T$126)
	.dwattr $C$DW$33, DW_AT_external
	.dwattr $C$DW$33, DW_AT_decl_file("../timers.c")
	.dwattr $C$DW$33, DW_AT_decl_line(0x22)
	.dwattr $C$DW$33, DW_AT_decl_column(0x0f)
	.global	g_bWatchdogTimeoutMsgSent
	.data
	.align	1
	.elfsym	g_bWatchdogTimeoutMsgSent,SYM_SIZE(1)
g_bWatchdogTimeoutMsgSent:
	.bits	0,8			; g_bWatchdogTimeoutMsgSent @ 0

$C$DW$34	.dwtag  DW_TAG_variable, DW_AT_name("g_bWatchdogTimeoutMsgSent")
	.dwattr $C$DW$34, DW_AT_TI_symbol_name("g_bWatchdogTimeoutMsgSent")
	.dwattr $C$DW$34, DW_AT_location[DW_OP_addr g_bWatchdogTimeoutMsgSent]
	.dwattr $C$DW$34, DW_AT_type(*$C$DW$T$126)
	.dwattr $C$DW$34, DW_AT_external
	.dwattr $C$DW$34, DW_AT_decl_file("../timers.c")
	.dwattr $C$DW$34, DW_AT_decl_line(0x22)
	.dwattr $C$DW$34, DW_AT_decl_column(0x28)
	.data
	.align	4
	.elfsym	lastUpdateCounter$1,SYM_SIZE(4)
lastUpdateCounter$1:
	.bits	0,32			; lastUpdateCounter$1 @ 0

	.common	temp_secondsCounter$2,4,4
	.data
	.align	4
	.elfsym	sysTickTemp$3,SYM_SIZE(4)
sysTickTemp$3:
	.bits	0,32			; sysTickTemp$3 @ 0

;	C:\ti\ccsv6\tools\compiler\ti-cgt-arm_5.2.5\bin\armacpia.exe -@C:\\Users\\DCOSAS~1.SAG\\AppData\\Local\\Temp\\0909612 
	.sect	".text:WatchdogIntHandler"
	.clink
	.thumbfunc WatchdogIntHandler
	.thumb
	.global	WatchdogIntHandler

$C$DW$35	.dwtag  DW_TAG_subprogram, DW_AT_name("WatchdogIntHandler")
	.dwattr $C$DW$35, DW_AT_low_pc(WatchdogIntHandler)
	.dwattr $C$DW$35, DW_AT_high_pc(0x00)
	.dwattr $C$DW$35, DW_AT_TI_symbol_name("WatchdogIntHandler")
	.dwattr $C$DW$35, DW_AT_external
	.dwattr $C$DW$35, DW_AT_TI_begin_file("../timers.c")
	.dwattr $C$DW$35, DW_AT_TI_begin_line(0x25)
	.dwattr $C$DW$35, DW_AT_TI_begin_column(0x01)
	.dwattr $C$DW$35, DW_AT_decl_file("../timers.c")
	.dwattr $C$DW$35, DW_AT_decl_line(0x25)
	.dwattr $C$DW$35, DW_AT_decl_column(0x01)
	.dwattr $C$DW$35, DW_AT_TI_max_frame_size(0x08)
	.dwpsn	file "../timers.c",line 38,column 1,is_stmt,address WatchdogIntHandler,isa 1

	.dwfde $C$DW$CIE, WatchdogIntHandler
;----------------------------------------------------------------------
;  37 | WatchdogIntHandler(void)                                               
;----------------------------------------------------------------------

;*****************************************************************************
;* FUNCTION NAME: WatchdogIntHandler                                         *
;*                                                                           *
;*   Regs Modified     : A1,A2,A3,A4,V9,SP,LR,SR,D0,D0_hi,D1,D1_hi,D2,D2_hi, *
;*                           D3,D3_hi,D4,D4_hi,D5,D5_hi,D6,D6_hi,D7,D7_hi,   *
;*                           FPEXC,FPSCR                                     *
;*   Regs Used         : A1,A2,A3,A4,V9,SP,LR,SR,D0,D0_hi,D1,D1_hi,D2,D2_hi, *
;*                           D3,D3_hi,D4,D4_hi,D5,D5_hi,D6,D6_hi,D7,D7_hi,   *
;*                           FPEXC,FPSCR                                     *
;*   Local Frame Size  : 0 Args + 0 Auto + 4 Save = 4 byte                   *
;*****************************************************************************
WatchdogIntHandler:
;* --------------------------------------------------------------------------*
	.dwcfi	cfa_offset, 0
        PUSH      {A4, LR}              ; [DPU_3_PIPE] 
	.dwcfi	cfa_offset, 8
	.dwcfi	save_reg_to_mem, 14, -4
	.dwcfi	save_reg_to_mem, 3, -8
	.dwpsn	file "../timers.c",line 39,column 5,is_stmt,isa 1
;----------------------------------------------------------------------
;  39 | if(!g_bFeedWatchdog)//if watchdog not fed, restart the sytem, else kick
;     |  dog                                                                   
;----------------------------------------------------------------------
        LDR       A1, $C$CON1           ; [DPU_3_PIPE] |39| 
        LDRB      A1, [A1, #0]          ; [DPU_3_PIPE] |39| 
        CBNZ      A1, ||$C$L1||         ; [] 
        ; BRANCHCC OCCURS {||$C$L1||}    ; [] |39| 
;* --------------------------------------------------------------------------*
	.dwpsn	file "../timers.c",line 41,column 6,is_stmt,isa 1
;----------------------------------------------------------------------
;  41 | if(!g_bWatchdogTimeoutMsgSent)                                         
;----------------------------------------------------------------------
        LDR       A1, $C$CON2           ; [DPU_3_PIPE] |41| 
        LDRB      A1, [A1, #0]          ; [DPU_3_PIPE] |41| 
        CBNZ      A1, ||$C$L2||         ; [] 
        ; BRANCHCC OCCURS {||$C$L2||}    ; [] |41| 
;* --------------------------------------------------------------------------*
	.dwpsn	file "../timers.c",line 43,column 7,is_stmt,isa 1
;----------------------------------------------------------------------
;  43 | IntMasterDisable();                                                    
;----------------------------------------------------------------------
$C$DW$36	.dwtag  DW_TAG_TI_branch
	.dwattr $C$DW$36, DW_AT_low_pc(0x00)
	.dwattr $C$DW$36, DW_AT_name("IntMasterDisable")
	.dwattr $C$DW$36, DW_AT_TI_call
        BL        IntMasterDisable      ; [DPU_3_PIPE] |43| 
        ; CALL OCCURS {IntMasterDisable }  ; [] |43| 
	.dwpsn	file "../timers.c",line 44,column 7,is_stmt,isa 1
;----------------------------------------------------------------------
;  44 | g_bWatchdogTimeoutMsgSent = true;                                      
;----------------------------------------------------------------------
        LDR       A2, $C$CON2           ; [DPU_3_PIPE] |44| 
        MOVS      A1, #1                ; [DPU_3_PIPE] |44| 
        STRB      A1, [A2, #0]          ; [DPU_3_PIPE] |44| 
	.dwpsn	file "../timers.c",line 45,column 7,is_stmt,isa 1
;----------------------------------------------------------------------
;  45 | IntMasterEnable();                                                     
;----------------------------------------------------------------------
$C$DW$37	.dwtag  DW_TAG_TI_branch
	.dwattr $C$DW$37, DW_AT_low_pc(0x00)
	.dwattr $C$DW$37, DW_AT_name("IntMasterEnable")
	.dwattr $C$DW$37, DW_AT_TI_call
        BL        IntMasterEnable       ; [DPU_3_PIPE] |45| 
        ; CALL OCCURS {IntMasterEnable }  ; [] |45| 
	.dwpsn	file "../timers.c",line 47,column 6,is_stmt,isa 1
;----------------------------------------------------------------------
;  47 | return;                                                                
;----------------------------------------------------------------------
        B         ||$C$L2||             ; [DPU_3_PIPE] |47| 
        ; BRANCH OCCURS {||$C$L2||}      ; [] |47| 
;* --------------------------------------------------------------------------*
||$C$L1||:    
	.dwpsn	file "../timers.c",line 50,column 5,is_stmt,isa 1
;----------------------------------------------------------------------
;  50 | ROM_WatchdogIntClear(WATCHDOG0_BASE);                                  
;----------------------------------------------------------------------
        LDR       A1, $C$CON3           ; [DPU_3_PIPE] |50| 
        LDR       A1, [A1, #0]          ; [DPU_3_PIPE] |50| 
        LDR       A1, [A1, #0]          ; [DPU_3_PIPE] |50| 
        MOV       A2, A1                ; [DPU_3_PIPE] |50| 
        MOV       A1, #1073741824       ; [DPU_3_PIPE] |50| 
$C$DW$38	.dwtag  DW_TAG_TI_branch
	.dwattr $C$DW$38, DW_AT_low_pc(0x00)
	.dwattr $C$DW$38, DW_AT_TI_call
	.dwattr $C$DW$38, DW_AT_TI_indirect
        BLX       A2                    ; [DPU_3_PIPE] |50| 
        ; CALL OCCURS {}                 ; [] |50| 
	.dwpsn	file "../timers.c",line 51,column 1,is_stmt,isa 1
;* --------------------------------------------------------------------------*
||$C$L2||:    
$C$DW$39	.dwtag  DW_TAG_TI_branch
	.dwattr $C$DW$39, DW_AT_low_pc(0x00)
	.dwattr $C$DW$39, DW_AT_TI_return
        POP       {A4, PC}              ; [DPU_3_PIPE] 
	.dwcfi	cfa_offset, 0
        ; BRANCH OCCURS                  ; [] 
	.dwattr $C$DW$35, DW_AT_TI_end_file("../timers.c")
	.dwattr $C$DW$35, DW_AT_TI_end_line(0x33)
	.dwattr $C$DW$35, DW_AT_TI_end_column(0x01)
	.dwendentry
	.dwendtag $C$DW$35

	.sect	".text:__error__"
	.clink
	.thumbfunc __error__
	.thumb
	.global	__error__

$C$DW$40	.dwtag  DW_TAG_subprogram, DW_AT_name("__error__")
	.dwattr $C$DW$40, DW_AT_low_pc(__error__)
	.dwattr $C$DW$40, DW_AT_high_pc(0x00)
	.dwattr $C$DW$40, DW_AT_TI_symbol_name("__error__")
	.dwattr $C$DW$40, DW_AT_external
	.dwattr $C$DW$40, DW_AT_TI_begin_file("../timers.c")
	.dwattr $C$DW$40, DW_AT_TI_begin_line(0x37)
	.dwattr $C$DW$40, DW_AT_TI_begin_column(0x01)
	.dwattr $C$DW$40, DW_AT_decl_file("../timers.c")
	.dwattr $C$DW$40, DW_AT_decl_line(0x37)
	.dwattr $C$DW$40, DW_AT_decl_column(0x01)
	.dwattr $C$DW$40, DW_AT_TI_max_frame_size(0x08)
	.dwpsn	file "../timers.c",line 56,column 1,is_stmt,address __error__,isa 1

	.dwfde $C$DW$CIE, __error__
$C$DW$41	.dwtag  DW_TAG_formal_parameter, DW_AT_name("pcFilename")
	.dwattr $C$DW$41, DW_AT_TI_symbol_name("pcFilename")
	.dwattr $C$DW$41, DW_AT_type(*$C$DW$T$61)
	.dwattr $C$DW$41, DW_AT_location[DW_OP_reg0]
$C$DW$42	.dwtag  DW_TAG_formal_parameter, DW_AT_name("ui32Line")
	.dwattr $C$DW$42, DW_AT_TI_symbol_name("ui32Line")
	.dwattr $C$DW$42, DW_AT_type(*$C$DW$T$49)
	.dwattr $C$DW$42, DW_AT_location[DW_OP_reg1]
;----------------------------------------------------------------------
;  55 | __error__(char *pcFilename, uint32_t ui32Line)                         
;----------------------------------------------------------------------

;*****************************************************************************
;* FUNCTION NAME: __error__                                                  *
;*                                                                           *
;*   Regs Modified     : SP                                                  *
;*   Regs Used         : A1,A2,SP,LR                                         *
;*   Local Frame Size  : 0 Args + 8 Auto + 0 Save = 8 byte                   *
;*****************************************************************************
__error__:
;* --------------------------------------------------------------------------*
	.dwcfi	cfa_offset, 0
        SUB       SP, SP, #8            ; [DPU_3_PIPE] 
	.dwcfi	cfa_offset, 8
$C$DW$43	.dwtag  DW_TAG_variable, DW_AT_name("pcFilename")
	.dwattr $C$DW$43, DW_AT_TI_symbol_name("pcFilename")
	.dwattr $C$DW$43, DW_AT_type(*$C$DW$T$61)
	.dwattr $C$DW$43, DW_AT_location[DW_OP_breg13 0]
$C$DW$44	.dwtag  DW_TAG_variable, DW_AT_name("ui32Line")
	.dwattr $C$DW$44, DW_AT_TI_symbol_name("ui32Line")
	.dwattr $C$DW$44, DW_AT_type(*$C$DW$T$49)
	.dwattr $C$DW$44, DW_AT_location[DW_OP_breg13 4]
        STR       A2, [SP, #4]          ; [DPU_3_PIPE] |56| 
        STR       A1, [SP, #0]          ; [DPU_3_PIPE] |56| 
	.dwpsn	file "../timers.c",line 57,column 1,is_stmt,isa 1
        ADD       SP, SP, #8            ; [DPU_3_PIPE] 
	.dwcfi	cfa_offset, 0
$C$DW$45	.dwtag  DW_TAG_TI_branch
	.dwattr $C$DW$45, DW_AT_low_pc(0x00)
	.dwattr $C$DW$45, DW_AT_TI_return
        BX        LR                    ; [DPU_3_PIPE] 
        ; BRANCH OCCURS                  ; [] 
	.dwattr $C$DW$40, DW_AT_TI_end_file("../timers.c")
	.dwattr $C$DW$40, DW_AT_TI_end_line(0x39)
	.dwattr $C$DW$40, DW_AT_TI_end_column(0x01)
	.dwendentry
	.dwendtag $C$DW$40

	.sect	".text:ConfigureUART"
	.clink
	.thumbfunc ConfigureUART
	.thumb
	.global	ConfigureUART

$C$DW$46	.dwtag  DW_TAG_subprogram, DW_AT_name("ConfigureUART")
	.dwattr $C$DW$46, DW_AT_low_pc(ConfigureUART)
	.dwattr $C$DW$46, DW_AT_high_pc(0x00)
	.dwattr $C$DW$46, DW_AT_TI_symbol_name("ConfigureUART")
	.dwattr $C$DW$46, DW_AT_external
	.dwattr $C$DW$46, DW_AT_TI_begin_file("../timers.c")
	.dwattr $C$DW$46, DW_AT_TI_begin_line(0x3d)
	.dwattr $C$DW$46, DW_AT_TI_begin_column(0x01)
	.dwattr $C$DW$46, DW_AT_decl_file("../timers.c")
	.dwattr $C$DW$46, DW_AT_decl_line(0x3d)
	.dwattr $C$DW$46, DW_AT_decl_column(0x01)
	.dwattr $C$DW$46, DW_AT_TI_max_frame_size(0x08)
	.dwpsn	file "../timers.c",line 62,column 1,is_stmt,address ConfigureUART,isa 1

	.dwfde $C$DW$CIE, ConfigureUART
;----------------------------------------------------------------------
;  61 | ConfigureUART(void)                                                    
;----------------------------------------------------------------------

;*****************************************************************************
;* FUNCTION NAME: ConfigureUART                                              *
;*                                                                           *
;*   Regs Modified     : A1,A2,A3,A4,V9,SP,LR,SR,D0,D0_hi,D1,D1_hi,D2,D2_hi, *
;*                           D3,D3_hi,D4,D4_hi,D5,D5_hi,D6,D6_hi,D7,D7_hi,   *
;*                           FPEXC,FPSCR                                     *
;*   Regs Used         : A1,A2,A3,A4,V9,SP,LR,SR,D0,D0_hi,D1,D1_hi,D2,D2_hi, *
;*                           D3,D3_hi,D4,D4_hi,D5,D5_hi,D6,D6_hi,D7,D7_hi,   *
;*                           FPEXC,FPSCR                                     *
;*   Local Frame Size  : 0 Args + 0 Auto + 4 Save = 4 byte                   *
;*****************************************************************************
ConfigureUART:
;* --------------------------------------------------------------------------*
	.dwcfi	cfa_offset, 0
        PUSH      {A4, LR}              ; [DPU_3_PIPE] 
	.dwcfi	cfa_offset, 8
	.dwcfi	save_reg_to_mem, 14, -4
	.dwcfi	save_reg_to_mem, 3, -8
	.dwpsn	file "../timers.c",line 63,column 2,is_stmt,isa 1
;----------------------------------------------------------------------
;  63 | ROM_SysCtlPeripheralEnable(SYSCTL_PERIPH_GPIOA);                       
;----------------------------------------------------------------------
        LDR       A1, $C$CON4           ; [DPU_3_PIPE] |63| 
        LDR       A1, [A1, #0]          ; [DPU_3_PIPE] |63| 
        LDR       A1, [A1, #24]         ; [DPU_3_PIPE] |63| 
        MOV       A2, A1                ; [DPU_3_PIPE] |63| 
        LDR       A1, $C$CON5           ; [DPU_3_PIPE] |63| 
$C$DW$47	.dwtag  DW_TAG_TI_branch
	.dwattr $C$DW$47, DW_AT_low_pc(0x00)
	.dwattr $C$DW$47, DW_AT_TI_call
	.dwattr $C$DW$47, DW_AT_TI_indirect
        BLX       A2                    ; [DPU_3_PIPE] |63| 
        ; CALL OCCURS {}                 ; [] |63| 
	.dwpsn	file "../timers.c",line 64,column 5,is_stmt,isa 1
;----------------------------------------------------------------------
;  64 | ROM_SysCtlPeripheralEnable(SYSCTL_PERIPH_UART0);                       
;----------------------------------------------------------------------
        LDR       A1, $C$CON4           ; [DPU_3_PIPE] |64| 
        LDR       A1, [A1, #0]          ; [DPU_3_PIPE] |64| 
        LDR       A1, [A1, #24]         ; [DPU_3_PIPE] |64| 
        MOV       A2, A1                ; [DPU_3_PIPE] |64| 
        LDR       A1, $C$CON6           ; [DPU_3_PIPE] |64| 
$C$DW$48	.dwtag  DW_TAG_TI_branch
	.dwattr $C$DW$48, DW_AT_low_pc(0x00)
	.dwattr $C$DW$48, DW_AT_TI_call
	.dwattr $C$DW$48, DW_AT_TI_indirect
        BLX       A2                    ; [DPU_3_PIPE] |64| 
        ; CALL OCCURS {}                 ; [] |64| 
	.dwpsn	file "../timers.c",line 65,column 5,is_stmt,isa 1
;----------------------------------------------------------------------
;  65 | ROM_GPIOPinTypeUART(GPIO_PORTA_BASE, GPIO_PIN_0 | GPIO_PIN_1);         
;----------------------------------------------------------------------
        LDR       A1, $C$CON7           ; [DPU_3_PIPE] |65| 
        LDR       A1, [A1, #0]          ; [DPU_3_PIPE] |65| 
        LDR       A1, [A1, #84]         ; [DPU_3_PIPE] |65| 
        MOVS      A2, #3                ; [DPU_3_PIPE] |65| 
        MOV       A3, A1                ; [DPU_3_PIPE] |65| 
        MOV       A1, #1073758208       ; [DPU_3_PIPE] |65| 
$C$DW$49	.dwtag  DW_TAG_TI_branch
	.dwattr $C$DW$49, DW_AT_low_pc(0x00)
	.dwattr $C$DW$49, DW_AT_TI_call
	.dwattr $C$DW$49, DW_AT_TI_indirect
        BLX       A3                    ; [DPU_3_PIPE] |65| 
        ; CALL OCCURS {}                 ; [] |65| 
	.dwpsn	file "../timers.c",line 66,column 5,is_stmt,isa 1
;----------------------------------------------------------------------
;  66 | UARTClockSourceSet(UART0_BASE, UART_CLOCK_PIOSC);                      
;  67 | //UARTStdioConfig(0, 115200, 16000000);                                
;----------------------------------------------------------------------
        LDR       A1, $C$CON8           ; [DPU_3_PIPE] |66| 
        MOVS      A2, #5                ; [DPU_3_PIPE] |66| 
$C$DW$50	.dwtag  DW_TAG_TI_branch
	.dwattr $C$DW$50, DW_AT_low_pc(0x00)
	.dwattr $C$DW$50, DW_AT_name("UARTClockSourceSet")
	.dwattr $C$DW$50, DW_AT_TI_call
        BL        UARTClockSourceSet    ; [DPU_3_PIPE] |66| 
        ; CALL OCCURS {UARTClockSourceSet }  ; [] |66| 
	.dwpsn	file "../timers.c",line 68,column 1,is_stmt,isa 1
$C$DW$51	.dwtag  DW_TAG_TI_branch
	.dwattr $C$DW$51, DW_AT_low_pc(0x00)
	.dwattr $C$DW$51, DW_AT_TI_return
        POP       {A4, PC}              ; [DPU_3_PIPE] 
	.dwcfi	cfa_offset, 0
        ; BRANCH OCCURS                  ; [] 
	.dwattr $C$DW$46, DW_AT_TI_end_file("../timers.c")
	.dwattr $C$DW$46, DW_AT_TI_end_line(0x44)
	.dwattr $C$DW$46, DW_AT_TI_end_column(0x01)
	.dwendentry
	.dwendtag $C$DW$46

	.sect	".text:check_sensors"
	.clink
	.thumbfunc check_sensors
	.thumb
	.global	check_sensors

$C$DW$52	.dwtag  DW_TAG_subprogram, DW_AT_name("check_sensors")
	.dwattr $C$DW$52, DW_AT_low_pc(check_sensors)
	.dwattr $C$DW$52, DW_AT_high_pc(0x00)
	.dwattr $C$DW$52, DW_AT_TI_symbol_name("check_sensors")
	.dwattr $C$DW$52, DW_AT_external
	.dwattr $C$DW$52, DW_AT_TI_begin_file("../timers.c")
	.dwattr $C$DW$52, DW_AT_TI_begin_line(0x46)
	.dwattr $C$DW$52, DW_AT_TI_begin_column(0x06)
	.dwattr $C$DW$52, DW_AT_decl_file("../timers.c")
	.dwattr $C$DW$52, DW_AT_decl_line(0x46)
	.dwattr $C$DW$52, DW_AT_decl_column(0x06)
	.dwattr $C$DW$52, DW_AT_TI_max_frame_size(0x08)
	.dwpsn	file "../timers.c",line 71,column 1,is_stmt,address check_sensors,isa 1

	.dwfde $C$DW$CIE, check_sensors
$C$DW$53	.dwtag  DW_TAG_variable, DW_AT_name("lastUpdateCounter")
	.dwattr $C$DW$53, DW_AT_TI_symbol_name("lastUpdateCounter$1")
	.dwattr $C$DW$53, DW_AT_type(*$C$DW$T$49)
	.dwattr $C$DW$53, DW_AT_location[DW_OP_addr lastUpdateCounter$1]
$C$DW$54	.dwtag  DW_TAG_variable, DW_AT_name("temp_secondsCounter")
	.dwattr $C$DW$54, DW_AT_TI_symbol_name("temp_secondsCounter$2")
	.dwattr $C$DW$54, DW_AT_type(*$C$DW$T$49)
	.dwattr $C$DW$54, DW_AT_location[DW_OP_addr temp_secondsCounter$2]
;----------------------------------------------------------------------
;  70 | void check_sensors()                                                   
;  72 | static uint32_t lastUpdateCounter = 0, temp_secondsCounter;            
;----------------------------------------------------------------------

;*****************************************************************************
;* FUNCTION NAME: check_sensors                                              *
;*                                                                           *
;*   Regs Modified     : A1,A2,A3,A4,V9,SP,LR,SR,D0,D0_hi,D1,D1_hi,D2,D2_hi, *
;*                           D3,D3_hi,D4,D4_hi,D5,D5_hi,D6,D6_hi,D7,D7_hi,   *
;*                           FPEXC,FPSCR                                     *
;*   Regs Used         : A1,A2,A3,A4,V9,SP,LR,SR,D0,D0_hi,D1,D1_hi,D2,D2_hi, *
;*                           D3,D3_hi,D4,D4_hi,D5,D5_hi,D6,D6_hi,D7,D7_hi,   *
;*                           FPEXC,FPSCR                                     *
;*   Local Frame Size  : 0 Args + 0 Auto + 4 Save = 4 byte                   *
;*****************************************************************************
check_sensors:
;* --------------------------------------------------------------------------*
	.dwcfi	cfa_offset, 0
        PUSH      {A4, LR}              ; [DPU_3_PIPE] 
	.dwcfi	cfa_offset, 8
	.dwcfi	save_reg_to_mem, 14, -4
	.dwcfi	save_reg_to_mem, 3, -8
	.dwpsn	file "../timers.c",line 73,column 2,is_stmt,isa 1
;----------------------------------------------------------------------
;  73 | ROM_IntMasterDisable();                                                
;----------------------------------------------------------------------
        LDR       A1, $C$CON9           ; [DPU_3_PIPE] |73| 
        LDR       A1, [A1, #0]          ; [DPU_3_PIPE] |73| 
        LDR       A1, [A1, #8]          ; [DPU_3_PIPE] |73| 
$C$DW$55	.dwtag  DW_TAG_TI_branch
	.dwattr $C$DW$55, DW_AT_low_pc(0x00)
	.dwattr $C$DW$55, DW_AT_TI_call
	.dwattr $C$DW$55, DW_AT_TI_indirect
        BLX       A1                    ; [DPU_3_PIPE] |73| 
        ; CALL OCCURS {}                 ; [] |73| 
	.dwpsn	file "../timers.c",line 74,column 2,is_stmt,isa 1
;----------------------------------------------------------------------
;  74 | temp_secondsCounter = g_ui32SecondsCounter;                            
;----------------------------------------------------------------------
        LDR       A1, $C$CON11          ; [DPU_3_PIPE] |74| 
        LDR       A2, $C$CON10          ; [DPU_3_PIPE] |74| 
        LDR       A1, [A1, #0]          ; [DPU_3_PIPE] |74| 
        STR       A1, [A2, #0]          ; [DPU_3_PIPE] |74| 
	.dwpsn	file "../timers.c",line 75,column 2,is_stmt,isa 1
;----------------------------------------------------------------------
;  75 | ROM_IntMasterEnable();                                                 
;----------------------------------------------------------------------
        LDR       A1, $C$CON9           ; [DPU_3_PIPE] |75| 
        LDR       A1, [A1, #0]          ; [DPU_3_PIPE] |75| 
        LDR       A1, [A1, #4]          ; [DPU_3_PIPE] |75| 
$C$DW$56	.dwtag  DW_TAG_TI_branch
	.dwattr $C$DW$56, DW_AT_low_pc(0x00)
	.dwattr $C$DW$56, DW_AT_TI_call
	.dwattr $C$DW$56, DW_AT_TI_indirect
        BLX       A1                    ; [DPU_3_PIPE] |75| 
        ; CALL OCCURS {}                 ; [] |75| 
	.dwpsn	file "../timers.c",line 76,column 2,is_stmt,isa 1
;----------------------------------------------------------------------
;  76 | check_sensor1();//humidity                      - fructification dht22 
;----------------------------------------------------------------------
$C$DW$57	.dwtag  DW_TAG_TI_branch
	.dwattr $C$DW$57, DW_AT_low_pc(0x00)
	.dwattr $C$DW$57, DW_AT_name("check_sensor1")
	.dwattr $C$DW$57, DW_AT_TI_call
        BL        check_sensor1         ; [DPU_3_PIPE] |76| 
        ; CALL OCCURS {check_sensor1 }   ; [] |76| 
	.dwpsn	file "../timers.c",line 77,column 2,is_stmt,isa 1
;----------------------------------------------------------------------
;  77 | check_sensor2();//temperature 1         - fructification dht22         
;----------------------------------------------------------------------
$C$DW$58	.dwtag  DW_TAG_TI_branch
	.dwattr $C$DW$58, DW_AT_low_pc(0x00)
	.dwattr $C$DW$58, DW_AT_name("check_sensor2")
	.dwattr $C$DW$58, DW_AT_TI_call
        BL        check_sensor2         ; [DPU_3_PIPE] |77| 
        ; CALL OCCURS {check_sensor2 }   ; [] |77| 
	.dwpsn	file "../timers.c",line 78,column 2,is_stmt,isa 1
;----------------------------------------------------------------------
;  78 | check_sensor3();//temperature 2         - incubation ds1820            
;----------------------------------------------------------------------
$C$DW$59	.dwtag  DW_TAG_TI_branch
	.dwattr $C$DW$59, DW_AT_low_pc(0x00)
	.dwattr $C$DW$59, DW_AT_name("check_sensor3")
	.dwattr $C$DW$59, DW_AT_TI_call
        BL        check_sensor3         ; [DPU_3_PIPE] |78| 
        ; CALL OCCURS {check_sensor3 }   ; [] |78| 
	.dwpsn	file "../timers.c",line 79,column 2,is_stmt,isa 1
;----------------------------------------------------------------------
;  79 | check_sensor4();//temperature 3         - outside ds1820               
;----------------------------------------------------------------------
$C$DW$60	.dwtag  DW_TAG_TI_branch
	.dwattr $C$DW$60, DW_AT_low_pc(0x00)
	.dwattr $C$DW$60, DW_AT_name("check_sensor4")
	.dwattr $C$DW$60, DW_AT_TI_call
        BL        check_sensor4         ; [DPU_3_PIPE] |79| 
        ; CALL OCCURS {check_sensor4 }   ; [] |79| 
	.dwpsn	file "../timers.c",line 80,column 2,is_stmt,isa 1
;----------------------------------------------------------------------
;  80 | check_fan_timer(temp_secondsCounter);//Fan actuation    - fructificatio
;     | n                                                                      
;----------------------------------------------------------------------
        LDR       A1, $C$CON10          ; [DPU_3_PIPE] |80| 
        LDR       A1, [A1, #0]          ; [DPU_3_PIPE] |80| 
$C$DW$61	.dwtag  DW_TAG_TI_branch
	.dwattr $C$DW$61, DW_AT_low_pc(0x00)
	.dwattr $C$DW$61, DW_AT_name("check_fan_timer")
	.dwattr $C$DW$61, DW_AT_TI_call
        BL        check_fan_timer       ; [DPU_3_PIPE] |80| 
        ; CALL OCCURS {check_fan_timer }  ; [] |80| 
	.dwpsn	file "../timers.c",line 81,column 2,is_stmt,isa 1
;----------------------------------------------------------------------
;  81 | update_lcd();                                                          
;----------------------------------------------------------------------
$C$DW$62	.dwtag  DW_TAG_TI_branch
	.dwattr $C$DW$62, DW_AT_low_pc(0x00)
	.dwattr $C$DW$62, DW_AT_name("update_lcd")
	.dwattr $C$DW$62, DW_AT_TI_call
        BL        update_lcd            ; [DPU_3_PIPE] |81| 
        ; CALL OCCURS {update_lcd }      ; [] |81| 
	.dwpsn	file "../timers.c",line 83,column 2,is_stmt,isa 1
;----------------------------------------------------------------------
;  83 | if((temp_secondsCounter - lastUpdateCounter) > 60)                     
;----------------------------------------------------------------------
        LDR       A2, $C$CON12          ; [DPU_3_PIPE] |83| 
        LDR       A1, $C$CON10          ; [DPU_3_PIPE] |83| 
        LDR       A2, [A2, #0]          ; [DPU_3_PIPE] |83| 
        LDR       A1, [A1, #0]          ; [DPU_3_PIPE] |83| 
        SUBS      A1, A1, A2            ; [DPU_3_PIPE] |83| 
        CMP       A1, #60               ; [DPU_3_PIPE] |83| 
        BLS       ||$C$L3||             ; [DPU_3_PIPE] |83| 
        ; BRANCHCC OCCURS {||$C$L3||}    ; [] |83| 
;* --------------------------------------------------------------------------*
	.dwpsn	file "../timers.c",line 85,column 3,is_stmt,isa 1
;----------------------------------------------------------------------
;  85 | update_thingspeak();//Update ESP8266 at every minute                   
;----------------------------------------------------------------------
$C$DW$63	.dwtag  DW_TAG_TI_branch
	.dwattr $C$DW$63, DW_AT_low_pc(0x00)
	.dwattr $C$DW$63, DW_AT_name("update_thingspeak")
	.dwattr $C$DW$63, DW_AT_TI_call
        BL        update_thingspeak     ; [DPU_3_PIPE] |85| 
        ; CALL OCCURS {update_thingspeak }  ; [] |85| 
	.dwpsn	file "../timers.c",line 86,column 3,is_stmt,isa 1
;----------------------------------------------------------------------
;  86 | lastUpdateCounter = temp_secondsCounter;                               
;----------------------------------------------------------------------
        LDR       A1, $C$CON10          ; [DPU_3_PIPE] |86| 
        LDR       A2, $C$CON12          ; [DPU_3_PIPE] |86| 
        LDR       A1, [A1, #0]          ; [DPU_3_PIPE] |86| 
        STR       A1, [A2, #0]          ; [DPU_3_PIPE] |86| 
	.dwpsn	file "../timers.c",line 88,column 1,is_stmt,isa 1
;* --------------------------------------------------------------------------*
||$C$L3||:    
$C$DW$64	.dwtag  DW_TAG_TI_branch
	.dwattr $C$DW$64, DW_AT_low_pc(0x00)
	.dwattr $C$DW$64, DW_AT_TI_return
        POP       {A4, PC}              ; [DPU_3_PIPE] 
	.dwcfi	cfa_offset, 0
        ; BRANCH OCCURS                  ; [] 
	.dwattr $C$DW$52, DW_AT_TI_end_file("../timers.c")
	.dwattr $C$DW$52, DW_AT_TI_end_line(0x58)
	.dwattr $C$DW$52, DW_AT_TI_end_column(0x01)
	.dwendentry
	.dwendtag $C$DW$52

	.sect	".text:SysTickIntHandler"
	.clink
	.thumbfunc SysTickIntHandler
	.thumb
	.global	SysTickIntHandler

$C$DW$65	.dwtag  DW_TAG_subprogram, DW_AT_name("SysTickIntHandler")
	.dwattr $C$DW$65, DW_AT_low_pc(SysTickIntHandler)
	.dwattr $C$DW$65, DW_AT_high_pc(0x00)
	.dwattr $C$DW$65, DW_AT_TI_symbol_name("SysTickIntHandler")
	.dwattr $C$DW$65, DW_AT_external
	.dwattr $C$DW$65, DW_AT_TI_begin_file("../timers.c")
	.dwattr $C$DW$65, DW_AT_TI_begin_line(0x5a)
	.dwattr $C$DW$65, DW_AT_TI_begin_column(0x06)
	.dwattr $C$DW$65, DW_AT_decl_file("../timers.c")
	.dwattr $C$DW$65, DW_AT_decl_line(0x5a)
	.dwattr $C$DW$65, DW_AT_decl_column(0x06)
	.dwattr $C$DW$65, DW_AT_TI_max_frame_size(0x00)
	.dwpsn	file "../timers.c",line 91,column 1,is_stmt,address SysTickIntHandler,isa 1

	.dwfde $C$DW$CIE, SysTickIntHandler
$C$DW$66	.dwtag  DW_TAG_variable, DW_AT_name("sysTickTemp")
	.dwattr $C$DW$66, DW_AT_TI_symbol_name("sysTickTemp$3")
	.dwattr $C$DW$66, DW_AT_type(*$C$DW$T$49)
	.dwattr $C$DW$66, DW_AT_location[DW_OP_addr sysTickTemp$3]
;----------------------------------------------------------------------
;  90 | void SysTickIntHandler(void)                                           
;  92 | static uint32_t sysTickTemp = 0;                                       
;----------------------------------------------------------------------

;*****************************************************************************
;* FUNCTION NAME: SysTickIntHandler                                          *
;*                                                                           *
;*   Regs Modified     : A1,A2,A3,SR                                         *
;*   Regs Used         : A1,A2,A3,LR,SR                                      *
;*   Local Frame Size  : 0 Args + 0 Auto + 0 Save = 0 byte                   *
;*****************************************************************************
SysTickIntHandler:
;* --------------------------------------------------------------------------*
	.dwcfi	cfa_offset, 0
	.dwpsn	file "../timers.c",line 93,column 2,is_stmt,isa 1
;----------------------------------------------------------------------
;  93 | g_ui32SysTickCounter++;                                                
;----------------------------------------------------------------------
        LDR       A2, $C$CON13          ; [DPU_3_PIPE] |93| 
        LDR       A1, [A2, #0]          ; [DPU_3_PIPE] |93| 
        ADDS      A1, A1, #1            ; [DPU_3_PIPE] |93| 
        STR       A1, [A2, #0]          ; [DPU_3_PIPE] |93| 
	.dwpsn	file "../timers.c",line 94,column 2,is_stmt,isa 1
;----------------------------------------------------------------------
;  94 | sysTickTemp = g_ui32SysTickCounter;                                    
;----------------------------------------------------------------------
        LDR       A1, $C$CON13          ; [DPU_3_PIPE] |94| 
        LDR       A2, $C$CON14          ; [DPU_3_PIPE] |94| 
        LDR       A1, [A1, #0]          ; [DPU_3_PIPE] |94| 
        STR       A1, [A2, #0]          ; [DPU_3_PIPE] |94| 
	.dwpsn	file "../timers.c",line 95,column 2,is_stmt,isa 1
;----------------------------------------------------------------------
;  95 | if(!(sysTickTemp % SYSTICKS_PER_SECOND))                               
;----------------------------------------------------------------------
        LDR       A1, $C$CON14          ; [DPU_3_PIPE] |95| 
        LDR       A1, [A1, #0]          ; [DPU_3_PIPE] |95| 
        MOVS      A3, #100              ; [DPU_3_PIPE] |95| 
        UDIV      A2, A1, A3            ; [DPU_3_PIPE] |95| 
        MULS      A2, A2, A3            ; [DPU_3_PIPE] |95| 
        SUBS      A1, A1, A2            ; [DPU_3_PIPE] |95| 
        BNE       ||$C$L4||             ; [DPU_3_PIPE] |95| 
        ; BRANCHCC OCCURS {||$C$L4||}    ; [] |95| 
;* --------------------------------------------------------------------------*
	.dwpsn	file "../timers.c",line 97,column 3,is_stmt,isa 1
;----------------------------------------------------------------------
;  97 | g_ui32SecondsCounter++;                                                
;  99 | //disk_timerproc();                                                    
;----------------------------------------------------------------------
        LDR       A2, $C$CON15          ; [DPU_3_PIPE] |97| 
        LDR       A1, [A2, #0]          ; [DPU_3_PIPE] |97| 
        ADDS      A1, A1, #1            ; [DPU_3_PIPE] |97| 
        STR       A1, [A2, #0]          ; [DPU_3_PIPE] |97| 
	.dwpsn	file "../timers.c",line 100,column 1,is_stmt,isa 1
;* --------------------------------------------------------------------------*
||$C$L4||:    
$C$DW$67	.dwtag  DW_TAG_TI_branch
	.dwattr $C$DW$67, DW_AT_low_pc(0x00)
	.dwattr $C$DW$67, DW_AT_TI_return
        BX        LR                    ; [DPU_3_PIPE] 
        ; BRANCH OCCURS                  ; [] 
	.dwattr $C$DW$65, DW_AT_TI_end_file("../timers.c")
	.dwattr $C$DW$65, DW_AT_TI_end_line(0x64)
	.dwattr $C$DW$65, DW_AT_TI_end_column(0x01)
	.dwendentry
	.dwendtag $C$DW$65

	.sect	".text:delay_us"
	.clink
	.thumbfunc delay_us
	.thumb
	.global	delay_us

$C$DW$68	.dwtag  DW_TAG_subprogram, DW_AT_name("delay_us")
	.dwattr $C$DW$68, DW_AT_low_pc(delay_us)
	.dwattr $C$DW$68, DW_AT_high_pc(0x00)
	.dwattr $C$DW$68, DW_AT_TI_symbol_name("delay_us")
	.dwattr $C$DW$68, DW_AT_external
	.dwattr $C$DW$68, DW_AT_TI_begin_file("../timers.c")
	.dwattr $C$DW$68, DW_AT_TI_begin_line(0x66)
	.dwattr $C$DW$68, DW_AT_TI_begin_column(0x06)
	.dwattr $C$DW$68, DW_AT_decl_file("../timers.c")
	.dwattr $C$DW$68, DW_AT_decl_line(0x66)
	.dwattr $C$DW$68, DW_AT_decl_column(0x06)
	.dwattr $C$DW$68, DW_AT_TI_max_frame_size(0x10)
	.dwpsn	file "../timers.c",line 103,column 1,is_stmt,address delay_us,isa 1

	.dwfde $C$DW$CIE, delay_us
$C$DW$69	.dwtag  DW_TAG_formal_parameter, DW_AT_name("microseconds")
	.dwattr $C$DW$69, DW_AT_TI_symbol_name("microseconds")
	.dwattr $C$DW$69, DW_AT_type(*$C$DW$T$49)
	.dwattr $C$DW$69, DW_AT_location[DW_OP_reg0]
;----------------------------------------------------------------------
; 102 | void delay_us(uint32_t microseconds)                                   
;----------------------------------------------------------------------

;*****************************************************************************
;* FUNCTION NAME: delay_us                                                   *
;*                                                                           *
;*   Regs Modified     : A1,A2,A3,A4,V9,SP,LR,SR,D0,D0_hi,D1,D1_hi,D2,D2_hi, *
;*                           D3,D3_hi,D4,D4_hi,D5,D5_hi,D6,D6_hi,D7,D7_hi,   *
;*                           FPEXC,FPSCR                                     *
;*   Regs Used         : A1,A2,A3,A4,V9,SP,LR,SR,D0,D0_hi,D1,D1_hi,D2,D2_hi, *
;*                           D3,D3_hi,D4,D4_hi,D5,D5_hi,D6,D6_hi,D7,D7_hi,   *
;*                           FPEXC,FPSCR                                     *
;*   Local Frame Size  : 0 Args + 8 Auto + 4 Save = 12 byte                  *
;*****************************************************************************
delay_us:
;* --------------------------------------------------------------------------*
	.dwcfi	cfa_offset, 0
        PUSH      {A2, A3, A4, LR}      ; [DPU_3_PIPE] 
	.dwcfi	cfa_offset, 16
	.dwcfi	save_reg_to_mem, 14, -4
	.dwcfi	save_reg_to_mem, 3, -8
	.dwcfi	save_reg_to_mem, 2, -12
	.dwcfi	save_reg_to_mem, 1, -16
$C$DW$70	.dwtag  DW_TAG_variable, DW_AT_name("microseconds")
	.dwattr $C$DW$70, DW_AT_TI_symbol_name("microseconds")
	.dwattr $C$DW$70, DW_AT_type(*$C$DW$T$49)
	.dwattr $C$DW$70, DW_AT_location[DW_OP_breg13 0]
$C$DW$71	.dwtag  DW_TAG_variable, DW_AT_name("start_us")
	.dwattr $C$DW$71, DW_AT_TI_symbol_name("start_us")
	.dwattr $C$DW$71, DW_AT_type(*$C$DW$T$49)
	.dwattr $C$DW$71, DW_AT_location[DW_OP_breg13 4]
        STR       A1, [SP, #0]          ; [DPU_3_PIPE] |103| 
	.dwpsn	file "../timers.c",line 104,column 20,is_stmt,isa 1
;----------------------------------------------------------------------
; 104 | uint32_t start_us = 0;                                                 
;----------------------------------------------------------------------
        MOVS      A1, #0                ; [DPU_3_PIPE] |104| 
        STR       A1, [SP, #4]          ; [DPU_3_PIPE] |104| 
	.dwpsn	file "../timers.c",line 105,column 2,is_stmt,isa 1
;----------------------------------------------------------------------
; 105 | if(microseconds < 10)                                                  
;----------------------------------------------------------------------
        LDR       A1, [SP, #0]          ; [DPU_3_PIPE] |105| 
        CMP       A1, #10               ; [DPU_3_PIPE] |105| 
        BCC       ||$C$L6||             ; [DPU_3_PIPE] |105| 
        ; BRANCHCC OCCURS {||$C$L6||}    ; [] |105| 
;* --------------------------------------------------------------------------*
	.dwpsn	file "../timers.c",line 106,column 3,is_stmt,isa 1
;----------------------------------------------------------------------
; 106 | return;                                                                
;----------------------------------------------------------------------
	.dwpsn	file "../timers.c",line 107,column 2,is_stmt,isa 1
;----------------------------------------------------------------------
; 107 | start_us = getTimer0ChAvalue();                                        
;----------------------------------------------------------------------
$C$DW$72	.dwtag  DW_TAG_TI_branch
	.dwattr $C$DW$72, DW_AT_low_pc(0x00)
	.dwattr $C$DW$72, DW_AT_name("getTimer0ChAvalue")
	.dwattr $C$DW$72, DW_AT_TI_call
        BL        getTimer0ChAvalue     ; [DPU_3_PIPE] |107| 
        ; CALL OCCURS {getTimer0ChAvalue }  ; [] |107| 
        STR       A1, [SP, #4]          ; [DPU_3_PIPE] |107| 
	.dwpsn	file "../timers.c",line 108,column 2,is_stmt,isa 1
;----------------------------------------------------------------------
; 108 | microseconds /= 10;                                                    
;----------------------------------------------------------------------
        LDR       A2, [SP, #0]          ; [DPU_3_PIPE] |108| 
        MOVS      A1, #10               ; [DPU_3_PIPE] |108| 
        UDIV      A1, A2, A1            ; [DPU_3_PIPE] |108| 
        STR       A1, [SP, #0]          ; [DPU_3_PIPE] |108| 
	.dwpsn	file "../timers.c",line 109,column 2,is_stmt,isa 1
;----------------------------------------------------------------------
; 109 | while((getTimer0ChAvalue()-start_us) < microseconds);                  
;----------------------------------------------------------------------
;* --------------------------------------------------------------------------*
;*   BEGIN LOOP ||$C$L5||
;*
;*   Loop source line                : 109
;*   Loop closing brace source line  : 109
;*   Known Minimum Trip Count        : 1
;*   Known Maximum Trip Count        : 4294967295
;*   Known Max Trip Count Factor     : 1
;* --------------------------------------------------------------------------*
||$C$L5||:    
	.dwpsn	file "../timers.c",line 109,column 8,is_stmt,isa 1
$C$DW$73	.dwtag  DW_TAG_TI_branch
	.dwattr $C$DW$73, DW_AT_low_pc(0x00)
	.dwattr $C$DW$73, DW_AT_name("getTimer0ChAvalue")
	.dwattr $C$DW$73, DW_AT_TI_call
        BL        getTimer0ChAvalue     ; [DPU_3_PIPE] |109| 
        ; CALL OCCURS {getTimer0ChAvalue }  ; [] |109| 
        LDR       A3, [SP, #4]          ; [DPU_3_PIPE] |109| 
        LDR       A2, [SP, #0]          ; [DPU_3_PIPE] |109| 
        SUBS      A1, A1, A3            ; [DPU_3_PIPE] |109| 
        CMP       A2, A1                ; [DPU_3_PIPE] |109| 
        BHI       ||$C$L5||             ; [DPU_3_PIPE] |109| 
        ; BRANCHCC OCCURS {||$C$L5||}    ; [] |109| 
;* --------------------------------------------------------------------------*
	.dwpsn	file "../timers.c",line 110,column 1,is_stmt,isa 1
;* --------------------------------------------------------------------------*
||$C$L6||:    
$C$DW$74	.dwtag  DW_TAG_TI_branch
	.dwattr $C$DW$74, DW_AT_low_pc(0x00)
	.dwattr $C$DW$74, DW_AT_TI_return
        POP       {A2, A3, A4, PC}      ; [DPU_3_PIPE] 
	.dwcfi	cfa_offset, 0
        ; BRANCH OCCURS                  ; [] 
	.dwattr $C$DW$68, DW_AT_TI_end_file("../timers.c")
	.dwattr $C$DW$68, DW_AT_TI_end_line(0x6e)
	.dwattr $C$DW$68, DW_AT_TI_end_column(0x01)
	.dwendentry
	.dwendtag $C$DW$68

	.sect	".text:delay_ms"
	.clink
	.thumbfunc delay_ms
	.thumb
	.global	delay_ms

$C$DW$75	.dwtag  DW_TAG_subprogram, DW_AT_name("delay_ms")
	.dwattr $C$DW$75, DW_AT_low_pc(delay_ms)
	.dwattr $C$DW$75, DW_AT_high_pc(0x00)
	.dwattr $C$DW$75, DW_AT_TI_symbol_name("delay_ms")
	.dwattr $C$DW$75, DW_AT_external
	.dwattr $C$DW$75, DW_AT_TI_begin_file("../timers.c")
	.dwattr $C$DW$75, DW_AT_TI_begin_line(0x70)
	.dwattr $C$DW$75, DW_AT_TI_begin_column(0x06)
	.dwattr $C$DW$75, DW_AT_decl_file("../timers.c")
	.dwattr $C$DW$75, DW_AT_decl_line(0x70)
	.dwattr $C$DW$75, DW_AT_decl_column(0x06)
	.dwattr $C$DW$75, DW_AT_TI_max_frame_size(0x08)
	.dwpsn	file "../timers.c",line 113,column 1,is_stmt,address delay_ms,isa 1

	.dwfde $C$DW$CIE, delay_ms
$C$DW$76	.dwtag  DW_TAG_formal_parameter, DW_AT_name("miliseconds")
	.dwattr $C$DW$76, DW_AT_TI_symbol_name("miliseconds")
	.dwattr $C$DW$76, DW_AT_type(*$C$DW$T$49)
	.dwattr $C$DW$76, DW_AT_location[DW_OP_reg0]
;----------------------------------------------------------------------
; 112 | void delay_ms(uint32_t miliseconds)                                    
;----------------------------------------------------------------------

;*****************************************************************************
;* FUNCTION NAME: delay_ms                                                   *
;*                                                                           *
;*   Regs Modified     : A1,A2,A3,SP,SR                                      *
;*   Regs Used         : A1,A2,A3,SP,LR,SR                                   *
;*   Local Frame Size  : 0 Args + 8 Auto + 0 Save = 8 byte                   *
;*****************************************************************************
delay_ms:
;* --------------------------------------------------------------------------*
	.dwcfi	cfa_offset, 0
        SUB       SP, SP, #8            ; [DPU_3_PIPE] 
	.dwcfi	cfa_offset, 8
$C$DW$77	.dwtag  DW_TAG_variable, DW_AT_name("miliseconds")
	.dwattr $C$DW$77, DW_AT_TI_symbol_name("miliseconds")
	.dwattr $C$DW$77, DW_AT_type(*$C$DW$T$49)
	.dwattr $C$DW$77, DW_AT_location[DW_OP_breg13 0]
$C$DW$78	.dwtag  DW_TAG_variable, DW_AT_name("start_ms")
	.dwattr $C$DW$78, DW_AT_TI_symbol_name("start_ms")
	.dwattr $C$DW$78, DW_AT_type(*$C$DW$T$49)
	.dwattr $C$DW$78, DW_AT_location[DW_OP_breg13 4]
        STR       A1, [SP, #0]          ; [DPU_3_PIPE] |113| 
	.dwpsn	file "../timers.c",line 114,column 20,is_stmt,isa 1
;----------------------------------------------------------------------
; 114 | uint32_t start_ms = 0;                                                 
;----------------------------------------------------------------------
        MOVS      A1, #0                ; [DPU_3_PIPE] |114| 
        STR       A1, [SP, #4]          ; [DPU_3_PIPE] |114| 
	.dwpsn	file "../timers.c",line 115,column 2,is_stmt,isa 1
;----------------------------------------------------------------------
; 115 | if(miliseconds < 1)                                                    
;----------------------------------------------------------------------
        LDR       A1, [SP, #0]          ; [DPU_3_PIPE] |115| 
        CBZ       A1, ||$C$L8||         ; [] 
        ; BRANCHCC OCCURS {||$C$L8||}    ; [] |115| 
;* --------------------------------------------------------------------------*
	.dwpsn	file "../timers.c",line 116,column 3,is_stmt,isa 1
;----------------------------------------------------------------------
; 116 | return;                                                                
;----------------------------------------------------------------------
	.dwpsn	file "../timers.c",line 117,column 2,is_stmt,isa 1
;----------------------------------------------------------------------
; 117 | start_ms = g_ui32SysTickCounter;                                       
;----------------------------------------------------------------------
        LDR       A1, $C$CON16          ; [DPU_3_PIPE] |117| 
        LDR       A1, [A1, #0]          ; [DPU_3_PIPE] |117| 
        STR       A1, [SP, #4]          ; [DPU_3_PIPE] |117| 
	.dwpsn	file "../timers.c",line 118,column 2,is_stmt,isa 1
;----------------------------------------------------------------------
; 118 | while((g_ui32SysTickCounter - start_ms) < miliseconds);                
;----------------------------------------------------------------------
;* --------------------------------------------------------------------------*
;*   BEGIN LOOP ||$C$L7||
;*
;*   Loop source line                : 118
;*   Loop closing brace source line  : 118
;*   Known Minimum Trip Count        : 1
;*   Known Maximum Trip Count        : 4294967295
;*   Known Max Trip Count Factor     : 1
;* --------------------------------------------------------------------------*
||$C$L7||:    
	.dwpsn	file "../timers.c",line 118,column 8,is_stmt,isa 1
        LDR       A1, $C$CON16          ; [DPU_3_PIPE] |118| 
        LDR       A3, [SP, #4]          ; [DPU_3_PIPE] |118| 
        LDR       A2, [SP, #0]          ; [DPU_3_PIPE] |118| 
        LDR       A1, [A1, #0]          ; [DPU_3_PIPE] |118| 
        SUBS      A1, A1, A3            ; [DPU_3_PIPE] |118| 
        CMP       A2, A1                ; [DPU_3_PIPE] |118| 
        BHI       ||$C$L7||             ; [DPU_3_PIPE] |118| 
        ; BRANCHCC OCCURS {||$C$L7||}    ; [] |118| 
;* --------------------------------------------------------------------------*
	.dwpsn	file "../timers.c",line 119,column 1,is_stmt,isa 1
;* --------------------------------------------------------------------------*
||$C$L8||:    
        ADD       SP, SP, #8            ; [DPU_3_PIPE] 
	.dwcfi	cfa_offset, 0
$C$DW$79	.dwtag  DW_TAG_TI_branch
	.dwattr $C$DW$79, DW_AT_low_pc(0x00)
	.dwattr $C$DW$79, DW_AT_TI_return
        BX        LR                    ; [DPU_3_PIPE] 
        ; BRANCH OCCURS                  ; [] 
	.dwattr $C$DW$75, DW_AT_TI_end_file("../timers.c")
	.dwattr $C$DW$75, DW_AT_TI_end_line(0x77)
	.dwattr $C$DW$75, DW_AT_TI_end_column(0x01)
	.dwendentry
	.dwendtag $C$DW$75

	.sect	".text:delay_seconds"
	.clink
	.thumbfunc delay_seconds
	.thumb
	.global	delay_seconds

$C$DW$80	.dwtag  DW_TAG_subprogram, DW_AT_name("delay_seconds")
	.dwattr $C$DW$80, DW_AT_low_pc(delay_seconds)
	.dwattr $C$DW$80, DW_AT_high_pc(0x00)
	.dwattr $C$DW$80, DW_AT_TI_symbol_name("delay_seconds")
	.dwattr $C$DW$80, DW_AT_external
	.dwattr $C$DW$80, DW_AT_TI_begin_file("../timers.c")
	.dwattr $C$DW$80, DW_AT_TI_begin_line(0x79)
	.dwattr $C$DW$80, DW_AT_TI_begin_column(0x06)
	.dwattr $C$DW$80, DW_AT_decl_file("../timers.c")
	.dwattr $C$DW$80, DW_AT_decl_line(0x79)
	.dwattr $C$DW$80, DW_AT_decl_column(0x06)
	.dwattr $C$DW$80, DW_AT_TI_max_frame_size(0x08)
	.dwpsn	file "../timers.c",line 122,column 1,is_stmt,address delay_seconds,isa 1

	.dwfde $C$DW$CIE, delay_seconds
$C$DW$81	.dwtag  DW_TAG_formal_parameter, DW_AT_name("seconds")
	.dwattr $C$DW$81, DW_AT_TI_symbol_name("seconds")
	.dwattr $C$DW$81, DW_AT_type(*$C$DW$T$49)
	.dwattr $C$DW$81, DW_AT_location[DW_OP_reg0]
;----------------------------------------------------------------------
; 121 | void delay_seconds(uint32_t seconds)                                   
;----------------------------------------------------------------------

;*****************************************************************************
;* FUNCTION NAME: delay_seconds                                              *
;*                                                                           *
;*   Regs Modified     : A1,A2,A3,A4,V9,SP,LR,SR,D0,D0_hi,D1,D1_hi,D2,D2_hi, *
;*                           D3,D3_hi,D4,D4_hi,D5,D5_hi,D6,D6_hi,D7,D7_hi,   *
;*                           FPEXC,FPSCR                                     *
;*   Regs Used         : A1,A2,A3,A4,V9,SP,LR,SR,D0,D0_hi,D1,D1_hi,D2,D2_hi, *
;*                           D3,D3_hi,D4,D4_hi,D5,D5_hi,D6,D6_hi,D7,D7_hi,   *
;*                           FPEXC,FPSCR                                     *
;*   Local Frame Size  : 0 Args + 4 Auto + 4 Save = 8 byte                   *
;*****************************************************************************
delay_seconds:
;* --------------------------------------------------------------------------*
	.dwcfi	cfa_offset, 0
        PUSH      {A4, LR}              ; [DPU_3_PIPE] 
	.dwcfi	cfa_offset, 8
	.dwcfi	save_reg_to_mem, 14, -4
	.dwcfi	save_reg_to_mem, 3, -8
$C$DW$82	.dwtag  DW_TAG_variable, DW_AT_name("seconds")
	.dwattr $C$DW$82, DW_AT_TI_symbol_name("seconds")
	.dwattr $C$DW$82, DW_AT_type(*$C$DW$T$49)
	.dwattr $C$DW$82, DW_AT_location[DW_OP_breg13 0]
        STR       A1, [SP, #0]          ; [DPU_3_PIPE] |122| 
	.dwpsn	file "../timers.c",line 123,column 8,is_stmt,isa 1
;----------------------------------------------------------------------
; 123 | while(seconds>=1)                                                      
;----------------------------------------------------------------------
        LDR       A1, [SP, #0]          ; [DPU_3_PIPE] |123| 
        CBZ       A1, ||$C$L10||        ; [] 
        ; BRANCHCC OCCURS {||$C$L10||}   ; [] |123| 
;* --------------------------------------------------------------------------*
;*   BEGIN LOOP ||$C$L9||
;*
;*   Loop source line                : 123
;*   Loop closing brace source line  : 127
;*   Known Minimum Trip Count        : 1
;*   Known Maximum Trip Count        : 4294967295
;*   Known Max Trip Count Factor     : 1
;* --------------------------------------------------------------------------*
||$C$L9||:    
	.dwpsn	file "../timers.c",line 125,column 3,is_stmt,isa 1
;----------------------------------------------------------------------
; 125 | SysCtlDelay(SysCtlClockGet());                                         
;----------------------------------------------------------------------
$C$DW$83	.dwtag  DW_TAG_TI_branch
	.dwattr $C$DW$83, DW_AT_low_pc(0x00)
	.dwattr $C$DW$83, DW_AT_name("SysCtlClockGet")
	.dwattr $C$DW$83, DW_AT_TI_call
        BL        SysCtlClockGet        ; [DPU_3_PIPE] |125| 
        ; CALL OCCURS {SysCtlClockGet }  ; [] |125| 
$C$DW$84	.dwtag  DW_TAG_TI_branch
	.dwattr $C$DW$84, DW_AT_low_pc(0x00)
	.dwattr $C$DW$84, DW_AT_name("SysCtlDelay")
	.dwattr $C$DW$84, DW_AT_TI_call
        BL        SysCtlDelay           ; [DPU_3_PIPE] |125| 
        ; CALL OCCURS {SysCtlDelay }     ; [] |125| 
	.dwpsn	file "../timers.c",line 126,column 3,is_stmt,isa 1
;----------------------------------------------------------------------
; 126 | seconds--;                                                             
;----------------------------------------------------------------------
        LDR       A1, [SP, #0]          ; [DPU_3_PIPE] |126| 
        SUBS      A1, A1, #1            ; [DPU_3_PIPE] |126| 
        STR       A1, [SP, #0]          ; [DPU_3_PIPE] |126| 
	.dwpsn	file "../timers.c",line 123,column 8,is_stmt,isa 1
        LDR       A1, [SP, #0]          ; [DPU_3_PIPE] |123| 
        CMP       A1, #0                ; [DPU_3_PIPE] |123| 
        BNE       ||$C$L9||             ; [DPU_3_PIPE] |123| 
        ; BRANCHCC OCCURS {||$C$L9||}    ; [] |123| 
;* --------------------------------------------------------------------------*
	.dwpsn	file "../timers.c",line 128,column 1,is_stmt,isa 1
;* --------------------------------------------------------------------------*
||$C$L10||:    
$C$DW$85	.dwtag  DW_TAG_TI_branch
	.dwattr $C$DW$85, DW_AT_low_pc(0x00)
	.dwattr $C$DW$85, DW_AT_TI_return
        POP       {A4, PC}              ; [DPU_3_PIPE] 
	.dwcfi	cfa_offset, 0
        ; BRANCH OCCURS                  ; [] 
	.dwattr $C$DW$80, DW_AT_TI_end_file("../timers.c")
	.dwattr $C$DW$80, DW_AT_TI_end_line(0x80)
	.dwattr $C$DW$80, DW_AT_TI_end_column(0x01)
	.dwendentry
	.dwendtag $C$DW$80

	.sect	".text:init_system"
	.clink
	.thumbfunc init_system
	.thumb
	.global	init_system

$C$DW$86	.dwtag  DW_TAG_subprogram, DW_AT_name("init_system")
	.dwattr $C$DW$86, DW_AT_low_pc(init_system)
	.dwattr $C$DW$86, DW_AT_high_pc(0x00)
	.dwattr $C$DW$86, DW_AT_TI_symbol_name("init_system")
	.dwattr $C$DW$86, DW_AT_external
	.dwattr $C$DW$86, DW_AT_TI_begin_file("../timers.c")
	.dwattr $C$DW$86, DW_AT_TI_begin_line(0x82)
	.dwattr $C$DW$86, DW_AT_TI_begin_column(0x06)
	.dwattr $C$DW$86, DW_AT_decl_file("../timers.c")
	.dwattr $C$DW$86, DW_AT_decl_line(0x82)
	.dwattr $C$DW$86, DW_AT_decl_column(0x06)
	.dwattr $C$DW$86, DW_AT_TI_max_frame_size(0x08)
	.dwpsn	file "../timers.c",line 131,column 1,is_stmt,address init_system,isa 1

	.dwfde $C$DW$CIE, init_system
;----------------------------------------------------------------------
; 130 | void init_system()                                                     
;----------------------------------------------------------------------

;*****************************************************************************
;* FUNCTION NAME: init_system                                                *
;*                                                                           *
;*   Regs Modified     : A1,A2,A3,A4,V9,SP,LR,SR,D0,D0_hi,D1,D1_hi,D2,D2_hi, *
;*                           D3,D3_hi,D4,D4_hi,D5,D5_hi,D6,D6_hi,D7,D7_hi,   *
;*                           FPEXC,FPSCR                                     *
;*   Regs Used         : A1,A2,A3,A4,V9,SP,LR,SR,D0,D0_hi,D1,D1_hi,D2,D2_hi, *
;*                           D3,D3_hi,D4,D4_hi,D5,D5_hi,D6,D6_hi,D7,D7_hi,   *
;*                           FPEXC,FPSCR                                     *
;*   Local Frame Size  : 0 Args + 0 Auto + 4 Save = 4 byte                   *
;*****************************************************************************
init_system:
;* --------------------------------------------------------------------------*
	.dwcfi	cfa_offset, 0
        PUSH      {A4, LR}              ; [DPU_3_PIPE] 
	.dwcfi	cfa_offset, 8
	.dwcfi	save_reg_to_mem, 14, -4
	.dwcfi	save_reg_to_mem, 3, -8
	.dwpsn	file "../timers.c",line 132,column 2,is_stmt,isa 1
;----------------------------------------------------------------------
; 132 | nokiaLCDinit();                                                        
; 133 | //    init_RTC();                                                      
;----------------------------------------------------------------------
$C$DW$87	.dwtag  DW_TAG_TI_branch
	.dwattr $C$DW$87, DW_AT_low_pc(0x00)
	.dwattr $C$DW$87, DW_AT_name("nokiaLCDinit")
	.dwattr $C$DW$87, DW_AT_TI_call
        BL        nokiaLCDinit          ; [DPU_3_PIPE] |132| 
        ; CALL OCCURS {nokiaLCDinit }    ; [] |132| 
	.dwpsn	file "../timers.c",line 134,column 2,is_stmt,isa 1
;----------------------------------------------------------------------
; 134 | init_sensors();                                                        
;----------------------------------------------------------------------
$C$DW$88	.dwtag  DW_TAG_TI_branch
	.dwattr $C$DW$88, DW_AT_low_pc(0x00)
	.dwattr $C$DW$88, DW_AT_name("init_sensors")
	.dwattr $C$DW$88, DW_AT_TI_call
        BL        init_sensors          ; [DPU_3_PIPE] |134| 
        ; CALL OCCURS {init_sensors }    ; [] |134| 
	.dwpsn	file "../timers.c",line 135,column 2,is_stmt,isa 1
;----------------------------------------------------------------------
; 135 | init_esp8266();                                                        
;----------------------------------------------------------------------
$C$DW$89	.dwtag  DW_TAG_TI_branch
	.dwattr $C$DW$89, DW_AT_low_pc(0x00)
	.dwattr $C$DW$89, DW_AT_name("init_esp8266")
	.dwattr $C$DW$89, DW_AT_TI_call
        BL        init_esp8266          ; [DPU_3_PIPE] |135| 
        ; CALL OCCURS {init_esp8266 }    ; [] |135| 
	.dwpsn	file "../timers.c",line 136,column 1,is_stmt,isa 1
$C$DW$90	.dwtag  DW_TAG_TI_branch
	.dwattr $C$DW$90, DW_AT_low_pc(0x00)
	.dwattr $C$DW$90, DW_AT_TI_return
        POP       {A4, PC}              ; [DPU_3_PIPE] 
	.dwcfi	cfa_offset, 0
        ; BRANCH OCCURS                  ; [] 
	.dwattr $C$DW$86, DW_AT_TI_end_file("../timers.c")
	.dwattr $C$DW$86, DW_AT_TI_end_line(0x88)
	.dwattr $C$DW$86, DW_AT_TI_end_column(0x01)
	.dwendentry
	.dwendtag $C$DW$86

	.sect	".text:kick_watchdog"
	.clink
	.thumbfunc kick_watchdog
	.thumb
	.global	kick_watchdog

$C$DW$91	.dwtag  DW_TAG_subprogram, DW_AT_name("kick_watchdog")
	.dwattr $C$DW$91, DW_AT_low_pc(kick_watchdog)
	.dwattr $C$DW$91, DW_AT_high_pc(0x00)
	.dwattr $C$DW$91, DW_AT_TI_symbol_name("kick_watchdog")
	.dwattr $C$DW$91, DW_AT_external
	.dwattr $C$DW$91, DW_AT_TI_begin_file("../timers.c")
	.dwattr $C$DW$91, DW_AT_TI_begin_line(0x8a)
	.dwattr $C$DW$91, DW_AT_TI_begin_column(0x06)
	.dwattr $C$DW$91, DW_AT_decl_file("../timers.c")
	.dwattr $C$DW$91, DW_AT_decl_line(0x8a)
	.dwattr $C$DW$91, DW_AT_decl_column(0x06)
	.dwattr $C$DW$91, DW_AT_TI_max_frame_size(0x00)
	.dwpsn	file "../timers.c",line 139,column 1,is_stmt,address kick_watchdog,isa 1

	.dwfde $C$DW$CIE, kick_watchdog
;----------------------------------------------------------------------
; 138 | void kick_watchdog()                                                   
;----------------------------------------------------------------------

;*****************************************************************************
;* FUNCTION NAME: kick_watchdog                                              *
;*                                                                           *
;*   Regs Modified     : A1,A2,SR                                            *
;*   Regs Used         : A1,A2,LR,SR                                         *
;*   Local Frame Size  : 0 Args + 0 Auto + 0 Save = 0 byte                   *
;*****************************************************************************
kick_watchdog:
;* --------------------------------------------------------------------------*
	.dwcfi	cfa_offset, 0
	.dwpsn	file "../timers.c",line 140,column 2,is_stmt,isa 1
;----------------------------------------------------------------------
; 140 | g_bFeedWatchdog = true;                                                
;----------------------------------------------------------------------
        LDR       A2, $C$CON17          ; [DPU_3_PIPE] |140| 
        MOVS      A1, #1                ; [DPU_3_PIPE] |140| 
        STRB      A1, [A2, #0]          ; [DPU_3_PIPE] |140| 
	.dwpsn	file "../timers.c",line 141,column 1,is_stmt,isa 1
$C$DW$92	.dwtag  DW_TAG_TI_branch
	.dwattr $C$DW$92, DW_AT_low_pc(0x00)
	.dwattr $C$DW$92, DW_AT_TI_return
        BX        LR                    ; [DPU_3_PIPE] 
        ; BRANCH OCCURS                  ; [] 
	.dwattr $C$DW$91, DW_AT_TI_end_file("../timers.c")
	.dwattr $C$DW$91, DW_AT_TI_end_line(0x8d)
	.dwattr $C$DW$91, DW_AT_TI_end_column(0x01)
	.dwendentry
	.dwendtag $C$DW$91

	.sect	".text:main"
	.clink
	.thumbfunc main
	.thumb
	.global	main

$C$DW$93	.dwtag  DW_TAG_subprogram, DW_AT_name("main")
	.dwattr $C$DW$93, DW_AT_low_pc(main)
	.dwattr $C$DW$93, DW_AT_high_pc(0x00)
	.dwattr $C$DW$93, DW_AT_TI_symbol_name("main")
	.dwattr $C$DW$93, DW_AT_external
	.dwattr $C$DW$93, DW_AT_type(*$C$DW$T$10)
	.dwattr $C$DW$93, DW_AT_TI_begin_file("../timers.c")
	.dwattr $C$DW$93, DW_AT_TI_begin_line(0x8f)
	.dwattr $C$DW$93, DW_AT_TI_begin_column(0x05)
	.dwattr $C$DW$93, DW_AT_decl_file("../timers.c")
	.dwattr $C$DW$93, DW_AT_decl_line(0x8f)
	.dwattr $C$DW$93, DW_AT_decl_column(0x05)
	.dwattr $C$DW$93, DW_AT_TI_max_frame_size(0x08)
	.dwpsn	file "../timers.c",line 144,column 1,is_stmt,address main,isa 1

	.dwfde $C$DW$CIE, main
;----------------------------------------------------------------------
; 143 | int main(void)                                                         
; 144 | {       //                                                             
; 145 | // Enable lazy stacking for interrupt handlers.  This allows floating-p
;     | oint                                                                   
; 146 | // instructions to be used within interrupt handlers, but at the expens
;     | e of                                                                   
; 147 | // extra stack usage.                                                  
;----------------------------------------------------------------------

;*****************************************************************************
;* FUNCTION NAME: main                                                       *
;*                                                                           *
;*   Regs Modified     : A1,A2,A3,A4,V9,SP,LR,SR,D0,D0_hi,D1,D1_hi,D2,D2_hi, *
;*                           D3,D3_hi,D4,D4_hi,D5,D5_hi,D6,D6_hi,D7,D7_hi,   *
;*                           FPEXC,FPSCR                                     *
;*   Regs Used         : A1,A2,A3,A4,V9,SP,LR,SR,D0,D0_hi,D1,D1_hi,D2,D2_hi, *
;*                           D3,D3_hi,D4,D4_hi,D5,D5_hi,D6,D6_hi,D7,D7_hi,   *
;*                           FPEXC,FPSCR                                     *
;*   Local Frame Size  : 0 Args + 4 Auto + 4 Save = 8 byte                   *
;*****************************************************************************
main:
;* --------------------------------------------------------------------------*
	.dwcfi	cfa_offset, 0
        PUSH      {A4, LR}              ; [DPU_3_PIPE] 
	.dwcfi	cfa_offset, 8
	.dwcfi	save_reg_to_mem, 14, -4
	.dwcfi	save_reg_to_mem, 3, -8
$C$DW$94	.dwtag  DW_TAG_variable, DW_AT_name("mainLoopDelay")
	.dwattr $C$DW$94, DW_AT_TI_symbol_name("mainLoopDelay")
	.dwattr $C$DW$94, DW_AT_type(*$C$DW$T$50)
	.dwattr $C$DW$94, DW_AT_location[DW_OP_breg13 0]
	.dwpsn	file "../timers.c",line 148,column 24,is_stmt,isa 1
;----------------------------------------------------------------------
; 148 | uint8_t mainLoopDelay = 0;                                             
;----------------------------------------------------------------------
        MOVS      A1, #0                ; [DPU_3_PIPE] |148| 
        STRB      A1, [SP, #0]          ; [DPU_3_PIPE] |148| 
	.dwpsn	file "../timers.c",line 149,column 5,is_stmt,isa 1
;----------------------------------------------------------------------
; 149 | ROM_FPULazyStackingEnable();                                           
; 150 | //System clock:                                                        
;----------------------------------------------------------------------
        LDR       A1, $C$CON18          ; [DPU_3_PIPE] |149| 
        LDR       A1, [A1, #0]          ; [DPU_3_PIPE] |149| 
        LDR       A1, [A1, #16]         ; [DPU_3_PIPE] |149| 
$C$DW$95	.dwtag  DW_TAG_TI_branch
	.dwattr $C$DW$95, DW_AT_low_pc(0x00)
	.dwattr $C$DW$95, DW_AT_TI_call
	.dwattr $C$DW$95, DW_AT_TI_indirect
        BLX       A1                    ; [DPU_3_PIPE] |149| 
        ; CALL OCCURS {}                 ; [] |149| 
	.dwpsn	file "../timers.c",line 151,column 5,is_stmt,isa 1
;----------------------------------------------------------------------
; 151 | SysCtlClockSet(SYSCTL_SYSDIV_4|SYSCTL_USE_PLL|SYSCTL_XTAL_16MHZ|SYSCTL_
;     | OSC_MAIN);                                                             
; 152 | //SysTick                                                              
;----------------------------------------------------------------------
        LDR       A1, $C$CON19          ; [DPU_3_PIPE] |151| 
$C$DW$96	.dwtag  DW_TAG_TI_branch
	.dwattr $C$DW$96, DW_AT_low_pc(0x00)
	.dwattr $C$DW$96, DW_AT_name("SysCtlClockSet")
	.dwattr $C$DW$96, DW_AT_TI_call
        BL        SysCtlClockSet        ; [DPU_3_PIPE] |151| 
        ; CALL OCCURS {SysCtlClockSet }  ; [] |151| 
	.dwpsn	file "../timers.c",line 153,column 5,is_stmt,isa 1
;----------------------------------------------------------------------
; 153 | SysTickPeriodSet(SysCtlClockGet()/100);//10ms tick for sd card         
;----------------------------------------------------------------------
$C$DW$97	.dwtag  DW_TAG_TI_branch
	.dwattr $C$DW$97, DW_AT_low_pc(0x00)
	.dwattr $C$DW$97, DW_AT_name("SysCtlClockGet")
	.dwattr $C$DW$97, DW_AT_TI_call
        BL        SysCtlClockGet        ; [DPU_3_PIPE] |153| 
        ; CALL OCCURS {SysCtlClockGet }  ; [] |153| 
        MOVS      A2, #100              ; [DPU_3_PIPE] |153| 
        UDIV      A1, A1, A2            ; [DPU_3_PIPE] |153| 
$C$DW$98	.dwtag  DW_TAG_TI_branch
	.dwattr $C$DW$98, DW_AT_low_pc(0x00)
	.dwattr $C$DW$98, DW_AT_name("SysTickPeriodSet")
	.dwattr $C$DW$98, DW_AT_TI_call
        BL        SysTickPeriodSet      ; [DPU_3_PIPE] |153| 
        ; CALL OCCURS {SysTickPeriodSet }  ; [] |153| 
	.dwpsn	file "../timers.c",line 154,column 5,is_stmt,isa 1
;----------------------------------------------------------------------
; 154 | SysTickIntEnable();                                                    
;----------------------------------------------------------------------
$C$DW$99	.dwtag  DW_TAG_TI_branch
	.dwattr $C$DW$99, DW_AT_low_pc(0x00)
	.dwattr $C$DW$99, DW_AT_name("SysTickIntEnable")
	.dwattr $C$DW$99, DW_AT_TI_call
        BL        SysTickIntEnable      ; [DPU_3_PIPE] |154| 
        ; CALL OCCURS {SysTickIntEnable }  ; [] |154| 
	.dwpsn	file "../timers.c",line 155,column 5,is_stmt,isa 1
;----------------------------------------------------------------------
; 155 | SysTickEnable();                                                       
; 156 | //Uart                                                                 
; 157 | // ConfigureUART();                                                    
; 159 | //OnBoard LEDs                                                         
;----------------------------------------------------------------------
$C$DW$100	.dwtag  DW_TAG_TI_branch
	.dwattr $C$DW$100, DW_AT_low_pc(0x00)
	.dwattr $C$DW$100, DW_AT_name("SysTickEnable")
	.dwattr $C$DW$100, DW_AT_TI_call
        BL        SysTickEnable         ; [DPU_3_PIPE] |155| 
        ; CALL OCCURS {SysTickEnable }   ; [] |155| 
	.dwpsn	file "../timers.c",line 160,column 5,is_stmt,isa 1
;----------------------------------------------------------------------
; 160 | ROM_SysCtlPeripheralEnable(SYSCTL_PERIPH_GPIOF);                       
;----------------------------------------------------------------------
        LDR       A1, $C$CON20          ; [DPU_3_PIPE] |160| 
        LDR       A1, [A1, #0]          ; [DPU_3_PIPE] |160| 
        LDR       A1, [A1, #24]         ; [DPU_3_PIPE] |160| 
        MOV       A2, A1                ; [DPU_3_PIPE] |160| 
        LDR       A1, $C$CON21          ; [DPU_3_PIPE] |160| 
$C$DW$101	.dwtag  DW_TAG_TI_branch
	.dwattr $C$DW$101, DW_AT_low_pc(0x00)
	.dwattr $C$DW$101, DW_AT_TI_call
	.dwattr $C$DW$101, DW_AT_TI_indirect
        BLX       A2                    ; [DPU_3_PIPE] |160| 
        ; CALL OCCURS {}                 ; [] |160| 
	.dwpsn	file "../timers.c",line 161,column 5,is_stmt,isa 1
;----------------------------------------------------------------------
; 161 | ROM_GPIOPinTypeGPIOOutput(GPIO_PORTF_BASE, GPIO_PIN_2 | GPIO_PIN_1);   
;----------------------------------------------------------------------
        LDR       A1, $C$CON22          ; [DPU_3_PIPE] |161| 
        LDR       A1, [A1, #0]          ; [DPU_3_PIPE] |161| 
        LDR       A1, [A1, #60]         ; [DPU_3_PIPE] |161| 
        MOV       A3, A1                ; [DPU_3_PIPE] |161| 
        LDR       A1, $C$CON23          ; [DPU_3_PIPE] |161| 
        MOVS      A2, #6                ; [DPU_3_PIPE] |161| 
$C$DW$102	.dwtag  DW_TAG_TI_branch
	.dwattr $C$DW$102, DW_AT_low_pc(0x00)
	.dwattr $C$DW$102, DW_AT_TI_call
	.dwattr $C$DW$102, DW_AT_TI_indirect
        BLX       A3                    ; [DPU_3_PIPE] |161| 
        ; CALL OCCURS {}                 ; [] |161| 
	.dwpsn	file "../timers.c",line 162,column 5,is_stmt,isa 1
;----------------------------------------------------------------------
; 162 | GPIOPinWrite(GPIO_PORTF_BASE, GPIO_PIN_1, GPIO_PIN_1);                 
; 163 | //Watchdog                                                             
;----------------------------------------------------------------------
        LDR       A1, $C$CON23          ; [DPU_3_PIPE] |162| 
        MOVS      A2, #2                ; [DPU_3_PIPE] |162| 
        MOVS      A3, #2                ; [DPU_3_PIPE] |162| 
$C$DW$103	.dwtag  DW_TAG_TI_branch
	.dwattr $C$DW$103, DW_AT_low_pc(0x00)
	.dwattr $C$DW$103, DW_AT_name("GPIOPinWrite")
	.dwattr $C$DW$103, DW_AT_TI_call
        BL        GPIOPinWrite          ; [DPU_3_PIPE] |162| 
        ; CALL OCCURS {GPIOPinWrite }    ; [] |162| 
	.dwpsn	file "../timers.c",line 164,column 5,is_stmt,isa 1
;----------------------------------------------------------------------
; 164 | ROM_SysCtlPeripheralEnable(SYSCTL_PERIPH_WDOG0);                       
;----------------------------------------------------------------------
        LDR       A1, $C$CON20          ; [DPU_3_PIPE] |164| 
        LDR       A1, [A1, #0]          ; [DPU_3_PIPE] |164| 
        LDR       A1, [A1, #24]         ; [DPU_3_PIPE] |164| 
        MOV       A2, A1                ; [DPU_3_PIPE] |164| 
        MOV       A1, #-268435456       ; [DPU_3_PIPE] |164| 
$C$DW$104	.dwtag  DW_TAG_TI_branch
	.dwattr $C$DW$104, DW_AT_low_pc(0x00)
	.dwattr $C$DW$104, DW_AT_TI_call
	.dwattr $C$DW$104, DW_AT_TI_indirect
        BLX       A2                    ; [DPU_3_PIPE] |164| 
        ; CALL OCCURS {}                 ; [] |164| 
	.dwpsn	file "../timers.c",line 165,column 5,is_stmt,isa 1
;----------------------------------------------------------------------
; 165 | ROM_IntEnable(INT_WATCHDOG);                                           
;----------------------------------------------------------------------
        LDR       A1, $C$CON24          ; [DPU_3_PIPE] |165| 
        LDR       A1, [A1, #0]          ; [DPU_3_PIPE] |165| 
        LDR       A1, [A1, #0]          ; [DPU_3_PIPE] |165| 
        MOV       A2, A1                ; [DPU_3_PIPE] |165| 
        MOVS      A1, #34               ; [DPU_3_PIPE] |165| 
$C$DW$105	.dwtag  DW_TAG_TI_branch
	.dwattr $C$DW$105, DW_AT_low_pc(0x00)
	.dwattr $C$DW$105, DW_AT_TI_call
	.dwattr $C$DW$105, DW_AT_TI_indirect
        BLX       A2                    ; [DPU_3_PIPE] |165| 
        ; CALL OCCURS {}                 ; [] |165| 
;* --------------------------------------------------------------------------*
	.dwpsn	file "../timers.c",line 166,column 5,is_stmt,isa 1
;----------------------------------------------------------------------
; 166 | ROM_WatchdogReloadSet(WATCHDOG0_BASE, SysCtlClockGet() * WATCHDOG_TIMER
;     | _SECONDS);                                                             
;----------------------------------------------------------------------
$C$DW$106	.dwtag  DW_TAG_TI_branch
	.dwattr $C$DW$106, DW_AT_low_pc(0x00)
	.dwattr $C$DW$106, DW_AT_name("SysCtlClockGet")
	.dwattr $C$DW$106, DW_AT_TI_call
        BL        SysCtlClockGet        ; [DPU_3_PIPE] |166| 
        ; CALL OCCURS {SysCtlClockGet }  ; [] |166| 
        LDR       A2, $C$CON25          ; [DPU_3_PIPE] |166| 
        LDR       A2, [A2, #0]          ; [DPU_3_PIPE] |166| 
        LDR       A3, [A2, #32]         ; [DPU_3_PIPE] |166| 
        MOVS      A2, #35               ; [DPU_3_PIPE] |166| 
        MULS      A2, A2, A1            ; [DPU_3_PIPE] |166| 
        MOV       A1, #1073741824       ; [DPU_3_PIPE] |166| 
$C$DW$107	.dwtag  DW_TAG_TI_branch
	.dwattr $C$DW$107, DW_AT_low_pc(0x00)
	.dwattr $C$DW$107, DW_AT_TI_call
	.dwattr $C$DW$107, DW_AT_TI_indirect
        BLX       A3                    ; [DPU_3_PIPE] |166| 
        ; CALL OCCURS {}                 ; [] |166| 
	.dwpsn	file "../timers.c",line 167,column 5,is_stmt,isa 1
;----------------------------------------------------------------------
; 167 | ROM_WatchdogResetEnable(WATCHDOG0_BASE);                               
; 168 | //ToDo: enable after testing                                           
;----------------------------------------------------------------------
        LDR       A1, $C$CON25          ; [DPU_3_PIPE] |167| 
        LDR       A1, [A1, #0]          ; [DPU_3_PIPE] |167| 
        LDR       A1, [A1, #12]         ; [DPU_3_PIPE] |167| 
        MOV       A2, A1                ; [DPU_3_PIPE] |167| 
        MOV       A1, #1073741824       ; [DPU_3_PIPE] |167| 
$C$DW$108	.dwtag  DW_TAG_TI_branch
	.dwattr $C$DW$108, DW_AT_low_pc(0x00)
	.dwattr $C$DW$108, DW_AT_TI_call
	.dwattr $C$DW$108, DW_AT_TI_indirect
        BLX       A2                    ; [DPU_3_PIPE] |167| 
        ; CALL OCCURS {}                 ; [] |167| 
	.dwpsn	file "../timers.c",line 169,column 5,is_stmt,isa 1
;----------------------------------------------------------------------
; 169 | ROM_WatchdogEnable(WATCHDOG0_BASE);                                    
;----------------------------------------------------------------------
        LDR       A1, $C$CON25          ; [DPU_3_PIPE] |169| 
        LDR       A1, [A1, #0]          ; [DPU_3_PIPE] |169| 
        LDR       A1, [A1, #8]          ; [DPU_3_PIPE] |169| 
        MOV       A2, A1                ; [DPU_3_PIPE] |169| 
        MOV       A1, #1073741824       ; [DPU_3_PIPE] |169| 
$C$DW$109	.dwtag  DW_TAG_TI_branch
	.dwattr $C$DW$109, DW_AT_low_pc(0x00)
	.dwattr $C$DW$109, DW_AT_TI_call
	.dwattr $C$DW$109, DW_AT_TI_indirect
        BLX       A2                    ; [DPU_3_PIPE] |169| 
        ; CALL OCCURS {}                 ; [] |169| 
	.dwpsn	file "../timers.c",line 171,column 5,is_stmt,isa 1
;----------------------------------------------------------------------
; 171 | ROM_IntMasterEnable();                                                 
;----------------------------------------------------------------------
        LDR       A1, $C$CON24          ; [DPU_3_PIPE] |171| 
        LDR       A1, [A1, #0]          ; [DPU_3_PIPE] |171| 
        LDR       A1, [A1, #4]          ; [DPU_3_PIPE] |171| 
$C$DW$110	.dwtag  DW_TAG_TI_branch
	.dwattr $C$DW$110, DW_AT_low_pc(0x00)
	.dwattr $C$DW$110, DW_AT_TI_call
	.dwattr $C$DW$110, DW_AT_TI_indirect
        BLX       A1                    ; [DPU_3_PIPE] |171| 
        ; CALL OCCURS {}                 ; [] |171| 
	.dwpsn	file "../timers.c",line 173,column 5,is_stmt,isa 1
;----------------------------------------------------------------------
; 173 | init_system();                                                         
;----------------------------------------------------------------------
$C$DW$111	.dwtag  DW_TAG_TI_branch
	.dwattr $C$DW$111, DW_AT_low_pc(0x00)
	.dwattr $C$DW$111, DW_AT_name("init_system")
	.dwattr $C$DW$111, DW_AT_TI_call
        BL        init_system           ; [DPU_3_PIPE] |173| 
        ; CALL OCCURS {init_system }     ; [] |173| 
	.dwpsn	file "../timers.c",line 175,column 11,is_stmt,isa 1
;----------------------------------------------------------------------
; 175 | while(1)                                                               
;----------------------------------------------------------------------
;* --------------------------------------------------------------------------*
;*   BEGIN LOOP ||$C$L11||
;*
;*   Loop source line                : 175
;*   Loop closing brace source line  : 185
;*   Known Minimum Trip Count        : 1
;*   Known Maximum Trip Count        : 4294967295
;*   Known Max Trip Count Factor     : 1
;* --------------------------------------------------------------------------*
||$C$L11||:    
	.dwpsn	file "../timers.c",line 177,column 6,is_stmt,isa 1
;----------------------------------------------------------------------
; 177 | GPIOPinWrite(GPIO_PORTF_BASE, GPIO_PIN_1, GPIO_PIN_1);                 
;----------------------------------------------------------------------
        LDR       A1, $C$CON23          ; [DPU_3_PIPE] |177| 
        MOVS      A2, #2                ; [DPU_3_PIPE] |177| 
        MOVS      A3, #2                ; [DPU_3_PIPE] |177| 
$C$DW$112	.dwtag  DW_TAG_TI_branch
	.dwattr $C$DW$112, DW_AT_low_pc(0x00)
	.dwattr $C$DW$112, DW_AT_name("GPIOPinWrite")
	.dwattr $C$DW$112, DW_AT_TI_call
        BL        GPIOPinWrite          ; [DPU_3_PIPE] |177| 
        ; CALL OCCURS {GPIOPinWrite }    ; [] |177| 
	.dwpsn	file "../timers.c",line 178,column 6,is_stmt,isa 1
;----------------------------------------------------------------------
; 178 | check_sensors();                                                       
;----------------------------------------------------------------------
$C$DW$113	.dwtag  DW_TAG_TI_branch
	.dwattr $C$DW$113, DW_AT_low_pc(0x00)
	.dwattr $C$DW$113, DW_AT_name("check_sensors")
	.dwattr $C$DW$113, DW_AT_TI_call
        BL        check_sensors         ; [DPU_3_PIPE] |178| 
        ; CALL OCCURS {check_sensors }   ; [] |178| 
	.dwpsn	file "../timers.c",line 179,column 6,is_stmt,isa 1
;----------------------------------------------------------------------
; 179 | GPIOPinWrite(GPIO_PORTF_BASE, GPIO_PIN_1, 0);                          
;----------------------------------------------------------------------
        LDR       A1, $C$CON23          ; [DPU_3_PIPE] |179| 
        MOVS      A2, #2                ; [DPU_3_PIPE] |179| 
        MOVS      A3, #0                ; [DPU_3_PIPE] |179| 
$C$DW$114	.dwtag  DW_TAG_TI_branch
	.dwattr $C$DW$114, DW_AT_low_pc(0x00)
	.dwattr $C$DW$114, DW_AT_name("GPIOPinWrite")
	.dwattr $C$DW$114, DW_AT_TI_call
        BL        GPIOPinWrite          ; [DPU_3_PIPE] |179| 
        ; CALL OCCURS {GPIOPinWrite }    ; [] |179| 
	.dwpsn	file "../timers.c",line 180,column 10,is_stmt,isa 1
;----------------------------------------------------------------------
; 180 | for(mainLoopDelay=0; mainLoopDelay<2; mainLoopDelay++)                 
;----------------------------------------------------------------------
        MOVS      A1, #0                ; [DPU_3_PIPE] |180| 
        STRB      A1, [SP, #0]          ; [DPU_3_PIPE] |180| 
	.dwpsn	file "../timers.c",line 180,column 27,is_stmt,isa 1
        LDRB      A1, [SP, #0]          ; [DPU_3_PIPE] |180| 
        CMP       A1, #2                ; [DPU_3_PIPE] |180| 
        BGE       ||$C$L11||            ; [DPU_3_PIPE] |180| 
        ; BRANCHCC OCCURS {||$C$L11||}   ; [] |180| 
;* --------------------------------------------------------------------------*
;*   BEGIN LOOP ||$C$L12||
;*
;*   Loop source line                : 180
;*   Loop closing brace source line  : 184
;*   Known Minimum Trip Count        : 1
;*   Known Maximum Trip Count        : 4294967295
;*   Known Max Trip Count Factor     : 1
;* --------------------------------------------------------------------------*
||$C$L12||:    
	.dwpsn	file "../timers.c",line 182,column 7,is_stmt,isa 1
;----------------------------------------------------------------------
; 182 | SysCtlDelay(SysCtlClockGet());                                         
;----------------------------------------------------------------------
$C$DW$115	.dwtag  DW_TAG_TI_branch
	.dwattr $C$DW$115, DW_AT_low_pc(0x00)
	.dwattr $C$DW$115, DW_AT_name("SysCtlClockGet")
	.dwattr $C$DW$115, DW_AT_TI_call
        BL        SysCtlClockGet        ; [DPU_3_PIPE] |182| 
        ; CALL OCCURS {SysCtlClockGet }  ; [] |182| 
$C$DW$116	.dwtag  DW_TAG_TI_branch
	.dwattr $C$DW$116, DW_AT_low_pc(0x00)
	.dwattr $C$DW$116, DW_AT_name("SysCtlDelay")
	.dwattr $C$DW$116, DW_AT_TI_call
        BL        SysCtlDelay           ; [DPU_3_PIPE] |182| 
        ; CALL OCCURS {SysCtlDelay }     ; [] |182| 
	.dwpsn	file "../timers.c",line 183,column 7,is_stmt,isa 1
;----------------------------------------------------------------------
; 183 | kick_watchdog();                                                       
;----------------------------------------------------------------------
$C$DW$117	.dwtag  DW_TAG_TI_branch
	.dwattr $C$DW$117, DW_AT_low_pc(0x00)
	.dwattr $C$DW$117, DW_AT_name("kick_watchdog")
	.dwattr $C$DW$117, DW_AT_TI_call
        BL        kick_watchdog         ; [DPU_3_PIPE] |183| 
        ; CALL OCCURS {kick_watchdog }   ; [] |183| 
	.dwpsn	file "../timers.c",line 180,column 44,is_stmt,isa 1
        LDRB      A1, [SP, #0]          ; [DPU_3_PIPE] |180| 
        ADDS      A1, A1, #1            ; [DPU_3_PIPE] |180| 
        STRB      A1, [SP, #0]          ; [DPU_3_PIPE] |180| 
	.dwpsn	file "../timers.c",line 180,column 27,is_stmt,isa 1
        LDRB      A1, [SP, #0]          ; [DPU_3_PIPE] |180| 
        CMP       A1, #2                ; [DPU_3_PIPE] |180| 
        BLT       ||$C$L12||            ; [DPU_3_PIPE] |180| 
        ; BRANCHCC OCCURS {||$C$L12||}   ; [] |180| 
;* --------------------------------------------------------------------------*
	.dwpsn	file "../timers.c",line 175,column 11,is_stmt,isa 1
        B         ||$C$L11||            ; [DPU_3_PIPE] |175| 
        ; BRANCH OCCURS {||$C$L11||}     ; [] |175| 
;* --------------------------------------------------------------------------*
	.dwattr $C$DW$93, DW_AT_TI_end_file("../timers.c")
	.dwattr $C$DW$93, DW_AT_TI_end_line(0xba)
	.dwattr $C$DW$93, DW_AT_TI_end_column(0x01)
	.dwendentry
	.dwendtag $C$DW$93

;******************************************************************************
;* CONSTANT TABLE                                                             *
;******************************************************************************
	.sect	".text:WatchdogIntHandler"
	.align	4
||$C$CON1||:	.bits	g_bFeedWatchdog,32
	.align	4
||$C$CON2||:	.bits	g_bWatchdogTimeoutMsgSent,32
	.align	4
||$C$CON3||:	.bits	16777280,32
;******************************************************************************
;* CONSTANT TABLE                                                             *
;******************************************************************************
	.sect	".text:ConfigureUART"
	.align	4
||$C$CON4||:	.bits	16777284,32
	.align	4
||$C$CON5||:	.bits	-268433408,32
	.align	4
||$C$CON6||:	.bits	-268429312,32
	.align	4
||$C$CON7||:	.bits	16777248,32
	.align	4
||$C$CON8||:	.bits	1073790976,32
;******************************************************************************
;* CONSTANT TABLE                                                             *
;******************************************************************************
	.sect	".text:check_sensors"
	.align	4
||$C$CON9||:	.bits	16777288,32
	.align	4
||$C$CON10||:	.bits	temp_secondsCounter$2,32
	.align	4
||$C$CON11||:	.bits	g_ui32SecondsCounter,32
	.align	4
||$C$CON12||:	.bits	lastUpdateCounter$1,32
;******************************************************************************
;* CONSTANT TABLE                                                             *
;******************************************************************************
	.sect	".text:SysTickIntHandler"
	.align	4
||$C$CON13||:	.bits	g_ui32SysTickCounter,32
	.align	4
||$C$CON14||:	.bits	sysTickTemp$3,32
	.align	4
||$C$CON15||:	.bits	g_ui32SecondsCounter,32
;******************************************************************************
;* CONSTANT TABLE                                                             *
;******************************************************************************
	.sect	".text:delay_ms"
	.align	4
||$C$CON16||:	.bits	g_ui32SysTickCounter,32
;******************************************************************************
;* CONSTANT TABLE                                                             *
;******************************************************************************
	.sect	".text:kick_watchdog"
	.align	4
||$C$CON17||:	.bits	g_bFeedWatchdog,32
;******************************************************************************
;* CONSTANT TABLE                                                             *
;******************************************************************************
	.sect	".text:main"
	.align	4
||$C$CON18||:	.bits	16777336,32
	.align	4
||$C$CON19||:	.bits	29361472,32
	.align	4
||$C$CON20||:	.bits	16777284,32
	.align	4
||$C$CON21||:	.bits	-268433403,32
	.align	4
||$C$CON22||:	.bits	16777248,32
	.align	4
||$C$CON23||:	.bits	1073893376,32
	.align	4
||$C$CON24||:	.bits	16777288,32
	.align	4
||$C$CON25||:	.bits	16777280,32
;*****************************************************************************
;* UNDEFINED EXTERNAL REFERENCES                                             *
;*****************************************************************************
	.global	GPIOPinWrite
	.global	IntMasterEnable
	.global	IntMasterDisable
	.global	SysCtlDelay
	.global	SysCtlClockSet
	.global	SysCtlClockGet
	.global	SysTickEnable
	.global	SysTickIntEnable
	.global	SysTickPeriodSet
	.global	UARTClockSourceSet
	.global	init_sensors
	.global	check_sensor1
	.global	check_sensor2
	.global	check_sensor3
	.global	check_sensor4
	.global	check_fan_timer
	.global	update_lcd
	.global	update_thingspeak
	.global	nokiaLCDinit
	.global	init_esp8266
	.global	getTimer0ChAvalue

;******************************************************************************
;* BUILD ATTRIBUTES                                                           *
;******************************************************************************
	.battr "aeabi", Tag_File, 1, Tag_ABI_PCS_wchar_t(2)
	.battr "aeabi", Tag_File, 1, Tag_ABI_FP_rounding(0)
	.battr "aeabi", Tag_File, 1, Tag_ABI_FP_denormal(0)
	.battr "aeabi", Tag_File, 1, Tag_ABI_FP_exceptions(0)
	.battr "aeabi", Tag_File, 1, Tag_ABI_FP_number_model(1)
	.battr "aeabi", Tag_File, 1, Tag_ABI_enum_size(1)
	.battr "aeabi", Tag_File, 1, Tag_ABI_optimization_goals(5)
	.battr "aeabi", Tag_File, 1, Tag_ABI_FP_optimization_goals(0)
	.battr "TI", Tag_File, 1, Tag_Bitfield_layout(2)
	.battr "TI", Tag_File, 1, Tag_FP_interface(0)

;******************************************************************************
;* TYPE INFORMATION                                                           *
;******************************************************************************

$C$DW$T$38	.dwtag  DW_TAG_enumeration_type
	.dwattr $C$DW$T$38, DW_AT_byte_size(0x01)
$C$DW$118	.dwtag  DW_TAG_enumerator, DW_AT_name("FALSE"), DW_AT_const_value(0x00)
	.dwattr $C$DW$118, DW_AT_decl_file("E:\Dev\Ti\TivaWare\third_party\fatfs\src\integer.h")
	.dwattr $C$DW$118, DW_AT_decl_line(0x24)
	.dwattr $C$DW$118, DW_AT_decl_column(0x10)
$C$DW$119	.dwtag  DW_TAG_enumerator, DW_AT_name("TRUE"), DW_AT_const_value(0x01)
	.dwattr $C$DW$119, DW_AT_decl_file("E:\Dev\Ti\TivaWare\third_party\fatfs\src\integer.h")
	.dwattr $C$DW$119, DW_AT_decl_line(0x24)
	.dwattr $C$DW$119, DW_AT_decl_column(0x1b)
	.dwendtag $C$DW$T$38

	.dwattr $C$DW$T$38, DW_AT_decl_file("E:\Dev\Ti\TivaWare\third_party\fatfs\src\integer.h")
	.dwattr $C$DW$T$38, DW_AT_decl_line(0x24)
	.dwattr $C$DW$T$38, DW_AT_decl_column(0x0e)
$C$DW$T$39	.dwtag  DW_TAG_typedef, DW_AT_name("BOOL")
	.dwattr $C$DW$T$39, DW_AT_type(*$C$DW$T$38)
	.dwattr $C$DW$T$39, DW_AT_language(DW_LANG_C)
	.dwattr $C$DW$T$39, DW_AT_decl_file("E:\Dev\Ti\TivaWare\third_party\fatfs\src\integer.h")
	.dwattr $C$DW$T$39, DW_AT_decl_line(0x24)
	.dwattr $C$DW$T$39, DW_AT_decl_column(0x22)

$C$DW$T$40	.dwtag  DW_TAG_enumeration_type
	.dwattr $C$DW$T$40, DW_AT_byte_size(0x01)
$C$DW$120	.dwtag  DW_TAG_enumerator, DW_AT_name("FR_OK"), DW_AT_const_value(0x00)
	.dwattr $C$DW$120, DW_AT_decl_file("E:/Dev/Ti/TivaWare/third_party/fatfs/src/ff.h")
	.dwattr $C$DW$120, DW_AT_decl_line(0xb3)
	.dwattr $C$DW$120, DW_AT_decl_column(0x02)
$C$DW$121	.dwtag  DW_TAG_enumerator, DW_AT_name("FR_DISK_ERR"), DW_AT_const_value(0x01)
	.dwattr $C$DW$121, DW_AT_decl_file("E:/Dev/Ti/TivaWare/third_party/fatfs/src/ff.h")
	.dwattr $C$DW$121, DW_AT_decl_line(0xb4)
	.dwattr $C$DW$121, DW_AT_decl_column(0x02)
$C$DW$122	.dwtag  DW_TAG_enumerator, DW_AT_name("FR_INT_ERR"), DW_AT_const_value(0x02)
	.dwattr $C$DW$122, DW_AT_decl_file("E:/Dev/Ti/TivaWare/third_party/fatfs/src/ff.h")
	.dwattr $C$DW$122, DW_AT_decl_line(0xb5)
	.dwattr $C$DW$122, DW_AT_decl_column(0x02)
$C$DW$123	.dwtag  DW_TAG_enumerator, DW_AT_name("FR_NOT_READY"), DW_AT_const_value(0x03)
	.dwattr $C$DW$123, DW_AT_decl_file("E:/Dev/Ti/TivaWare/third_party/fatfs/src/ff.h")
	.dwattr $C$DW$123, DW_AT_decl_line(0xb6)
	.dwattr $C$DW$123, DW_AT_decl_column(0x02)
$C$DW$124	.dwtag  DW_TAG_enumerator, DW_AT_name("FR_NO_FILE"), DW_AT_const_value(0x04)
	.dwattr $C$DW$124, DW_AT_decl_file("E:/Dev/Ti/TivaWare/third_party/fatfs/src/ff.h")
	.dwattr $C$DW$124, DW_AT_decl_line(0xb7)
	.dwattr $C$DW$124, DW_AT_decl_column(0x02)
$C$DW$125	.dwtag  DW_TAG_enumerator, DW_AT_name("FR_NO_PATH"), DW_AT_const_value(0x05)
	.dwattr $C$DW$125, DW_AT_decl_file("E:/Dev/Ti/TivaWare/third_party/fatfs/src/ff.h")
	.dwattr $C$DW$125, DW_AT_decl_line(0xb8)
	.dwattr $C$DW$125, DW_AT_decl_column(0x02)
$C$DW$126	.dwtag  DW_TAG_enumerator, DW_AT_name("FR_INVALID_NAME"), DW_AT_const_value(0x06)
	.dwattr $C$DW$126, DW_AT_decl_file("E:/Dev/Ti/TivaWare/third_party/fatfs/src/ff.h")
	.dwattr $C$DW$126, DW_AT_decl_line(0xb9)
	.dwattr $C$DW$126, DW_AT_decl_column(0x02)
$C$DW$127	.dwtag  DW_TAG_enumerator, DW_AT_name("FR_DENIED"), DW_AT_const_value(0x07)
	.dwattr $C$DW$127, DW_AT_decl_file("E:/Dev/Ti/TivaWare/third_party/fatfs/src/ff.h")
	.dwattr $C$DW$127, DW_AT_decl_line(0xba)
	.dwattr $C$DW$127, DW_AT_decl_column(0x02)
$C$DW$128	.dwtag  DW_TAG_enumerator, DW_AT_name("FR_EXIST"), DW_AT_const_value(0x08)
	.dwattr $C$DW$128, DW_AT_decl_file("E:/Dev/Ti/TivaWare/third_party/fatfs/src/ff.h")
	.dwattr $C$DW$128, DW_AT_decl_line(0xbb)
	.dwattr $C$DW$128, DW_AT_decl_column(0x02)
$C$DW$129	.dwtag  DW_TAG_enumerator, DW_AT_name("FR_INVALID_OBJECT"), DW_AT_const_value(0x09)
	.dwattr $C$DW$129, DW_AT_decl_file("E:/Dev/Ti/TivaWare/third_party/fatfs/src/ff.h")
	.dwattr $C$DW$129, DW_AT_decl_line(0xbc)
	.dwattr $C$DW$129, DW_AT_decl_column(0x02)
$C$DW$130	.dwtag  DW_TAG_enumerator, DW_AT_name("FR_WRITE_PROTECTED"), DW_AT_const_value(0x0a)
	.dwattr $C$DW$130, DW_AT_decl_file("E:/Dev/Ti/TivaWare/third_party/fatfs/src/ff.h")
	.dwattr $C$DW$130, DW_AT_decl_line(0xbd)
	.dwattr $C$DW$130, DW_AT_decl_column(0x02)
$C$DW$131	.dwtag  DW_TAG_enumerator, DW_AT_name("FR_INVALID_DRIVE"), DW_AT_const_value(0x0b)
	.dwattr $C$DW$131, DW_AT_decl_file("E:/Dev/Ti/TivaWare/third_party/fatfs/src/ff.h")
	.dwattr $C$DW$131, DW_AT_decl_line(0xbe)
	.dwattr $C$DW$131, DW_AT_decl_column(0x02)
$C$DW$132	.dwtag  DW_TAG_enumerator, DW_AT_name("FR_NOT_ENABLED"), DW_AT_const_value(0x0c)
	.dwattr $C$DW$132, DW_AT_decl_file("E:/Dev/Ti/TivaWare/third_party/fatfs/src/ff.h")
	.dwattr $C$DW$132, DW_AT_decl_line(0xbf)
	.dwattr $C$DW$132, DW_AT_decl_column(0x02)
$C$DW$133	.dwtag  DW_TAG_enumerator, DW_AT_name("FR_NO_FILESYSTEM"), DW_AT_const_value(0x0d)
	.dwattr $C$DW$133, DW_AT_decl_file("E:/Dev/Ti/TivaWare/third_party/fatfs/src/ff.h")
	.dwattr $C$DW$133, DW_AT_decl_line(0xc0)
	.dwattr $C$DW$133, DW_AT_decl_column(0x02)
$C$DW$134	.dwtag  DW_TAG_enumerator, DW_AT_name("FR_MKFS_ABORTED"), DW_AT_const_value(0x0e)
	.dwattr $C$DW$134, DW_AT_decl_file("E:/Dev/Ti/TivaWare/third_party/fatfs/src/ff.h")
	.dwattr $C$DW$134, DW_AT_decl_line(0xc1)
	.dwattr $C$DW$134, DW_AT_decl_column(0x02)
$C$DW$135	.dwtag  DW_TAG_enumerator, DW_AT_name("FR_TIMEOUT"), DW_AT_const_value(0x0f)
	.dwattr $C$DW$135, DW_AT_decl_file("E:/Dev/Ti/TivaWare/third_party/fatfs/src/ff.h")
	.dwattr $C$DW$135, DW_AT_decl_line(0xc2)
	.dwattr $C$DW$135, DW_AT_decl_column(0x02)
$C$DW$136	.dwtag  DW_TAG_enumerator, DW_AT_name("FR_LOCKED"), DW_AT_const_value(0x10)
	.dwattr $C$DW$136, DW_AT_decl_file("E:/Dev/Ti/TivaWare/third_party/fatfs/src/ff.h")
	.dwattr $C$DW$136, DW_AT_decl_line(0xc3)
	.dwattr $C$DW$136, DW_AT_decl_column(0x02)
$C$DW$137	.dwtag  DW_TAG_enumerator, DW_AT_name("FR_NOT_ENOUGH_CORE"), DW_AT_const_value(0x11)
	.dwattr $C$DW$137, DW_AT_decl_file("E:/Dev/Ti/TivaWare/third_party/fatfs/src/ff.h")
	.dwattr $C$DW$137, DW_AT_decl_line(0xc4)
	.dwattr $C$DW$137, DW_AT_decl_column(0x02)
$C$DW$138	.dwtag  DW_TAG_enumerator, DW_AT_name("FR_TOO_MANY_OPEN_FILES"), DW_AT_const_value(0x12)
	.dwattr $C$DW$138, DW_AT_decl_file("E:/Dev/Ti/TivaWare/third_party/fatfs/src/ff.h")
	.dwattr $C$DW$138, DW_AT_decl_line(0xc5)
	.dwattr $C$DW$138, DW_AT_decl_column(0x02)
$C$DW$139	.dwtag  DW_TAG_enumerator, DW_AT_name("FR_INVALID_PARAMETER"), DW_AT_const_value(0x13)
	.dwattr $C$DW$139, DW_AT_decl_file("E:/Dev/Ti/TivaWare/third_party/fatfs/src/ff.h")
	.dwattr $C$DW$139, DW_AT_decl_line(0xc6)
	.dwattr $C$DW$139, DW_AT_decl_column(0x02)
	.dwendtag $C$DW$T$40

	.dwattr $C$DW$T$40, DW_AT_decl_file("E:/Dev/Ti/TivaWare/third_party/fatfs/src/ff.h")
	.dwattr $C$DW$T$40, DW_AT_decl_line(0xb2)
	.dwattr $C$DW$T$40, DW_AT_decl_column(0x0e)
$C$DW$T$41	.dwtag  DW_TAG_typedef, DW_AT_name("FRESULT")
	.dwattr $C$DW$T$41, DW_AT_type(*$C$DW$T$40)
	.dwattr $C$DW$T$41, DW_AT_language(DW_LANG_C)
	.dwattr $C$DW$T$41, DW_AT_decl_file("E:/Dev/Ti/TivaWare/third_party/fatfs/src/ff.h")
	.dwattr $C$DW$T$41, DW_AT_decl_line(0xc7)
	.dwattr $C$DW$T$41, DW_AT_decl_column(0x03)

$C$DW$T$42	.dwtag  DW_TAG_enumeration_type
	.dwattr $C$DW$T$42, DW_AT_byte_size(0x01)
$C$DW$140	.dwtag  DW_TAG_enumerator, DW_AT_name("RES_OK"), DW_AT_const_value(0x00)
	.dwattr $C$DW$140, DW_AT_decl_file("E:/Dev/Ti/TivaWare/third_party/fatfs/src/diskio.h")
	.dwattr $C$DW$140, DW_AT_decl_line(0x17)
	.dwattr $C$DW$140, DW_AT_decl_column(0x02)
$C$DW$141	.dwtag  DW_TAG_enumerator, DW_AT_name("RES_ERROR"), DW_AT_const_value(0x01)
	.dwattr $C$DW$141, DW_AT_decl_file("E:/Dev/Ti/TivaWare/third_party/fatfs/src/diskio.h")
	.dwattr $C$DW$141, DW_AT_decl_line(0x18)
	.dwattr $C$DW$141, DW_AT_decl_column(0x02)
$C$DW$142	.dwtag  DW_TAG_enumerator, DW_AT_name("RES_WRPRT"), DW_AT_const_value(0x02)
	.dwattr $C$DW$142, DW_AT_decl_file("E:/Dev/Ti/TivaWare/third_party/fatfs/src/diskio.h")
	.dwattr $C$DW$142, DW_AT_decl_line(0x19)
	.dwattr $C$DW$142, DW_AT_decl_column(0x02)
$C$DW$143	.dwtag  DW_TAG_enumerator, DW_AT_name("RES_NOTRDY"), DW_AT_const_value(0x03)
	.dwattr $C$DW$143, DW_AT_decl_file("E:/Dev/Ti/TivaWare/third_party/fatfs/src/diskio.h")
	.dwattr $C$DW$143, DW_AT_decl_line(0x1a)
	.dwattr $C$DW$143, DW_AT_decl_column(0x02)
$C$DW$144	.dwtag  DW_TAG_enumerator, DW_AT_name("RES_PARERR"), DW_AT_const_value(0x04)
	.dwattr $C$DW$144, DW_AT_decl_file("E:/Dev/Ti/TivaWare/third_party/fatfs/src/diskio.h")
	.dwattr $C$DW$144, DW_AT_decl_line(0x1b)
	.dwattr $C$DW$144, DW_AT_decl_column(0x02)
	.dwendtag $C$DW$T$42

	.dwattr $C$DW$T$42, DW_AT_decl_file("E:/Dev/Ti/TivaWare/third_party/fatfs/src/diskio.h")
	.dwattr $C$DW$T$42, DW_AT_decl_line(0x16)
	.dwattr $C$DW$T$42, DW_AT_decl_column(0x0e)
$C$DW$T$43	.dwtag  DW_TAG_typedef, DW_AT_name("DRESULT")
	.dwattr $C$DW$T$43, DW_AT_type(*$C$DW$T$42)
	.dwattr $C$DW$T$43, DW_AT_language(DW_LANG_C)
	.dwattr $C$DW$T$43, DW_AT_decl_file("E:/Dev/Ti/TivaWare/third_party/fatfs/src/diskio.h")
	.dwattr $C$DW$T$43, DW_AT_decl_line(0x1c)
	.dwattr $C$DW$T$43, DW_AT_decl_column(0x03)

$C$DW$T$19	.dwtag  DW_TAG_structure_type
	.dwattr $C$DW$T$19, DW_AT_byte_size(0x48)
$C$DW$145	.dwtag  DW_TAG_member
	.dwattr $C$DW$145, DW_AT_type(*$C$DW$T$10)
	.dwattr $C$DW$145, DW_AT_name("_Ddig")
	.dwattr $C$DW$145, DW_AT_TI_symbol_name("_Ddig")
	.dwattr $C$DW$145, DW_AT_data_member_location[DW_OP_plus_uconst 0x0]
	.dwattr $C$DW$145, DW_AT_accessibility(DW_ACCESS_public)
	.dwattr $C$DW$145, DW_AT_decl_file("C:/ti/ccsv6/tools/compiler/ti-cgt-arm_5.2.5/include/float.h")
	.dwattr $C$DW$145, DW_AT_decl_line(0x37)
	.dwattr $C$DW$145, DW_AT_decl_column(0x06)
$C$DW$146	.dwtag  DW_TAG_member
	.dwattr $C$DW$146, DW_AT_type(*$C$DW$T$10)
	.dwattr $C$DW$146, DW_AT_name("_Dmdig")
	.dwattr $C$DW$146, DW_AT_TI_symbol_name("_Dmdig")
	.dwattr $C$DW$146, DW_AT_data_member_location[DW_OP_plus_uconst 0x4]
	.dwattr $C$DW$146, DW_AT_accessibility(DW_ACCESS_public)
	.dwattr $C$DW$146, DW_AT_decl_file("C:/ti/ccsv6/tools/compiler/ti-cgt-arm_5.2.5/include/float.h")
	.dwattr $C$DW$146, DW_AT_decl_line(0x37)
	.dwattr $C$DW$146, DW_AT_decl_column(0x0d)
$C$DW$147	.dwtag  DW_TAG_member
	.dwattr $C$DW$147, DW_AT_type(*$C$DW$T$10)
	.dwattr $C$DW$147, DW_AT_name("_Dmax10e")
	.dwattr $C$DW$147, DW_AT_TI_symbol_name("_Dmax10e")
	.dwattr $C$DW$147, DW_AT_data_member_location[DW_OP_plus_uconst 0x8]
	.dwattr $C$DW$147, DW_AT_accessibility(DW_ACCESS_public)
	.dwattr $C$DW$147, DW_AT_decl_file("C:/ti/ccsv6/tools/compiler/ti-cgt-arm_5.2.5/include/float.h")
	.dwattr $C$DW$147, DW_AT_decl_line(0x37)
	.dwattr $C$DW$147, DW_AT_decl_column(0x15)
$C$DW$148	.dwtag  DW_TAG_member
	.dwattr $C$DW$148, DW_AT_type(*$C$DW$T$10)
	.dwattr $C$DW$148, DW_AT_name("_Dmaxe")
	.dwattr $C$DW$148, DW_AT_TI_symbol_name("_Dmaxe")
	.dwattr $C$DW$148, DW_AT_data_member_location[DW_OP_plus_uconst 0xc]
	.dwattr $C$DW$148, DW_AT_accessibility(DW_ACCESS_public)
	.dwattr $C$DW$148, DW_AT_decl_file("C:/ti/ccsv6/tools/compiler/ti-cgt-arm_5.2.5/include/float.h")
	.dwattr $C$DW$148, DW_AT_decl_line(0x37)
	.dwattr $C$DW$148, DW_AT_decl_column(0x1f)
$C$DW$149	.dwtag  DW_TAG_member
	.dwattr $C$DW$149, DW_AT_type(*$C$DW$T$10)
	.dwattr $C$DW$149, DW_AT_name("_Dmin10e")
	.dwattr $C$DW$149, DW_AT_TI_symbol_name("_Dmin10e")
	.dwattr $C$DW$149, DW_AT_data_member_location[DW_OP_plus_uconst 0x10]
	.dwattr $C$DW$149, DW_AT_accessibility(DW_ACCESS_public)
	.dwattr $C$DW$149, DW_AT_decl_file("C:/ti/ccsv6/tools/compiler/ti-cgt-arm_5.2.5/include/float.h")
	.dwattr $C$DW$149, DW_AT_decl_line(0x37)
	.dwattr $C$DW$149, DW_AT_decl_column(0x27)
$C$DW$150	.dwtag  DW_TAG_member
	.dwattr $C$DW$150, DW_AT_type(*$C$DW$T$10)
	.dwattr $C$DW$150, DW_AT_name("_Dmine")
	.dwattr $C$DW$150, DW_AT_TI_symbol_name("_Dmine")
	.dwattr $C$DW$150, DW_AT_data_member_location[DW_OP_plus_uconst 0x14]
	.dwattr $C$DW$150, DW_AT_accessibility(DW_ACCESS_public)
	.dwattr $C$DW$150, DW_AT_decl_file("C:/ti/ccsv6/tools/compiler/ti-cgt-arm_5.2.5/include/float.h")
	.dwattr $C$DW$150, DW_AT_decl_line(0x37)
	.dwattr $C$DW$150, DW_AT_decl_column(0x31)
$C$DW$151	.dwtag  DW_TAG_member
	.dwattr $C$DW$151, DW_AT_type(*$C$DW$T$35)
	.dwattr $C$DW$151, DW_AT_name("_Deps")
	.dwattr $C$DW$151, DW_AT_TI_symbol_name("_Deps")
	.dwattr $C$DW$151, DW_AT_data_member_location[DW_OP_plus_uconst 0x18]
	.dwattr $C$DW$151, DW_AT_accessibility(DW_ACCESS_public)
	.dwattr $C$DW$151, DW_AT_decl_file("C:/ti/ccsv6/tools/compiler/ti-cgt-arm_5.2.5/include/float.h")
	.dwattr $C$DW$151, DW_AT_decl_line(0x3e)
	.dwattr $C$DW$151, DW_AT_decl_column(0x05)
$C$DW$152	.dwtag  DW_TAG_member
	.dwattr $C$DW$152, DW_AT_type(*$C$DW$T$35)
	.dwattr $C$DW$152, DW_AT_name("_Dmax")
	.dwattr $C$DW$152, DW_AT_TI_symbol_name("_Dmax")
	.dwattr $C$DW$152, DW_AT_data_member_location[DW_OP_plus_uconst 0x28]
	.dwattr $C$DW$152, DW_AT_accessibility(DW_ACCESS_public)
	.dwattr $C$DW$152, DW_AT_decl_file("C:/ti/ccsv6/tools/compiler/ti-cgt-arm_5.2.5/include/float.h")
	.dwattr $C$DW$152, DW_AT_decl_line(0x3e)
	.dwattr $C$DW$152, DW_AT_decl_column(0x0c)
$C$DW$153	.dwtag  DW_TAG_member
	.dwattr $C$DW$153, DW_AT_type(*$C$DW$T$35)
	.dwattr $C$DW$153, DW_AT_name("_Dmin")
	.dwattr $C$DW$153, DW_AT_TI_symbol_name("_Dmin")
	.dwattr $C$DW$153, DW_AT_data_member_location[DW_OP_plus_uconst 0x38]
	.dwattr $C$DW$153, DW_AT_accessibility(DW_ACCESS_public)
	.dwattr $C$DW$153, DW_AT_decl_file("C:/ti/ccsv6/tools/compiler/ti-cgt-arm_5.2.5/include/float.h")
	.dwattr $C$DW$153, DW_AT_decl_line(0x3e)
	.dwattr $C$DW$153, DW_AT_decl_column(0x13)
	.dwendtag $C$DW$T$19

	.dwattr $C$DW$T$19, DW_AT_decl_file("C:/ti/ccsv6/tools/compiler/ti-cgt-arm_5.2.5/include/float.h")
	.dwattr $C$DW$T$19, DW_AT_decl_line(0x36)
	.dwattr $C$DW$T$19, DW_AT_decl_column(0x02)
$C$DW$T$44	.dwtag  DW_TAG_typedef, DW_AT_name("_Dvals")
	.dwattr $C$DW$T$44, DW_AT_type(*$C$DW$T$19)
	.dwattr $C$DW$T$44, DW_AT_language(DW_LANG_C)
	.dwattr $C$DW$T$44, DW_AT_decl_file("C:/ti/ccsv6/tools/compiler/ti-cgt-arm_5.2.5/include/float.h")
	.dwattr $C$DW$T$44, DW_AT_decl_line(0x3f)
	.dwattr $C$DW$T$44, DW_AT_decl_column(0x04)

$C$DW$T$24	.dwtag  DW_TAG_structure_type
	.dwattr $C$DW$T$24, DW_AT_byte_size(0x234)
$C$DW$154	.dwtag  DW_TAG_member
	.dwattr $C$DW$154, DW_AT_type(*$C$DW$T$20)
	.dwattr $C$DW$154, DW_AT_name("fs_type")
	.dwattr $C$DW$154, DW_AT_TI_symbol_name("fs_type")
	.dwattr $C$DW$154, DW_AT_data_member_location[DW_OP_plus_uconst 0x0]
	.dwattr $C$DW$154, DW_AT_accessibility(DW_ACCESS_public)
	.dwattr $C$DW$154, DW_AT_decl_file("E:/Dev/Ti/TivaWare/third_party/fatfs/src/ff.h")
	.dwattr $C$DW$154, DW_AT_decl_line(0x4e)
	.dwattr $C$DW$154, DW_AT_decl_column(0x07)
$C$DW$155	.dwtag  DW_TAG_member
	.dwattr $C$DW$155, DW_AT_type(*$C$DW$T$20)
	.dwattr $C$DW$155, DW_AT_name("drv")
	.dwattr $C$DW$155, DW_AT_TI_symbol_name("drv")
	.dwattr $C$DW$155, DW_AT_data_member_location[DW_OP_plus_uconst 0x1]
	.dwattr $C$DW$155, DW_AT_accessibility(DW_ACCESS_public)
	.dwattr $C$DW$155, DW_AT_decl_file("E:/Dev/Ti/TivaWare/third_party/fatfs/src/ff.h")
	.dwattr $C$DW$155, DW_AT_decl_line(0x4f)
	.dwattr $C$DW$155, DW_AT_decl_column(0x07)
$C$DW$156	.dwtag  DW_TAG_member
	.dwattr $C$DW$156, DW_AT_type(*$C$DW$T$20)
	.dwattr $C$DW$156, DW_AT_name("csize")
	.dwattr $C$DW$156, DW_AT_TI_symbol_name("csize")
	.dwattr $C$DW$156, DW_AT_data_member_location[DW_OP_plus_uconst 0x2]
	.dwattr $C$DW$156, DW_AT_accessibility(DW_ACCESS_public)
	.dwattr $C$DW$156, DW_AT_decl_file("E:/Dev/Ti/TivaWare/third_party/fatfs/src/ff.h")
	.dwattr $C$DW$156, DW_AT_decl_line(0x50)
	.dwattr $C$DW$156, DW_AT_decl_column(0x07)
$C$DW$157	.dwtag  DW_TAG_member
	.dwattr $C$DW$157, DW_AT_type(*$C$DW$T$20)
	.dwattr $C$DW$157, DW_AT_name("n_fats")
	.dwattr $C$DW$157, DW_AT_TI_symbol_name("n_fats")
	.dwattr $C$DW$157, DW_AT_data_member_location[DW_OP_plus_uconst 0x3]
	.dwattr $C$DW$157, DW_AT_accessibility(DW_ACCESS_public)
	.dwattr $C$DW$157, DW_AT_decl_file("E:/Dev/Ti/TivaWare/third_party/fatfs/src/ff.h")
	.dwattr $C$DW$157, DW_AT_decl_line(0x51)
	.dwattr $C$DW$157, DW_AT_decl_column(0x07)
$C$DW$158	.dwtag  DW_TAG_member
	.dwattr $C$DW$158, DW_AT_type(*$C$DW$T$20)
	.dwattr $C$DW$158, DW_AT_name("wflag")
	.dwattr $C$DW$158, DW_AT_TI_symbol_name("wflag")
	.dwattr $C$DW$158, DW_AT_data_member_location[DW_OP_plus_uconst 0x4]
	.dwattr $C$DW$158, DW_AT_accessibility(DW_ACCESS_public)
	.dwattr $C$DW$158, DW_AT_decl_file("E:/Dev/Ti/TivaWare/third_party/fatfs/src/ff.h")
	.dwattr $C$DW$158, DW_AT_decl_line(0x52)
	.dwattr $C$DW$158, DW_AT_decl_column(0x07)
$C$DW$159	.dwtag  DW_TAG_member
	.dwattr $C$DW$159, DW_AT_type(*$C$DW$T$20)
	.dwattr $C$DW$159, DW_AT_name("fsi_flag")
	.dwattr $C$DW$159, DW_AT_TI_symbol_name("fsi_flag")
	.dwattr $C$DW$159, DW_AT_data_member_location[DW_OP_plus_uconst 0x5]
	.dwattr $C$DW$159, DW_AT_accessibility(DW_ACCESS_public)
	.dwattr $C$DW$159, DW_AT_decl_file("E:/Dev/Ti/TivaWare/third_party/fatfs/src/ff.h")
	.dwattr $C$DW$159, DW_AT_decl_line(0x53)
	.dwattr $C$DW$159, DW_AT_decl_column(0x07)
$C$DW$160	.dwtag  DW_TAG_member
	.dwattr $C$DW$160, DW_AT_type(*$C$DW$T$21)
	.dwattr $C$DW$160, DW_AT_name("id")
	.dwattr $C$DW$160, DW_AT_TI_symbol_name("id")
	.dwattr $C$DW$160, DW_AT_data_member_location[DW_OP_plus_uconst 0x6]
	.dwattr $C$DW$160, DW_AT_accessibility(DW_ACCESS_public)
	.dwattr $C$DW$160, DW_AT_decl_file("E:/Dev/Ti/TivaWare/third_party/fatfs/src/ff.h")
	.dwattr $C$DW$160, DW_AT_decl_line(0x54)
	.dwattr $C$DW$160, DW_AT_decl_column(0x07)
$C$DW$161	.dwtag  DW_TAG_member
	.dwattr $C$DW$161, DW_AT_type(*$C$DW$T$21)
	.dwattr $C$DW$161, DW_AT_name("n_rootdir")
	.dwattr $C$DW$161, DW_AT_TI_symbol_name("n_rootdir")
	.dwattr $C$DW$161, DW_AT_data_member_location[DW_OP_plus_uconst 0x8]
	.dwattr $C$DW$161, DW_AT_accessibility(DW_ACCESS_public)
	.dwattr $C$DW$161, DW_AT_decl_file("E:/Dev/Ti/TivaWare/third_party/fatfs/src/ff.h")
	.dwattr $C$DW$161, DW_AT_decl_line(0x55)
	.dwattr $C$DW$161, DW_AT_decl_column(0x07)
$C$DW$162	.dwtag  DW_TAG_member
	.dwattr $C$DW$162, DW_AT_type(*$C$DW$T$22)
	.dwattr $C$DW$162, DW_AT_name("last_clust")
	.dwattr $C$DW$162, DW_AT_TI_symbol_name("last_clust")
	.dwattr $C$DW$162, DW_AT_data_member_location[DW_OP_plus_uconst 0xc]
	.dwattr $C$DW$162, DW_AT_accessibility(DW_ACCESS_public)
	.dwattr $C$DW$162, DW_AT_decl_file("E:/Dev/Ti/TivaWare/third_party/fatfs/src/ff.h")
	.dwattr $C$DW$162, DW_AT_decl_line(0x5d)
	.dwattr $C$DW$162, DW_AT_decl_column(0x08)
$C$DW$163	.dwtag  DW_TAG_member
	.dwattr $C$DW$163, DW_AT_type(*$C$DW$T$22)
	.dwattr $C$DW$163, DW_AT_name("free_clust")
	.dwattr $C$DW$163, DW_AT_TI_symbol_name("free_clust")
	.dwattr $C$DW$163, DW_AT_data_member_location[DW_OP_plus_uconst 0x10]
	.dwattr $C$DW$163, DW_AT_accessibility(DW_ACCESS_public)
	.dwattr $C$DW$163, DW_AT_decl_file("E:/Dev/Ti/TivaWare/third_party/fatfs/src/ff.h")
	.dwattr $C$DW$163, DW_AT_decl_line(0x5e)
	.dwattr $C$DW$163, DW_AT_decl_column(0x08)
$C$DW$164	.dwtag  DW_TAG_member
	.dwattr $C$DW$164, DW_AT_type(*$C$DW$T$22)
	.dwattr $C$DW$164, DW_AT_name("fsi_sector")
	.dwattr $C$DW$164, DW_AT_TI_symbol_name("fsi_sector")
	.dwattr $C$DW$164, DW_AT_data_member_location[DW_OP_plus_uconst 0x14]
	.dwattr $C$DW$164, DW_AT_accessibility(DW_ACCESS_public)
	.dwattr $C$DW$164, DW_AT_decl_file("E:/Dev/Ti/TivaWare/third_party/fatfs/src/ff.h")
	.dwattr $C$DW$164, DW_AT_decl_line(0x5f)
	.dwattr $C$DW$164, DW_AT_decl_column(0x08)
$C$DW$165	.dwtag  DW_TAG_member
	.dwattr $C$DW$165, DW_AT_type(*$C$DW$T$22)
	.dwattr $C$DW$165, DW_AT_name("n_fatent")
	.dwattr $C$DW$165, DW_AT_TI_symbol_name("n_fatent")
	.dwattr $C$DW$165, DW_AT_data_member_location[DW_OP_plus_uconst 0x18]
	.dwattr $C$DW$165, DW_AT_accessibility(DW_ACCESS_public)
	.dwattr $C$DW$165, DW_AT_decl_file("E:/Dev/Ti/TivaWare/third_party/fatfs/src/ff.h")
	.dwattr $C$DW$165, DW_AT_decl_line(0x64)
	.dwattr $C$DW$165, DW_AT_decl_column(0x08)
$C$DW$166	.dwtag  DW_TAG_member
	.dwattr $C$DW$166, DW_AT_type(*$C$DW$T$22)
	.dwattr $C$DW$166, DW_AT_name("fsize")
	.dwattr $C$DW$166, DW_AT_TI_symbol_name("fsize")
	.dwattr $C$DW$166, DW_AT_data_member_location[DW_OP_plus_uconst 0x1c]
	.dwattr $C$DW$166, DW_AT_accessibility(DW_ACCESS_public)
	.dwattr $C$DW$166, DW_AT_decl_file("E:/Dev/Ti/TivaWare/third_party/fatfs/src/ff.h")
	.dwattr $C$DW$166, DW_AT_decl_line(0x65)
	.dwattr $C$DW$166, DW_AT_decl_column(0x08)
$C$DW$167	.dwtag  DW_TAG_member
	.dwattr $C$DW$167, DW_AT_type(*$C$DW$T$22)
	.dwattr $C$DW$167, DW_AT_name("volbase")
	.dwattr $C$DW$167, DW_AT_TI_symbol_name("volbase")
	.dwattr $C$DW$167, DW_AT_data_member_location[DW_OP_plus_uconst 0x20]
	.dwattr $C$DW$167, DW_AT_accessibility(DW_ACCESS_public)
	.dwattr $C$DW$167, DW_AT_decl_file("E:/Dev/Ti/TivaWare/third_party/fatfs/src/ff.h")
	.dwattr $C$DW$167, DW_AT_decl_line(0x66)
	.dwattr $C$DW$167, DW_AT_decl_column(0x08)
$C$DW$168	.dwtag  DW_TAG_member
	.dwattr $C$DW$168, DW_AT_type(*$C$DW$T$22)
	.dwattr $C$DW$168, DW_AT_name("fatbase")
	.dwattr $C$DW$168, DW_AT_TI_symbol_name("fatbase")
	.dwattr $C$DW$168, DW_AT_data_member_location[DW_OP_plus_uconst 0x24]
	.dwattr $C$DW$168, DW_AT_accessibility(DW_ACCESS_public)
	.dwattr $C$DW$168, DW_AT_decl_file("E:/Dev/Ti/TivaWare/third_party/fatfs/src/ff.h")
	.dwattr $C$DW$168, DW_AT_decl_line(0x67)
	.dwattr $C$DW$168, DW_AT_decl_column(0x08)
$C$DW$169	.dwtag  DW_TAG_member
	.dwattr $C$DW$169, DW_AT_type(*$C$DW$T$22)
	.dwattr $C$DW$169, DW_AT_name("dirbase")
	.dwattr $C$DW$169, DW_AT_TI_symbol_name("dirbase")
	.dwattr $C$DW$169, DW_AT_data_member_location[DW_OP_plus_uconst 0x28]
	.dwattr $C$DW$169, DW_AT_accessibility(DW_ACCESS_public)
	.dwattr $C$DW$169, DW_AT_decl_file("E:/Dev/Ti/TivaWare/third_party/fatfs/src/ff.h")
	.dwattr $C$DW$169, DW_AT_decl_line(0x68)
	.dwattr $C$DW$169, DW_AT_decl_column(0x08)
$C$DW$170	.dwtag  DW_TAG_member
	.dwattr $C$DW$170, DW_AT_type(*$C$DW$T$22)
	.dwattr $C$DW$170, DW_AT_name("database")
	.dwattr $C$DW$170, DW_AT_TI_symbol_name("database")
	.dwattr $C$DW$170, DW_AT_data_member_location[DW_OP_plus_uconst 0x2c]
	.dwattr $C$DW$170, DW_AT_accessibility(DW_ACCESS_public)
	.dwattr $C$DW$170, DW_AT_decl_file("E:/Dev/Ti/TivaWare/third_party/fatfs/src/ff.h")
	.dwattr $C$DW$170, DW_AT_decl_line(0x69)
	.dwattr $C$DW$170, DW_AT_decl_column(0x08)
$C$DW$171	.dwtag  DW_TAG_member
	.dwattr $C$DW$171, DW_AT_type(*$C$DW$T$22)
	.dwattr $C$DW$171, DW_AT_name("winsect")
	.dwattr $C$DW$171, DW_AT_TI_symbol_name("winsect")
	.dwattr $C$DW$171, DW_AT_data_member_location[DW_OP_plus_uconst 0x30]
	.dwattr $C$DW$171, DW_AT_accessibility(DW_ACCESS_public)
	.dwattr $C$DW$171, DW_AT_decl_file("E:/Dev/Ti/TivaWare/third_party/fatfs/src/ff.h")
	.dwattr $C$DW$171, DW_AT_decl_line(0x6a)
	.dwattr $C$DW$171, DW_AT_decl_column(0x08)
$C$DW$172	.dwtag  DW_TAG_member
	.dwattr $C$DW$172, DW_AT_type(*$C$DW$T$23)
	.dwattr $C$DW$172, DW_AT_name("win")
	.dwattr $C$DW$172, DW_AT_TI_symbol_name("win")
	.dwattr $C$DW$172, DW_AT_data_member_location[DW_OP_plus_uconst 0x34]
	.dwattr $C$DW$172, DW_AT_accessibility(DW_ACCESS_public)
	.dwattr $C$DW$172, DW_AT_decl_file("E:/Dev/Ti/TivaWare/third_party/fatfs/src/ff.h")
	.dwattr $C$DW$172, DW_AT_decl_line(0x6b)
	.dwattr $C$DW$172, DW_AT_decl_column(0x07)
	.dwendtag $C$DW$T$24

	.dwattr $C$DW$T$24, DW_AT_decl_file("E:/Dev/Ti/TivaWare/third_party/fatfs/src/ff.h")
	.dwattr $C$DW$T$24, DW_AT_decl_line(0x4d)
	.dwattr $C$DW$T$24, DW_AT_decl_column(0x10)
$C$DW$T$25	.dwtag  DW_TAG_typedef, DW_AT_name("FATFS")
	.dwattr $C$DW$T$25, DW_AT_type(*$C$DW$T$24)
	.dwattr $C$DW$T$25, DW_AT_language(DW_LANG_C)
	.dwattr $C$DW$T$25, DW_AT_decl_file("E:/Dev/Ti/TivaWare/third_party/fatfs/src/ff.h")
	.dwattr $C$DW$T$25, DW_AT_decl_line(0x6c)
	.dwattr $C$DW$T$25, DW_AT_decl_column(0x03)
$C$DW$T$26	.dwtag  DW_TAG_pointer_type
	.dwattr $C$DW$T$26, DW_AT_type(*$C$DW$T$25)
	.dwattr $C$DW$T$26, DW_AT_address_class(0x20)

$C$DW$T$28	.dwtag  DW_TAG_structure_type
	.dwattr $C$DW$T$28, DW_AT_byte_size(0x224)
$C$DW$173	.dwtag  DW_TAG_member
	.dwattr $C$DW$173, DW_AT_type(*$C$DW$T$26)
	.dwattr $C$DW$173, DW_AT_name("fs")
	.dwattr $C$DW$173, DW_AT_TI_symbol_name("fs")
	.dwattr $C$DW$173, DW_AT_data_member_location[DW_OP_plus_uconst 0x0]
	.dwattr $C$DW$173, DW_AT_accessibility(DW_ACCESS_public)
	.dwattr $C$DW$173, DW_AT_decl_file("E:/Dev/Ti/TivaWare/third_party/fatfs/src/ff.h")
	.dwattr $C$DW$173, DW_AT_decl_line(0x73)
	.dwattr $C$DW$173, DW_AT_decl_column(0x09)
$C$DW$174	.dwtag  DW_TAG_member
	.dwattr $C$DW$174, DW_AT_type(*$C$DW$T$21)
	.dwattr $C$DW$174, DW_AT_name("id")
	.dwattr $C$DW$174, DW_AT_TI_symbol_name("id")
	.dwattr $C$DW$174, DW_AT_data_member_location[DW_OP_plus_uconst 0x4]
	.dwattr $C$DW$174, DW_AT_accessibility(DW_ACCESS_public)
	.dwattr $C$DW$174, DW_AT_decl_file("E:/Dev/Ti/TivaWare/third_party/fatfs/src/ff.h")
	.dwattr $C$DW$174, DW_AT_decl_line(0x74)
	.dwattr $C$DW$174, DW_AT_decl_column(0x07)
$C$DW$175	.dwtag  DW_TAG_member
	.dwattr $C$DW$175, DW_AT_type(*$C$DW$T$20)
	.dwattr $C$DW$175, DW_AT_name("flag")
	.dwattr $C$DW$175, DW_AT_TI_symbol_name("flag")
	.dwattr $C$DW$175, DW_AT_data_member_location[DW_OP_plus_uconst 0x6]
	.dwattr $C$DW$175, DW_AT_accessibility(DW_ACCESS_public)
	.dwattr $C$DW$175, DW_AT_decl_file("E:/Dev/Ti/TivaWare/third_party/fatfs/src/ff.h")
	.dwattr $C$DW$175, DW_AT_decl_line(0x75)
	.dwattr $C$DW$175, DW_AT_decl_column(0x07)
$C$DW$176	.dwtag  DW_TAG_member
	.dwattr $C$DW$176, DW_AT_type(*$C$DW$T$20)
	.dwattr $C$DW$176, DW_AT_name("pad1")
	.dwattr $C$DW$176, DW_AT_TI_symbol_name("pad1")
	.dwattr $C$DW$176, DW_AT_data_member_location[DW_OP_plus_uconst 0x7]
	.dwattr $C$DW$176, DW_AT_accessibility(DW_ACCESS_public)
	.dwattr $C$DW$176, DW_AT_decl_file("E:/Dev/Ti/TivaWare/third_party/fatfs/src/ff.h")
	.dwattr $C$DW$176, DW_AT_decl_line(0x76)
	.dwattr $C$DW$176, DW_AT_decl_column(0x07)
$C$DW$177	.dwtag  DW_TAG_member
	.dwattr $C$DW$177, DW_AT_type(*$C$DW$T$22)
	.dwattr $C$DW$177, DW_AT_name("fptr")
	.dwattr $C$DW$177, DW_AT_TI_symbol_name("fptr")
	.dwattr $C$DW$177, DW_AT_data_member_location[DW_OP_plus_uconst 0x8]
	.dwattr $C$DW$177, DW_AT_accessibility(DW_ACCESS_public)
	.dwattr $C$DW$177, DW_AT_decl_file("E:/Dev/Ti/TivaWare/third_party/fatfs/src/ff.h")
	.dwattr $C$DW$177, DW_AT_decl_line(0x77)
	.dwattr $C$DW$177, DW_AT_decl_column(0x08)
$C$DW$178	.dwtag  DW_TAG_member
	.dwattr $C$DW$178, DW_AT_type(*$C$DW$T$22)
	.dwattr $C$DW$178, DW_AT_name("fsize")
	.dwattr $C$DW$178, DW_AT_TI_symbol_name("fsize")
	.dwattr $C$DW$178, DW_AT_data_member_location[DW_OP_plus_uconst 0xc]
	.dwattr $C$DW$178, DW_AT_accessibility(DW_ACCESS_public)
	.dwattr $C$DW$178, DW_AT_decl_file("E:/Dev/Ti/TivaWare/third_party/fatfs/src/ff.h")
	.dwattr $C$DW$178, DW_AT_decl_line(0x78)
	.dwattr $C$DW$178, DW_AT_decl_column(0x08)
$C$DW$179	.dwtag  DW_TAG_member
	.dwattr $C$DW$179, DW_AT_type(*$C$DW$T$22)
	.dwattr $C$DW$179, DW_AT_name("sclust")
	.dwattr $C$DW$179, DW_AT_TI_symbol_name("sclust")
	.dwattr $C$DW$179, DW_AT_data_member_location[DW_OP_plus_uconst 0x10]
	.dwattr $C$DW$179, DW_AT_accessibility(DW_ACCESS_public)
	.dwattr $C$DW$179, DW_AT_decl_file("E:/Dev/Ti/TivaWare/third_party/fatfs/src/ff.h")
	.dwattr $C$DW$179, DW_AT_decl_line(0x79)
	.dwattr $C$DW$179, DW_AT_decl_column(0x08)
$C$DW$180	.dwtag  DW_TAG_member
	.dwattr $C$DW$180, DW_AT_type(*$C$DW$T$22)
	.dwattr $C$DW$180, DW_AT_name("clust")
	.dwattr $C$DW$180, DW_AT_TI_symbol_name("clust")
	.dwattr $C$DW$180, DW_AT_data_member_location[DW_OP_plus_uconst 0x14]
	.dwattr $C$DW$180, DW_AT_accessibility(DW_ACCESS_public)
	.dwattr $C$DW$180, DW_AT_decl_file("E:/Dev/Ti/TivaWare/third_party/fatfs/src/ff.h")
	.dwattr $C$DW$180, DW_AT_decl_line(0x7a)
	.dwattr $C$DW$180, DW_AT_decl_column(0x08)
$C$DW$181	.dwtag  DW_TAG_member
	.dwattr $C$DW$181, DW_AT_type(*$C$DW$T$22)
	.dwattr $C$DW$181, DW_AT_name("dsect")
	.dwattr $C$DW$181, DW_AT_TI_symbol_name("dsect")
	.dwattr $C$DW$181, DW_AT_data_member_location[DW_OP_plus_uconst 0x18]
	.dwattr $C$DW$181, DW_AT_accessibility(DW_ACCESS_public)
	.dwattr $C$DW$181, DW_AT_decl_file("E:/Dev/Ti/TivaWare/third_party/fatfs/src/ff.h")
	.dwattr $C$DW$181, DW_AT_decl_line(0x7b)
	.dwattr $C$DW$181, DW_AT_decl_column(0x08)
$C$DW$182	.dwtag  DW_TAG_member
	.dwattr $C$DW$182, DW_AT_type(*$C$DW$T$22)
	.dwattr $C$DW$182, DW_AT_name("dir_sect")
	.dwattr $C$DW$182, DW_AT_TI_symbol_name("dir_sect")
	.dwattr $C$DW$182, DW_AT_data_member_location[DW_OP_plus_uconst 0x1c]
	.dwattr $C$DW$182, DW_AT_accessibility(DW_ACCESS_public)
	.dwattr $C$DW$182, DW_AT_decl_file("E:/Dev/Ti/TivaWare/third_party/fatfs/src/ff.h")
	.dwattr $C$DW$182, DW_AT_decl_line(0x7d)
	.dwattr $C$DW$182, DW_AT_decl_column(0x08)
$C$DW$183	.dwtag  DW_TAG_member
	.dwattr $C$DW$183, DW_AT_type(*$C$DW$T$27)
	.dwattr $C$DW$183, DW_AT_name("dir_ptr")
	.dwattr $C$DW$183, DW_AT_TI_symbol_name("dir_ptr")
	.dwattr $C$DW$183, DW_AT_data_member_location[DW_OP_plus_uconst 0x20]
	.dwattr $C$DW$183, DW_AT_accessibility(DW_ACCESS_public)
	.dwattr $C$DW$183, DW_AT_decl_file("E:/Dev/Ti/TivaWare/third_party/fatfs/src/ff.h")
	.dwattr $C$DW$183, DW_AT_decl_line(0x7e)
	.dwattr $C$DW$183, DW_AT_decl_column(0x08)
$C$DW$184	.dwtag  DW_TAG_member
	.dwattr $C$DW$184, DW_AT_type(*$C$DW$T$23)
	.dwattr $C$DW$184, DW_AT_name("buf")
	.dwattr $C$DW$184, DW_AT_TI_symbol_name("buf")
	.dwattr $C$DW$184, DW_AT_data_member_location[DW_OP_plus_uconst 0x24]
	.dwattr $C$DW$184, DW_AT_accessibility(DW_ACCESS_public)
	.dwattr $C$DW$184, DW_AT_decl_file("E:/Dev/Ti/TivaWare/third_party/fatfs/src/ff.h")
	.dwattr $C$DW$184, DW_AT_decl_line(0x87)
	.dwattr $C$DW$184, DW_AT_decl_column(0x07)
	.dwendtag $C$DW$T$28

	.dwattr $C$DW$T$28, DW_AT_decl_file("E:/Dev/Ti/TivaWare/third_party/fatfs/src/ff.h")
	.dwattr $C$DW$T$28, DW_AT_decl_line(0x72)
	.dwattr $C$DW$T$28, DW_AT_decl_column(0x10)
$C$DW$T$45	.dwtag  DW_TAG_typedef, DW_AT_name("FIL")
	.dwattr $C$DW$T$45, DW_AT_type(*$C$DW$T$28)
	.dwattr $C$DW$T$45, DW_AT_language(DW_LANG_C)
	.dwattr $C$DW$T$45, DW_AT_decl_file("E:/Dev/Ti/TivaWare/third_party/fatfs/src/ff.h")
	.dwattr $C$DW$T$45, DW_AT_decl_line(0x89)
	.dwattr $C$DW$T$45, DW_AT_decl_column(0x03)

$C$DW$T$29	.dwtag  DW_TAG_structure_type
	.dwattr $C$DW$T$29, DW_AT_byte_size(0x1c)
$C$DW$185	.dwtag  DW_TAG_member
	.dwattr $C$DW$185, DW_AT_type(*$C$DW$T$26)
	.dwattr $C$DW$185, DW_AT_name("fs")
	.dwattr $C$DW$185, DW_AT_TI_symbol_name("fs")
	.dwattr $C$DW$185, DW_AT_data_member_location[DW_OP_plus_uconst 0x0]
	.dwattr $C$DW$185, DW_AT_accessibility(DW_ACCESS_public)
	.dwattr $C$DW$185, DW_AT_decl_file("E:/Dev/Ti/TivaWare/third_party/fatfs/src/ff.h")
	.dwattr $C$DW$185, DW_AT_decl_line(0x90)
	.dwattr $C$DW$185, DW_AT_decl_column(0x09)
$C$DW$186	.dwtag  DW_TAG_member
	.dwattr $C$DW$186, DW_AT_type(*$C$DW$T$21)
	.dwattr $C$DW$186, DW_AT_name("id")
	.dwattr $C$DW$186, DW_AT_TI_symbol_name("id")
	.dwattr $C$DW$186, DW_AT_data_member_location[DW_OP_plus_uconst 0x4]
	.dwattr $C$DW$186, DW_AT_accessibility(DW_ACCESS_public)
	.dwattr $C$DW$186, DW_AT_decl_file("E:/Dev/Ti/TivaWare/third_party/fatfs/src/ff.h")
	.dwattr $C$DW$186, DW_AT_decl_line(0x91)
	.dwattr $C$DW$186, DW_AT_decl_column(0x07)
$C$DW$187	.dwtag  DW_TAG_member
	.dwattr $C$DW$187, DW_AT_type(*$C$DW$T$21)
	.dwattr $C$DW$187, DW_AT_name("index")
	.dwattr $C$DW$187, DW_AT_TI_symbol_name("index")
	.dwattr $C$DW$187, DW_AT_data_member_location[DW_OP_plus_uconst 0x6]
	.dwattr $C$DW$187, DW_AT_accessibility(DW_ACCESS_public)
	.dwattr $C$DW$187, DW_AT_decl_file("E:/Dev/Ti/TivaWare/third_party/fatfs/src/ff.h")
	.dwattr $C$DW$187, DW_AT_decl_line(0x92)
	.dwattr $C$DW$187, DW_AT_decl_column(0x07)
$C$DW$188	.dwtag  DW_TAG_member
	.dwattr $C$DW$188, DW_AT_type(*$C$DW$T$22)
	.dwattr $C$DW$188, DW_AT_name("sclust")
	.dwattr $C$DW$188, DW_AT_TI_symbol_name("sclust")
	.dwattr $C$DW$188, DW_AT_data_member_location[DW_OP_plus_uconst 0x8]
	.dwattr $C$DW$188, DW_AT_accessibility(DW_ACCESS_public)
	.dwattr $C$DW$188, DW_AT_decl_file("E:/Dev/Ti/TivaWare/third_party/fatfs/src/ff.h")
	.dwattr $C$DW$188, DW_AT_decl_line(0x93)
	.dwattr $C$DW$188, DW_AT_decl_column(0x08)
$C$DW$189	.dwtag  DW_TAG_member
	.dwattr $C$DW$189, DW_AT_type(*$C$DW$T$22)
	.dwattr $C$DW$189, DW_AT_name("clust")
	.dwattr $C$DW$189, DW_AT_TI_symbol_name("clust")
	.dwattr $C$DW$189, DW_AT_data_member_location[DW_OP_plus_uconst 0xc]
	.dwattr $C$DW$189, DW_AT_accessibility(DW_ACCESS_public)
	.dwattr $C$DW$189, DW_AT_decl_file("E:/Dev/Ti/TivaWare/third_party/fatfs/src/ff.h")
	.dwattr $C$DW$189, DW_AT_decl_line(0x94)
	.dwattr $C$DW$189, DW_AT_decl_column(0x08)
$C$DW$190	.dwtag  DW_TAG_member
	.dwattr $C$DW$190, DW_AT_type(*$C$DW$T$22)
	.dwattr $C$DW$190, DW_AT_name("sect")
	.dwattr $C$DW$190, DW_AT_TI_symbol_name("sect")
	.dwattr $C$DW$190, DW_AT_data_member_location[DW_OP_plus_uconst 0x10]
	.dwattr $C$DW$190, DW_AT_accessibility(DW_ACCESS_public)
	.dwattr $C$DW$190, DW_AT_decl_file("E:/Dev/Ti/TivaWare/third_party/fatfs/src/ff.h")
	.dwattr $C$DW$190, DW_AT_decl_line(0x95)
	.dwattr $C$DW$190, DW_AT_decl_column(0x08)
$C$DW$191	.dwtag  DW_TAG_member
	.dwattr $C$DW$191, DW_AT_type(*$C$DW$T$27)
	.dwattr $C$DW$191, DW_AT_name("dir")
	.dwattr $C$DW$191, DW_AT_TI_symbol_name("dir")
	.dwattr $C$DW$191, DW_AT_data_member_location[DW_OP_plus_uconst 0x14]
	.dwattr $C$DW$191, DW_AT_accessibility(DW_ACCESS_public)
	.dwattr $C$DW$191, DW_AT_decl_file("E:/Dev/Ti/TivaWare/third_party/fatfs/src/ff.h")
	.dwattr $C$DW$191, DW_AT_decl_line(0x96)
	.dwattr $C$DW$191, DW_AT_decl_column(0x08)
$C$DW$192	.dwtag  DW_TAG_member
	.dwattr $C$DW$192, DW_AT_type(*$C$DW$T$27)
	.dwattr $C$DW$192, DW_AT_name("fn")
	.dwattr $C$DW$192, DW_AT_TI_symbol_name("fn")
	.dwattr $C$DW$192, DW_AT_data_member_location[DW_OP_plus_uconst 0x18]
	.dwattr $C$DW$192, DW_AT_accessibility(DW_ACCESS_public)
	.dwattr $C$DW$192, DW_AT_decl_file("E:/Dev/Ti/TivaWare/third_party/fatfs/src/ff.h")
	.dwattr $C$DW$192, DW_AT_decl_line(0x97)
	.dwattr $C$DW$192, DW_AT_decl_column(0x08)
	.dwendtag $C$DW$T$29

	.dwattr $C$DW$T$29, DW_AT_decl_file("E:/Dev/Ti/TivaWare/third_party/fatfs/src/ff.h")
	.dwattr $C$DW$T$29, DW_AT_decl_line(0x8f)
	.dwattr $C$DW$T$29, DW_AT_decl_column(0x10)
$C$DW$T$46	.dwtag  DW_TAG_typedef, DW_AT_name("DIR")
	.dwattr $C$DW$T$46, DW_AT_type(*$C$DW$T$29)
	.dwattr $C$DW$T$46, DW_AT_language(DW_LANG_C)
	.dwattr $C$DW$T$46, DW_AT_decl_file("E:/Dev/Ti/TivaWare/third_party/fatfs/src/ff.h")
	.dwattr $C$DW$T$46, DW_AT_decl_line(0x9c)
	.dwattr $C$DW$T$46, DW_AT_decl_column(0x03)

$C$DW$T$33	.dwtag  DW_TAG_structure_type
	.dwattr $C$DW$T$33, DW_AT_byte_size(0x18)
$C$DW$193	.dwtag  DW_TAG_member
	.dwattr $C$DW$193, DW_AT_type(*$C$DW$T$22)
	.dwattr $C$DW$193, DW_AT_name("fsize")
	.dwattr $C$DW$193, DW_AT_TI_symbol_name("fsize")
	.dwattr $C$DW$193, DW_AT_data_member_location[DW_OP_plus_uconst 0x0]
	.dwattr $C$DW$193, DW_AT_accessibility(DW_ACCESS_public)
	.dwattr $C$DW$193, DW_AT_decl_file("E:/Dev/Ti/TivaWare/third_party/fatfs/src/ff.h")
	.dwattr $C$DW$193, DW_AT_decl_line(0xa3)
	.dwattr $C$DW$193, DW_AT_decl_column(0x08)
$C$DW$194	.dwtag  DW_TAG_member
	.dwattr $C$DW$194, DW_AT_type(*$C$DW$T$21)
	.dwattr $C$DW$194, DW_AT_name("fdate")
	.dwattr $C$DW$194, DW_AT_TI_symbol_name("fdate")
	.dwattr $C$DW$194, DW_AT_data_member_location[DW_OP_plus_uconst 0x4]
	.dwattr $C$DW$194, DW_AT_accessibility(DW_ACCESS_public)
	.dwattr $C$DW$194, DW_AT_decl_file("E:/Dev/Ti/TivaWare/third_party/fatfs/src/ff.h")
	.dwattr $C$DW$194, DW_AT_decl_line(0xa4)
	.dwattr $C$DW$194, DW_AT_decl_column(0x07)
$C$DW$195	.dwtag  DW_TAG_member
	.dwattr $C$DW$195, DW_AT_type(*$C$DW$T$21)
	.dwattr $C$DW$195, DW_AT_name("ftime")
	.dwattr $C$DW$195, DW_AT_TI_symbol_name("ftime")
	.dwattr $C$DW$195, DW_AT_data_member_location[DW_OP_plus_uconst 0x6]
	.dwattr $C$DW$195, DW_AT_accessibility(DW_ACCESS_public)
	.dwattr $C$DW$195, DW_AT_decl_file("E:/Dev/Ti/TivaWare/third_party/fatfs/src/ff.h")
	.dwattr $C$DW$195, DW_AT_decl_line(0xa5)
	.dwattr $C$DW$195, DW_AT_decl_column(0x07)
$C$DW$196	.dwtag  DW_TAG_member
	.dwattr $C$DW$196, DW_AT_type(*$C$DW$T$20)
	.dwattr $C$DW$196, DW_AT_name("fattrib")
	.dwattr $C$DW$196, DW_AT_TI_symbol_name("fattrib")
	.dwattr $C$DW$196, DW_AT_data_member_location[DW_OP_plus_uconst 0x8]
	.dwattr $C$DW$196, DW_AT_accessibility(DW_ACCESS_public)
	.dwattr $C$DW$196, DW_AT_decl_file("E:/Dev/Ti/TivaWare/third_party/fatfs/src/ff.h")
	.dwattr $C$DW$196, DW_AT_decl_line(0xa6)
	.dwattr $C$DW$196, DW_AT_decl_column(0x07)
$C$DW$197	.dwtag  DW_TAG_member
	.dwattr $C$DW$197, DW_AT_type(*$C$DW$T$32)
	.dwattr $C$DW$197, DW_AT_name("fname")
	.dwattr $C$DW$197, DW_AT_TI_symbol_name("fname")
	.dwattr $C$DW$197, DW_AT_data_member_location[DW_OP_plus_uconst 0x9]
	.dwattr $C$DW$197, DW_AT_accessibility(DW_ACCESS_public)
	.dwattr $C$DW$197, DW_AT_decl_file("E:/Dev/Ti/TivaWare/third_party/fatfs/src/ff.h")
	.dwattr $C$DW$197, DW_AT_decl_line(0xa7)
	.dwattr $C$DW$197, DW_AT_decl_column(0x08)
	.dwendtag $C$DW$T$33

	.dwattr $C$DW$T$33, DW_AT_decl_file("E:/Dev/Ti/TivaWare/third_party/fatfs/src/ff.h")
	.dwattr $C$DW$T$33, DW_AT_decl_line(0xa2)
	.dwattr $C$DW$T$33, DW_AT_decl_column(0x10)
$C$DW$T$47	.dwtag  DW_TAG_typedef, DW_AT_name("FILINFO")
	.dwattr $C$DW$T$47, DW_AT_type(*$C$DW$T$33)
	.dwattr $C$DW$T$47, DW_AT_language(DW_LANG_C)
	.dwattr $C$DW$T$47, DW_AT_decl_file("E:/Dev/Ti/TivaWare/third_party/fatfs/src/ff.h")
	.dwattr $C$DW$T$47, DW_AT_decl_line(0xac)
	.dwattr $C$DW$T$47, DW_AT_decl_column(0x03)

$C$DW$T$35	.dwtag  DW_TAG_union_type
	.dwattr $C$DW$T$35, DW_AT_byte_size(0x10)
$C$DW$198	.dwtag  DW_TAG_member
	.dwattr $C$DW$198, DW_AT_type(*$C$DW$T$34)
	.dwattr $C$DW$198, DW_AT_name("_Us")
	.dwattr $C$DW$198, DW_AT_TI_symbol_name("_Us")
	.dwattr $C$DW$198, DW_AT_data_member_location[DW_OP_plus_uconst 0x0]
	.dwattr $C$DW$198, DW_AT_accessibility(DW_ACCESS_public)
	.dwattr $C$DW$198, DW_AT_decl_file("C:/ti/ccsv6/tools/compiler/ti-cgt-arm_5.2.5/include/float.h")
	.dwattr $C$DW$198, DW_AT_decl_line(0x3a)
	.dwattr $C$DW$198, DW_AT_decl_column(0x12)
$C$DW$199	.dwtag  DW_TAG_member
	.dwattr $C$DW$199, DW_AT_type(*$C$DW$T$16)
	.dwattr $C$DW$199, DW_AT_name("_Float")
	.dwattr $C$DW$199, DW_AT_TI_symbol_name("_Float")
	.dwattr $C$DW$199, DW_AT_data_member_location[DW_OP_plus_uconst 0x0]
	.dwattr $C$DW$199, DW_AT_accessibility(DW_ACCESS_public)
	.dwattr $C$DW$199, DW_AT_decl_file("C:/ti/ccsv6/tools/compiler/ti-cgt-arm_5.2.5/include/float.h")
	.dwattr $C$DW$199, DW_AT_decl_line(0x3b)
	.dwattr $C$DW$199, DW_AT_decl_column(0x09)
$C$DW$200	.dwtag  DW_TAG_member
	.dwattr $C$DW$200, DW_AT_type(*$C$DW$T$17)
	.dwattr $C$DW$200, DW_AT_name("_Double")
	.dwattr $C$DW$200, DW_AT_TI_symbol_name("_Double")
	.dwattr $C$DW$200, DW_AT_data_member_location[DW_OP_plus_uconst 0x0]
	.dwattr $C$DW$200, DW_AT_accessibility(DW_ACCESS_public)
	.dwattr $C$DW$200, DW_AT_decl_file("C:/ti/ccsv6/tools/compiler/ti-cgt-arm_5.2.5/include/float.h")
	.dwattr $C$DW$200, DW_AT_decl_line(0x3c)
	.dwattr $C$DW$200, DW_AT_decl_column(0x0a)
$C$DW$201	.dwtag  DW_TAG_member
	.dwattr $C$DW$201, DW_AT_type(*$C$DW$T$18)
	.dwattr $C$DW$201, DW_AT_name("_Long_double")
	.dwattr $C$DW$201, DW_AT_TI_symbol_name("_Long_double")
	.dwattr $C$DW$201, DW_AT_data_member_location[DW_OP_plus_uconst 0x0]
	.dwattr $C$DW$201, DW_AT_accessibility(DW_ACCESS_public)
	.dwattr $C$DW$201, DW_AT_decl_file("C:/ti/ccsv6/tools/compiler/ti-cgt-arm_5.2.5/include/float.h")
	.dwattr $C$DW$201, DW_AT_decl_line(0x3d)
	.dwattr $C$DW$201, DW_AT_decl_column(0x0f)
	.dwendtag $C$DW$T$35

	.dwattr $C$DW$T$35, DW_AT_decl_file("C:/ti/ccsv6/tools/compiler/ti-cgt-arm_5.2.5/include/float.h")
	.dwattr $C$DW$T$35, DW_AT_decl_line(0x39)
	.dwattr $C$DW$T$35, DW_AT_decl_column(0x03)

$C$DW$T$36	.dwtag  DW_TAG_union_type
	.dwattr $C$DW$T$36, DW_AT_byte_size(0x10)
$C$DW$202	.dwtag  DW_TAG_member
	.dwattr $C$DW$202, DW_AT_type(*$C$DW$T$34)
	.dwattr $C$DW$202, DW_AT_name("_Word")
	.dwattr $C$DW$202, DW_AT_TI_symbol_name("_Word")
	.dwattr $C$DW$202, DW_AT_data_member_location[DW_OP_plus_uconst 0x0]
	.dwattr $C$DW$202, DW_AT_accessibility(DW_ACCESS_public)
	.dwattr $C$DW$202, DW_AT_decl_file("C:/ti/ccsv6/tools/compiler/ti-cgt-arm_5.2.5/include/ymath.h")
	.dwattr $C$DW$202, DW_AT_decl_line(0x8f)
	.dwattr $C$DW$202, DW_AT_decl_column(0x11)
$C$DW$203	.dwtag  DW_TAG_member
	.dwattr $C$DW$203, DW_AT_type(*$C$DW$T$16)
	.dwattr $C$DW$203, DW_AT_name("_Float")
	.dwattr $C$DW$203, DW_AT_TI_symbol_name("_Float")
	.dwattr $C$DW$203, DW_AT_data_member_location[DW_OP_plus_uconst 0x0]
	.dwattr $C$DW$203, DW_AT_accessibility(DW_ACCESS_public)
	.dwattr $C$DW$203, DW_AT_decl_file("C:/ti/ccsv6/tools/compiler/ti-cgt-arm_5.2.5/include/ymath.h")
	.dwattr $C$DW$203, DW_AT_decl_line(0x90)
	.dwattr $C$DW$203, DW_AT_decl_column(0x08)
$C$DW$204	.dwtag  DW_TAG_member
	.dwattr $C$DW$204, DW_AT_type(*$C$DW$T$17)
	.dwattr $C$DW$204, DW_AT_name("_Double")
	.dwattr $C$DW$204, DW_AT_TI_symbol_name("_Double")
	.dwattr $C$DW$204, DW_AT_data_member_location[DW_OP_plus_uconst 0x0]
	.dwattr $C$DW$204, DW_AT_accessibility(DW_ACCESS_public)
	.dwattr $C$DW$204, DW_AT_decl_file("C:/ti/ccsv6/tools/compiler/ti-cgt-arm_5.2.5/include/ymath.h")
	.dwattr $C$DW$204, DW_AT_decl_line(0x91)
	.dwattr $C$DW$204, DW_AT_decl_column(0x09)
$C$DW$205	.dwtag  DW_TAG_member
	.dwattr $C$DW$205, DW_AT_type(*$C$DW$T$18)
	.dwattr $C$DW$205, DW_AT_name("_Long_double")
	.dwattr $C$DW$205, DW_AT_TI_symbol_name("_Long_double")
	.dwattr $C$DW$205, DW_AT_data_member_location[DW_OP_plus_uconst 0x0]
	.dwattr $C$DW$205, DW_AT_accessibility(DW_ACCESS_public)
	.dwattr $C$DW$205, DW_AT_decl_file("C:/ti/ccsv6/tools/compiler/ti-cgt-arm_5.2.5/include/ymath.h")
	.dwattr $C$DW$205, DW_AT_decl_line(0x92)
	.dwattr $C$DW$205, DW_AT_decl_column(0x0e)
	.dwendtag $C$DW$T$36

	.dwattr $C$DW$T$36, DW_AT_decl_file("C:/ti/ccsv6/tools/compiler/ti-cgt-arm_5.2.5/include/ymath.h")
	.dwattr $C$DW$T$36, DW_AT_decl_line(0x8e)
	.dwattr $C$DW$T$36, DW_AT_decl_column(0x02)
$C$DW$T$48	.dwtag  DW_TAG_typedef, DW_AT_name("_Dconst")
	.dwattr $C$DW$T$48, DW_AT_type(*$C$DW$T$36)
	.dwattr $C$DW$T$48, DW_AT_language(DW_LANG_C)
	.dwattr $C$DW$T$48, DW_AT_decl_file("C:/ti/ccsv6/tools/compiler/ti-cgt-arm_5.2.5/include/ymath.h")
	.dwattr $C$DW$T$48, DW_AT_decl_line(0x93)
	.dwattr $C$DW$T$48, DW_AT_decl_column(0x04)
$C$DW$T$2	.dwtag  DW_TAG_unspecified_type
	.dwattr $C$DW$T$2, DW_AT_name("void")
$C$DW$T$3	.dwtag  DW_TAG_pointer_type
	.dwattr $C$DW$T$3, DW_AT_type(*$C$DW$T$2)
	.dwattr $C$DW$T$3, DW_AT_address_class(0x20)
$C$DW$T$4	.dwtag  DW_TAG_base_type
	.dwattr $C$DW$T$4, DW_AT_encoding(DW_ATE_boolean)
	.dwattr $C$DW$T$4, DW_AT_name("bool")
	.dwattr $C$DW$T$4, DW_AT_byte_size(0x01)
$C$DW$T$5	.dwtag  DW_TAG_base_type
	.dwattr $C$DW$T$5, DW_AT_encoding(DW_ATE_signed_char)
	.dwattr $C$DW$T$5, DW_AT_name("signed char")
	.dwattr $C$DW$T$5, DW_AT_byte_size(0x01)
$C$DW$T$65	.dwtag  DW_TAG_typedef, DW_AT_name("int8_t")
	.dwattr $C$DW$T$65, DW_AT_type(*$C$DW$T$5)
	.dwattr $C$DW$T$65, DW_AT_language(DW_LANG_C)
	.dwattr $C$DW$T$65, DW_AT_decl_file("C:/ti/ccsv6/tools/compiler/ti-cgt-arm_5.2.5/include/stdint.h")
	.dwattr $C$DW$T$65, DW_AT_decl_line(0x2a)
	.dwattr $C$DW$T$65, DW_AT_decl_column(0x1d)
$C$DW$T$66	.dwtag  DW_TAG_typedef, DW_AT_name("int_least8_t")
	.dwattr $C$DW$T$66, DW_AT_type(*$C$DW$T$65)
	.dwattr $C$DW$T$66, DW_AT_language(DW_LANG_C)
	.dwattr $C$DW$T$66, DW_AT_decl_file("C:/ti/ccsv6/tools/compiler/ti-cgt-arm_5.2.5/include/stdint.h")
	.dwattr $C$DW$T$66, DW_AT_decl_line(0x37)
	.dwattr $C$DW$T$66, DW_AT_decl_column(0x17)
$C$DW$T$6	.dwtag  DW_TAG_base_type
	.dwattr $C$DW$T$6, DW_AT_encoding(DW_ATE_unsigned_char)
	.dwattr $C$DW$T$6, DW_AT_name("unsigned char")
	.dwattr $C$DW$T$6, DW_AT_byte_size(0x01)
$C$DW$T$20	.dwtag  DW_TAG_typedef, DW_AT_name("BYTE")
	.dwattr $C$DW$T$20, DW_AT_type(*$C$DW$T$6)
	.dwattr $C$DW$T$20, DW_AT_language(DW_LANG_C)
	.dwattr $C$DW$T$20, DW_AT_decl_file("E:\Dev\Ti\TivaWare\third_party\fatfs\src\integer.h")
	.dwattr $C$DW$T$20, DW_AT_decl_line(0x16)
	.dwattr $C$DW$T$20, DW_AT_decl_column(0x17)
$C$DW$T$67	.dwtag  DW_TAG_typedef, DW_AT_name("DSTATUS")
	.dwattr $C$DW$T$67, DW_AT_type(*$C$DW$T$20)
	.dwattr $C$DW$T$67, DW_AT_language(DW_LANG_C)
	.dwattr $C$DW$T$67, DW_AT_decl_file("E:/Dev/Ti/TivaWare/third_party/fatfs/src/diskio.h")
	.dwattr $C$DW$T$67, DW_AT_decl_line(0x13)
	.dwattr $C$DW$T$67, DW_AT_decl_column(0x0e)

$C$DW$T$23	.dwtag  DW_TAG_array_type
	.dwattr $C$DW$T$23, DW_AT_type(*$C$DW$T$20)
	.dwattr $C$DW$T$23, DW_AT_language(DW_LANG_C)
	.dwattr $C$DW$T$23, DW_AT_byte_size(0x200)
$C$DW$206	.dwtag  DW_TAG_subrange_type
	.dwattr $C$DW$206, DW_AT_upper_bound(0x1ff)
	.dwendtag $C$DW$T$23

$C$DW$T$27	.dwtag  DW_TAG_pointer_type
	.dwattr $C$DW$T$27, DW_AT_type(*$C$DW$T$20)
	.dwattr $C$DW$T$27, DW_AT_address_class(0x20)
$C$DW$T$68	.dwtag  DW_TAG_typedef, DW_AT_name("UCHAR")
	.dwattr $C$DW$T$68, DW_AT_type(*$C$DW$T$6)
	.dwattr $C$DW$T$68, DW_AT_language(DW_LANG_C)
	.dwattr $C$DW$T$68, DW_AT_decl_file("E:\Dev\Ti\TivaWare\third_party\fatfs\src\integer.h")
	.dwattr $C$DW$T$68, DW_AT_decl_line(0x15)
	.dwattr $C$DW$T$68, DW_AT_decl_column(0x17)
$C$DW$T$50	.dwtag  DW_TAG_typedef, DW_AT_name("uint8_t")
	.dwattr $C$DW$T$50, DW_AT_type(*$C$DW$T$6)
	.dwattr $C$DW$T$50, DW_AT_language(DW_LANG_C)
	.dwattr $C$DW$T$50, DW_AT_decl_file("C:/ti/ccsv6/tools/compiler/ti-cgt-arm_5.2.5/include/stdint.h")
	.dwattr $C$DW$T$50, DW_AT_decl_line(0x2b)
	.dwattr $C$DW$T$50, DW_AT_decl_column(0x1c)
$C$DW$T$71	.dwtag  DW_TAG_typedef, DW_AT_name("uint_least8_t")
	.dwattr $C$DW$T$71, DW_AT_type(*$C$DW$T$50)
	.dwattr $C$DW$T$71, DW_AT_language(DW_LANG_C)
	.dwattr $C$DW$T$71, DW_AT_decl_file("C:/ti/ccsv6/tools/compiler/ti-cgt-arm_5.2.5/include/stdint.h")
	.dwattr $C$DW$T$71, DW_AT_decl_line(0x38)
	.dwattr $C$DW$T$71, DW_AT_decl_column(0x16)
$C$DW$T$7	.dwtag  DW_TAG_base_type
	.dwattr $C$DW$T$7, DW_AT_encoding(DW_ATE_signed_char)
	.dwattr $C$DW$T$7, DW_AT_name("wchar_t")
	.dwattr $C$DW$T$7, DW_AT_byte_size(0x02)
$C$DW$T$8	.dwtag  DW_TAG_base_type
	.dwattr $C$DW$T$8, DW_AT_encoding(DW_ATE_signed)
	.dwattr $C$DW$T$8, DW_AT_name("short")
	.dwattr $C$DW$T$8, DW_AT_byte_size(0x02)
$C$DW$T$72	.dwtag  DW_TAG_typedef, DW_AT_name("SHORT")
	.dwattr $C$DW$T$72, DW_AT_type(*$C$DW$T$8)
	.dwattr $C$DW$T$72, DW_AT_language(DW_LANG_C)
	.dwattr $C$DW$T$72, DW_AT_decl_file("E:\Dev\Ti\TivaWare\third_party\fatfs\src\integer.h")
	.dwattr $C$DW$T$72, DW_AT_decl_line(0x19)
	.dwattr $C$DW$T$72, DW_AT_decl_column(0x11)
$C$DW$T$73	.dwtag  DW_TAG_typedef, DW_AT_name("int16_t")
	.dwattr $C$DW$T$73, DW_AT_type(*$C$DW$T$8)
	.dwattr $C$DW$T$73, DW_AT_language(DW_LANG_C)
	.dwattr $C$DW$T$73, DW_AT_decl_file("C:/ti/ccsv6/tools/compiler/ti-cgt-arm_5.2.5/include/stdint.h")
	.dwattr $C$DW$T$73, DW_AT_decl_line(0x2c)
	.dwattr $C$DW$T$73, DW_AT_decl_column(0x1d)
$C$DW$T$74	.dwtag  DW_TAG_typedef, DW_AT_name("int_least16_t")
	.dwattr $C$DW$T$74, DW_AT_type(*$C$DW$T$73)
	.dwattr $C$DW$T$74, DW_AT_language(DW_LANG_C)
	.dwattr $C$DW$T$74, DW_AT_decl_file("C:/ti/ccsv6/tools/compiler/ti-cgt-arm_5.2.5/include/stdint.h")
	.dwattr $C$DW$T$74, DW_AT_decl_line(0x3a)
	.dwattr $C$DW$T$74, DW_AT_decl_column(0x17)
$C$DW$T$9	.dwtag  DW_TAG_base_type
	.dwattr $C$DW$T$9, DW_AT_encoding(DW_ATE_unsigned)
	.dwattr $C$DW$T$9, DW_AT_name("unsigned short")
	.dwattr $C$DW$T$9, DW_AT_byte_size(0x02)
$C$DW$T$75	.dwtag  DW_TAG_typedef, DW_AT_name("USHORT")
	.dwattr $C$DW$T$75, DW_AT_type(*$C$DW$T$9)
	.dwattr $C$DW$T$75, DW_AT_language(DW_LANG_C)
	.dwattr $C$DW$T$75, DW_AT_decl_file("E:\Dev\Ti\TivaWare\third_party\fatfs\src\integer.h")
	.dwattr $C$DW$T$75, DW_AT_decl_line(0x1a)
	.dwattr $C$DW$T$75, DW_AT_decl_column(0x18)
$C$DW$T$76	.dwtag  DW_TAG_typedef, DW_AT_name("WCHAR")
	.dwattr $C$DW$T$76, DW_AT_type(*$C$DW$T$9)
	.dwattr $C$DW$T$76, DW_AT_language(DW_LANG_C)
	.dwattr $C$DW$T$76, DW_AT_decl_file("E:\Dev\Ti\TivaWare\third_party\fatfs\src\integer.h")
	.dwattr $C$DW$T$76, DW_AT_decl_line(0x1c)
	.dwattr $C$DW$T$76, DW_AT_decl_column(0x18)
$C$DW$T$21	.dwtag  DW_TAG_typedef, DW_AT_name("WORD")
	.dwattr $C$DW$T$21, DW_AT_type(*$C$DW$T$9)
	.dwattr $C$DW$T$21, DW_AT_language(DW_LANG_C)
	.dwattr $C$DW$T$21, DW_AT_decl_file("E:\Dev\Ti\TivaWare\third_party\fatfs\src\integer.h")
	.dwattr $C$DW$T$21, DW_AT_decl_line(0x1b)
	.dwattr $C$DW$T$21, DW_AT_decl_column(0x18)
$C$DW$T$77	.dwtag  DW_TAG_typedef, DW_AT_name("_Wchart")
	.dwattr $C$DW$T$77, DW_AT_type(*$C$DW$T$9)
	.dwattr $C$DW$T$77, DW_AT_language(DW_LANG_C)
	.dwattr $C$DW$T$77, DW_AT_decl_file("C:/ti/ccsv6/tools/compiler/ti-cgt-arm_5.2.5/include/yvals.h")
	.dwattr $C$DW$T$77, DW_AT_decl_line(0x1e5)
	.dwattr $C$DW$T$77, DW_AT_decl_column(0x21)
$C$DW$T$78	.dwtag  DW_TAG_typedef, DW_AT_name("_Wintt")
	.dwattr $C$DW$T$78, DW_AT_type(*$C$DW$T$9)
	.dwattr $C$DW$T$78, DW_AT_language(DW_LANG_C)
	.dwattr $C$DW$T$78, DW_AT_decl_file("C:/ti/ccsv6/tools/compiler/ti-cgt-arm_5.2.5/include/yvals.h")
	.dwattr $C$DW$T$78, DW_AT_decl_line(0x1e6)
	.dwattr $C$DW$T$78, DW_AT_decl_column(0x21)

$C$DW$T$34	.dwtag  DW_TAG_array_type
	.dwattr $C$DW$T$34, DW_AT_type(*$C$DW$T$9)
	.dwattr $C$DW$T$34, DW_AT_language(DW_LANG_C)
	.dwattr $C$DW$T$34, DW_AT_byte_size(0x10)
$C$DW$207	.dwtag  DW_TAG_subrange_type
	.dwattr $C$DW$207, DW_AT_upper_bound(0x07)
	.dwendtag $C$DW$T$34

$C$DW$T$79	.dwtag  DW_TAG_typedef, DW_AT_name("uint16_t")
	.dwattr $C$DW$T$79, DW_AT_type(*$C$DW$T$9)
	.dwattr $C$DW$T$79, DW_AT_language(DW_LANG_C)
	.dwattr $C$DW$T$79, DW_AT_decl_file("C:/ti/ccsv6/tools/compiler/ti-cgt-arm_5.2.5/include/stdint.h")
	.dwattr $C$DW$T$79, DW_AT_decl_line(0x2d)
	.dwattr $C$DW$T$79, DW_AT_decl_column(0x1c)
$C$DW$T$80	.dwtag  DW_TAG_typedef, DW_AT_name("uint_least16_t")
	.dwattr $C$DW$T$80, DW_AT_type(*$C$DW$T$79)
	.dwattr $C$DW$T$80, DW_AT_language(DW_LANG_C)
	.dwattr $C$DW$T$80, DW_AT_decl_file("C:/ti/ccsv6/tools/compiler/ti-cgt-arm_5.2.5/include/stdint.h")
	.dwattr $C$DW$T$80, DW_AT_decl_line(0x3b)
	.dwattr $C$DW$T$80, DW_AT_decl_column(0x16)
$C$DW$T$10	.dwtag  DW_TAG_base_type
	.dwattr $C$DW$T$10, DW_AT_encoding(DW_ATE_signed)
	.dwattr $C$DW$T$10, DW_AT_name("int")
	.dwattr $C$DW$T$10, DW_AT_byte_size(0x04)
$C$DW$T$81	.dwtag  DW_TAG_typedef, DW_AT_name("INT")
	.dwattr $C$DW$T$81, DW_AT_type(*$C$DW$T$10)
	.dwattr $C$DW$T$81, DW_AT_language(DW_LANG_C)
	.dwattr $C$DW$T$81, DW_AT_decl_file("E:\Dev\Ti\TivaWare\third_party\fatfs\src\integer.h")
	.dwattr $C$DW$T$81, DW_AT_decl_line(0x10)
	.dwattr $C$DW$T$81, DW_AT_decl_column(0x10)
$C$DW$T$82	.dwtag  DW_TAG_typedef, DW_AT_name("_Ptrdifft")
	.dwattr $C$DW$T$82, DW_AT_type(*$C$DW$T$10)
	.dwattr $C$DW$T$82, DW_AT_language(DW_LANG_C)
	.dwattr $C$DW$T$82, DW_AT_decl_file("C:/ti/ccsv6/tools/compiler/ti-cgt-arm_5.2.5/include/yvals.h")
	.dwattr $C$DW$T$82, DW_AT_decl_line(0xa9)
	.dwattr $C$DW$T$82, DW_AT_decl_column(0x1e)
$C$DW$T$84	.dwtag  DW_TAG_typedef, DW_AT_name("int32_t")
	.dwattr $C$DW$T$84, DW_AT_type(*$C$DW$T$10)
	.dwattr $C$DW$T$84, DW_AT_language(DW_LANG_C)
	.dwattr $C$DW$T$84, DW_AT_decl_file("C:/ti/ccsv6/tools/compiler/ti-cgt-arm_5.2.5/include/stdint.h")
	.dwattr $C$DW$T$84, DW_AT_decl_line(0x2e)
	.dwattr $C$DW$T$84, DW_AT_decl_column(0x1d)
$C$DW$T$85	.dwtag  DW_TAG_typedef, DW_AT_name("int_fast16_t")
	.dwattr $C$DW$T$85, DW_AT_type(*$C$DW$T$84)
	.dwattr $C$DW$T$85, DW_AT_language(DW_LANG_C)
	.dwattr $C$DW$T$85, DW_AT_decl_file("C:/ti/ccsv6/tools/compiler/ti-cgt-arm_5.2.5/include/stdint.h")
	.dwattr $C$DW$T$85, DW_AT_decl_line(0x47)
	.dwattr $C$DW$T$85, DW_AT_decl_column(0x17)
$C$DW$T$86	.dwtag  DW_TAG_typedef, DW_AT_name("int_fast32_t")
	.dwattr $C$DW$T$86, DW_AT_type(*$C$DW$T$84)
	.dwattr $C$DW$T$86, DW_AT_language(DW_LANG_C)
	.dwattr $C$DW$T$86, DW_AT_decl_file("C:/ti/ccsv6/tools/compiler/ti-cgt-arm_5.2.5/include/stdint.h")
	.dwattr $C$DW$T$86, DW_AT_decl_line(0x4a)
	.dwattr $C$DW$T$86, DW_AT_decl_column(0x17)
$C$DW$T$87	.dwtag  DW_TAG_typedef, DW_AT_name("int_fast8_t")
	.dwattr $C$DW$T$87, DW_AT_type(*$C$DW$T$84)
	.dwattr $C$DW$T$87, DW_AT_language(DW_LANG_C)
	.dwattr $C$DW$T$87, DW_AT_decl_file("C:/ti/ccsv6/tools/compiler/ti-cgt-arm_5.2.5/include/stdint.h")
	.dwattr $C$DW$T$87, DW_AT_decl_line(0x45)
	.dwattr $C$DW$T$87, DW_AT_decl_column(0x17)
$C$DW$T$88	.dwtag  DW_TAG_typedef, DW_AT_name("int_least32_t")
	.dwattr $C$DW$T$88, DW_AT_type(*$C$DW$T$84)
	.dwattr $C$DW$T$88, DW_AT_language(DW_LANG_C)
	.dwattr $C$DW$T$88, DW_AT_decl_file("C:/ti/ccsv6/tools/compiler/ti-cgt-arm_5.2.5/include/stdint.h")
	.dwattr $C$DW$T$88, DW_AT_decl_line(0x3c)
	.dwattr $C$DW$T$88, DW_AT_decl_column(0x17)
$C$DW$T$89	.dwtag  DW_TAG_typedef, DW_AT_name("intptr_t")
	.dwattr $C$DW$T$89, DW_AT_type(*$C$DW$T$10)
	.dwattr $C$DW$T$89, DW_AT_language(DW_LANG_C)
	.dwattr $C$DW$T$89, DW_AT_decl_file("C:/ti/ccsv6/tools/compiler/ti-cgt-arm_5.2.5/include/stdint.h")
	.dwattr $C$DW$T$89, DW_AT_decl_line(0x52)
	.dwattr $C$DW$T$89, DW_AT_decl_column(0x1a)
$C$DW$T$11	.dwtag  DW_TAG_base_type
	.dwattr $C$DW$T$11, DW_AT_encoding(DW_ATE_unsigned)
	.dwattr $C$DW$T$11, DW_AT_name("unsigned int")
	.dwattr $C$DW$T$11, DW_AT_byte_size(0x04)
$C$DW$T$90	.dwtag  DW_TAG_typedef, DW_AT_name("UINT")
	.dwattr $C$DW$T$90, DW_AT_type(*$C$DW$T$11)
	.dwattr $C$DW$T$90, DW_AT_language(DW_LANG_C)
	.dwattr $C$DW$T$90, DW_AT_decl_file("E:\Dev\Ti\TivaWare\third_party\fatfs\src\integer.h")
	.dwattr $C$DW$T$90, DW_AT_decl_line(0x11)
	.dwattr $C$DW$T$90, DW_AT_decl_column(0x16)
$C$DW$T$91	.dwtag  DW_TAG_typedef, DW_AT_name("_Sizet")
	.dwattr $C$DW$T$91, DW_AT_type(*$C$DW$T$11)
	.dwattr $C$DW$T$91, DW_AT_language(DW_LANG_C)
	.dwattr $C$DW$T$91, DW_AT_decl_file("C:/ti/ccsv6/tools/compiler/ti-cgt-arm_5.2.5/include/yvals.h")
	.dwattr $C$DW$T$91, DW_AT_decl_line(0xab)
	.dwattr $C$DW$T$91, DW_AT_decl_column(0x1a)
$C$DW$T$92	.dwtag  DW_TAG_typedef, DW_AT_name("_TI_uint32_t")
	.dwattr $C$DW$T$92, DW_AT_type(*$C$DW$T$11)
	.dwattr $C$DW$T$92, DW_AT_language(DW_LANG_C)
	.dwattr $C$DW$T$92, DW_AT_decl_file("C:/ti/ccsv6/tools/compiler/ti-cgt-arm_5.2.5/include/ymath.h")
	.dwattr $C$DW$T$92, DW_AT_decl_line(0xb6)
	.dwattr $C$DW$T$92, DW_AT_decl_column(0x19)
$C$DW$T$49	.dwtag  DW_TAG_typedef, DW_AT_name("uint32_t")
	.dwattr $C$DW$T$49, DW_AT_type(*$C$DW$T$11)
	.dwattr $C$DW$T$49, DW_AT_language(DW_LANG_C)
	.dwattr $C$DW$T$49, DW_AT_decl_file("C:/ti/ccsv6/tools/compiler/ti-cgt-arm_5.2.5/include/stdint.h")
	.dwattr $C$DW$T$49, DW_AT_decl_line(0x2f)
	.dwattr $C$DW$T$49, DW_AT_decl_column(0x1c)
$C$DW$T$98	.dwtag  DW_TAG_volatile_type
	.dwattr $C$DW$T$98, DW_AT_type(*$C$DW$T$49)
$C$DW$T$99	.dwtag  DW_TAG_typedef, DW_AT_name("uint_fast16_t")
	.dwattr $C$DW$T$99, DW_AT_type(*$C$DW$T$49)
	.dwattr $C$DW$T$99, DW_AT_language(DW_LANG_C)
	.dwattr $C$DW$T$99, DW_AT_decl_file("C:/ti/ccsv6/tools/compiler/ti-cgt-arm_5.2.5/include/stdint.h")
	.dwattr $C$DW$T$99, DW_AT_decl_line(0x48)
	.dwattr $C$DW$T$99, DW_AT_decl_column(0x16)
$C$DW$T$100	.dwtag  DW_TAG_typedef, DW_AT_name("uint_fast32_t")
	.dwattr $C$DW$T$100, DW_AT_type(*$C$DW$T$49)
	.dwattr $C$DW$T$100, DW_AT_language(DW_LANG_C)
	.dwattr $C$DW$T$100, DW_AT_decl_file("C:/ti/ccsv6/tools/compiler/ti-cgt-arm_5.2.5/include/stdint.h")
	.dwattr $C$DW$T$100, DW_AT_decl_line(0x4b)
	.dwattr $C$DW$T$100, DW_AT_decl_column(0x16)
$C$DW$T$101	.dwtag  DW_TAG_typedef, DW_AT_name("uint_fast8_t")
	.dwattr $C$DW$T$101, DW_AT_type(*$C$DW$T$49)
	.dwattr $C$DW$T$101, DW_AT_language(DW_LANG_C)
	.dwattr $C$DW$T$101, DW_AT_decl_file("C:/ti/ccsv6/tools/compiler/ti-cgt-arm_5.2.5/include/stdint.h")
	.dwattr $C$DW$T$101, DW_AT_decl_line(0x46)
	.dwattr $C$DW$T$101, DW_AT_decl_column(0x16)
$C$DW$T$102	.dwtag  DW_TAG_typedef, DW_AT_name("uint_least32_t")
	.dwattr $C$DW$T$102, DW_AT_type(*$C$DW$T$49)
	.dwattr $C$DW$T$102, DW_AT_language(DW_LANG_C)
	.dwattr $C$DW$T$102, DW_AT_decl_file("C:/ti/ccsv6/tools/compiler/ti-cgt-arm_5.2.5/include/stdint.h")
	.dwattr $C$DW$T$102, DW_AT_decl_line(0x3d)
	.dwattr $C$DW$T$102, DW_AT_decl_column(0x16)
$C$DW$T$103	.dwtag  DW_TAG_typedef, DW_AT_name("uintptr_t")
	.dwattr $C$DW$T$103, DW_AT_type(*$C$DW$T$11)
	.dwattr $C$DW$T$103, DW_AT_language(DW_LANG_C)
	.dwattr $C$DW$T$103, DW_AT_decl_file("C:/ti/ccsv6/tools/compiler/ti-cgt-arm_5.2.5/include/stdint.h")
	.dwattr $C$DW$T$103, DW_AT_decl_line(0x53)
	.dwattr $C$DW$T$103, DW_AT_decl_column(0x1a)
$C$DW$T$12	.dwtag  DW_TAG_base_type
	.dwattr $C$DW$T$12, DW_AT_encoding(DW_ATE_signed)
	.dwattr $C$DW$T$12, DW_AT_name("long")
	.dwattr $C$DW$T$12, DW_AT_byte_size(0x04)
$C$DW$T$104	.dwtag  DW_TAG_typedef, DW_AT_name("LONG")
	.dwattr $C$DW$T$104, DW_AT_type(*$C$DW$T$12)
	.dwattr $C$DW$T$104, DW_AT_language(DW_LANG_C)
	.dwattr $C$DW$T$104, DW_AT_decl_file("E:\Dev\Ti\TivaWare\third_party\fatfs\src\integer.h")
	.dwattr $C$DW$T$104, DW_AT_decl_line(0x1f)
	.dwattr $C$DW$T$104, DW_AT_decl_column(0x10)
$C$DW$T$105	.dwtag  DW_TAG_typedef, DW_AT_name("_Int32t")
	.dwattr $C$DW$T$105, DW_AT_type(*$C$DW$T$12)
	.dwattr $C$DW$T$105, DW_AT_language(DW_LANG_C)
	.dwattr $C$DW$T$105, DW_AT_decl_file("C:/ti/ccsv6/tools/compiler/ti-cgt-arm_5.2.5/include/yvals.h")
	.dwattr $C$DW$T$105, DW_AT_decl_line(0xa6)
	.dwattr $C$DW$T$105, DW_AT_decl_column(0x0e)
$C$DW$T$13	.dwtag  DW_TAG_base_type
	.dwattr $C$DW$T$13, DW_AT_encoding(DW_ATE_unsigned)
	.dwattr $C$DW$T$13, DW_AT_name("unsigned long")
	.dwattr $C$DW$T$13, DW_AT_byte_size(0x04)
$C$DW$T$22	.dwtag  DW_TAG_typedef, DW_AT_name("DWORD")
	.dwattr $C$DW$T$22, DW_AT_type(*$C$DW$T$13)
	.dwattr $C$DW$T$22, DW_AT_language(DW_LANG_C)
	.dwattr $C$DW$T$22, DW_AT_decl_file("E:\Dev\Ti\TivaWare\third_party\fatfs\src\integer.h")
	.dwattr $C$DW$T$22, DW_AT_decl_line(0x21)
	.dwattr $C$DW$T$22, DW_AT_decl_column(0x17)
$C$DW$T$106	.dwtag  DW_TAG_typedef, DW_AT_name("ULONG")
	.dwattr $C$DW$T$106, DW_AT_type(*$C$DW$T$13)
	.dwattr $C$DW$T$106, DW_AT_language(DW_LANG_C)
	.dwattr $C$DW$T$106, DW_AT_decl_file("E:\Dev\Ti\TivaWare\third_party\fatfs\src\integer.h")
	.dwattr $C$DW$T$106, DW_AT_decl_line(0x20)
	.dwattr $C$DW$T$106, DW_AT_decl_column(0x17)
$C$DW$T$107	.dwtag  DW_TAG_typedef, DW_AT_name("_Uint32t")
	.dwattr $C$DW$T$107, DW_AT_type(*$C$DW$T$13)
	.dwattr $C$DW$T$107, DW_AT_language(DW_LANG_C)
	.dwattr $C$DW$T$107, DW_AT_decl_file("C:/ti/ccsv6/tools/compiler/ti-cgt-arm_5.2.5/include/yvals.h")
	.dwattr $C$DW$T$107, DW_AT_decl_line(0xa7)
	.dwattr $C$DW$T$107, DW_AT_decl_column(0x17)
$C$DW$T$14	.dwtag  DW_TAG_base_type
	.dwattr $C$DW$T$14, DW_AT_encoding(DW_ATE_signed)
	.dwattr $C$DW$T$14, DW_AT_name("long long")
	.dwattr $C$DW$T$14, DW_AT_byte_size(0x08)
$C$DW$T$108	.dwtag  DW_TAG_typedef, DW_AT_name("_Longlong")
	.dwattr $C$DW$T$108, DW_AT_type(*$C$DW$T$14)
	.dwattr $C$DW$T$108, DW_AT_language(DW_LANG_C)
	.dwattr $C$DW$T$108, DW_AT_decl_file("C:/ti/ccsv6/tools/compiler/ti-cgt-arm_5.2.5/include/yvals.h")
	.dwattr $C$DW$T$108, DW_AT_decl_line(0x1b5)
	.dwattr $C$DW$T$108, DW_AT_decl_column(0x13)
$C$DW$T$109	.dwtag  DW_TAG_typedef, DW_AT_name("int64_t")
	.dwattr $C$DW$T$109, DW_AT_type(*$C$DW$T$14)
	.dwattr $C$DW$T$109, DW_AT_language(DW_LANG_C)
	.dwattr $C$DW$T$109, DW_AT_decl_file("C:/ti/ccsv6/tools/compiler/ti-cgt-arm_5.2.5/include/stdint.h")
	.dwattr $C$DW$T$109, DW_AT_decl_line(0x32)
	.dwattr $C$DW$T$109, DW_AT_decl_column(0x21)
$C$DW$T$110	.dwtag  DW_TAG_typedef, DW_AT_name("int_fast64_t")
	.dwattr $C$DW$T$110, DW_AT_type(*$C$DW$T$109)
	.dwattr $C$DW$T$110, DW_AT_language(DW_LANG_C)
	.dwattr $C$DW$T$110, DW_AT_decl_file("C:/ti/ccsv6/tools/compiler/ti-cgt-arm_5.2.5/include/stdint.h")
	.dwattr $C$DW$T$110, DW_AT_decl_line(0x4e)
	.dwattr $C$DW$T$110, DW_AT_decl_column(0x17)
$C$DW$T$111	.dwtag  DW_TAG_typedef, DW_AT_name("int_least64_t")
	.dwattr $C$DW$T$111, DW_AT_type(*$C$DW$T$109)
	.dwattr $C$DW$T$111, DW_AT_language(DW_LANG_C)
	.dwattr $C$DW$T$111, DW_AT_decl_file("C:/ti/ccsv6/tools/compiler/ti-cgt-arm_5.2.5/include/stdint.h")
	.dwattr $C$DW$T$111, DW_AT_decl_line(0x40)
	.dwattr $C$DW$T$111, DW_AT_decl_column(0x17)
$C$DW$T$112	.dwtag  DW_TAG_typedef, DW_AT_name("intmax_t")
	.dwattr $C$DW$T$112, DW_AT_type(*$C$DW$T$14)
	.dwattr $C$DW$T$112, DW_AT_language(DW_LANG_C)
	.dwattr $C$DW$T$112, DW_AT_decl_file("C:/ti/ccsv6/tools/compiler/ti-cgt-arm_5.2.5/include/stdint.h")
	.dwattr $C$DW$T$112, DW_AT_decl_line(0x56)
	.dwattr $C$DW$T$112, DW_AT_decl_column(0x20)
$C$DW$T$15	.dwtag  DW_TAG_base_type
	.dwattr $C$DW$T$15, DW_AT_encoding(DW_ATE_unsigned)
	.dwattr $C$DW$T$15, DW_AT_name("unsigned long long")
	.dwattr $C$DW$T$15, DW_AT_byte_size(0x08)
$C$DW$T$113	.dwtag  DW_TAG_typedef, DW_AT_name("_TI_uint64_t")
	.dwattr $C$DW$T$113, DW_AT_type(*$C$DW$T$15)
	.dwattr $C$DW$T$113, DW_AT_language(DW_LANG_C)
	.dwattr $C$DW$T$113, DW_AT_decl_file("C:/ti/ccsv6/tools/compiler/ti-cgt-arm_5.2.5/include/ymath.h")
	.dwattr $C$DW$T$113, DW_AT_decl_line(0xbc)
	.dwattr $C$DW$T$113, DW_AT_decl_column(0x1c)
$C$DW$T$114	.dwtag  DW_TAG_typedef, DW_AT_name("_ULonglong")
	.dwattr $C$DW$T$114, DW_AT_type(*$C$DW$T$15)
	.dwattr $C$DW$T$114, DW_AT_language(DW_LANG_C)
	.dwattr $C$DW$T$114, DW_AT_decl_file("C:/ti/ccsv6/tools/compiler/ti-cgt-arm_5.2.5/include/yvals.h")
	.dwattr $C$DW$T$114, DW_AT_decl_line(0x1b6)
	.dwattr $C$DW$T$114, DW_AT_decl_column(0x14)
$C$DW$T$115	.dwtag  DW_TAG_typedef, DW_AT_name("uint64_t")
	.dwattr $C$DW$T$115, DW_AT_type(*$C$DW$T$15)
	.dwattr $C$DW$T$115, DW_AT_language(DW_LANG_C)
	.dwattr $C$DW$T$115, DW_AT_decl_file("C:/ti/ccsv6/tools/compiler/ti-cgt-arm_5.2.5/include/stdint.h")
	.dwattr $C$DW$T$115, DW_AT_decl_line(0x33)
	.dwattr $C$DW$T$115, DW_AT_decl_column(0x20)
$C$DW$T$116	.dwtag  DW_TAG_typedef, DW_AT_name("uint_fast64_t")
	.dwattr $C$DW$T$116, DW_AT_type(*$C$DW$T$115)
	.dwattr $C$DW$T$116, DW_AT_language(DW_LANG_C)
	.dwattr $C$DW$T$116, DW_AT_decl_file("C:/ti/ccsv6/tools/compiler/ti-cgt-arm_5.2.5/include/stdint.h")
	.dwattr $C$DW$T$116, DW_AT_decl_line(0x4f)
	.dwattr $C$DW$T$116, DW_AT_decl_column(0x16)
$C$DW$T$117	.dwtag  DW_TAG_typedef, DW_AT_name("uint_least64_t")
	.dwattr $C$DW$T$117, DW_AT_type(*$C$DW$T$115)
	.dwattr $C$DW$T$117, DW_AT_language(DW_LANG_C)
	.dwattr $C$DW$T$117, DW_AT_decl_file("C:/ti/ccsv6/tools/compiler/ti-cgt-arm_5.2.5/include/stdint.h")
	.dwattr $C$DW$T$117, DW_AT_decl_line(0x41)
	.dwattr $C$DW$T$117, DW_AT_decl_column(0x16)
$C$DW$T$118	.dwtag  DW_TAG_typedef, DW_AT_name("uintmax_t")
	.dwattr $C$DW$T$118, DW_AT_type(*$C$DW$T$15)
	.dwattr $C$DW$T$118, DW_AT_language(DW_LANG_C)
	.dwattr $C$DW$T$118, DW_AT_decl_file("C:/ti/ccsv6/tools/compiler/ti-cgt-arm_5.2.5/include/stdint.h")
	.dwattr $C$DW$T$118, DW_AT_decl_line(0x57)
	.dwattr $C$DW$T$118, DW_AT_decl_column(0x20)
$C$DW$T$16	.dwtag  DW_TAG_base_type
	.dwattr $C$DW$T$16, DW_AT_encoding(DW_ATE_float)
	.dwattr $C$DW$T$16, DW_AT_name("float")
	.dwattr $C$DW$T$16, DW_AT_byte_size(0x04)
$C$DW$T$121	.dwtag  DW_TAG_typedef, DW_AT_name("float_t")
	.dwattr $C$DW$T$121, DW_AT_type(*$C$DW$T$16)
	.dwattr $C$DW$T$121, DW_AT_language(DW_LANG_C)
	.dwattr $C$DW$T$121, DW_AT_decl_file("C:/ti/ccsv6/tools/compiler/ti-cgt-arm_5.2.5/include/math.h")
	.dwattr $C$DW$T$121, DW_AT_decl_line(0x69)
	.dwattr $C$DW$T$121, DW_AT_decl_column(0x0f)
$C$DW$T$17	.dwtag  DW_TAG_base_type
	.dwattr $C$DW$T$17, DW_AT_encoding(DW_ATE_float)
	.dwattr $C$DW$T$17, DW_AT_name("double")
	.dwattr $C$DW$T$17, DW_AT_byte_size(0x08)
$C$DW$T$122	.dwtag  DW_TAG_typedef, DW_AT_name("double_t")
	.dwattr $C$DW$T$122, DW_AT_type(*$C$DW$T$17)
	.dwattr $C$DW$T$122, DW_AT_language(DW_LANG_C)
	.dwattr $C$DW$T$122, DW_AT_decl_file("C:/ti/ccsv6/tools/compiler/ti-cgt-arm_5.2.5/include/math.h")
	.dwattr $C$DW$T$122, DW_AT_decl_line(0x6a)
	.dwattr $C$DW$T$122, DW_AT_decl_column(0x10)
$C$DW$T$18	.dwtag  DW_TAG_base_type
	.dwattr $C$DW$T$18, DW_AT_encoding(DW_ATE_float)
	.dwattr $C$DW$T$18, DW_AT_name("long double")
	.dwattr $C$DW$T$18, DW_AT_byte_size(0x08)
$C$DW$T$127	.dwtag  DW_TAG_typedef, DW_AT_name("CHAR")
	.dwattr $C$DW$T$127, DW_AT_type(*$C$DW$T$6)
	.dwattr $C$DW$T$127, DW_AT_language(DW_LANG_C)
	.dwattr $C$DW$T$127, DW_AT_decl_file("E:\Dev\Ti\TivaWare\third_party\fatfs\src\integer.h")
	.dwattr $C$DW$T$127, DW_AT_decl_line(0x14)
	.dwattr $C$DW$T$127, DW_AT_decl_column(0x10)
$C$DW$T$31	.dwtag  DW_TAG_typedef, DW_AT_name("TCHAR")
	.dwattr $C$DW$T$31, DW_AT_type(*$C$DW$T$6)
	.dwattr $C$DW$T$31, DW_AT_language(DW_LANG_C)
	.dwattr $C$DW$T$31, DW_AT_decl_file("E:/Dev/Ti/TivaWare/third_party/fatfs/src/ff.h")
	.dwattr $C$DW$T$31, DW_AT_decl_line(0x42)
	.dwattr $C$DW$T$31, DW_AT_decl_column(0x0e)

$C$DW$T$32	.dwtag  DW_TAG_array_type
	.dwattr $C$DW$T$32, DW_AT_type(*$C$DW$T$31)
	.dwattr $C$DW$T$32, DW_AT_language(DW_LANG_C)
	.dwattr $C$DW$T$32, DW_AT_byte_size(0x0d)
$C$DW$208	.dwtag  DW_TAG_subrange_type
	.dwattr $C$DW$208, DW_AT_upper_bound(0x0c)
	.dwendtag $C$DW$T$32

$C$DW$T$128	.dwtag  DW_TAG_typedef, DW_AT_name("_Sysch_t")
	.dwattr $C$DW$T$128, DW_AT_type(*$C$DW$T$6)
	.dwattr $C$DW$T$128, DW_AT_language(DW_LANG_C)
	.dwattr $C$DW$T$128, DW_AT_decl_file("C:/ti/ccsv6/tools/compiler/ti-cgt-arm_5.2.5/include/yvals.h")
	.dwattr $C$DW$T$128, DW_AT_decl_line(0x218)
	.dwattr $C$DW$T$128, DW_AT_decl_column(0x0e)
$C$DW$T$61	.dwtag  DW_TAG_pointer_type
	.dwattr $C$DW$T$61, DW_AT_type(*$C$DW$T$6)
	.dwattr $C$DW$T$61, DW_AT_address_class(0x20)
$C$DW$T$129	.dwtag  DW_TAG_typedef, DW_AT_name("__builtin_va_list")
	.dwattr $C$DW$T$129, DW_AT_type(*$C$DW$T$61)
	.dwattr $C$DW$T$129, DW_AT_language(DW_LANG_C)
	.dwattr $C$DW$T$129, DW_AT_decl_file("../timers.c")
	.dwattr $C$DW$T$129, DW_AT_decl_line(0xba)
	.dwattr $C$DW$T$129, DW_AT_decl_column(0x01)
$C$DW$T$123	.dwtag  DW_TAG_base_type
	.dwattr $C$DW$T$123, DW_AT_encoding(DW_ATE_unsigned_char)
	.dwattr $C$DW$T$123, DW_AT_name("unsigned char")
	.dwattr $C$DW$T$123, DW_AT_byte_size(0x01)
$C$DW$T$126	.dwtag  DW_TAG_volatile_type
	.dwattr $C$DW$T$126, DW_AT_type(*$C$DW$T$123)

$C$DW$T$37	.dwtag  DW_TAG_structure_type
	.dwattr $C$DW$T$37, DW_AT_name("__va_list")
	.dwattr $C$DW$T$37, DW_AT_byte_size(0x04)
$C$DW$209	.dwtag  DW_TAG_member
	.dwattr $C$DW$209, DW_AT_type(*$C$DW$T$3)
	.dwattr $C$DW$209, DW_AT_name("__ap")
	.dwattr $C$DW$209, DW_AT_TI_symbol_name("__ap")
	.dwattr $C$DW$209, DW_AT_data_member_location[DW_OP_plus_uconst 0x0]
	.dwattr $C$DW$209, DW_AT_accessibility(DW_ACCESS_public)
	.dwattr $C$DW$209, DW_AT_decl_file("C:/ti/ccsv6/tools/compiler/ti-cgt-arm_5.2.5/include/stdarg.h")
	.dwattr $C$DW$209, DW_AT_decl_line(0x36)
	.dwattr $C$DW$209, DW_AT_decl_column(0x0c)
	.dwendtag $C$DW$T$37

	.dwattr $C$DW$T$37, DW_AT_decl_file("C:/ti/ccsv6/tools/compiler/ti-cgt-arm_5.2.5/include/stdarg.h")
	.dwattr $C$DW$T$37, DW_AT_decl_line(0x35)
	.dwattr $C$DW$T$37, DW_AT_decl_column(0x10)
$C$DW$T$130	.dwtag  DW_TAG_typedef, DW_AT_name("va_list")
	.dwattr $C$DW$T$130, DW_AT_type(*$C$DW$T$37)
	.dwattr $C$DW$T$130, DW_AT_language(DW_LANG_C)
	.dwattr $C$DW$T$130, DW_AT_decl_file("C:/ti/ccsv6/tools/compiler/ti-cgt-arm_5.2.5/include/stdarg.h")
	.dwattr $C$DW$T$130, DW_AT_decl_line(0x37)
	.dwattr $C$DW$T$130, DW_AT_decl_column(0x03)
$C$DW$T$131	.dwtag  DW_TAG_typedef, DW_AT_name("_Va_list")
	.dwattr $C$DW$T$131, DW_AT_type(*$C$DW$T$130)
	.dwattr $C$DW$T$131, DW_AT_language(DW_LANG_C)
	.dwattr $C$DW$T$131, DW_AT_decl_file("C:/ti/ccsv6/tools/compiler/ti-cgt-arm_5.2.5/include/yvals.h")
	.dwattr $C$DW$T$131, DW_AT_decl_line(0x1f6)
	.dwattr $C$DW$T$131, DW_AT_decl_column(0x17)
	.dwattr $C$DW$CU, DW_AT_language(DW_LANG_C)

;***************************************************************
;* DWARF CIE ENTRIES                                           *
;***************************************************************

$C$DW$CIE	.dwcie 14
	.dwcfi	cfa_register, 13
	.dwcfi	cfa_offset, 0
	.dwcfi	undefined, 0
	.dwcfi	undefined, 1
	.dwcfi	undefined, 2
	.dwcfi	undefined, 3
	.dwcfi	same_value, 4
	.dwcfi	same_value, 5
	.dwcfi	same_value, 6
	.dwcfi	same_value, 7
	.dwcfi	same_value, 8
	.dwcfi	same_value, 9
	.dwcfi	same_value, 10
	.dwcfi	same_value, 11
	.dwcfi	undefined, 12
	.dwcfi	undefined, 13
	.dwcfi	undefined, 14
	.dwcfi	undefined, 14
	.dwcfi	undefined, 7
	.dwcfi	undefined, 64
	.dwcfi	undefined, 65
	.dwcfi	undefined, 66
	.dwcfi	undefined, 67
	.dwcfi	undefined, 68
	.dwcfi	undefined, 69
	.dwcfi	undefined, 70
	.dwcfi	undefined, 71
	.dwcfi	undefined, 72
	.dwcfi	undefined, 73
	.dwcfi	undefined, 74
	.dwcfi	undefined, 75
	.dwcfi	undefined, 76
	.dwcfi	undefined, 77
	.dwcfi	undefined, 78
	.dwcfi	undefined, 79
	.dwcfi	same_value, 80
	.dwcfi	same_value, 81
	.dwcfi	same_value, 82
	.dwcfi	same_value, 83
	.dwcfi	same_value, 84
	.dwcfi	same_value, 85
	.dwcfi	same_value, 86
	.dwcfi	same_value, 87
	.dwcfi	same_value, 88
	.dwcfi	same_value, 89
	.dwcfi	same_value, 90
	.dwcfi	same_value, 91
	.dwcfi	same_value, 92
	.dwcfi	same_value, 93
	.dwcfi	same_value, 94
	.dwcfi	same_value, 95
	.dwendentry
	.dwendtag $C$DW$CU

